csympy.sets.sets
Complement
p0
(csympy.sets.sets
FiniteSet
p1
(csympy.core.add
Add
p2
(csympy.core.mul
Mul
p3
(csympy.core.numbers
Half
p4
(I1
I2
tp5
Rp6
(dp7
bcsympy.core.power
Pow
p8
(g2
(g3
(csympy.core.symbol
Symbol
p9
(S'\\bar{g}_e'
p10
tp11
Rp12
(dp13
S'_assumptions'
p14
ccopy_reg
_reconstructor
p15
(csympy.core.assumptions
StdFactKB
p16
c__builtin__
dict
p17
(dp18
S'real'
p19
I01
sS'even'
p20
NsS'irrational'
p21
NsS'antihermitian'
p22
NsS'nonpositive'
p23
I00
sS'negative'
p24
I00
sS'algebraic'
p25
NsS'zero'
p26
I00
sS'infinite'
p27
NsS'integer'
p28
NsS'imaginary'
p29
I00
sS'odd'
p30
NsS'nonzero'
p31
I01
sS'commutative'
p32
I01
sS'positive'
p33
I01
sS'hermitian'
p34
I01
sS'nonnegative'
p35
I01
sS'prime'
p36
NsS'complex'
p37
I01
sS'rational'
p38
NsS'finite'
p39
Nstp40
Rp41
(dp42
S'_generator'
p43
(dp44
g19
I01
sg33
I01
ssbsbg8
(g9
(S'\\tau_{ed}'
p45
tp46
Rp47
(dp48
g14
g15
(g16
g17
(dp49
g19
I01
sS'polar'
p50
Nsg34
I01
sg21
Nsg22
Nsg23
I00
sg20
Nsg25
Nsg26
I00
sg27
Nsg28
Nsg29
I00
sg30
Nsg31
I01
sg32
I01
sg33
I01
sg24
I00
sg35
I01
sg36
Nsg37
I01
sg38
Nsg39
Nstp51
Rp52
(dp53
g43
(dp54
g19
I01
sg33
I01
ssbsbg2
(csympy.core.numbers
One
p55
(I1
tp56
Rp57
(dp58
bg3
(g47
g8
(g2
(g47
g3
(csympy.core.numbers
NegativeOne
p59
(I-1
tp60
Rp61
(dp62
bg9
(S'\\tau_{er}'
p63
tp64
Rp65
(dp66
g14
g15
(g16
g17
(dp67
g19
I01
sg50
Nsg34
I01
sg21
Nsg22
Nsg23
I00
sg20
Nsg25
Nsg26
I00
sg27
Nsg28
Nsg29
I00
sg30
Nsg31
I01
sg32
I01
sg33
I01
sg24
I00
sg35
I01
sg36
Nsg37
I01
sg38
Nsg39
Nstp68
Rp69
(dp70
g43
(dp71
g19
I01
sg33
I01
ssbsbtp72
Rp73
(dp74
btp75
Rp76
(dp77
bg61
tp78
Rp79
(dp80
btp81
Rp82
(dp83
bg3
(g65
g79
tp84
Rp85
(dp86
btp87
Rp88
(dp89
btp90
Rp91
(dp92
bg8
(g9
(S'\\tau_{id}'
p93
tp94
Rp95
(dp96
g14
g15
(g16
g17
(dp97
g19
I01
sg50
Nsg34
I01
sg21
Nsg22
Nsg23
I00
sg20
Nsg25
Nsg26
I00
sg27
Nsg28
Nsg29
I00
sg30
Nsg31
I01
sg32
I01
sg33
I01
sg24
I00
sg35
I01
sg36
Nsg37
I01
sg38
Nsg39
Nstp98
Rp99
(dp100
g43
(dp101
g19
I01
sg33
I01
ssbsbg3
(g95
g8
(g2
(g95
g3
(g61
g9
(S'\\tau_{ir}'
p102
tp103
Rp104
(dp105
g14
g15
(g16
g17
(dp106
g19
I01
sg50
Nsg34
I01
sg21
Nsg22
Nsg23
I00
sg20
Nsg25
Nsg26
I00
sg27
Nsg28
Nsg29
I00
sg30
Nsg31
I01
sg32
I01
sg33
I01
sg24
I00
sg35
I01
sg36
Nsg37
I01
sg38
Nsg39
Nstp107
Rp108
(dp109
g43
(dp110
g19
I01
sg33
I01
ssbsbtp111
Rp112
(dp113
btp114
Rp115
(dp116
bg61
tp117
Rp118
(dp119
btp120
Rp121
(dp122
btp123
Rp124
(dp125
bg8
(g104
g3
(g104
g118
tp126
Rp127
(dp128
btp129
Rp130
(dp131
btp132
Rp133
(dp134
bg3
(g9
(S'\\bar{g}_i'
p135
tp136
Rp137
(dp138
g14
g15
(g16
g17
(dp139
g19
I01
sg20
Nsg21
Nsg22
Nsg23
I00
sg24
I00
sg25
Nsg26
I00
sg27
Nsg28
Nsg29
I00
sg30
Nsg31
I01
sg32
I01
sg33
I01
sg34
I01
sg35
I01
sg36
Nsg37
I01
sg38
Nsg39
Nstp140
Rp141
(dp142
g43
(dp143
g19
I01
sg33
I01
ssbsbg8
(g47
g85
tp144
Rp145
(dp146
bg8
(g65
g82
tp147
Rp148
(dp149
bg8
(g95
g2
(g57
g121
g127
tp150
Rp151
(dp152
btp153
Rp154
(dp155
btp156
Rp157
(dp158
bg3
(g61
g12
g91
g8
(g95
g127
tp159
Rp160
(dp161
bg8
(g104
g121
tp162
Rp163
(dp164
btp165
Rp166
(dp167
bg3
(g61
g137
g8
(g47
g82
tp168
Rp169
(dp170
bg8
(g65
g85
tp171
Rp172
(dp173
bg154
tp174
Rp175
(dp176
bg3
(g12
g65
g8
(g47
g3
(g79
g2
(g47
g65
tp177
Rp178
(dp179
btp180
Rp181
(dp182
btp183
Rp184
(dp185
bg160
g163
tp186
Rp187
(dp188
bg3
(g137
g104
g169
g172
g8
(g95
g3
(g118
g2
(g95
g104
tp189
Rp190
(dp191
btp192
Rp193
(dp194
btp195
Rp196
(dp197
btp198
Rp199
(dp200
bg3
(g61
g12
g65
g184
g124
g130
tp201
Rp202
(dp203
bg3
(g61
g137
g104
g145
g148
g196
tp204
Rp205
(dp206
btp207
Rp208
(dp209
bg61
tp210
Rp211
(dp212
bg2
(g3
(g12
g8
(g47
g3
(csympy.core.numbers
Integer
p213
(I2
tp214
Rp215
(dp216
bg47
g79
tp217
Rp218
(dp219
btp220
Rp221
(dp222
bg8
(g95
g3
(g118
g2
(g112
g3
(g215
g95
tp223
Rp224
(dp225
btp226
Rp227
(dp228
btp229
Rp230
(dp231
btp232
Rp233
(dp234
bg130
tp235
Rp236
(dp237
bg3
(g137
g145
g8
(g65
g3
(g79
g2
(g73
g3
(g215
g47
tp238
Rp239
(dp240
btp241
Rp242
(dp243
btp244
Rp245
(dp246
btp247
Rp248
(dp249
bg8
(g95
g3
(g215
g95
g118
tp250
Rp251
(dp252
btp253
Rp254
(dp255
btp256
Rp257
(dp258
bg3
(g61
g12
g221
g160
g8
(g104
g230
tp259
Rp260
(dp261
btp262
Rp263
(dp264
bg3
(g61
g137
g8
(g47
g245
tp265
Rp266
(dp267
bg172
g254
tp268
Rp269
(dp270
bg3
(g12
g65
g184
g160
g260
tp271
Rp272
(dp273
bg3
(g137
g104
g266
g172
g196
tp274
Rp275
(dp276
bg3
(g61
g12
g65
g184
g233
g130
tp277
Rp278
(dp279
bg3
(g61
g137
g104
g145
g248
g196
tp280
Rp281
(dp282
bg3
(g213
(I-2
tp283
Rp284
(dp285
bg12
g9
(S'\\delta_i'
p286
tp287
Rp288
(dp289
g14
g15
(g16
g17
(dp290
g19
I01
sg50
Nsg34
I01
sg21
Nsg22
Nsg23
I00
sg20
Nsg25
Nsg26
I00
sg27
Nsg28
Nsg29
I00
sg30
Nsg31
I01
sg32
I01
sg33
I01
sg24
I00
sg35
I01
sg36
Nsg37
I01
sg38
Nsg39
Nstp291
Rp292
(dp293
g43
(dp294
g19
I01
sg33
I01
ssbsbg221
g160
g163
tp295
Rp296
(dp297
bg3
(g215
g12
g288
g221
g124
g130
tp298
Rp299
(dp300
bg3
(g284
g12
g288
g65
g184
g124
g130
tp301
Rp302
(dp303
bg3
(g215
g12
g288
g65
g184
g160
g163
tp304
Rp305
(dp306
btp307
Rp308
(dp309
btp310
Rp311
(dp312
bg3
(csympy.core.numbers
Rational
p313
(I-1
I2
tp314
Rp315
(dp316
bg8
(g2
(g8
(g2
(g3
(g12
g91
g160
g8
(g104
g2
(g57
g121
tp317
Rp318
(dp319
btp320
Rp321
(dp322
btp323
Rp324
(dp325
bg3
(g12
g91
g8
(g95
g2
(g57
g127
tp326
Rp327
(dp328
btp329
Rp330
(dp331
bg163
tp332
Rp333
(dp334
bg3
(g137
g169
g8
(g65
g2
(g57
g85
tp335
Rp336
(dp337
btp338
Rp339
(dp340
bg154
tp341
Rp342
(dp343
bg3
(g137
g8
(g47
g2
(g57
g82
tp344
Rp345
(dp346
btp347
Rp348
(dp349
bg172
g154
tp350
Rp351
(dp352
bg3
(g61
g12
g91
g124
g8
(g104
g327
tp353
Rp354
(dp355
btp356
Rp357
(dp358
bg3
(g61
g12
g91
g8
(g95
g318
tp359
Rp360
(dp361
bg130
tp362
Rp363
(dp364
bg3
(g61
g137
g145
g8
(g65
g345
tp365
Rp366
(dp367
bg154
tp368
Rp369
(dp370
bg3
(g61
g137
g8
(g47
g336
tp371
Rp372
(dp373
bg148
g154
tp374
Rp375
(dp376
bg3
(g12
g65
g184
g124
g354
tp377
Rp378
(dp379
bg3
(g12
g65
g184
g360
g130
tp380
Rp381
(dp382
bg3
(g137
g104
g145
g366
g196
tp383
Rp384
(dp385
bg3
(g137
g104
g372
g148
g196
tp386
Rp387
(dp388
bg3
(g61
g12
g65
g184
g160
g321
tp389
Rp390
(dp391
bg3
(g61
g12
g65
g184
g330
g163
tp392
Rp393
(dp394
bg3
(g61
g137
g104
g169
g339
g196
tp395
Rp396
(dp397
bg3
(g61
g137
g104
g348
g172
g196
tp398
Rp399
(dp400
bg3
(g284
g12
g288
g91
g124
g130
tp401
Rp402
(dp403
bg3
(g215
g12
g288
g91
g160
g163
tp404
Rp405
(dp406
bg3
(g284
g12
g288
g65
g184
g160
g163
tp407
Rp408
(dp409
bg3
(g215
g12
g288
g65
g184
g124
g130
tp410
Rp411
(dp412
btp413
Rp414
(dp415
bg215
tp416
Rp417
(dp418
bg3
(g213
(I-4
tp419
Rp420
(dp421
bg2
(g3
(g12
g221
g124
g130
tp422
Rp423
(dp424
bg3
(g137
g145
g148
g254
tp425
Rp426
(dp427
bg3
(g61
g12
g221
g160
g163
tp428
Rp429
(dp430
bg3
(g61
g137
g169
g172
g254
tp431
Rp432
(dp433
bg3
(g12
g65
g184
g160
g163
tp434
Rp435
(dp436
bg3
(g137
g104
g169
g172
g196
tp437
Rp438
(dp439
bg3
(g61
g12
g65
g184
g124
g130
tp440
Rp441
(dp442
bg3
(g61
g137
g104
g145
g148
g196
tp443
Rp444
(dp445
btp446
Rp447
(dp448
bg2
(g3
(g12
g221
g233
g163
tp449
Rp450
(dp451
bg3
(g137
g169
g248
g254
tp452
Rp453
(dp454
bg3
(g61
g12
g221
g124
g260
tp455
Rp456
(dp457
bg3
(g61
g137
g266
g148
g254
tp458
Rp459
(dp460
bg3
(g12
g288
g221
g233
g130
tp461
Rp462
(dp463
bg3
(g12
g65
g184
g124
g260
tp464
Rp465
(dp466
bg3
(g12
g8
(g288
g215
tp467
Rp468
(dp469
bg221
g124
g130
tp470
Rp471
(dp472
bg3
(g137
g104
g266
g148
g196
tp473
Rp474
(dp475
bg3
(g61
g12
g288
g221
g160
g260
tp476
Rp477
(dp478
bg3
(g61
g12
g65
g184
g233
g163
tp479
Rp480
(dp481
bg3
(g61
g12
g468
g221
g160
g163
tp482
Rp483
(dp484
bg3
(g61
g137
g104
g169
g248
g196
tp485
Rp486
(dp487
bg3
(g12
g288
g65
g184
g160
g260
tp488
Rp489
(dp490
bg3
(g12
g65
g468
g184
g160
g163
tp491
Rp492
(dp493
bg3
(g61
g12
g288
g65
g184
g233
g130
tp494
Rp495
(dp496
bg3
(g61
g12
g65
g468
g184
g124
g130
tp497
Rp498
(dp499
btp500
Rp501
(dp502
btp503
Rp504
(dp505
btp506
Rp507
(dp508
bg6
tp509
Rp510
(dp511
bg8
(g2
(g3
(g12
g47
g169
g145
g124
g130
tp512
Rp513
(dp514
bg3
(g12
g65
g169
g145
g160
g163
tp515
Rp516
(dp517
bg3
(g137
g95
g145
g148
g124
g160
tp518
Rp519
(dp520
bg3
(g137
g104
g169
g172
g124
g160
tp521
Rp522
(dp523
bg3
(g61
g12
g47
g169
g145
g160
g163
tp524
Rp525
(dp526
bg3
(g61
g12
g65
g169
g145
g124
g130
tp527
Rp528
(dp529
bg3
(g61
g137
g95
g169
g172
g124
g160
tp530
Rp531
(dp532
bg3
(g61
g137
g104
g145
g148
g124
g160
tp533
Rp534
(dp535
btp536
Rp537
(dp538
bg61
tp539
Rp540
(dp541
btp542
Rp543
(dp544
btp545
Rp546
(dp547
bg2
(g3
(g6
g510
g540
tp548
Rp549
(dp550
bg3
(g6
g211
g308
tp551
Rp552
(dp553
btp554
Rp555
(dp556
btp557
Rp558
(dp559
bg1
(g47
g65
g2
(g288
g95
tp560
Rp561
(dp562
bg2
(g288
g104
tp563
Rp564
(dp565
btp566
Rp567
(dp568
btp569
Rp570
(dp571
b.