ccopy_reg
_reconstructor
p0
(cmatplotlib.figure
Figure
p1
c__builtin__
object
p2
Ntp3
Rp4
(dp5
S'_label'
p6
V
p7
sS'_visible'
p8
I01
sS'figure'
p9
NsS'stale_callback'
p10
NsS'_rasterized'
p11
NsS'texts'
p12
(lp13
sS'_hold'
p14
I01
sS'artists'
p15
(lp16
sS'_path_effects'
p17
(lp18
sS'frameon'
p19
I01
sS'_clipon'
p20
I01
sV__mpl_version__
p21
S'2.0.2'
p22
sS'_clippath'
p23
NsS'_sketch'
p24
NsS'_contains'
p25
NsS'_tight_parameters'
p26
(dp27
sS'_mouseover'
p28
I00
sS'_animated'
p29
I00
sS'_propobservers'
p30
(dp31
sS'eventson'
p32
I00
sS'_picker'
p33
NsS'_remove_method'
p34
NsS'figurePatch'
p35
g0
(cmatplotlib.patches
Rectangle
p36
g2
Ntp37
Rp38
(dp39
g6
g7
sS'_width'
p40
F1.0
sS'_fill'
p41
I01
sg9
g4
sg8
I01
sg10
NsS'_agg_filter'
p42
Nsg17
g18
sS'_gid'
p43
Nsg20
I01
sS'_combined_transform'
p44
g0
(cmatplotlib.transforms
IdentityTransform
p45
g2
Ntp46
Rp47
(dp48
S'_invalid'
p49
I1
sS'_inverted'
p50
NsS'_shorthand_name'
p51
g7
sS'_parents'
p52
(dp53
sbsS'_edgecolor'
p54
(cnumpy.core.multiarray
scalar
p55
(cnumpy
dtype
p56
(S'f8'
p57
I0
I1
tp58
Rp59
(I3
S'<'
p60
NNNI-1
I-1
I0
tp61
bS'\x00\x00\x00\x00\x00\x00\xf0?'
p62
tp63
Rp64
g55
(g59
S'\x00\x00\x00\x00\x00\x00\xf0?'
p65
tp66
Rp67
g55
(g59
S'\x00\x00\x00\x00\x00\x00\xf0?'
p68
tp69
Rp70
g55
(g59
S'\x00\x00\x00\x00\x00\x00\x00\x00'
p71
tp72
Rp73
tp74
sg23
NsS'_y'
p75
F0.0
sS'_x'
p76
F0.0
sg24
NsS'_original_edgecolor'
p77
(I1
I1
I1
I0
tp78
sg11
Nsg28
I00
sg29
I00
sg30
(dp79
sS'_rect_transform'
p80
g0
(g45
g2
Ntp81
Rp82
(dp83
g49
I1
sg50
Nsg51
g7
sg52
(dp84
sbsg32
I00
sS'_hatch'
p85
NsS'_stale'
p86
I01
sS'_linewidth'
p87
F0.0
sS'clipbox'
p88
NsS'_height'
p89
F1.0
sg33
NsS'_hatch_color'
p90
g74
sS'_dashes'
p91
NsS'_antialiased'
p92
I00
sS'_dashoffset'
p93
NsS'_original_facecolor'
p94
Vwhite
p95
sS'_snap'
p96
NsS'_facecolor'
p97
(F1.0
F1.0
F1.0
F1.0
tp98
sS'_joinstyle'
p99
Vmiter
p100
sS'_linestyle'
p101
Vsolid
p102
sS'_sticky_edges'
p103
g0
(cmatplotlib.artist
_XYPair
p104
c__builtin__
tuple
p105
((lp106
(lp107
tp108
tp109
Rp110
sS'_oid'
p111
I0
sS'_transformSet'
p112
I01
sS'_angle'
p113
F0.0
sS'_alpha'
p114
NsS'_transform'
p115
g0
(cmatplotlib.transforms
BboxTransformTo
p116
g2
Ntp117
Rp118
(dp119
g49
I2
sS'_mtx'
p120
Nsg50
NsS'_boxout'
p121
g0
(cmatplotlib.transforms
TransformedBbox
p122
g2
Ntp123
Rp124
(dp125
g49
I2
sS'_bbox'
p126
g0
(cmatplotlib.transforms
Bbox
p127
g2
Ntp128
Rp129
(dp130
g49
I2
sS'_minpos'
p131
cnumpy.core.multiarray
_reconstruct
p132
(cnumpy
ndarray
p133
(I0
tp134
S'b'
p135
tp136
Rp137
(I1
(I2
tp138
g59
I00
S'\x00\x00\x00\x00\x00\x00\xf0\x7f\x00\x00\x00\x00\x00\x00\xf0\x7f'
p139
tp140
bsg52
(dp141
I140514936552464
g124
ssS'_points_orig'
p142
g132
(g133
(I0
tp143
g135
tp144
Rp145
(I1
(I2
I2
tp146
g59
I00
S'\x00\x00\x00\x00\x00\x00\x00\x00\x00\x00\x00\x00\x00\x00\x00\x00\x00\x00\x00\x00\x00\x00\x18@\x00\x00\x00\x00\x00\x00\x10@'
p147
tp148
bsS'_points'
p149
g132
(g133
(I0
tp150
g135
tp151
Rp152
(I1
(I2
I2
tp153
g59
I00
S'\x00\x00\x00\x00\x00\x00\x00\x00\x00\x00\x00\x00\x00\x00\x00\x00\x00\x00\x00\x00\x00\x00\xf8?\x00\x00\x00\x00\x00\x00\xf8?'
p154
tp155
bsS'_ignore'
p156
I01
sg51
g7
sbsg115
g0
(cmatplotlib.transforms
Affine2D
p157
g2
Ntp158
Rp159
(dp160
g49
I2
sg50
Nsg120
g132
(g133
(I0
tp161
g135
tp162
Rp163
(I1
(I3
I3
tp164
g59
I00
S'\x00\x00\x00\x00\x00\x00R@\x00\x00\x00\x00\x00\x00\x00\x00\x00\x00\x00\x00\x00\x00\x00\x00\x00\x00\x00\x00\x00\x00\x00\x00\x00\x00\x00\x00\x00\x00R@\x00\x00\x00\x00\x00\x00\x00\x00\x00\x00\x00\x00\x00\x00\x00\x00\x00\x00\x00\x00\x00\x00\x00\x00\x00\x00\x00\x00\x00\x00\xf0?'
p165
tp166
bsg51
g7
sg52
(dp167
I140514944278352
g0
(cmatplotlib.transforms
ScaledTranslation
p168
g2
Ntp169
Rp170
(dp171
g49
I1
sg120
NsS'_scale_trans'
p172
g159
sg50
NsS'_t'
p173
(F0.04861111111111111
I0
tp174
sg51
g7
sg52
(dp175
I140514944278288
g0
(cmatplotlib.transforms
CompositeGenericTransform
p176
g2
Ntp177
Rp178
(dp179
g49
I2
sS'input_dims'
p180
I2
sS'_a'
p181
g0
(cmatplotlib.transforms
BlendedGenericTransform
p182
g2
Ntp183
Rp184
(dp185
g49
I2
sg75
g0
(g176
g2
Ntp186
Rp187
(dp188
g49
I2
sg180
I2
sg181
g0
(cmatplotlib.transforms
TransformWrapper
p189
g2
Ntp190
Rp191
(dp192
Voutput_dims
p193
I2
sVparents
p194
(dp195
I140514954108304
g0
(g122
g2
Ntp196
Rp197
(dp198
g49
I2
sg126
g0
(g127
g2
Ntp199
Rp200
(dp201
g49
I2
sg131
g132
(g133
(I0
tp202
g135
tp203
Rp204
(I1
(I2
tp205
g59
I00
S'\x00\x00\x00\x00\x00\x00\xf0\x7f\x00\x00\x00\x00\x00\x00\xf0\x7f'
p206
tp207
bsg52
(dp208
I140514954108304
g197
ssg142
g132
(g133
(I0
tp209
g135
tp210
Rp211
(I1
(I2
I2
tp212
g59
I00
S'\x00\x00\x00\x00\x00\x00\x00\x00\x00\x00\x00\x00\x00\x00\x00\x00\x00\x00\x00\x00\x00\x00\xf0?\x00\x00\x00\x00\x00\x00\xf0?'
p213
tp214
bsg149
g132
(g133
(I0
tp215
g135
tp216
Rp217
(I1
(I2
I2
tp218
g59
I00
S'\xfa\xaaB\xaf\x88N\xf7\xbf\x00\x00\x00\x00\x00\x00\x00\x00\x9e\xc1Mb\x93\x8e$@\x9a\x99\x99\x99\x99\xcdt@'
p219
tp220
bsg156
I01
sg51
g7
sbsg115
g191
sg149
Nsg52
(dp221
I140514954107792
g0
(cmatplotlib.transforms
BboxTransformFrom
p222
g2
Ntp223
Rp224
(dp225
g49
I2
sS'_boxin'
p226
g197
sg120
Nsg50
Nsg51
g7
sg52
(dp227
I140514937301200
g0
(g176
g2
Ntp228
Rp229
(dp230
g49
I2
sg180
I2
sg181
g224
sS'output_dims'
p231
I2
sS'_b'
p232
g0
(g116
g2
Ntp233
Rp234
(dp235
g49
I2
sg120
Nsg50
Nsg121
g0
(g122
g2
Ntp236
Rp237
(dp238
g49
I2
sg126
g0
(g127
g2
Ntp239
Rp240
(dp241
g49
I0
sg131
g132
(g133
(I0
tp242
g135
tp243
Rp244
(I1
(I2
tp245
g59
I00
S'\x00\x00\x00\x00\x00\x00\xf0\x7f\x00\x00\x00\x00\x00\x00\xf0\x7f'
p246
tp247
bsg52
(dp248
I140514954108368
g237
ssg142
g132
(g133
(I0
tp249
g135
tp250
Rp251
(I1
(I2
I2
tp252
g59
I00
S'\x00\x00\x00\x00\x00\x00\xc0?\x00\x00\x00\x00\x00\x00\xc0?\xcd\xcc\xcc\xcc\xcc\xcc\xec?)\\\x8f\xc2\xf5(\xec?'
p253
tp254
bsg149
g132
(g133
(I0
tp255
g135
tp256
Rp257
(I1
(I2
I2
tp258
g59
I00
S'\x00\x00\x00\x00\x00\x00\xc0?\x00\x00\x00\x00\x00\x00\xc0?\xcd\xcc\xcc\xcc\xcc\xcc\xec?)\\\x8f\xc2\xf5(\xec?'
p259
tp260
bsg156
I01
sg51
g7
sbsg115
g118
sg149
Nsg52
(dp261
I140514954106896
g234
ssg51
g7
sbsg52
(dp262
I140514920422288
g0
(g176
g2
Ntp263
Rp264
(dp265
g49
I2
sg180
I2
sg181
g0
(g176
g2
Ntp266
Rp267
(dp268
g49
I1
sg180
I2
sg181
g0
(g116
g2
Ntp269
Rp270
(dp271
g49
I1
sg120
Nsg50
Nsg121
g0
(g127
g2
Ntp272
Rp273
(dp274
g49
I1
sg131
g132
(g133
(I0
tp275
g135
tp276
Rp277
(I1
(I2
tp278
g59
I00
S'\x00\x00\x00\x00\x00\x00\xf0\x7f\x00\x00\x00\x00\x00\x00\xf0\x7f'
p279
tp280
bsg52
(dp281
I140514920422160
g270
ssg142
g132
(g133
(I0
tp282
g135
tp283
Rp284
(I1
(I2
I2
tp285
g59
I00
S'\x00\x00\x00\x00\x00\x00\x00\x00\x00\x00\x00\x00\x00\x00\x00\x00\x00\x00\x00\x00\x00\x00\xf0?\x00\x00\x00\x00\x00\x00\xf0?'
p286
tp287
bsg149
g132
(g133
(I0
tp288
g135
tp289
Rp290
(I1
(I2
I2
tp291
g59
I00
S'\x00\x00\x00\x00\x00\x00\x00\x00\x00\x00\x00\x00\x00\x00\x00\x00\x00\x00\x00\x00\x00\x00\xf0?\x00\x00\x00\x00\x00\x00\xf0?'
p292
tp293
bsg156
I01
sg51
g7
sbsg52
(dp294
I140514920422224
g267
ssg51
g7
sbsg231
I2
sg232
g0
(g157
g2
Ntp295
Rp296
(dp297
g49
I2
sg50
Nsg120
g132
(g133
(I0
tp298
g135
tp299
Rp300
(I1
(I3
I3
tp301
g59
I00
S'\x00\x00\x00\x00\x00\x00\xf0?\x00\x00\x00\x00\x00\x00\x00\x00\x00\x00\x00\x00\x00\x00\x00\x00\x00\x00\x00\x00\x00\x00\x00\x00\x00\x00\x00\x00\x00\x00\xf0?\x00\x00\x00\x00\x00\x00\x00\x00\x00\x00\x00\x00\x00\x00\x00\x00\x00\x00\x00\x00\x00\x00\x00\x00\x00\x00\x00\x00\x00\x00\xf0?'
p302
tp303
bsg51
g7
sg52
(dp304
I140514920422224
g267
ssbsg52
(dp305
I140514920422288
g264
ssg51
g7
sbsg231
I2
sg232
g234
sg52
(dp306
I140514920422352
g0
(g122
g2
Ntp307
Rp308
(dp309
g49
I2
sg126
g0
(g127
g2
Ntp310
Rp311
(dp312
g49
I1
sg131
g132
(g133
(I0
tp313
g135
tp314
Rp315
(I1
(I2
tp316
g59
I00
S'\x00\x00\x00\x00\x00\x00\xf0\x7f\x00\x00\x00\x00\x00\x00\xf0\x7f'
p317
tp318
bsg52
(dp319
I140514920422352
g308
ssg142
g132
(g133
(I0
tp320
g135
tp321
Rp322
(I1
(I2
I2
tp323
g59
I00
S'\x00\x00\x00\x00\x00\x00\x00\x00\x00\x00\x00\x00\x00\x00\x00\x00\x00\x00\x00\x00\x00\x00\xf0?\x00\x00\x00\x00\x00\x00\xf0?'
p324
tp325
bsg149
g132
(g133
(I0
tp326
g135
tp327
Rp328
(I1
(I2
I2
tp329
g59
I00
S'\x00\x00\x00\x00\x00\x00\x00\x00\x00\x00\x00\x00\x00\x00\x00\x00\x00\x00\x00\x00\x00\x00\xf0?\x00\x00\x00\x00\x00\x00\xf0?'
p330
tp331
bsg156
I01
sg51
g7
sbsg115
g264
sg149
Nsg52
(dp332
sg51
g7
sbssg51
g7
sbsI140514920383504
g0
(g176
g2
Ntp333
Rp334
(dp335
g49
I2
sg180
I2
sg181
g0
(g176
g2
Ntp336
Rp337
(dp338
g49
I1
sg180
I2
sg181
g0
(g116
g2
Ntp339
Rp340
(dp341
g49
I1
sg120
Nsg50
Nsg121
g0
(g127
g2
Ntp342
Rp343
(dp344
g49
I1
sg131
g132
(g133
(I0
tp345
g135
tp346
Rp347
(I1
(I2
tp348
g59
I00
S'\x00\x00\x00\x00\x00\x00\xf0\x7f\x00\x00\x00\x00\x00\x00\xf0\x7f'
p349
tp350
bsg52
(dp351
I140514920383312
g340
ssg142
g132
(g133
(I0
tp352
g135
tp353
Rp354
(I1
(I2
I2
tp355
g59
I00
S'\x00\x00\x00\x00\x00\x00\x00\x00\x00\x00\x00\x00\x00\x00\x00\x00\x00\x00\x00\x00\x00\x00\xf0?\x00\x00\x00\x00\x00\x00\xf0?'
p356
tp357
bsg149
g132
(g133
(I0
tp358
g135
tp359
Rp360
(I1
(I2
I2
tp361
g59
I00
S'\x00\x00\x00\x00\x00\x00\x00\x00\x00\x00\x00\x00\x00\x00\x00\x00\x00\x00\x00\x00\x00\x00\xf0?\x00\x00\x00\x00\x00\x00\xf0?'
p362
tp363
bsg156
I01
sg51
g7
sbsg52
(dp364
I140514920383440
g337
ssg51
g7
sbsg231
I2
sg232
g0
(g157
g2
Ntp365
Rp366
(dp367
g49
I2
sg50
Nsg120
g132
(g133
(I0
tp368
g135
tp369
Rp370
(I1
(I3
I3
tp371
g59
I00
S'\x00\x00\x00\x00\x00\x00\xf0?\x00\x00\x00\x00\x00\x00\x00\x00\x00\x00\x00\x00\x00\x00\x00\x00\x00\x00\x00\x00\x00\x00\x00\x00\x00\x00\x00\x00\x00\x00\xf0?\x00\x00\x00\x00\x00\x00\x00\x00\x00\x00\x00\x00\x00\x00\x00\x00\x00\x00\x00\x00\x00\x00\x00\x00\x00\x00\x00\x00\x00\x00\xf0?'
p372
tp373
bsg51
g7
sg52
(dp374
I140514920383440
g337
ssbsg52
(dp375
I140514920383504
g334
ssg51
g7
sbsg231
I2
sg232
g234
sg52
(dp376
I140514920383632
g0
(g122
g2
Ntp377
Rp378
(dp379
g49
I2
sg126
g0
(g127
g2
Ntp380
Rp381
(dp382
g49
I1
sg131
g132
(g133
(I0
tp383
g135
tp384
Rp385
(I1
(I2
tp386
g59
I00
S'\x00\x00\x00\x00\x00\x00\xf0\x7f\x00\x00\x00\x00\x00\x00\xf0\x7f'
p387
tp388
bsg52
(dp389
I140514920383632
g378
ssg142
g132
(g133
(I0
tp390
g135
tp391
Rp392
(I1
(I2
I2
tp393
g59
I00
S'\x00\x00\x00\x00\x00\x00\x00\x00\x00\x00\x00\x00\x00\x00\x00\x00\x00\x00\x00\x00\x00\x00\xf0?\x00\x00\x00\x00\x00\x00\xf0?'
p394
tp395
bsg149
g132
(g133
(I0
tp396
g135
tp397
Rp398
(I1
(I2
I2
tp399
g59
I00
S'\x00\x00\x00\x00\x00\x00\x00\x00\x00\x00\x00\x00\x00\x00\x00\x00\x00\x00\x00\x00\x00\x00\xf0?\x00\x00\x00\x00\x00\x00\xf0?'
p400
tp401
bsg156
I01
sg51
g7
sbsg115
g334
sg149
Nsg52
(dp402
sg51
g7
sbssg51
g7
sbsI140514920420496
g0
(g176
g2
Ntp403
Rp404
(dp405
g49
I2
sg180
I2
sg181
g0
(g176
g2
Ntp406
Rp407
(dp408
g49
I1
sg180
I2
sg181
g0
(g116
g2
Ntp409
Rp410
(dp411
g49
I1
sg120
Nsg50
Nsg121
g0
(g127
g2
Ntp412
Rp413
(dp414
g49
I1
sg131
g132
(g133
(I0
tp415
g135
tp416
Rp417
(I1
(I2
tp418
g59
I00
S'\x00\x00\x00\x00\x00\x00\xf0\x7f\x00\x00\x00\x00\x00\x00\xf0\x7f'
p419
tp420
bsg52
(dp421
I140514920420368
g410
ssg142
g132
(g133
(I0
tp422
g135
tp423
Rp424
(I1
(I2
I2
tp425
g59
I00
S'\x00\x00\x00\x00\x00\x00\x00\x00\x00\x00\x00\x00\x00\x00\x00\x00\x00\x00\x00\x00\x00\x00\xf0?\x00\x00\x00\x00\x00\x00\xf0?'
p426
tp427
bsg149
g132
(g133
(I0
tp428
g135
tp429
Rp430
(I1
(I2
I2
tp431
g59
I00
S'\x00\x00\x00\x00\x00\x00\x00\x00\x00\x00\x00\x00\x00\x00\x00\x00\x00\x00\x00\x00\x00\x00\xf0?\x00\x00\x00\x00\x00\x00\xf0?'
p432
tp433
bsg156
I01
sg51
g7
sbsg52
(dp434
I140514920420432
g407
ssg51
g7
sbsg231
I2
sg232
g0
(g157
g2
Ntp435
Rp436
(dp437
g49
I2
sg50
Nsg120
g132
(g133
(I0
tp438
g135
tp439
Rp440
(I1
(I3
I3
tp441
g59
I00
S'\x00\x00\x00\x00\x00\x00\xf0?\x00\x00\x00\x00\x00\x00\x00\x00\x00\x00\x00\x00\x00\x00\x00\x00\x00\x00\x00\x00\x00\x00\x00\x00\x00\x00\x00\x00\x00\x00\xf0?\x00\x00\x00\x00\x00\x00\x00\x00\x00\x00\x00\x00\x00\x00\x00\x00\x00\x00\x00\x00\x00\x00\x00\x00\x00\x00\x00\x00\x00\x00\xf0?'
p442
tp443
bsg51
g7
sg52
(dp444
I140514920420432
g407
ssbsg52
(dp445
I140514920420496
g404
ssg51
g7
sbsg231
I2
sg232
g234
sg52
(dp446
I140514920420560
g0
(g122
g2
Ntp447
Rp448
(dp449
g49
I2
sg126
g0
(g127
g2
Ntp450
Rp451
(dp452
g49
I1
sg131
g132
(g133
(I0
tp453
g135
tp454
Rp455
(I1
(I2
tp456
g59
I00
S'\x00\x00\x00\x00\x00\x00\xf0\x7f\x00\x00\x00\x00\x00\x00\xf0\x7f'
p457
tp458
bsg52
(dp459
I140514920420560
g448
ssg142
g132
(g133
(I0
tp460
g135
tp461
Rp462
(I1
(I2
I2
tp463
g59
I00
S'\x00\x00\x00\x00\x00\x00\x00\x00\x00\x00\x00\x00\x00\x00\x00\x00\x00\x00\x00\x00\x00\x00\xf0?\x00\x00\x00\x00\x00\x00\xf0?'
p464
tp465
bsg149
g132
(g133
(I0
tp466
g135
tp467
Rp468
(I1
(I2
I2
tp469
g59
I00
S'\x00\x00\x00\x00\x00\x00\x00\x00\x00\x00\x00\x00\x00\x00\x00\x00\x00\x00\x00\x00\x00\x00\xf0?\x00\x00\x00\x00\x00\x00\xf0?'
p470
tp471
bsg156
I01
sg51
g7
sbsg115
g404
sg149
Nsg52
(dp472
sg51
g7
sbssg51
g7
sbsI140514920423184
g0
(g176
g2
Ntp473
Rp474
(dp475
g49
I2
sg180
I2
sg181
g0
(g176
g2
Ntp476
Rp477
(dp478
g49
I1
sg180
I2
sg181
g0
(g116
g2
Ntp479
Rp480
(dp481
g49
I1
sg120
Nsg50
Nsg121
g0
(g127
g2
Ntp482
Rp483
(dp484
g49
I1
sg131
g132
(g133
(I0
tp485
g135
tp486
Rp487
(I1
(I2
tp488
g59
I00
S'\x00\x00\x00\x00\x00\x00\xf0\x7f\x00\x00\x00\x00\x00\x00\xf0\x7f'
p489
tp490
bsg52
(dp491
I140514920423056
g480
ssg142
g132
(g133
(I0
tp492
g135
tp493
Rp494
(I1
(I2
I2
tp495
g59
I00
S'\x00\x00\x00\x00\x00\x00\x00\x00\x00\x00\x00\x00\x00\x00\x00\x00\x00\x00\x00\x00\x00\x00\xf0?\x00\x00\x00\x00\x00\x00\xf0?'
p496
tp497
bsg149
g132
(g133
(I0
tp498
g135
tp499
Rp500
(I1
(I2
I2
tp501
g59
I00
S'\x00\x00\x00\x00\x00\x00\x00\x00\x00\x00\x00\x00\x00\x00\x00\x00\x00\x00\x00\x00\x00\x00\xf0?\x00\x00\x00\x00\x00\x00\xf0?'
p502
tp503
bsg156
I01
sg51
g7
sbsg52
(dp504
I140514920423120
g477
ssg51
g7
sbsg231
I2
sg232
g0
(g157
g2
Ntp505
Rp506
(dp507
g49
I2
sg50
Nsg120
g132
(g133
(I0
tp508
g135
tp509
Rp510
(I1
(I3
I3
tp511
g59
I00
S'\x00\x00\x00\x00\x00\x00\xf0?\x00\x00\x00\x00\x00\x00\x00\x00\x00\x00\x00\x00\x00\x00\x00\x00\x00\x00\x00\x00\x00\x00\x00\x00\x00\x00\x00\x00\x00\x00\xf0?\x00\x00\x00\x00\x00\x00\x00\x00\x00\x00\x00\x00\x00\x00\x00\x00\x00\x00\x00\x00\x00\x00\x00\x00\x00\x00\x00\x00\x00\x00\xf0?'
p512
tp513
bsg51
g7
sg52
(dp514
I140514920423120
g477
ssbsg52
(dp515
I140514920423184
g474
ssg51
g7
sbsg231
I2
sg232
g234
sg52
(dp516
I140514920423248
g0
(g122
g2
Ntp517
Rp518
(dp519
g49
I2
sg126
g0
(g127
g2
Ntp520
Rp521
(dp522
g49
I1
sg131
g132
(g133
(I0
tp523
g135
tp524
Rp525
(I1
(I2
tp526
g59
I00
S'\x00\x00\x00\x00\x00\x00\xf0\x7f\x00\x00\x00\x00\x00\x00\xf0\x7f'
p527
tp528
bsg52
(dp529
I140514920423248
g518
ssg142
g132
(g133
(I0
tp530
g135
tp531
Rp532
(I1
(I2
I2
tp533
g59
I00
S'\x00\x00\x00\x00\x00\x00\x00\x00\x00\x00\x00\x00\x00\x00\x00\x00\x00\x00\x00\x00\x00\x00\xf0?\x00\x00\x00\x00\x00\x00\xf0?'
p534
tp535
bsg149
g132
(g133
(I0
tp536
g135
tp537
Rp538
(I1
(I2
I2
tp539
g59
I00
S'\x00\x00\x00\x00\x00\x00\x00\x00\x00\x00\x00\x00\x00\x00\x00\x00\x00\x00\x00\x00\x00\x00\xf0?\x00\x00\x00\x00\x00\x00\xf0?'
p540
tp541
bsg156
I01
sg51
g7
sbsg115
g474
sg149
Nsg52
(dp542
sg51
g7
sbssg51
g7
sbsI140514937407376
g0
(g176
g2
Ntp543
Rp544
(dp545
g49
I2
sg180
I2
sg181
g0
(g176
g2
Ntp546
Rp547
(dp548
g49
I1
sg180
I2
sg181
g0
(g116
g2
Ntp549
Rp550
(dp551
g49
I1
sg120
Nsg50
Nsg121
g0
(g127
g2
Ntp552
Rp553
(dp554
g49
I1
sg131
g132
(g133
(I0
tp555
g135
tp556
Rp557
(I1
(I2
tp558
g59
I00
S'\x00\x00\x00\x00\x00\x00\xf0\x7f\x00\x00\x00\x00\x00\x00\xf0\x7f'
p559
tp560
bsg52
(dp561
I140514937407248
g550
ssg142
g132
(g133
(I0
tp562
g135
tp563
Rp564
(I1
(I2
I2
tp565
g59
I00
S'\x00\x00\x00\x00\x00\x00\x00\x00\x00\x00\x00\x00\x00\x00\x00\x00\x00\x00\x00\x00\x00\x00\xf0?\x00\x00\x00\x00\x00\x00\xf0?'
p566
tp567
bsg149
g132
(g133
(I0
tp568
g135
tp569
Rp570
(I1
(I2
I2
tp571
g59
I00
S'\x00\x00\x00\x00\x00\x00\x00\x00\x00\x00\x00\x00\x00\x00\x00\x00\x00\x00\x00\x00\x00\x00\xf0?\x00\x00\x00\x00\x00\x00\xf0?'
p572
tp573
bsg156
I01
sg51
g7
sbsg52
(dp574
I140514937407312
g547
ssg51
g7
sbsg231
I2
sg232
g0
(g157
g2
Ntp575
Rp576
(dp577
g49
I2
sg50
Nsg120
g132
(g133
(I0
tp578
g135
tp579
Rp580
(I1
(I3
I3
tp581
g59
I00
S'\x00\x00\x00\x00\x00\x00\xf0?\x00\x00\x00\x00\x00\x00\x00\x00\x00\x00\x00\x00\x00\x00\x00\x00\x00\x00\x00\x00\x00\x00\x00\x00\x00\x00\x00\x00\x00\x00\xf0?\x00\x00\x00\x00\x00\x00\x00\x00\x00\x00\x00\x00\x00\x00\x00\x00\x00\x00\x00\x00\x00\x00\x00\x00\x00\x00\x00\x00\x00\x00\xf0?'
p582
tp583
bsg51
g7
sg52
(dp584
I140514937407312
g547
ssbsg52
(dp585
I140514937407376
g544
ssg51
g7
sbsg231
I2
sg232
g234
sg52
(dp586
I140514937407440
g0
(g122
g2
Ntp587
Rp588
(dp589
g49
I2
sg126
g0
(g127
g2
Ntp590
Rp591
(dp592
g49
I1
sg131
g132
(g133
(I0
tp593
g135
tp594
Rp595
(I1
(I2
tp596
g59
I00
S'\x00\x00\x00\x00\x00\x00\xf0\x7f\x00\x00\x00\x00\x00\x00\xf0\x7f'
p597
tp598
bsg52
(dp599
I140514937407440
g588
ssg142
g132
(g133
(I0
tp600
g135
tp601
Rp602
(I1
(I2
I2
tp603
g59
I00
S'\x00\x00\x00\x00\x00\x00\x00\x00\x00\x00\x00\x00\x00\x00\x00\x00\x00\x00\x00\x00\x00\x00\xf0?\x00\x00\x00\x00\x00\x00\xf0?'
p604
tp605
bsg149
g132
(g133
(I0
tp606
g135
tp607
Rp608
(I1
(I2
I2
tp609
g59
I00
S'\x00\x00\x00\x00\x00\x00\x00\x00\x00\x00\x00\x00\x00\x00\x00\x00\x00\x00\x00\x00\x00\x00\xf0?\x00\x00\x00\x00\x00\x00\xf0?'
p610
tp611
bsg156
I01
sg51
g7
sbsg115
g544
sg149
Nsg52
(dp612
sg51
g7
sbssg51
g7
sbsI140514937406928
g0
(g176
g2
Ntp613
Rp614
(dp615
g49
I2
sg180
I2
sg181
g0
(g176
g2
Ntp616
Rp617
(dp618
g49
I1
sg180
I2
sg181
g0
(g116
g2
Ntp619
Rp620
(dp621
g49
I1
sg120
Nsg50
Nsg121
g0
(g127
g2
Ntp622
Rp623
(dp624
g49
I1
sg131
g132
(g133
(I0
tp625
g135
tp626
Rp627
(I1
(I2
tp628
g59
I00
S'\x00\x00\x00\x00\x00\x00\xf0\x7f\x00\x00\x00\x00\x00\x00\xf0\x7f'
p629
tp630
bsg52
(dp631
I140514937406800
g620
ssg142
g132
(g133
(I0
tp632
g135
tp633
Rp634
(I1
(I2
I2
tp635
g59
I00
S'\x00\x00\x00\x00\x00\x00\x00\x00\x00\x00\x00\x00\x00\x00\x00\x00\x00\x00\x00\x00\x00\x00\xf0?\x00\x00\x00\x00\x00\x00\xf0?'
p636
tp637
bsg149
g132
(g133
(I0
tp638
g135
tp639
Rp640
(I1
(I2
I2
tp641
g59
I00
S'\x00\x00\x00\x00\x00\x00\x00\x00\x00\x00\x00\x00\x00\x00\x00\x00\x00\x00\x00\x00\x00\x00\xf0?\x00\x00\x00\x00\x00\x00\xf0?'
p642
tp643
bsg156
I01
sg51
g7
sbsg52
(dp644
I140514937406864
g617
ssg51
g7
sbsg231
I2
sg232
g0
(g157
g2
Ntp645
Rp646
(dp647
g49
I2
sg50
Nsg120
g132
(g133
(I0
tp648
g135
tp649
Rp650
(I1
(I3
I3
tp651
g59
I00
S'\x00\x00\x00\x00\x00\x00\xf0?\x00\x00\x00\x00\x00\x00\x00\x00\x00\x00\x00\x00\x00\x00\x00\x00\x00\x00\x00\x00\x00\x00\x00\x00\x00\x00\x00\x00\x00\x00\xf0?\x00\x00\x00\x00\x00\x00\x00\x00\x00\x00\x00\x00\x00\x00\x00\x00\x00\x00\x00\x00\x00\x00\x00\x00\x00\x00\x00\x00\x00\x00\xf0?'
p652
tp653
bsg51
g7
sg52
(dp654
I140514937406864
g617
ssbsg52
(dp655
I140514937406928
g614
ssg51
g7
sbsg231
I2
sg232
g234
sg52
(dp656
I140514937406992
g0
(g122
g2
Ntp657
Rp658
(dp659
g49
I2
sg126
g0
(g127
g2
Ntp660
Rp661
(dp662
g49
I1
sg131
g132
(g133
(I0
tp663
g135
tp664
Rp665
(I1
(I2
tp666
g59
I00
S'\x00\x00\x00\x00\x00\x00\xf0\x7f\x00\x00\x00\x00\x00\x00\xf0\x7f'
p667
tp668
bsg52
(dp669
I140514937406992
g658
ssg142
g132
(g133
(I0
tp670
g135
tp671
Rp672
(I1
(I2
I2
tp673
g59
I00
S'\x00\x00\x00\x00\x00\x00\x00\x00\x00\x00\x00\x00\x00\x00\x00\x00\x00\x00\x00\x00\x00\x00\xf0?\x00\x00\x00\x00\x00\x00\xf0?'
p674
tp675
bsg149
g132
(g133
(I0
tp676
g135
tp677
Rp678
(I1
(I2
I2
tp679
g59
I00
S'\x00\x00\x00\x00\x00\x00\x00\x00\x00\x00\x00\x00\x00\x00\x00\x00\x00\x00\x00\x00\x00\x00\xf0?\x00\x00\x00\x00\x00\x00\xf0?'
p680
tp681
bsg156
I01
sg51
g7
sbsg115
g614
sg149
Nsg52
(dp682
sg51
g7
sbssg51
g7
sbsI140514920420944
g0
(g176
g2
Ntp683
Rp684
(dp685
g49
I2
sg180
I2
sg181
g0
(g176
g2
Ntp686
Rp687
(dp688
g49
I1
sg180
I2
sg181
g0
(g116
g2
Ntp689
Rp690
(dp691
g49
I1
sg120
Nsg50
Nsg121
g0
(g127
g2
Ntp692
Rp693
(dp694
g49
I1
sg131
g132
(g133
(I0
tp695
g135
tp696
Rp697
(I1
(I2
tp698
g59
I00
S'\x00\x00\x00\x00\x00\x00\xf0\x7f\x00\x00\x00\x00\x00\x00\xf0\x7f'
p699
tp700
bsg52
(dp701
I140514920420816
g690
ssg142
g132
(g133
(I0
tp702
g135
tp703
Rp704
(I1
(I2
I2
tp705
g59
I00
S'\x00\x00\x00\x00\x00\x00\x00\x00\x00\x00\x00\x00\x00\x00\x00\x00\x00\x00\x00\x00\x00\x00\xf0?\x00\x00\x00\x00\x00\x00\xf0?'
p706
tp707
bsg149
g132
(g133
(I0
tp708
g135
tp709
Rp710
(I1
(I2
I2
tp711
g59
I00
S'\x00\x00\x00\x00\x00\x00\x00\x00\x00\x00\x00\x00\x00\x00\x00\x00\x00\x00\x00\x00\x00\x00\xf0?\x00\x00\x00\x00\x00\x00\xf0?'
p712
tp713
bsg156
I01
sg51
g7
sbsg52
(dp714
I140514920420880
g687
ssg51
g7
sbsg231
I2
sg232
g0
(g157
g2
Ntp715
Rp716
(dp717
g49
I2
sg50
Nsg120
g132
(g133
(I0
tp718
g135
tp719
Rp720
(I1
(I3
I3
tp721
g59
I00
S'\x00\x00\x00\x00\x00\x00\xf0?\x00\x00\x00\x00\x00\x00\x00\x00\x00\x00\x00\x00\x00\x00\x00\x00\x00\x00\x00\x00\x00\x00\x00\x00\x00\x00\x00\x00\x00\x00\xf0?\x00\x00\x00\x00\x00\x00\x00\x00\x00\x00\x00\x00\x00\x00\x00\x00\x00\x00\x00\x00\x00\x00\x00\x00\x00\x00\x00\x00\x00\x00\xf0?'
p722
tp723
bsg51
g7
sg52
(dp724
I140514920420880
g687
ssbsg52
(dp725
I140514920420944
g684
ssg51
g7
sbsg231
I2
sg232
g234
sg52
(dp726
I140514920421008
g0
(g122
g2
Ntp727
Rp728
(dp729
g49
I2
sg126
g0
(g127
g2
Ntp730
Rp731
(dp732
g49
I1
sg131
g132
(g133
(I0
tp733
g135
tp734
Rp735
(I1
(I2
tp736
g59
I00
S'\x00\x00\x00\x00\x00\x00\xf0\x7f\x00\x00\x00\x00\x00\x00\xf0\x7f'
p737
tp738
bsg52
(dp739
I140514920421008
g728
ssg142
g132
(g133
(I0
tp740
g135
tp741
Rp742
(I1
(I2
I2
tp743
g59
I00
S'\x00\x00\x00\x00\x00\x00\x00\x00\x00\x00\x00\x00\x00\x00\x00\x00\x00\x00\x00\x00\x00\x00\xf0?\x00\x00\x00\x00\x00\x00\xf0?'
p744
tp745
bsg149
g132
(g133
(I0
tp746
g135
tp747
Rp748
(I1
(I2
I2
tp749
g59
I00
S'\x00\x00\x00\x00\x00\x00\x00\x00\x00\x00\x00\x00\x00\x00\x00\x00\x00\x00\x00\x00\x00\x00\xf0?\x00\x00\x00\x00\x00\x00\xf0?'
p750
tp751
bsg156
I01
sg51
g7
sbsg115
g684
sg149
Nsg52
(dp752
sg51
g7
sbssg51
g7
sbsI140514920421392
g0
(g176
g2
Ntp753
Rp754
(dp755
g49
I2
sg180
I2
sg181
g0
(g176
g2
Ntp756
Rp757
(dp758
g49
I1
sg180
I2
sg181
g0
(g116
g2
Ntp759
Rp760
(dp761
g49
I1
sg120
Nsg50
Nsg121
g0
(g127
g2
Ntp762
Rp763
(dp764
g49
I1
sg131
g132
(g133
(I0
tp765
g135
tp766
Rp767
(I1
(I2
tp768
g59
I00
S'\x00\x00\x00\x00\x00\x00\xf0\x7f\x00\x00\x00\x00\x00\x00\xf0\x7f'
p769
tp770
bsg52
(dp771
I140514920421264
g760
ssg142
g132
(g133
(I0
tp772
g135
tp773
Rp774
(I1
(I2
I2
tp775
g59
I00
S'\x00\x00\x00\x00\x00\x00\x00\x00\x00\x00\x00\x00\x00\x00\x00\x00\x00\x00\x00\x00\x00\x00\xf0?\x00\x00\x00\x00\x00\x00\xf0?'
p776
tp777
bsg149
g132
(g133
(I0
tp778
g135
tp779
Rp780
(I1
(I2
I2
tp781
g59
I00
S'\x00\x00\x00\x00\x00\x00\x00\x00\x00\x00\x00\x00\x00\x00\x00\x00\x00\x00\x00\x00\x00\x00\xf0?\x00\x00\x00\x00\x00\x00\xf0?'
p782
tp783
bsg156
I01
sg51
g7
sbsg52
(dp784
I140514920421328
g757
ssg51
g7
sbsg231
I2
sg232
g0
(g157
g2
Ntp785
Rp786
(dp787
g49
I2
sg50
Nsg120
g132
(g133
(I0
tp788
g135
tp789
Rp790
(I1
(I3
I3
tp791
g59
I00
S'\x00\x00\x00\x00\x00\x00\xf0?\x00\x00\x00\x00\x00\x00\x00\x00\x00\x00\x00\x00\x00\x00\x00\x00\x00\x00\x00\x00\x00\x00\x00\x00\x00\x00\x00\x00\x00\x00\xf0?\x00\x00\x00\x00\x00\x00\x00\x00\x00\x00\x00\x00\x00\x00\x00\x00\x00\x00\x00\x00\x00\x00\x00\x00\x00\x00\x00\x00\x00\x00\xf0?'
p792
tp793
bsg51
g7
sg52
(dp794
I140514920421328
g757
ssbsg52
(dp795
I140514920421392
g754
ssg51
g7
sbsg231
I2
sg232
g234
sg52
(dp796
I140514920421456
g0
(g122
g2
Ntp797
Rp798
(dp799
g49
I2
sg126
g0
(g127
g2
Ntp800
Rp801
(dp802
g49
I1
sg131
g132
(g133
(I0
tp803
g135
tp804
Rp805
(I1
(I2
tp806
g59
I00
S'\x00\x00\x00\x00\x00\x00\xf0\x7f\x00\x00\x00\x00\x00\x00\xf0\x7f'
p807
tp808
bsg52
(dp809
I140514920421456
g798
ssg142
g132
(g133
(I0
tp810
g135
tp811
Rp812
(I1
(I2
I2
tp813
g59
I00
S'\x00\x00\x00\x00\x00\x00\x00\x00\x00\x00\x00\x00\x00\x00\x00\x00\x00\x00\x00\x00\x00\x00\xf0?\x00\x00\x00\x00\x00\x00\xf0?'
p814
tp815
bsg149
g132
(g133
(I0
tp816
g135
tp817
Rp818
(I1
(I2
I2
tp819
g59
I00
S'\x00\x00\x00\x00\x00\x00\x00\x00\x00\x00\x00\x00\x00\x00\x00\x00\x00\x00\x00\x00\x00\x00\xf0?\x00\x00\x00\x00\x00\x00\xf0?'
p820
tp821
bsg156
I01
sg51
g7
sbsg115
g754
sg149
Nsg52
(dp822
sg51
g7
sbssg51
g7
sbsI140514920384656
g0
(g176
g2
Ntp823
Rp824
(dp825
g49
I2
sg180
I2
sg181
g0
(g176
g2
Ntp826
Rp827
(dp828
g49
I1
sg180
I2
sg181
g0
(g116
g2
Ntp829
Rp830
(dp831
g49
I1
sg120
Nsg50
Nsg121
g0
(g127
g2
Ntp832
Rp833
(dp834
g49
I1
sg131
g132
(g133
(I0
tp835
g135
tp836
Rp837
(I1
(I2
tp838
g59
I00
S'\x00\x00\x00\x00\x00\x00\xf0\x7f\x00\x00\x00\x00\x00\x00\xf0\x7f'
p839
tp840
bsg52
(dp841
I140514920384464
g830
ssg142
g132
(g133
(I0
tp842
g135
tp843
Rp844
(I1
(I2
I2
tp845
g59
I00
S'\x00\x00\x00\x00\x00\x00\x00\x00\x00\x00\x00\x00\x00\x00\x00\x00\x00\x00\x00\x00\x00\x00\xf0?\x00\x00\x00\x00\x00\x00\xf0?'
p846
tp847
bsg149
g132
(g133
(I0
tp848
g135
tp849
Rp850
(I1
(I2
I2
tp851
g59
I00
S'\x00\x00\x00\x00\x00\x00\x00\x00\x00\x00\x00\x00\x00\x00\x00\x00\x00\x00\x00\x00\x00\x00\xf0?\x00\x00\x00\x00\x00\x00\xf0?'
p852
tp853
bsg156
I01
sg51
g7
sbsg52
(dp854
I140514920384592
g827
ssg51
g7
sbsg231
I2
sg232
g0
(g157
g2
Ntp855
Rp856
(dp857
g49
I2
sg50
Nsg120
g132
(g133
(I0
tp858
g135
tp859
Rp860
(I1
(I3
I3
tp861
g59
I00
S'\x00\x00\x00\x00\x00\x00\xf0?\x00\x00\x00\x00\x00\x00\x00\x00\x00\x00\x00\x00\x00\x00\x00\x00\x00\x00\x00\x00\x00\x00\x00\x00\x00\x00\x00\x00\x00\x00\xf0?\x00\x00\x00\x00\x00\x00\x00\x00\x00\x00\x00\x00\x00\x00\x00\x00\x00\x00\x00\x00\x00\x00\x00\x00\x00\x00\x00\x00\x00\x00\xf0?'
p862
tp863
bsg51
g7
sg52
(dp864
I140514920384592
g827
ssbsg52
(dp865
I140514920384656
g824
ssg51
g7
sbsg231
I2
sg232
g234
sg52
(dp866
I140514920384784
g0
(g122
g2
Ntp867
Rp868
(dp869
g49
I2
sg126
g0
(g127
g2
Ntp870
Rp871
(dp872
g49
I1
sg131
g132
(g133
(I0
tp873
g135
tp874
Rp875
(I1
(I2
tp876
g59
I00
S'\x00\x00\x00\x00\x00\x00\xf0\x7f\x00\x00\x00\x00\x00\x00\xf0\x7f'
p877
tp878
bsg52
(dp879
I140514920384784
g868
ssg142
g132
(g133
(I0
tp880
g135
tp881
Rp882
(I1
(I2
I2
tp883
g59
I00
S'\x00\x00\x00\x00\x00\x00\x00\x00\x00\x00\x00\x00\x00\x00\x00\x00\x00\x00\x00\x00\x00\x00\xf0?\x00\x00\x00\x00\x00\x00\xf0?'
p884
tp885
bsg149
g132
(g133
(I0
tp886
g135
tp887
Rp888
(I1
(I2
I2
tp889
g59
I00
S'\x00\x00\x00\x00\x00\x00\x00\x00\x00\x00\x00\x00\x00\x00\x00\x00\x00\x00\x00\x00\x00\x00\xf0?\x00\x00\x00\x00\x00\x00\xf0?'
p890
tp891
bsg156
I01
sg51
g7
sbsg115
g824
sg149
Nsg52
(dp892
sg51
g7
sbssg51
g7
sbsI140514936559824
g0
(g176
g2
Ntp893
Rp894
(dp895
g49
I2
sg180
I2
sg181
g0
(g176
g2
Ntp896
Rp897
(dp898
g49
I1
sg180
I2
sg181
g0
(g116
g2
Ntp899
Rp900
(dp901
g49
I1
sg120
Nsg50
Nsg121
g0
(g127
g2
Ntp902
Rp903
(dp904
g49
I1
sg131
g132
(g133
(I0
tp905
g135
tp906
Rp907
(I1
(I2
tp908
g59
I00
S'\x00\x00\x00\x00\x00\x00\xf0\x7f\x00\x00\x00\x00\x00\x00\xf0\x7f'
p909
tp910
bsg52
(dp911
I140514936558288
g900
ssg142
g132
(g133
(I0
tp912
g135
tp913
Rp914
(I1
(I2
I2
tp915
g59
I00
S'\x00\x00\x00\x00\x00\x00\x00\x00\x00\x00\x00\x00\x00\x00\x00\x00\x00\x00\x00\x00\x00\x00\xf0?\x00\x00\x00\x00\x00\x00\xf0?'
p916
tp917
bsg149
g132
(g133
(I0
tp918
g135
tp919
Rp920
(I1
(I2
I2
tp921
g59
I00
S'\x00\x00\x00\x00\x00\x00\x00\x00\x00\x00\x00\x00\x00\x00\x00\x00\x00\x00\x00\x00\x00\x00\xf0?\x00\x00\x00\x00\x00\x00\xf0?'
p922
tp923
bsg156
I01
sg51
g7
sbsg52
(dp924
I140514936558544
g897
ssg51
g7
sbsg231
I2
sg232
g0
(g157
g2
Ntp925
Rp926
(dp927
g49
I2
sg50
Nsg120
g132
(g133
(I0
tp928
g135
tp929
Rp930
(I1
(I3
I3
tp931
g59
I00
S'\x00\x00\x00\x00\x00\x00\xf0?\x00\x00\x00\x00\x00\x00\x00\x00\x00\x00\x00\x00\x00\x00\x00\x00\x00\x00\x00\x00\x00\x00\x00\x00\x00\x00\x00\x00\x00\x00\xf0?\x00\x00\x00\x00\x00\x00\x00\x00\x00\x00\x00\x00\x00\x00\x00\x00\x00\x00\x00\x00\x00\x00\x00\x00\x00\x00\x00\x00\x00\x00\xf0?'
p932
tp933
bsg51
g7
sg52
(dp934
I140514936558544
g897
ssbsg52
(dp935
I140514936559824
g894
ssg51
g7
sbsg231
I2
sg232
g234
sg52
(dp936
I140514936559376
g0
(g122
g2
Ntp937
Rp938
(dp939
g49
I2
sg126
g0
(g127
g2
Ntp940
Rp941
(dp942
g49
I1
sg131
g132
(g133
(I0
tp943
g135
tp944
Rp945
(I1
(I2
tp946
g59
I00
S'\x00\x00\x00\x00\x00\x00\xf0\x7f\x00\x00\x00\x00\x00\x00\xf0\x7f'
p947
tp948
bsg52
(dp949
I140514936559376
g938
ssg142
g132
(g133
(I0
tp950
g135
tp951
Rp952
(I1
(I2
I2
tp953
g59
I00
S'\x00\x00\x00\x00\x00\x00\x00\x00\x00\x00\x00\x00\x00\x00\x00\x00\x00\x00\x00\x00\x00\x00\xf0?\x00\x00\x00\x00\x00\x00\xf0?'
p954
tp955
bsg149
g132
(g133
(I0
tp956
g135
tp957
Rp958
(I1
(I2
I2
tp959
g59
I00
S'\x00\x00\x00\x00\x00\x00\x00\x00\x00\x00\x00\x00\x00\x00\x00\x00\x00\x00\x00\x00\x00\x00\xf0?\x00\x00\x00\x00\x00\x00\xf0?'
p960
tp961
bsg156
I01
sg51
g7
sbsg115
g894
sg149
Nsg52
(dp962
sg51
g7
sbssg51
g7
sbsI140514937407824
g0
(g176
g2
Ntp963
Rp964
(dp965
g49
I2
sg180
I2
sg181
g0
(g176
g2
Ntp966
Rp967
(dp968
g49
I1
sg180
I2
sg181
g0
(g116
g2
Ntp969
Rp970
(dp971
g49
I1
sg120
Nsg50
Nsg121
g0
(g127
g2
Ntp972
Rp973
(dp974
g49
I1
sg131
g132
(g133
(I0
tp975
g135
tp976
Rp977
(I1
(I2
tp978
g59
I00
S'\x00\x00\x00\x00\x00\x00\xf0\x7f\x00\x00\x00\x00\x00\x00\xf0\x7f'
p979
tp980
bsg52
(dp981
I140514937407696
g970
ssg142
g132
(g133
(I0
tp982
g135
tp983
Rp984
(I1
(I2
I2
tp985
g59
I00
S'\x00\x00\x00\x00\x00\x00\x00\x00\x00\x00\x00\x00\x00\x00\x00\x00\x00\x00\x00\x00\x00\x00\xf0?\x00\x00\x00\x00\x00\x00\xf0?'
p986
tp987
bsg149
g132
(g133
(I0
tp988
g135
tp989
Rp990
(I1
(I2
I2
tp991
g59
I00
S'\x00\x00\x00\x00\x00\x00\x00\x00\x00\x00\x00\x00\x00\x00\x00\x00\x00\x00\x00\x00\x00\x00\xf0?\x00\x00\x00\x00\x00\x00\xf0?'
p992
tp993
bsg156
I01
sg51
g7
sbsg52
(dp994
I140514937407760
g967
ssg51
g7
sbsg231
I2
sg232
g0
(g157
g2
Ntp995
Rp996
(dp997
g49
I2
sg50
Nsg120
g132
(g133
(I0
tp998
g135
tp999
Rp1000
(I1
(I3
I3
tp1001
g59
I00
S'\x00\x00\x00\x00\x00\x00\xf0?\x00\x00\x00\x00\x00\x00\x00\x00\x00\x00\x00\x00\x00\x00\x00\x00\x00\x00\x00\x00\x00\x00\x00\x00\x00\x00\x00\x00\x00\x00\xf0?\x00\x00\x00\x00\x00\x00\x00\x00\x00\x00\x00\x00\x00\x00\x00\x00\x00\x00\x00\x00\x00\x00\x00\x00\x00\x00\x00\x00\x00\x00\xf0?'
p1002
tp1003
bsg51
g7
sg52
(dp1004
I140514937407760
g967
ssbsg52
(dp1005
I140514937407824
g964
ssg51
g7
sbsg231
I2
sg232
g234
sg52
(dp1006
I140514937407888
g0
(g122
g2
Ntp1007
Rp1008
(dp1009
g49
I2
sg126
g0
(g127
g2
Ntp1010
Rp1011
(dp1012
g49
I1
sg131
g132
(g133
(I0
tp1013
g135
tp1014
Rp1015
(I1
(I2
tp1016
g59
I00
S'\x00\x00\x00\x00\x00\x00\xf0\x7f\x00\x00\x00\x00\x00\x00\xf0\x7f'
p1017
tp1018
bsg52
(dp1019
I140514937407888
g1008
ssg142
g132
(g133
(I0
tp1020
g135
tp1021
Rp1022
(I1
(I2
I2
tp1023
g59
I00
S'\x00\x00\x00\x00\x00\x00\x00\x00\x00\x00\x00\x00\x00\x00\x00\x00\x00\x00\x00\x00\x00\x00\xf0?\x00\x00\x00\x00\x00\x00\xf0?'
p1024
tp1025
bsg149
g132
(g133
(I0
tp1026
g135
tp1027
Rp1028
(I1
(I2
I2
tp1029
g59
I00
S'\x00\x00\x00\x00\x00\x00\x00\x00\x00\x00\x00\x00\x00\x00\x00\x00\x00\x00\x00\x00\x00\x00\xf0?\x00\x00\x00\x00\x00\x00\xf0?'
p1030
tp1031
bsg156
I01
sg51
g7
sbsg115
g964
sg149
Nsg52
(dp1032
sg51
g7
sbssg51
g7
sbsI140514920421840
g0
(g176
g2
Ntp1033
Rp1034
(dp1035
g49
I2
sg180
I2
sg181
g0
(g176
g2
Ntp1036
Rp1037
(dp1038
g49
I1
sg180
I2
sg181
g0
(g116
g2
Ntp1039
Rp1040
(dp1041
g49
I1
sg120
Nsg50
Nsg121
g0
(g127
g2
Ntp1042
Rp1043
(dp1044
g49
I1
sg131
g132
(g133
(I0
tp1045
g135
tp1046
Rp1047
(I1
(I2
tp1048
g59
I00
S'\x00\x00\x00\x00\x00\x00\xf0\x7f\x00\x00\x00\x00\x00\x00\xf0\x7f'
p1049
tp1050
bsg52
(dp1051
I140514920421712
g1040
ssg142
g132
(g133
(I0
tp1052
g135
tp1053
Rp1054
(I1
(I2
I2
tp1055
g59
I00
S'\x00\x00\x00\x00\x00\x00\x00\x00\x00\x00\x00\x00\x00\x00\x00\x00\x00\x00\x00\x00\x00\x00\xf0?\x00\x00\x00\x00\x00\x00\xf0?'
p1056
tp1057
bsg149
g132
(g133
(I0
tp1058
g135
tp1059
Rp1060
(I1
(I2
I2
tp1061
g59
I00
S'\x00\x00\x00\x00\x00\x00\x00\x00\x00\x00\x00\x00\x00\x00\x00\x00\x00\x00\x00\x00\x00\x00\xf0?\x00\x00\x00\x00\x00\x00\xf0?'
p1062
tp1063
bsg156
I01
sg51
g7
sbsg52
(dp1064
I140514920421776
g1037
ssg51
g7
sbsg231
I2
sg232
g0
(g157
g2
Ntp1065
Rp1066
(dp1067
g49
I2
sg50
Nsg120
g132
(g133
(I0
tp1068
g135
tp1069
Rp1070
(I1
(I3
I3
tp1071
g59
I00
S'\x00\x00\x00\x00\x00\x00\xf0?\x00\x00\x00\x00\x00\x00\x00\x00\x00\x00\x00\x00\x00\x00\x00\x00\x00\x00\x00\x00\x00\x00\x00\x00\x00\x00\x00\x00\x00\x00\xf0?\x00\x00\x00\x00\x00\x00\x00\x00\x00\x00\x00\x00\x00\x00\x00\x00\x00\x00\x00\x00\x00\x00\x00\x00\x00\x00\x00\x00\x00\x00\xf0?'
p1072
tp1073
bsg51
g7
sg52
(dp1074
I140514920421776
g1037
ssbsg52
(dp1075
I140514920421840
g1034
ssg51
g7
sbsg231
I2
sg232
g234
sg52
(dp1076
I140514920421904
g0
(g122
g2
Ntp1077
Rp1078
(dp1079
g49
I2
sg126
g0
(g127
g2
Ntp1080
Rp1081
(dp1082
g49
I1
sg131
g132
(g133
(I0
tp1083
g135
tp1084
Rp1085
(I1
(I2
tp1086
g59
I00
S'\x00\x00\x00\x00\x00\x00\xf0\x7f\x00\x00\x00\x00\x00\x00\xf0\x7f'
p1087
tp1088
bsg52
(dp1089
I140514920421904
g1078
ssg142
g132
(g133
(I0
tp1090
g135
tp1091
Rp1092
(I1
(I2
I2
tp1093
g59
I00
S'\x00\x00\x00\x00\x00\x00\x00\x00\x00\x00\x00\x00\x00\x00\x00\x00\x00\x00\x00\x00\x00\x00\xf0?\x00\x00\x00\x00\x00\x00\xf0?'
p1094
tp1095
bsg149
g132
(g133
(I0
tp1096
g135
tp1097
Rp1098
(I1
(I2
I2
tp1099
g59
I00
S'\x00\x00\x00\x00\x00\x00\x00\x00\x00\x00\x00\x00\x00\x00\x00\x00\x00\x00\x00\x00\x00\x00\xf0?\x00\x00\x00\x00\x00\x00\xf0?'
p1100
tp1101
bsg156
I01
sg51
g7
sbsg115
g1034
sg149
Nsg52
(dp1102
sg51
g7
sbssg51
g7
sbsI140514937408848
g0
(g176
g2
Ntp1103
Rp1104
(dp1105
g49
I2
sg180
I2
sg181
g0
(g176
g2
Ntp1106
Rp1107
(dp1108
g49
I1
sg180
I2
sg181
g0
(g116
g2
Ntp1109
Rp1110
(dp1111
g49
I1
sg120
Nsg50
Nsg121
g0
(g127
g2
Ntp1112
Rp1113
(dp1114
g49
I1
sg131
g132
(g133
(I0
tp1115
g135
tp1116
Rp1117
(I1
(I2
tp1118
g59
I00
S'\x00\x00\x00\x00\x00\x00\xf0\x7f\x00\x00\x00\x00\x00\x00\xf0\x7f'
p1119
tp1120
bsg52
(dp1121
I140514937408720
g1110
ssg142
g132
(g133
(I0
tp1122
g135
tp1123
Rp1124
(I1
(I2
I2
tp1125
g59
I00
S'\x00\x00\x00\x00\x00\x00\x00\x00\x00\x00\x00\x00\x00\x00\x00\x00\x00\x00\x00\x00\x00\x00\xf0?\x00\x00\x00\x00\x00\x00\xf0?'
p1126
tp1127
bsg149
g132
(g133
(I0
tp1128
g135
tp1129
Rp1130
(I1
(I2
I2
tp1131
g59
I00
S'\x00\x00\x00\x00\x00\x00\x00\x00\x00\x00\x00\x00\x00\x00\x00\x00\x00\x00\x00\x00\x00\x00\xf0?\x00\x00\x00\x00\x00\x00\xf0?'
p1132
tp1133
bsg156
I01
sg51
g7
sbsg52
(dp1134
I140514937408784
g1107
ssg51
g7
sbsg231
I2
sg232
g0
(g157
g2
Ntp1135
Rp1136
(dp1137
g49
I2
sg50
Nsg120
g132
(g133
(I0
tp1138
g135
tp1139
Rp1140
(I1
(I3
I3
tp1141
g59
I00
S'\x00\x00\x00\x00\x00\x00\xf0?\x00\x00\x00\x00\x00\x00\x00\x00\x00\x00\x00\x00\x00\x00\x00\x00\x00\x00\x00\x00\x00\x00\x00\x00\x00\x00\x00\x00\x00\x00\xf0?\x00\x00\x00\x00\x00\x00\x00\x00\x00\x00\x00\x00\x00\x00\x00\x00\x00\x00\x00\x00\x00\x00\x00\x00\x00\x00\x00\x00\x00\x00\xf0?'
p1142
tp1143
bsg51
g7
sg52
(dp1144
I140514937408784
g1107
ssbsg52
(dp1145
I140514937408848
g1104
ssg51
g7
sbsg231
I2
sg232
g234
sg52
(dp1146
I140514937408912
g0
(g122
g2
Ntp1147
Rp1148
(dp1149
g49
I2
sg126
g0
(g127
g2
Ntp1150
Rp1151
(dp1152
g49
I1
sg131
g132
(g133
(I0
tp1153
g135
tp1154
Rp1155
(I1
(I2
tp1156
g59
I00
S'\x00\x00\x00\x00\x00\x00\xf0\x7f\x00\x00\x00\x00\x00\x00\xf0\x7f'
p1157
tp1158
bsg52
(dp1159
I140514937408912
g1148
ssg142
g132
(g133
(I0
tp1160
g135
tp1161
Rp1162
(I1
(I2
I2
tp1163
g59
I00
S'\x00\x00\x00\x00\x00\x00\x00\x00\x00\x00\x00\x00\x00\x00\x00\x00\x00\x00\x00\x00\x00\x00\xf0?\x00\x00\x00\x00\x00\x00\xf0?'
p1164
tp1165
bsg149
g132
(g133
(I0
tp1166
g135
tp1167
Rp1168
(I1
(I2
I2
tp1169
g59
I00
S'\x00\x00\x00\x00\x00\x00\x00\x00\x00\x00\x00\x00\x00\x00\x00\x00\x00\x00\x00\x00\x00\x00\xf0?\x00\x00\x00\x00\x00\x00\xf0?'
p1170
tp1171
bsg156
I01
sg51
g7
sbsg115
g1104
sg149
Nsg52
(dp1172
sg51
g7
sbssg51
g7
sbsI140514937408400
g0
(g176
g2
Ntp1173
Rp1174
(dp1175
g49
I2
sg180
I2
sg181
g0
(g176
g2
Ntp1176
Rp1177
(dp1178
g49
I1
sg180
I2
sg181
g0
(g116
g2
Ntp1179
Rp1180
(dp1181
g49
I1
sg120
Nsg50
Nsg121
g0
(g127
g2
Ntp1182
Rp1183
(dp1184
g49
I1
sg131
g132
(g133
(I0
tp1185
g135
tp1186
Rp1187
(I1
(I2
tp1188
g59
I00
S'\x00\x00\x00\x00\x00\x00\xf0\x7f\x00\x00\x00\x00\x00\x00\xf0\x7f'
p1189
tp1190
bsg52
(dp1191
I140514937408272
g1180
ssg142
g132
(g133
(I0
tp1192
g135
tp1193
Rp1194
(I1
(I2
I2
tp1195
g59
I00
S'\x00\x00\x00\x00\x00\x00\x00\x00\x00\x00\x00\x00\x00\x00\x00\x00\x00\x00\x00\x00\x00\x00\xf0?\x00\x00\x00\x00\x00\x00\xf0?'
p1196
tp1197
bsg149
g132
(g133
(I0
tp1198
g135
tp1199
Rp1200
(I1
(I2
I2
tp1201
g59
I00
S'\x00\x00\x00\x00\x00\x00\x00\x00\x00\x00\x00\x00\x00\x00\x00\x00\x00\x00\x00\x00\x00\x00\xf0?\x00\x00\x00\x00\x00\x00\xf0?'
p1202
tp1203
bsg156
I01
sg51
g7
sbsg52
(dp1204
I140514937408336
g1177
ssg51
g7
sbsg231
I2
sg232
g0
(g157
g2
Ntp1205
Rp1206
(dp1207
g49
I2
sg50
Nsg120
g132
(g133
(I0
tp1208
g135
tp1209
Rp1210
(I1
(I3
I3
tp1211
g59
I00
S'\x00\x00\x00\x00\x00\x00\xf0?\x00\x00\x00\x00\x00\x00\x00\x00\x00\x00\x00\x00\x00\x00\x00\x00\x00\x00\x00\x00\x00\x00\x00\x00\x00\x00\x00\x00\x00\x00\xf0?\x00\x00\x00\x00\x00\x00\x00\x00\x00\x00\x00\x00\x00\x00\x00\x00\x00\x00\x00\x00\x00\x00\x00\x00\x00\x00\x00\x00\x00\x00\xf0?'
p1212
tp1213
bsg51
g7
sg52
(dp1214
I140514937408336
g1177
ssbsg52
(dp1215
I140514937408400
g1174
ssg51
g7
sbsg231
I2
sg232
g234
sg52
(dp1216
I140514937408464
g0
(g122
g2
Ntp1217
Rp1218
(dp1219
g49
I2
sg126
g0
(g127
g2
Ntp1220
Rp1221
(dp1222
g49
I1
sg131
g132
(g133
(I0
tp1223
g135
tp1224
Rp1225
(I1
(I2
tp1226
g59
I00
S'\x00\x00\x00\x00\x00\x00\xf0\x7f\x00\x00\x00\x00\x00\x00\xf0\x7f'
p1227
tp1228
bsg52
(dp1229
I140514937408464
g1218
ssg142
g132
(g133
(I0
tp1230
g135
tp1231
Rp1232
(I1
(I2
I2
tp1233
g59
I00
S'\x00\x00\x00\x00\x00\x00\x00\x00\x00\x00\x00\x00\x00\x00\x00\x00\x00\x00\x00\x00\x00\x00\xf0?\x00\x00\x00\x00\x00\x00\xf0?'
p1234
tp1235
bsg149
g132
(g133
(I0
tp1236
g135
tp1237
Rp1238
(I1
(I2
I2
tp1239
g59
I00
S'\x00\x00\x00\x00\x00\x00\x00\x00\x00\x00\x00\x00\x00\x00\x00\x00\x00\x00\x00\x00\x00\x00\xf0?\x00\x00\x00\x00\x00\x00\xf0?'
p1240
tp1241
bsg156
I01
sg51
g7
sbsg115
g1174
sg149
Nsg52
(dp1242
sg51
g7
sbssg51
g7
sbsI140514944277520
g0
(g176
g2
Ntp1243
Rp1244
(dp1245
g49
I2
sg180
I2
sg181
g0
(g176
g2
Ntp1246
Rp1247
(dp1248
g49
I1
sg180
I2
sg181
g0
(g116
g2
Ntp1249
Rp1250
(dp1251
g49
I1
sg120
Nsg50
Nsg121
g0
(g127
g2
Ntp1252
Rp1253
(dp1254
g49
I1
sg131
g132
(g133
(I0
tp1255
g135
tp1256
Rp1257
(I1
(I2
tp1258
g59
I00
S'\x00\x00\x00\x00\x00\x00\xf0\x7f\x00\x00\x00\x00\x00\x00\xf0\x7f'
p1259
tp1260
bsg52
(dp1261
I140514944276752
g1250
ssg142
g132
(g133
(I0
tp1262
g135
tp1263
Rp1264
(I1
(I2
I2
tp1265
g59
I00
S'\x00\x00\x00\x00\x00\x00\x00\x00\x00\x00\x00\x00\x00\x00\x00\x00\x00\x00\x00\x00\x00\x00\xf0?\x00\x00\x00\x00\x00\x00\xf0?'
p1266
tp1267
bsg149
g132
(g133
(I0
tp1268
g135
tp1269
Rp1270
(I1
(I2
I2
tp1271
g59
I00
S'\x00\x00\x00\x00\x00\x00\x00\x00\x00\x00\x00\x00\x00\x00\x00\x00\x00\x00\x00\x00\x00\x00\xf0?\x00\x00\x00\x00\x00\x00\xf0?'
p1272
tp1273
bsg156
I01
sg51
g7
sbsg52
(dp1274
I140514944277776
g1247
ssg51
g7
sbsg231
I2
sg232
g0
(g157
g2
Ntp1275
Rp1276
(dp1277
g49
I2
sg50
Nsg120
g132
(g133
(I0
tp1278
g135
tp1279
Rp1280
(I1
(I3
I3
tp1281
g59
I00
S'\x00\x00\x00\x00\x00\x00\xf0?\x00\x00\x00\x00\x00\x00\x00\x00\x00\x00\x00\x00\x00\x00\x00\x00\x00\x00\x00\x00\x00\x00\x00\x00\x00\x00\x00\x00\x00\x00\xf0?\x00\x00\x00\x00\x00\x00\x00\x00\x00\x00\x00\x00\x00\x00\x00\x00\x00\x00\x00\x00\x00\x00\x00\x00\x00\x00\x00\x00\x00\x00\xf0?'
p1282
tp1283
bsg51
g7
sg52
(dp1284
I140514944277776
g1247
ssbsg52
(dp1285
I140514944277520
g1244
ssg51
g7
sbsg231
I2
sg232
g234
sg52
(dp1286
I140514937408016
g0
(g122
g2
Ntp1287
Rp1288
(dp1289
g49
I2
sg126
g0
(g127
g2
Ntp1290
Rp1291
(dp1292
g49
I1
sg131
g132
(g133
(I0
tp1293
g135
tp1294
Rp1295
(I1
(I2
tp1296
g59
I00
S'\x00\x00\x00\x00\x00\x00\xf0\x7f\x00\x00\x00\x00\x00\x00\xf0\x7f'
p1297
tp1298
bsg52
(dp1299
I140514937408016
g1288
ssg142
g132
(g133
(I0
tp1300
g135
tp1301
Rp1302
(I1
(I2
I2
tp1303
g59
I00
S'\x00\x00\x00\x00\x00\x00\x00\x00\x00\x00\x00\x00\x00\x00\x00\x00\x00\x00\x00\x00\x00\x00\xf0?\x00\x00\x00\x00\x00\x00\xf0?'
p1304
tp1305
bsg149
g132
(g133
(I0
tp1306
g135
tp1307
Rp1308
(I1
(I2
I2
tp1309
g59
I00
S'\x00\x00\x00\x00\x00\x00\x00\x00\x00\x00\x00\x00\x00\x00\x00\x00\x00\x00\x00\x00\x00\x00\xf0?\x00\x00\x00\x00\x00\x00\xf0?'
p1310
tp1311
bsg156
I01
sg51
g7
sbsg115
g1244
sg149
Nsg52
(dp1312
sg51
g7
sbssg51
g7
sbsI140514920422736
g0
(g176
g2
Ntp1313
Rp1314
(dp1315
g49
I2
sg180
I2
sg181
g0
(g176
g2
Ntp1316
Rp1317
(dp1318
g49
I1
sg180
I2
sg181
g0
(g116
g2
Ntp1319
Rp1320
(dp1321
g49
I1
sg120
Nsg50
Nsg121
g0
(g127
g2
Ntp1322
Rp1323
(dp1324
g49
I1
sg131
g132
(g133
(I0
tp1325
g135
tp1326
Rp1327
(I1
(I2
tp1328
g59
I00
S'\x00\x00\x00\x00\x00\x00\xf0\x7f\x00\x00\x00\x00\x00\x00\xf0\x7f'
p1329
tp1330
bsg52
(dp1331
I140514920422608
g1320
ssg142
g132
(g133
(I0
tp1332
g135
tp1333
Rp1334
(I1
(I2
I2
tp1335
g59
I00
S'\x00\x00\x00\x00\x00\x00\x00\x00\x00\x00\x00\x00\x00\x00\x00\x00\x00\x00\x00\x00\x00\x00\xf0?\x00\x00\x00\x00\x00\x00\xf0?'
p1336
tp1337
bsg149
g132
(g133
(I0
tp1338
g135
tp1339
Rp1340
(I1
(I2
I2
tp1341
g59
I00
S'\x00\x00\x00\x00\x00\x00\x00\x00\x00\x00\x00\x00\x00\x00\x00\x00\x00\x00\x00\x00\x00\x00\xf0?\x00\x00\x00\x00\x00\x00\xf0?'
p1342
tp1343
bsg156
I01
sg51
g7
sbsg52
(dp1344
I140514920422672
g1317
ssg51
g7
sbsg231
I2
sg232
g0
(g157
g2
Ntp1345
Rp1346
(dp1347
g49
I2
sg50
Nsg120
g132
(g133
(I0
tp1348
g135
tp1349
Rp1350
(I1
(I3
I3
tp1351
g59
I00
S'\x00\x00\x00\x00\x00\x00\xf0?\x00\x00\x00\x00\x00\x00\x00\x00\x00\x00\x00\x00\x00\x00\x00\x00\x00\x00\x00\x00\x00\x00\x00\x00\x00\x00\x00\x00\x00\x00\xf0?\x00\x00\x00\x00\x00\x00\x00\x00\x00\x00\x00\x00\x00\x00\x00\x00\x00\x00\x00\x00\x00\x00\x00\x00\x00\x00\x00\x00\x00\x00\xf0?'
p1352
tp1353
bsg51
g7
sg52
(dp1354
I140514920422672
g1317
ssbsg52
(dp1355
I140514920422736
g1314
ssg51
g7
sbsg231
I2
sg232
g234
sg52
(dp1356
I140514920422800
g0
(g122
g2
Ntp1357
Rp1358
(dp1359
g49
I2
sg126
g0
(g127
g2
Ntp1360
Rp1361
(dp1362
g49
I1
sg131
g132
(g133
(I0
tp1363
g135
tp1364
Rp1365
(I1
(I2
tp1366
g59
I00
S'\x00\x00\x00\x00\x00\x00\xf0\x7f\x00\x00\x00\x00\x00\x00\xf0\x7f'
p1367
tp1368
bsg52
(dp1369
I140514920422800
g1358
ssg142
g132
(g133
(I0
tp1370
g135
tp1371
Rp1372
(I1
(I2
I2
tp1373
g59
I00
S'\x00\x00\x00\x00\x00\x00\x00\x00\x00\x00\x00\x00\x00\x00\x00\x00\x00\x00\x00\x00\x00\x00\xf0?\x00\x00\x00\x00\x00\x00\xf0?'
p1374
tp1375
bsg149
g132
(g133
(I0
tp1376
g135
tp1377
Rp1378
(I1
(I2
I2
tp1379
g59
I00
S'\x00\x00\x00\x00\x00\x00\x00\x00\x00\x00\x00\x00\x00\x00\x00\x00\x00\x00\x00\x00\x00\x00\xf0?\x00\x00\x00\x00\x00\x00\xf0?'
p1380
tp1381
bsg156
I01
sg51
g7
sbsg115
g1314
sg149
Nsg52
(dp1382
sg51
g7
sbssg51
g7
sbsI140514947001616
g0
(cmatplotlib.transforms
BlendedAffine2D
p1383
g2
Ntp1384
Rp1385
(dp1386
g49
I2
sg120
Nsg75
g0
(g45
g2
Ntp1387
Rp1388
(dp1389
g49
I1
sg50
Nsg51
g7
sg52
(dp1390
I140514947001616
g1385
ssbsg76
g234
sg50
Nsg51
g7
sg52
(dp1391
sbsI140514944197456
g0
(g1383
g2
Ntp1392
Rp1393
(dp1394
g49
I2
sg120
Nsg75
g0
(g45
g2
Ntp1395
Rp1396
(dp1397
g49
I1
sg50
Nsg51
g7
sg52
(dp1398
I140514944197456
g1393
ssbsg76
g234
sg50
Nsg51
g7
sg52
(dp1399
sbsI140514937409296
g0
(g176
g2
Ntp1400
Rp1401
(dp1402
g49
I2
sg180
I2
sg181
g0
(g176
g2
Ntp1403
Rp1404
(dp1405
g49
I1
sg180
I2
sg181
g0
(g116
g2
Ntp1406
Rp1407
(dp1408
g49
I1
sg120
Nsg50
Nsg121
g0
(g127
g2
Ntp1409
Rp1410
(dp1411
g49
I1
sg131
g132
(g133
(I0
tp1412
g135
tp1413
Rp1414
(I1
(I2
tp1415
g59
I00
S'\x00\x00\x00\x00\x00\x00\xf0\x7f\x00\x00\x00\x00\x00\x00\xf0\x7f'
p1416
tp1417
bsg52
(dp1418
I140514937409168
g1407
ssg142
g132
(g133
(I0
tp1419
g135
tp1420
Rp1421
(I1
(I2
I2
tp1422
g59
I00
S'\x00\x00\x00\x00\x00\x00\x00\x00\x00\x00\x00\x00\x00\x00\x00\x00\x00\x00\x00\x00\x00\x00\xf0?\x00\x00\x00\x00\x00\x00\xf0?'
p1423
tp1424
bsg149
g132
(g133
(I0
tp1425
g135
tp1426
Rp1427
(I1
(I2
I2
tp1428
g59
I00
S'\x00\x00\x00\x00\x00\x00\x00\x00\x00\x00\x00\x00\x00\x00\x00\x00\x00\x00\x00\x00\x00\x00\xf0?\x00\x00\x00\x00\x00\x00\xf0?'
p1429
tp1430
bsg156
I01
sg51
g7
sbsg52
(dp1431
I140514937409232
g1404
ssg51
g7
sbsg231
I2
sg232
g0
(g157
g2
Ntp1432
Rp1433
(dp1434
g49
I2
sg50
Nsg120
g132
(g133
(I0
tp1435
g135
tp1436
Rp1437
(I1
(I3
I3
tp1438
g59
I00
S'\x00\x00\x00\x00\x00\x00\xf0?\x00\x00\x00\x00\x00\x00\x00\x00\x00\x00\x00\x00\x00\x00\x00\x00\x00\x00\x00\x00\x00\x00\x00\x00\x00\x00\x00\x00\x00\x00\xf0?\x00\x00\x00\x00\x00\x00\x00\x00\x00\x00\x00\x00\x00\x00\x00\x00\x00\x00\x00\x00\x00\x00\x00\x00\x00\x00\x00\x00\x00\x00\xf0?'
p1439
tp1440
bsg51
g7
sg52
(dp1441
I140514937409232
g1404
ssbsg52
(dp1442
I140514937409296
g1401
ssg51
g7
sbsg231
I2
sg232
g234
sg52
(dp1443
I140514937409360
g0
(g122
g2
Ntp1444
Rp1445
(dp1446
g49
I2
sg126
g0
(g127
g2
Ntp1447
Rp1448
(dp1449
g49
I1
sg131
g132
(g133
(I0
tp1450
g135
tp1451
Rp1452
(I1
(I2
tp1453
g59
I00
S'\x00\x00\x00\x00\x00\x00\xf0\x7f\x00\x00\x00\x00\x00\x00\xf0\x7f'
p1454
tp1455
bsg52
(dp1456
I140514937409360
g1445
ssg142
g132
(g133
(I0
tp1457
g135
tp1458
Rp1459
(I1
(I2
I2
tp1460
g59
I00
S'\x00\x00\x00\x00\x00\x00\x00\x00\x00\x00\x00\x00\x00\x00\x00\x00\x00\x00\x00\x00\x00\x00\xf0?\x00\x00\x00\x00\x00\x00\xf0?'
p1461
tp1462
bsg149
g132
(g133
(I0
tp1463
g135
tp1464
Rp1465
(I1
(I2
I2
tp1466
g59
I00
S'\x00\x00\x00\x00\x00\x00\x00\x00\x00\x00\x00\x00\x00\x00\x00\x00\x00\x00\x00\x00\x00\x00\xf0?\x00\x00\x00\x00\x00\x00\xf0?'
p1467
tp1468
bsg156
I01
sg51
g7
sbsg115
g1401
sg149
Nsg52
(dp1469
sg51
g7
sbssg51
g7
sbsI140514937406416
g0
(g176
g2
Ntp1470
Rp1471
(dp1472
g49
I2
sg180
I2
sg181
g0
(g176
g2
Ntp1473
Rp1474
(dp1475
g49
I1
sg180
I2
sg181
g0
(g116
g2
Ntp1476
Rp1477
(dp1478
g49
I1
sg120
Nsg50
Nsg121
g0
(g127
g2
Ntp1479
Rp1480
(dp1481
g49
I1
sg131
g132
(g133
(I0
tp1482
g135
tp1483
Rp1484
(I1
(I2
tp1485
g59
I00
S'\x00\x00\x00\x00\x00\x00\xf0\x7f\x00\x00\x00\x00\x00\x00\xf0\x7f'
p1486
tp1487
bsg52
(dp1488
I140514937406352
g1477
ssg142
g132
(g133
(I0
tp1489
g135
tp1490
Rp1491
(I1
(I2
I2
tp1492
g59
I00
S'\x00\x00\x00\x00\x00\x00\x00\x00\x00\x00\x00\x00\x00\x00\x00\x00\x00\x00\x00\x00\x00\x00\xf0?\x00\x00\x00\x00\x00\x00\xf0?'
p1493
tp1494
bsg149
g132
(g133
(I0
tp1495
g135
tp1496
Rp1497
(I1
(I2
I2
tp1498
g59
I00
S'\x00\x00\x00\x00\x00\x00\x00\x00\x00\x00\x00\x00\x00\x00\x00\x00\x00\x00\x00\x00\x00\x00\xf0?\x00\x00\x00\x00\x00\x00\xf0?'
p1499
tp1500
bsg156
I01
sg51
g7
sbsg52
(dp1501
I140514937406160
g1474
ssg51
g7
sbsg231
I2
sg232
g0
(g157
g2
Ntp1502
Rp1503
(dp1504
g49
I2
sg50
Nsg120
g132
(g133
(I0
tp1505
g135
tp1506
Rp1507
(I1
(I3
I3
tp1508
g59
I00
S'\x00\x00\x00\x00\x00\x00\xf0?\x00\x00\x00\x00\x00\x00\x00\x00\x00\x00\x00\x00\x00\x00\x00\x00\x00\x00\x00\x00\x00\x00\x00\x00\x00\x00\x00\x00\x00\x00\xf0?\x00\x00\x00\x00\x00\x00\x00\x00\x00\x00\x00\x00\x00\x00\x00\x00\x00\x00\x00\x00\x00\x00\x00\x00\x00\x00\x00\x00\x00\x00\xf0?'
p1509
tp1510
bsg51
g7
sg52
(dp1511
I140514937406160
g1474
ssbsg52
(dp1512
I140514937406416
g1471
ssg51
g7
sbsg231
I2
sg232
g234
sg52
(dp1513
I140514937406480
g0
(g122
g2
Ntp1514
Rp1515
(dp1516
g49
I2
sg126
g0
(g127
g2
Ntp1517
Rp1518
(dp1519
g49
I1
sg131
g132
(g133
(I0
tp1520
g135
tp1521
Rp1522
(I1
(I2
tp1523
g59
I00
S'\x00\x00\x00\x00\x00\x00\xf0\x7f\x00\x00\x00\x00\x00\x00\xf0\x7f'
p1524
tp1525
bsg52
(dp1526
I140514937406480
g1515
ssg142
g132
(g133
(I0
tp1527
g135
tp1528
Rp1529
(I1
(I2
I2
tp1530
g59
I00
S'\x00\x00\x00\x00\x00\x00\x00\x00\x00\x00\x00\x00\x00\x00\x00\x00\x00\x00\x00\x00\x00\x00\xf0?\x00\x00\x00\x00\x00\x00\xf0?'
p1531
tp1532
bsg149
g132
(g133
(I0
tp1533
g135
tp1534
Rp1535
(I1
(I2
I2
tp1536
g59
I00
S'\x00\x00\x00\x00\x00\x00\x00\x00\x00\x00\x00\x00\x00\x00\x00\x00\x00\x00\x00\x00\x00\x00\xf0?\x00\x00\x00\x00\x00\x00\xf0?'
p1537
tp1538
bsg156
I01
sg51
g7
sbsg115
g1471
sg149
Nsg52
(dp1539
sg51
g7
sbssg51
g7
sbsI140514946998352
g0
(g1383
g2
Ntp1540
Rp1541
(dp1542
g49
I2
sg120
Nsg75
g0
(g45
g2
Ntp1543
Rp1544
(dp1545
g49
I1
sg50
Nsg51
g7
sg52
(dp1546
I140514946998352
g1541
ssbsg76
g234
sg50
Nsg51
g7
sg52
(dp1547
sbsI140514937300304
g0
(g182
g2
Ntp1548
Rp1549
(dp1550
g49
I2
sg75
g234
sg76
g187
sS'_affine'
p1551
Nsg52
(dp1552
I140514944199632
g0
(g176
g2
Ntp1553
Rp1554
(dp1555
g49
I2
sg180
I2
sg181
g1549
sg231
I2
sg232
g0
(g168
g2
Ntp1556
Rp1557
(dp1558
g49
I1
sg120
Nsg172
g159
sg50
Nsg173
(I0
F-0.04861111111111111
tp1559
sg51
g7
sg52
(dp1560
I140514944199632
g1554
ssbsg52
(dp1561
sg51
g7
sbsI140514937425040
g0
(g176
g2
Ntp1562
Rp1563
(dp1564
g49
I2
sg180
I2
sg181
g1549
sg231
I2
sg232
g0
(g168
g2
Ntp1565
Rp1566
(dp1567
g49
I1
sg120
Nsg172
g159
sg50
Nsg173
(I0
F-0.04722222222222222
tp1568
sg51
g7
sg52
(dp1569
I140514937425040
g1563
ssbsg52
(dp1570
sg51
g7
sbsI140514944199888
g0
(g176
g2
Ntp1571
Rp1572
(dp1573
g49
I2
sg180
I2
sg181
g1549
sg231
I2
sg232
g0
(g168
g2
Ntp1574
Rp1575
(dp1576
g49
I1
sg120
Nsg172
g159
sg50
Nsg173
(I0
F0.04722222222222222
tp1577
sg51
g7
sg52
(dp1578
I140514944199888
g1572
ssbsg52
(dp1579
sg51
g7
sbsI140514944199120
g0
(g176
g2
Ntp1580
Rp1581
(dp1582
g49
I2
sg180
I2
sg181
g1549
sg231
I2
sg232
g0
(g168
g2
Ntp1583
Rp1584
(dp1585
g49
I1
sg120
Nsg172
g159
sg50
Nsg173
(I0
F0.04861111111111111
tp1586
sg51
g7
sg52
(dp1587
I140514944199120
g1581
ssbsg52
(dp1588
sg51
g7
sbsI140514944276432
g0
(g176
g2
Ntp1589
Rp1590
(dp1591
g49
I2
sg180
I2
sg181
g1549
sg231
I2
sg232
g0
(g168
g2
Ntp1592
Rp1593
(dp1594
g49
I1
sg120
Nsg172
g159
sg50
Nsg173
(I0
F0.04861111111111111
tp1595
sg51
g7
sg52
(dp1596
I140514944276432
g1590
ssbsg52
(dp1597
sg51
g7
sbsI140514937425296
g0
(g176
g2
Ntp1598
Rp1599
(dp1600
g49
I2
sg180
I2
sg181
g1549
sg231
I2
sg232
g0
(g168
g2
Ntp1601
Rp1602
(dp1603
g49
I1
sg120
Nsg172
g159
sg50
Nsg173
(I0
F0.04722222222222222
tp1604
sg51
g7
sg52
(dp1605
I140514937425296
g1599
ssbsg52
(dp1606
sg51
g7
sbsI140514944277968
g0
(g176
g2
Ntp1607
Rp1608
(dp1609
g49
I2
sg180
I2
sg181
g1549
sg231
I2
sg232
g0
(g168
g2
Ntp1610
Rp1611
(dp1612
g49
I1
sg120
Nsg172
g159
sg50
Nsg173
(I0
F-0.04861111111111111
tp1613
sg51
g7
sg52
(dp1614
I140514944277968
g1608
ssbsg52
(dp1615
sg51
g7
sbsI140514944198160
g0
(g176
g2
Ntp1616
Rp1617
(dp1618
g49
I2
sg180
I2
sg181
g1549
sg231
I2
sg232
g0
(g168
g2
Ntp1619
Rp1620
(dp1621
g49
I1
sg120
Nsg172
g159
sg50
Nsg173
(I0
F-0.04722222222222222
tp1622
sg51
g7
sg52
(dp1623
I140514944198160
g1617
ssbsg52
(dp1624
sg51
g7
sbssg51
g7
sbsI140514920419536
g0
(g176
g2
Ntp1625
Rp1626
(dp1627
g49
I2
sg180
I2
sg181
g0
(g176
g2
Ntp1628
Rp1629
(dp1630
g49
I1
sg180
I2
sg181
g0
(g116
g2
Ntp1631
Rp1632
(dp1633
g49
I1
sg120
Nsg50
Nsg121
g0
(g127
g2
Ntp1634
Rp1635
(dp1636
g49
I1
sg131
g132
(g133
(I0
tp1637
g135
tp1638
Rp1639
(I1
(I2
tp1640
g59
I00
S'\x00\x00\x00\x00\x00\x00\xf0\x7f\x00\x00\x00\x00\x00\x00\xf0\x7f'
p1641
tp1642
bsg52
(dp1643
I140514920419408
g1632
ssg142
g132
(g133
(I0
tp1644
g135
tp1645
Rp1646
(I1
(I2
I2
tp1647
g59
I00
S'\x00\x00\x00\x00\x00\x00\x00\x00\x00\x00\x00\x00\x00\x00\x00\x00\x00\x00\x00\x00\x00\x00\xf0?\x00\x00\x00\x00\x00\x00\xf0?'
p1648
tp1649
bsg149
g132
(g133
(I0
tp1650
g135
tp1651
Rp1652
(I1
(I2
I2
tp1653
g59
I00
S'\x00\x00\x00\x00\x00\x00\x00\x00\x00\x00\x00\x00\x00\x00\x00\x00\x00\x00\x00\x00\x00\x00\xf0?\x00\x00\x00\x00\x00\x00\xf0?'
p1654
tp1655
bsg156
I01
sg51
g7
sbsg52
(dp1656
I140514920419472
g1629
ssg51
g7
sbsg231
I2
sg232
g0
(g157
g2
Ntp1657
Rp1658
(dp1659
g49
I2
sg50
Nsg120
g132
(g133
(I0
tp1660
g135
tp1661
Rp1662
(I1
(I3
I3
tp1663
g59
I00
S'\x00\x00\x00\x00\x00\x00\xf0?\x00\x00\x00\x00\x00\x00\x00\x00\x00\x00\x00\x00\x00\x00\x00\x00\x00\x00\x00\x00\x00\x00\x00\x00\x00\x00\x00\x00\x00\x00\xf0?\x00\x00\x00\x00\x00\x00\x00\x00\x00\x00\x00\x00\x00\x00\x00\x00\x00\x00\x00\x00\x00\x00\x00\x00\x00\x00\x00\x00\x00\x00\xf0?'
p1664
tp1665
bsg51
g7
sg52
(dp1666
I140514920419472
g1629
ssbsg52
(dp1667
I140514920419536
g1626
ssg51
g7
sbsg231
I2
sg232
g234
sg52
(dp1668
I140514920419600
g0
(g122
g2
Ntp1669
Rp1670
(dp1671
g49
I2
sg126
g0
(g127
g2
Ntp1672
Rp1673
(dp1674
g49
I1
sg131
g132
(g133
(I0
tp1675
g135
tp1676
Rp1677
(I1
(I2
tp1678
g59
I00
S'\x00\x00\x00\x00\x00\x00\xf0\x7f\x00\x00\x00\x00\x00\x00\xf0\x7f'
p1679
tp1680
bsg52
(dp1681
I140514920419600
g1670
ssg142
g132
(g133
(I0
tp1682
g135
tp1683
Rp1684
(I1
(I2
I2
tp1685
g59
I00
S'\x00\x00\x00\x00\x00\x00\x00\x00\x00\x00\x00\x00\x00\x00\x00\x00\x00\x00\x00\x00\x00\x00\xf0?\x00\x00\x00\x00\x00\x00\xf0?'
p1686
tp1687
bsg149
g132
(g133
(I0
tp1688
g135
tp1689
Rp1690
(I1
(I2
I2
tp1691
g59
I00
S'\x00\x00\x00\x00\x00\x00\x00\x00\x00\x00\x00\x00\x00\x00\x00\x00\x00\x00\x00\x00\x00\x00\xf0?\x00\x00\x00\x00\x00\x00\xf0?'
p1692
tp1693
bsg156
I01
sg51
g7
sbsg115
g1626
sg149
Nsg52
(dp1694
sg51
g7
sbssg51
g7
sbsI140514937299216
g184
sI140514944197200
g0
(g1383
g2
Ntp1695
Rp1696
(dp1697
g49
I2
sg120
Nsg75
g234
sg76
g0
(g45
g2
Ntp1698
Rp1699
(dp1700
g49
I1
sg50
Nsg51
g7
sg52
(dp1701
I140514944197200
g1696
ssbsg50
Nsg51
g7
sg52
(dp1702
sbsI140514937405904
g0
(g176
g2
Ntp1703
Rp1704
(dp1705
g49
I2
sg180
I2
sg181
g234
sg231
I2
sg232
g0
(g168
g2
Ntp1706
Rp1707
(dp1708
g49
I1
sg120
Nsg172
g159
sg50
Nsg173
(F0.0
F0.08333333333333333
tp1709
sg51
g7
sg52
(dp1710
I140514937405904
g1704
sI140514937405968
g0
(g176
g2
Ntp1711
Rp1712
(dp1713
g49
I2
sg180
I2
sg181
g234
sg231
I2
sg232
g1707
sg52
(dp1714
sg51
g7
sbsI140514937406032
g0
(g176
g2
Ntp1715
Rp1716
(dp1717
g49
I2
sg180
I2
sg181
g234
sg231
I2
sg232
g1707
sg52
(dp1718
sg51
g7
sbssbsg52
(dp1719
sg51
g7
sbsI140514937405968
g1712
sI140514937301200
g229
sI140514937406032
g1716
sI140514920420048
g0
(g176
g2
Ntp1720
Rp1721
(dp1722
g49
I2
sg180
I2
sg181
g0
(g176
g2
Ntp1723
Rp1724
(dp1725
g49
I1
sg180
I2
sg181
g0
(g116
g2
Ntp1726
Rp1727
(dp1728
g49
I1
sg120
Nsg50
Nsg121
g0
(g127
g2
Ntp1729
Rp1730
(dp1731
g49
I1
sg131
g132
(g133
(I0
tp1732
g135
tp1733
Rp1734
(I1
(I2
tp1735
g59
I00
S'\x00\x00\x00\x00\x00\x00\xf0\x7f\x00\x00\x00\x00\x00\x00\xf0\x7f'
p1736
tp1737
bsg52
(dp1738
I140514920419920
g1727
ssg142
g132
(g133
(I0
tp1739
g135
tp1740
Rp1741
(I1
(I2
I2
tp1742
g59
I00
S'\x00\x00\x00\x00\x00\x00\x00\x00\x00\x00\x00\x00\x00\x00\x00\x00\x00\x00\x00\x00\x00\x00\xf0?\x00\x00\x00\x00\x00\x00\xf0?'
p1743
tp1744
bsg149
g132
(g133
(I0
tp1745
g135
tp1746
Rp1747
(I1
(I2
I2
tp1748
g59
I00
S'\x00\x00\x00\x00\x00\x00\x00\x00\x00\x00\x00\x00\x00\x00\x00\x00\x00\x00\x00\x00\x00\x00\xf0?\x00\x00\x00\x00\x00\x00\xf0?'
p1749
tp1750
bsg156
I01
sg51
g7
sbsg52
(dp1751
I140514920419984
g1724
ssg51
g7
sbsg231
I2
sg232
g0
(g157
g2
Ntp1752
Rp1753
(dp1754
g49
I2
sg50
Nsg120
g132
(g133
(I0
tp1755
g135
tp1756
Rp1757
(I1
(I3
I3
tp1758
g59
I00
S'\x00\x00\x00\x00\x00\x00\xf0?\x00\x00\x00\x00\x00\x00\x00\x00\x00\x00\x00\x00\x00\x00\x00\x00\x00\x00\x00\x00\x00\x00\x00\x00\x00\x00\x00\x00\x00\x00\xf0?\x00\x00\x00\x00\x00\x00\x00\x00\x00\x00\x00\x00\x00\x00\x00\x00\x00\x00\x00\x00\x00\x00\x00\x00\x00\x00\x00\x00\x00\x00\xf0?'
p1759
tp1760
bsg51
g7
sg52
(dp1761
I140514920419984
g1724
ssbsg52
(dp1762
I140514920420048
g1721
ssg51
g7
sbsg231
I2
sg232
g234
sg52
(dp1763
I140514920420112
g0
(g122
g2
Ntp1764
Rp1765
(dp1766
g49
I2
sg126
g0
(g127
g2
Ntp1767
Rp1768
(dp1769
g49
I1
sg131
g132
(g133
(I0
tp1770
g135
tp1771
Rp1772
(I1
(I2
tp1773
g59
I00
S'\x00\x00\x00\x00\x00\x00\xf0\x7f\x00\x00\x00\x00\x00\x00\xf0\x7f'
p1774
tp1775
bsg52
(dp1776
I140514920420112
g1765
ssg142
g132
(g133
(I0
tp1777
g135
tp1778
Rp1779
(I1
(I2
I2
tp1780
g59
I00
S'\x00\x00\x00\x00\x00\x00\x00\x00\x00\x00\x00\x00\x00\x00\x00\x00\x00\x00\x00\x00\x00\x00\xf0?\x00\x00\x00\x00\x00\x00\xf0?'
p1781
tp1782
bsg149
g132
(g133
(I0
tp1783
g135
tp1784
Rp1785
(I1
(I2
I2
tp1786
g59
I00
S'\x00\x00\x00\x00\x00\x00\x00\x00\x00\x00\x00\x00\x00\x00\x00\x00\x00\x00\x00\x00\x00\x00\xf0?\x00\x00\x00\x00\x00\x00\xf0?'
p1787
tp1788
bsg156
I01
sg51
g7
sbsg115
g1721
sg149
Nsg52
(dp1789
sg51
g7
sbssg51
g7
sbssg51
g7
sbsg52
(dp1790
I140514937300944
g187
ssg51
g7
sbssbssg51
g7
sbsI140514937300944
g187
ssVinput_dims
p1791
I2
sVchild
p1792
g0
(g1383
g2
Ntp1793
Rp1794
(dp1795
g49
I0
sg120
g132
(g133
(I0
tp1796
g135
tp1797
Rp1798
(I1
(I3
I3
tp1799
g59
I00
S'\x00\x00\x00\x00\x00\x00\xf0?\x00\x00\x00\x00\x00\x00\x00\x00\x00\x00\x00\x00\x00\x00\x00\x00\x00\x00\x00\x00\x00\x00\x00\x00\x00\x00\x00\x00\x00\x00\xf0?\x00\x00\x00\x00\x00\x00\x00\x00\x00\x00\x00\x00\x00\x00\x00\x00\x00\x00\x00\x00\x00\x00\x00\x00\x00\x00\x00\x00\x00\x00\xf0?'
p1800
tp1801
bsg75
g0
(g45
g2
Ntp1802
Rp1803
(dp1804
g49
I1
sg50
Nsg51
g7
sg52
(dp1805
I140514937425680
g1794
ssbsg76
g0
(g45
g2
Ntp1806
Rp1807
(dp1808
g49
I1
sg50
Nsg51
g7
sg52
(dp1809
I140514937425680
g1794
ssbsg50
Nsg51
g7
sg52
(dp1810
I140514937300176
g191
ssbsbsg231
I2
sg232
g229
sg52
(dp1811
I140514937300304
g1549
sI140514937299216
g184
ssg51
g7
sbsg76
g234
sg1551
Nsg52
(dp1812
I140514944278288
g178
sI140514944277648
g0
(g176
g2
Ntp1813
Rp1814
(dp1815
g49
I2
sg180
I2
sg181
g184
sg231
I2
sg232
g0
(g168
g2
Ntp1816
Rp1817
(dp1818
g49
I1
sg120
Nsg172
g159
sg50
Nsg173
(F-0.04861111111111111
I0
tp1819
sg51
g7
sg52
(dp1820
I140514944277648
g1814
ssbsg52
(dp1821
sg51
g7
sbsI140514937422096
g0
(g176
g2
Ntp1822
Rp1823
(dp1824
g49
I2
sg180
I2
sg181
g184
sg231
I2
sg232
g0
(g168
g2
Ntp1825
Rp1826
(dp1827
g49
I1
sg120
Nsg172
g159
sg50
Nsg173
(F-0.04861111111111111
I0
tp1828
sg51
g7
sg52
(dp1829
I140514937422096
g1823
ssbsg52
(dp1830
sg51
g7
sbsI140514937423376
g0
(g176
g2
Ntp1831
Rp1832
(dp1833
g49
I2
sg180
I2
sg181
g184
sg231
I2
sg232
g0
(g168
g2
Ntp1834
Rp1835
(dp1836
g49
I1
sg120
Nsg172
g159
sg50
Nsg173
(F-0.04722222222222222
I0
tp1837
sg51
g7
sg52
(dp1838
I140514937423376
g1832
ssbsg52
(dp1839
sg51
g7
sbsI140514944200208
g0
(g176
g2
Ntp1840
Rp1841
(dp1842
g49
I2
sg180
I2
sg181
g184
sg231
I2
sg232
g0
(g168
g2
Ntp1843
Rp1844
(dp1845
g49
I1
sg120
Nsg172
g159
sg50
Nsg173
(F0.04722222222222222
I0
tp1846
sg51
g7
sg52
(dp1847
I140514944200208
g1841
ssbsg52
(dp1848
sg51
g7
sbsI140514944277136
g0
(g176
g2
Ntp1849
Rp1850
(dp1851
g49
I2
sg180
I2
sg181
g184
sg231
I2
sg232
g0
(g168
g2
Ntp1852
Rp1853
(dp1854
g49
I1
sg120
Nsg172
g159
sg50
Nsg173
(F-0.04722222222222222
I0
tp1855
sg51
g7
sg52
(dp1856
I140514944277136
g1850
ssbsg52
(dp1857
sg51
g7
sbsI140514937423632
g0
(g176
g2
Ntp1858
Rp1859
(dp1860
g49
I2
sg180
I2
sg181
g184
sg231
I2
sg232
g0
(g168
g2
Ntp1861
Rp1862
(dp1863
g49
I1
sg120
Nsg172
g159
sg50
Nsg173
(F0.04722222222222222
I0
tp1864
sg51
g7
sg52
(dp1865
I140514937423632
g1859
ssbsg52
(dp1866
sg51
g7
sbsI140514937422352
g0
(g176
g2
Ntp1867
Rp1868
(dp1869
g49
I2
sg180
I2
sg181
g184
sg231
I2
sg232
g0
(g168
g2
Ntp1870
Rp1871
(dp1872
g49
I1
sg120
Nsg172
g159
sg50
Nsg173
(F0.04861111111111111
I0
tp1873
sg51
g7
sg52
(dp1874
I140514937422352
g1868
ssbsg52
(dp1875
sg51
g7
sbssg51
g7
sbsg231
I2
sg232
g170
sg52
(dp1876
sg51
g7
sbssbsI140514944277456
g1817
sI140514944200592
g1557
sI140514944277200
g1853
sI140514937425872
g1707
sI140514936552464
g124
sI140514937424976
g1566
sI140514944277584
g1593
sI140514944199568
g1620
sI140514937425232
g1602
sI140514944199056
g1584
sI140514937423312
g1835
sI140514937422288
g1871
sI140514944278032
g1611
sI140514944199248
g1575
sI140514937421904
g1826
sI140514937423568
g1862
sI140514944197584
g1844
ssbsg149
Nsg52
(dp1877
I140514936552528
g118
ssg51
g7
sbsg52
(dp1878
I140514954108368
g237
ssg51
g7
sbsS'_us_dashes'
p1879
(NNtp1880
sS'_capstyle'
p1881
Vbutt
p1882
sS'_url'
p1883
Nsg25
NsS'_axes'
p1884
Nsg34
Nsbsg42
Nsg88
NsV_restore_to_pylab
p1885
I01
sS'images'
p1886
(lp1887
sS'_suptitle'
p1888
NsS'dpi_scale_trans'
p1889
g159
sS'number'
p1890
I1
sS'callbacks'
p1891
g0
(cmatplotlib.cbook
CallbackRegistry
p1892
g2
Ntp1893
Rp1894
I01
bsg96
NsS'_tight'
p1895
I00
sg86
I01
sS'bbox'
p1896
g124
sg103
g0
(g104
g105
((lp1897
(lp1898
tp1899
tp1900
Rp1901
sg111
I0
sS'patches'
p1902
(lp1903
sS'legends'
p1904
(lp1905
sS'suppressComposite'
p1906
Nsg112
I00
sg114
NsS'_axstack'
p1907
g0
(cmatplotlib.figure
AxesStack
p1908
g2
Ntp1909
Rp1910
(dp1911
S'_default'
p1912
NsS'_elements'
p1913
(lp1914
(((g0
(cmatplotlib.gridspec
SubplotSpec
p1915
g2
Ntp1916
Rp1917
(dp1918
S'num1'
p1919
I0
sS'num2'
p1920
I0
sS'_gridspec'
p1921
g0
(cmatplotlib.gridspec
GridSpec
p1922
g2
Ntp1923
Rp1924
(dp1925
S'_nrows'
p1926
I1
sS'right'
p1927
NsS'_col_width_ratios'
p1928
NsS'bottom'
p1929
NsS'top'
p1930
NsS'wspace'
p1931
NsS'_ncols'
p1932
I1
sS'hspace'
p1933
NsS'_row_height_ratios'
p1934
NsS'left'
p1935
Nsbsbtp1936
(ttp1937
(I1
g0
(cmatplotlib.axes._subplots
_PicklableSubplotClassConstructor
p1938
g2
Ntp1939
Rp1940
(cmatplotlib.axes._axes
Axes
p1941
tp1942
Rp1943
(dp1944
S'transLimits'
p1945
g224
sS'_get_patches_for_fill'
p1946
g0
(cmatplotlib.axes._base
_process_plot_var_args
p1947
g2
Ntp1948
Rp1949
(dp1950
Vaxes
p1951
g1943
sVcommand
p1952
Vfill
p1953
sbsS'_xcid'
p1954
I1
sg6
V
p1955
sS'legend_'
p1956
g0
(cmatplotlib.legend
Legend
p1957
g2
Ntp1958
Rp1959
(dp1960
g6
g7
sS'markerscale'
p1961
F1.0
sg9
g4
sS'legendHandles'
p1962
(lp1963
g0
(g36
g2
Ntp1964
Rp1965
(dp1966
g6
VControl
p1967
sg40
F20.0
sg41
I00
sg9
g4
sg8
I01
sg10
Nsg42
Nsg17
g18
sg43
Nsg20
I01
sg44
g0
(g45
g2
Ntp1968
Rp1969
(dp1970
g49
I1
sg50
Nsg51
g7
sg52
(dp1971
sbsg54
(g55
(g59
S'\x10\x10\x10\x10\x10\x10\xe0?'
p1972
tp1973
Rp1974
g55
(g59
S'\x10\x10\x10\x10\x10\x10\xe0?'
p1975
tp1976
Rp1977
g55
(g59
S'\x10\x10\x10\x10\x10\x10\xe0?'
p1978
tp1979
Rp1980
g55
(g59
S'\x00\x00\x00\x00\x00\x00\xf0?'
p1981
tp1982
Rp1983
tp1984
sg23
Nsg75
F-0.0
sg76
F-0.0
sg24
Nsg77
Nsg11
Nsg28
I00
sg29
I00
sg30
(dp1985
sg80
g0
(g45
g2
Ntp1986
Rp1987
(dp1988
g49
I1
sg50
Nsg51
g7
sg52
(dp1989
sbsg32
I00
sg85
Nsg86
I01
sg87
F1.0
sg88
Nsg89
F7.0
sg33
Nsg90
g1984
sg91
Nsg92
I01
sg93
Nsg94
Nsg96
Nsg97
(g55
(g59
S'\x10\x10\x10\x10\x10\x10\xe0?'
p1990
tp1991
Rp1992
g55
(g59
S'\x10\x10\x10\x10\x10\x10\xe0?'
p1993
tp1994
Rp1995
g55
(g59
S'\x10\x10\x10\x10\x10\x10\xe0?'
p1996
tp1997
Rp1998
I0
tp1999
sg99
g100
sg101
g102
sg103
g0
(g104
g105
((lp2000
(lp2001
I0
atp2002
tp2003
Rp2004
sg111
I0
sg112
I01
sg113
F0.0
sg114
Nsg115
g0
(cmatplotlib.transforms
CompositeAffine2D
p2005
g2
Ntp2006
Rp2007
(dp2008
g49
I1
sg180
I2
sg50
Nsg51
g7
sg120
Nsg52
(dp2009
sg231
I2
sg232
g0
(g157
g2
Ntp2010
Rp2011
(dp2012
g49
I2
sg50
Nsg120
g132
(g133
(I0
tp2013
g135
tp2014
Rp2015
(I1
(I3
I3
tp2016
g59
I00
S'\x00\x00\x00\x00\x00\x00\xf0?\x00\x00\x00\x00\x00\x00\x00\x00\x00\x00\x00\x00\x00\x00\x00\x00\x00\x00\x00\x00\x00\x00\x00\x00\x00\x00\x00\x00\x00\x00\xf0?\x00\x00\x00\x00\x00\x00\x00\x00\x00\x00\x00\x00\x00\x00\x00\x00\x00\x00\x00\x00\x00\x00\x00\x00\x00\x00\x00\x00\x00\x00\xf0?'
p2017
tp2018
bsg51
g7
sg52
(dp2019
I140514920386320
g2007
ssbsg181
g0
(g157
g2
Ntp2020
Rp2021
(dp2022
g49
I0
sg50
Nsg120
g132
(g133
(I0
tp2023
g135
tp2024
Rp2025
(I1
(I3
I3
tp2026
g59
I00
S'\x00\x00\x00\x00\x00\x00\xf0?\x00\x00\x00\x00\x00\x00\x00\x00\x00\x00\x00\x00\x00\x00\x00\x00\x00\x00\x00\x00\x00\x00\x00\x00\x00\x00\x00\x00\x00\x00\xf0?\x00\x00\x00\x00\x00\x00\x00\x00\x00\x00\x00\x00\x00\x00\x00\x00\x00\x00\x00\x00\x00\x00\x00\x00\x00\x00\x00\x00\x00\x00\xf0?'
p2027
tp2028
bsg51
g7
sg52
(dp2029
I140514920386320
g2007
ssbsbsg1879
(NNtp2030
sg1881
g1882
sg1883
Nsg25
Nsg1884
g1943
sg34
Nsbag0
(g36
g2
Ntp2031
Rp2032
(dp2033
g6
VGABAzine
p2034
sg40
F20.0
sg41
I00
sg9
g4
sg8
I01
sg10
Nsg42
Nsg17
g18
sg43
Nsg20
I01
sg44
g0
(g45
g2
Ntp2035
Rp2036
(dp2037
g49
I1
sg50
Nsg51
g7
sg52
(dp2038
sbsg54
(g55
(g59
S'\x00\x00\x00\x00\x00\x00\xf0?'
p2039
tp2040
Rp2041
g55
(g59
S'\x00\x00\x00\x00\x00\x00\x00\x00'
p2042
tp2043
Rp2044
g55
(g59
S'\x00\x00\x00\x00\x00\x00\x00\x00'
p2045
tp2046
Rp2047
g55
(g59
S'\x00\x00\x00\x00\x00\x00\xf0?'
p2048
tp2049
Rp2050
tp2051
sg23
Nsg75
F-0.0
sg76
F-0.0
sg24
Nsg77
Nsg11
Nsg28
I00
sg29
I00
sg30
(dp2052
sg80
g0
(g45
g2
Ntp2053
Rp2054
(dp2055
g49
I1
sg50
Nsg51
g7
sg52
(dp2056
sbsg32
I00
sg85
Nsg86
I01
sg87
F1.0
sg88
Nsg89
F7.0
sg33
Nsg90
g2051
sg91
Nsg92
I01
sg93
Nsg94
Nsg96
Nsg97
(g55
(g59
S'\x00\x00\x00\x00\x00\x00\xf0?'
p2057
tp2058
Rp2059
g55
(g59
S'\x00\x00\x00\x00\x00\x00\x00\x00'
p2060
tp2061
Rp2062
g55
(g59
S'\x00\x00\x00\x00\x00\x00\x00\x00'
p2063
tp2064
Rp2065
I0
tp2066
sg99
g100
sg101
g102
sg103
g0
(g104
g105
((lp2067
(lp2068
I0
atp2069
tp2070
Rp2071
sg111
I0
sg112
I01
sg113
F0.0
sg114
Nsg115
g0
(g2005
g2
Ntp2072
Rp2073
(dp2074
g49
I1
sg180
I2
sg50
Nsg51
g7
sg120
Nsg52
(dp2075
sg231
I2
sg232
g0
(g157
g2
Ntp2076
Rp2077
(dp2078
g49
I2
sg50
Nsg120
g132
(g133
(I0
tp2079
g135
tp2080
Rp2081
(I1
(I3
I3
tp2082
g59
I00
S'\x00\x00\x00\x00\x00\x00\xf0?\x00\x00\x00\x00\x00\x00\x00\x00\x00\x00\x00\x00\x00\x00\x00\x00\x00\x00\x00\x00\x00\x00\x00\x00\x00\x00\x00\x00\x00\x00\xf0?\x00\x00\x00\x00\x00\x00\x00\x00\x00\x00\x00\x00\x00\x00\x00\x00\x00\x00\x00\x00\x00\x00\x00\x00\x00\x00\x00\x00\x00\x00\xf0?'
p2083
tp2084
bsg51
g7
sg52
(dp2085
I140514937078864
g2073
ssbsg181
g0
(g157
g2
Ntp2086
Rp2087
(dp2088
g49
I0
sg50
Nsg120
g132
(g133
(I0
tp2089
g135
tp2090
Rp2091
(I1
(I3
I3
tp2092
g59
I00
S'\x00\x00\x00\x00\x00\x00\xf0?\x00\x00\x00\x00\x00\x00\x00\x00\x00\x00\x00\x00\x00\x00\x00\x00\x00\x00\x00\x00\x00\x00\x00\x00\x00\x00\x00\x00\x00\x00\xf0?\x00\x00\x00\x00\x00\x00\x00\x00\x00\x00\x00\x00\x00\x00\x00\x00\x00\x00\x00\x00\x00\x00\x00\x00\x00\x00\x00\x00\x00\x00\xf0?'
p2093
tp2094
bsg51
g7
sg52
(dp2095
I140514937078864
g2073
ssbsbsg1879
(NNtp2096
sg1881
g1882
sg1883
Nsg25
Nsg1884
g1943
sg34
NsbasS'_legend_title_box'
p2097
g0
(cmatplotlib.offsetbox
TextArea
p2098
g2
Ntp2099
Rp2100
(dp2101
g6
g7
sg8
I00
sg9
g4
sS'_children'
p2102
(lp2103
g0
(cmatplotlib.text
Text
p2104
g2
Ntp2105
Rp2106
(dp2107
g6
g7
sg8
I01
sg9
g4
sg10
NsS'_fontproperties'
p2108
g0
(cmatplotlib.font_manager
FontProperties
p2109
g2
Ntp2110
Rp2111
(dp2112
S'_family'
p2113
(lp2114
Vsans-serif
p2115
asS'_file'
p2116
NsS'_variant'
p2117
Vnormal
p2118
sS'_slant'
p2119
g2118
sS'_size'
p2120
F8.0
sS'_weight'
p2121
I400
sS'_stretch'
p2122
g2118
sbsg42
Nsg17
g18
sS'_multialignment'
p2123
Nsg20
I01
sg23
Nsg75
I0
sg76
I0
sg24
Nsg25
Nsg11
Nsg28
I00
sg29
I00
sg30
(dp2124
sS'_renderer'
p2125
Nsg32
I00
sg1884
Nsg88
Nsg1883
NsS'_rotation_mode'
p2126
Nsg33
Nsg96
Nsg86
I01
sS'_verticalalignment'
p2127
Vbaseline
p2128
sS'_text'
p2129
VNone
p2130
sS'_bbox_patch'
p2131
Nsg103
g0
(g104
g105
((lp2132
(lp2133
tp2134
tp2135
Rp2136
sg111
I0
sS'_rotation'
p2137
Nsg112
I01
sg114
NsS'_linespacing'
p2138
F1.2
sg115
g0
(g2005
g2
Ntp2139
Rp2140
(dp2141
g49
I1
sg180
I2
sg50
Nsg51
g7
sg120
Nsg52
(dp2142
sg231
I2
sg232
g0
(g157
g2
Ntp2143
Rp2144
(dp2145
g49
I0
sg50
Nsg120
g132
(g133
(I0
tp2146
g135
tp2147
Rp2148
(I1
(I3
I3
tp2149
g59
I00
S'\x00\x00\x00\x00\x00\x00\xf0?\x00\x00\x00\x00\x00\x00\x00\x00\x00\x00\x00\x00\x00\x00\x00\x00\x00\x00\x00\x00\x00\x00\x00\x00\x00\x00\x00\x00\x00\x00\xf0?\x00\x00\x00\x00\x00\x00\x00\x00\x00\x00\x00\x00\x00\x00\x00\x00\x00\x00\x00\x00\x00\x00\x00\x00\x00\x00\x00\x00\x00\x00\xf0?'
p2150
tp2151
bsg51
g7
sg52
(dp2152
I140514937079952
g2140
ssbsg181
g0
(g157
g2
Ntp2153
Rp2154
(dp2155
g49
I2
sg50
Nsg120
g132
(g133
(I0
tp2156
g135
tp2157
Rp2158
(I1
(I3
I3
tp2159
g59
I00
S'\x00\x00\x00\x00\x00\x00\xf0?\x00\x00\x00\x00\x00\x00\x00\x00\x00\x00\x00\x00\x00\x00\x00\x00\x00\x00\x00\x00\x00\x00\x00\x00\x00\x00\x00\x00\x00\x00\xf0?\x00\x00\x00\x00\x00\x00\x00\x00\x00\x00\x00\x00\x00\x00\x00\x00\x00\x00\x00\x00\x00\x00\x00\x00\x00\x00\x00\x00\x00\x00\xf0?'
p2160
tp2161
bsg51
g7
sg52
(dp2162
I140514937079952
g2140
ssbsbsS'_usetex'
p2163
I00
sS'_wrap'
p2164
I00
sg43
NsS'_color'
p2165
V0.
p2166
sS'_horizontalalignment'
p2167
Vleft
p2168
sg34
Nsbasg2129
g2106
sg10
Nsg42
NsS'_minimumdescent'
p2169
I01
sg17
g18
sg20
I00
sg23
Nsg24
Nsg25
Nsg11
Nsg28
I00
sg1884
Nsg30
(dp2170
sg32
I00
sg29
I00
sg88
Nsg33
Nsg96
Nsg86
I01
sS'_multilinebaseline'
p2171
Nsg103
g0
(g104
g105
((lp2172
(lp2173
tp2174
tp2175
Rp2176
sg111
I0
sS'offset_transform'
p2177
g2154
sg112
I00
sg114
NsS'_baseline_transform'
p2178
g2144
sg115
NsS'_offset'
p2179
(I0
I0
tp2180
sg43
Nsg1883
Nsg34
Nsbsg8
I01
sS'_fontsize'
p2181
F10.0
sg10
NsS'_draggable'
p2182
Nsg11
NsS'columnspacing'
p2183
F2.0
sg12
(lp2184
g0
(g2104
g2
Ntp2185
Rp2186
(dp2187
g6
g7
sg8
I01
sg9
g4
sg10
Nsg2108
g0
(g2109
g2
Ntp2188
Rp2189
(dp2190
g2113
(lp2191
g2115
asg2116
Nsg2117
g2118
sg2119
g2118
sg2120
F10.0
sg2121
I400
sg2122
g2118
sbsg42
Nsg17
g18
sg2123
Nsg20
I01
sg23
Nsg75
I0
sg76
I0
sg24
Nsg25
Nsg11
Nsg28
I00
sg29
I00
sg30
(dp2192
sg2125
Nsg32
I00
sg1884
Nsg88
Nsg1883
Nsg2126
Nsg33
Nsg96
Nsg86
I01
sg2127
g2128
sg2129
VControl
p2193
sg2131
Nsg103
g0
(g104
g105
((lp2194
(lp2195
tp2196
tp2197
Rp2198
sg111
I0
sg2137
Nsg112
I01
sg114
Nsg2138
F1.2
sg115
g0
(g2005
g2
Ntp2199
Rp2200
(dp2201
g49
I1
sg180
I2
sg50
Nsg51
g7
sg120
Nsg52
(dp2202
sg231
I2
sg232
g0
(g157
g2
Ntp2203
Rp2204
(dp2205
g49
I0
sg50
Nsg120
g132
(g133
(I0
tp2206
g135
tp2207
Rp2208
(I1
(I3
I3
tp2209
g59
I00
S'\x00\x00\x00\x00\x00\x00\xf0?\x00\x00\x00\x00\x00\x00\x00\x00\x00\x00\x00\x00\x00\x00\x00\x00\x00\x00\x00\x00\x00\x00\x00\x00\x00\x00\x00\x00\x00\x00\xf0?\x00\x00\x00\x00\x00\x00\x00\x00\x00\x00\x00\x00\x00\x00\x00\x00\x00\x00\x00\x00\x00\x00\x00\x00\x00\x00\x00\x00\x00\x00\xf0?'
p2210
tp2211
bsg51
g7
sg52
(dp2212
I140514920385872
g2200
ssbsg181
g0
(g157
g2
Ntp2213
Rp2214
(dp2215
g49
I2
sg50
Nsg120
g132
(g133
(I0
tp2216
g135
tp2217
Rp2218
(I1
(I3
I3
tp2219
g59
I00
S'\x00\x00\x00\x00\x00\x00\xf0?\x00\x00\x00\x00\x00\x00\x00\x00\x00\x00\x00\x00\x00\x00\x00\x00\x00\x00\x00\x00\x00\x00\x00\x00\x00\x00\x00\x00\x00\x00\xf0?\x00\x00\x00\x00\x00\x00\x00\x00\x00\x00\x00\x00\x00\x00\x00\x00\x00\x00\x00\x00\x00\x00\x00\x00\x00\x00\x00\x00\x00\x00\xf0?'
p2220
tp2221
bsg51
g7
sg52
(dp2222
I140514920385872
g2200
ssbsbsg2163
I00
sg2164
I00
sg43
Nsg2165
g2166
sg2167
Vleft
p2223
sg34
Nsbag0
(g2104
g2
Ntp2224
Rp2225
(dp2226
g6
g7
sg8
I01
sg9
g4
sg10
Nsg2108
g2189
sg42
Nsg17
g18
sg2123
Nsg20
I01
sg23
Nsg75
I0
sg76
I0
sg24
Nsg25
Nsg11
Nsg28
I00
sg29
I00
sg30
(dp2227
sg2125
Nsg32
I00
sg1884
Nsg88
Nsg1883
Nsg2126
Nsg33
Nsg96
Nsg86
I01
sg2127
g2128
sg2129
VGABAzine
p2228
sg2131
Nsg103
g0
(g104
g105
((lp2229
(lp2230
tp2231
tp2232
Rp2233
sg111
I0
sg2137
Nsg112
I01
sg114
Nsg2138
F1.2
sg115
g0
(g2005
g2
Ntp2234
Rp2235
(dp2236
g49
I1
sg180
I2
sg50
Nsg51
g7
sg120
Nsg52
(dp2237
sg231
I2
sg232
g0
(g157
g2
Ntp2238
Rp2239
(dp2240
g49
I0
sg50
Nsg120
g132
(g133
(I0
tp2241
g135
tp2242
Rp2243
(I1
(I3
I3
tp2244
g59
I00
S'\x00\x00\x00\x00\x00\x00\xf0?\x00\x00\x00\x00\x00\x00\x00\x00\x00\x00\x00\x00\x00\x00\x00\x00\x00\x00\x00\x00\x00\x00\x00\x00\x00\x00\x00\x00\x00\x00\xf0?\x00\x00\x00\x00\x00\x00\x00\x00\x00\x00\x00\x00\x00\x00\x00\x00\x00\x00\x00\x00\x00\x00\x00\x00\x00\x00\x00\x00\x00\x00\xf0?'
p2245
tp2246
bsg51
g7
sg52
(dp2247
I140514937078416
g2235
ssbsg181
g0
(g157
g2
Ntp2248
Rp2249
(dp2250
g49
I2
sg50
Nsg120
g132
(g133
(I0
tp2251
g135
tp2252
Rp2253
(I1
(I3
I3
tp2254
g59
I00
S'\x00\x00\x00\x00\x00\x00\xf0?\x00\x00\x00\x00\x00\x00\x00\x00\x00\x00\x00\x00\x00\x00\x00\x00\x00\x00\x00\x00\x00\x00\x00\x00\x00\x00\x00\x00\x00\x00\xf0?\x00\x00\x00\x00\x00\x00\x00\x00\x00\x00\x00\x00\x00\x00\x00\x00\x00\x00\x00\x00\x00\x00\x00\x00\x00\x00\x00\x00\x00\x00\xf0?'
p2255
tp2256
bsg51
g7
sg52
(dp2257
I140514937078416
g2235
ssbsbsg2163
I00
sg2164
I00
sg43
Nsg2165
g2166
sg2167
g2223
sg34
NsbasS'handletextpad'
p2258
F0.8
sS'borderaxespad'
p2259
F0.5
sg17
g18
sS'_legend_handle_box'
p2260
g0
(cmatplotlib.offsetbox
HPacker
p2261
g2
Ntp2262
Rp2263
(dp2264
g6
g7
sg8
I01
sg9
g4
sg2102
(lp2265
g0
(cmatplotlib.offsetbox
VPacker
p2266
g2
Ntp2267
Rp2268
(dp2269
g6
g7
sg8
I01
sg9
g4
sg2102
(lp2270
g0
(g2261
g2
Ntp2271
Rp2272
(dp2273
g6
g7
sg8
I01
sg9
g4
sg2102
(lp2274
g0
(cmatplotlib.offsetbox
DrawingArea
p2275
g2
Ntp2276
Rp2277
(dp2278
g6
g7
sg8
I01
sg9
g4
sg2102
(lp2279
g1965
asg10
NsS'height'
p2280
F7.0
sg42
Nsg17
g18
sg20
I00
sg23
Nsg24
Nsg25
NsS'dpi_transform'
p2281
g2021
sg11
NsS'_clip_children'
p2282
I00
sg28
I00
sS'width'
p2283
F20.0
sg29
I00
sg30
(dp2284
sg32
I00
sg1884
Nsg88
NsS'ydescent'
p2285
F0.0
sg33
Nsg96
Nsg86
I01
sg103
g0
(g104
g105
((lp2286
(lp2287
tp2288
tp2289
Rp2290
sg111
I0
sg2177
g2011
sg112
I00
sg114
Nsg115
Nsg2179
g2180
sS'xdescent'
p2291
F0.0
sg43
Nsg1883
Nsg34
Nsbag0
(g2098
g2
Ntp2292
Rp2293
(dp2294
g6
g7
sg8
I01
sg9
g4
sg2102
(lp2295
g2186
asg2129
g2186
sg10
Nsg42
Nsg2169
I01
sg17
g18
sg20
I00
sg23
Nsg24
Nsg25
Nsg11
Nsg28
I00
sg1884
Nsg30
(dp2296
sg32
I00
sg29
I00
sg88
Nsg33
Nsg96
Nsg86
I01
sg2171
I01
sg103
g0
(g104
g105
((lp2297
(lp2298
tp2299
tp2300
Rp2301
sg111
I0
sg2177
g2214
sg112
I00
sg114
Nsg2178
g2204
sg115
Nsg2179
g2180
sg43
Nsg1883
Nsg34
Nsbasg10
Nsg2280
Nsg42
Nsg17
g18
sg20
I00
sg23
Nsg24
Nsg25
NsS'sep'
p2302
F8.0
sg11
Nsg28
I00
sg2283
NsS'pad'
p2303
I0
sg29
I00
sg30
(dp2304
sg32
I00
sg1884
Nsg88
Nsg33
Nsg96
Nsg86
I01
sg103
g0
(g104
g105
((lp2305
(lp2306
tp2307
tp2308
Rp2309
sg111
I0
sg112
I00
sg114
NsS'align'
p2310
Vbaseline
p2311
sg115
Nsg2179
g2180
sg43
Nsg1883
NsS'mode'
p2312
Vfixed
p2313
sg34
Nsbag0
(g2261
g2
Ntp2314
Rp2315
(dp2316
g6
g7
sg8
I01
sg9
g4
sg2102
(lp2317
g0
(g2275
g2
Ntp2318
Rp2319
(dp2320
g6
g7
sg8
I01
sg9
g4
sg2102
(lp2321
g2032
asg10
Nsg2280
F7.0
sg42
Nsg17
g18
sg20
I00
sg23
Nsg24
Nsg25
Nsg2281
g2087
sg11
Nsg2282
I00
sg28
I00
sg2283
F20.0
sg29
I00
sg30
(dp2322
sg32
I00
sg1884
Nsg88
Nsg2285
F0.0
sg33
Nsg96
Nsg86
I01
sg103
g0
(g104
g105
((lp2323
(lp2324
tp2325
tp2326
Rp2327
sg111
I0
sg2177
g2077
sg112
I00
sg114
Nsg115
Nsg2179
g2180
sg2291
F0.0
sg43
Nsg1883
Nsg34
Nsbag0
(g2098
g2
Ntp2328
Rp2329
(dp2330
g6
g7
sg8
I01
sg9
g4
sg2102
(lp2331
g2225
asg2129
g2225
sg10
Nsg42
Nsg2169
I00
sg17
g18
sg20
I00
sg23
Nsg24
Nsg25
Nsg11
Nsg28
I00
sg1884
Nsg30
(dp2332
sg32
I00
sg29
I00
sg88
Nsg33
Nsg96
Nsg86
I01
sg2171
I01
sg103
g0
(g104
g105
((lp2333
(lp2334
tp2335
tp2336
Rp2337
sg111
I0
sg2177
g2249
sg112
I00
sg114
Nsg2178
g2239
sg115
Nsg2179
g2180
sg43
Nsg1883
Nsg34
Nsbasg10
Nsg2280
Nsg42
Nsg17
g18
sg20
I00
sg23
Nsg24
Nsg25
Nsg2302
F8.0
sg11
Nsg28
I00
sg2283
Nsg2303
I0
sg29
I00
sg30
(dp2338
sg32
I00
sg1884
Nsg88
Nsg33
Nsg96
Nsg86
I01
sg103
g0
(g104
g105
((lp2339
(lp2340
tp2341
tp2342
Rp2343
sg111
I0
sg112
I00
sg114
Nsg2310
g2311
sg115
Nsg2179
g2180
sg43
Nsg1883
Nsg2312
g2313
sg34
Nsbasg10
Nsg2280
Nsg42
Nsg17
g18
sg20
I00
sg23
Nsg24
Nsg25
Nsg2302
F5.0
sg11
Nsg28
I00
sg2283
Nsg2303
I0
sg29
I00
sg30
(dp2344
sg32
I00
sg1884
Nsg88
Nsg33
Nsg96
Nsg86
I01
sg103
g0
(g104
g105
((lp2345
(lp2346
tp2347
tp2348
Rp2349
sg111
I0
sg112
I00
sg114
Nsg2310
g2311
sg115
Nsg2179
g2180
sg43
Nsg1883
Nsg2312
Vfixed
p2350
sg34
Nsbasg10
Nsg2280
Nsg42
Nsg17
g18
sg20
I00
sg23
Nsg24
Nsg25
Nsg2302
F20.0
sg11
Nsg28
I00
sg2283
Nsg2303
I0
sg29
I00
sg30
(dp2351
sg32
I00
sg1884
Nsg88
Nsg33
Nsg96
Nsg86
I01
sg103
g0
(g104
g105
((lp2352
(lp2353
tp2354
tp2355
Rp2356
sg111
I0
sg112
I00
sg114
Nsg2310
g2311
sg115
Nsg2179
g2180
sg43
Nsg1883
Nsg2312
Vfixed
p2357
sg34
Nsbsg20
I01
sg28
I00
sg23
Nsg24
Nsg25
NsS'_mode'
p2358
NsS'numpoints'
p2359
I1
sS'_bbox_to_anchor'
p2360
NsS'prop'
p2361
g2189
sS'_scatteryoffsets'
p2362
g132
(g133
(I0
tp2363
g135
tp2364
Rp2365
(I1
(I1
tp2366
g59
I00
S'\x00\x00\x00\x00\x00\x00\xd8?'
p2367
tp2368
bsS'_custom_handler_map'
p2369
Nsg29
I00
sg30
(dp2370
sS'_drawFrame'
p2371
I00
sg32
I00
sS'handlelength'
p2372
F2.0
sg1884
g1943
sg42
Nsg88
NsS'parent'
p2373
g1943
sS'legendPatch'
p2374
g0
(cmatplotlib.patches
FancyBboxPatch
p2375
g2
Ntp2376
Rp2377
(dp2378
g6
g7
sg40
F1.0
sg41
I01
sg9
g4
sS'_mutation_aspect'
p2379
Nsg10
Nsg42
Nsg17
g18
sg101
g102
sg43
Nsg20
I01
sg44
g0
(g45
g2
Ntp2380
Rp2381
(dp2382
g49
I1
sg50
Nsg51
g7
sg52
(dp2383
sbsg54
(F0.8
F0.8
F0.8
F0.8
tp2384
sg23
Nsg75
F0.0
sg76
F0.0
sg24
Nsg77
V0.8
p2385
sg11
Nsg28
I00
sg29
I00
sg30
(dp2386
sg32
I00
sg85
Nsg86
I01
sg87
F1.0
sg88
Nsg89
F1.0
sg33
Nsg90
g2384
sg91
Nsg92
I01
sg93
Nsg94
Vwhite
p2387
sg96
I01
sg97
(F1.0
F1.0
F1.0
F0.8
tp2388
sg99
g100
sS'_bbox_transmuter'
p2389
g0
(cmatplotlib.cbook
_NestedClassGetter
p2390
g2
Ntp2391
Rp2392
(cmatplotlib.patches
BoxStyle
p2393
S'Round'
p2394
tp2395
Rp2396
(dp2397
S'rounding_size'
p2398
F0.2
sg2303
I0
sbsS'_mutation_scale'
p2399
F10.0
sg103
g0
(g104
g105
((lp2400
(lp2401
tp2402
tp2403
Rp2404
sg111
I0
sg112
I01
sg114
F0.8
sg115
g0
(g45
g2
Ntp2405
Rp2406
(dp2407
g49
I1
sg50
Nsg51
g7
sg52
(dp2408
sbsg8
I01
sg1879
(NNtp2409
sg1881
g1882
sg1883
Nsg25
Nsg1884
g1943
sg34
Nsbsg33
NsS'scatterpoints'
p2410
I1
sS'labelspacing'
p2411
F0.5
sg96
Nsg86
I01
sS'_legend_box'
p2412
g0
(g2266
g2
Ntp2413
Rp2414
(dp2415
g6
g7
sg8
I01
sg9
g4
sg2102
(lp2416
g2100
ag2263
asg10
Nsg2280
Nsg42
Nsg17
g18
sg20
I00
sg23
Nsg24
Nsg25
Nsg2302
F5.0
sg11
Nsg28
I00
sg2283
Nsg2303
F4.0
sg29
I00
sg30
(dp2417
sg32
I00
sg1884
Nsg88
Nsg33
Nsg96
Nsg86
I01
sg103
g0
(g104
g105
((lp2418
(lp2419
tp2420
tp2421
Rp2422
sg111
I0
sg112
I00
sg114
Nsg2310
Vcenter
p2423
sg115
Nsg2179
g0
(cmatplotlib.cbook
_InstanceMethodPickler
p2424
g2
Ntp2425
Rp2426
(dp2427
S'parent_obj'
p2428
g1959
sS'instancemethod_name'
p2429
S'_findoffset_best'
p2430
sbsg43
Nsg1883
Nsg2312
g2350
sg34
NsbsS'shadow'
p2431
I00
sg103
g0
(g104
g105
((lp2432
(lp2433
tp2434
tp2435
Rp2436
sg111
I0
sg114
NsS'isaxes'
p2437
I01
sS'handleheight'
p2438
F0.7
sg112
I00
sS'_last_fontsize_points'
p2439
F10.0
sS'borderpad'
p2440
F0.4
sS'_ncol'
p2441
I1
sg115
g2406
sS'_loc_real'
p2442
I0
sg43
Nsg1883
Nsg34
Nsbsg12
(lp2443
sS'_frameon'
p2444
I01
sS'_autoscaleYon'
p2445
I01
sg14
I01
sg15
(lp2446
sg20
I01
sS'tables'
p2447
(lp2448
sg1902
(lp2449
g0
(cmatplotlib.patches
Polygon
p2450
g2
Ntp2451
Rp2452
(dp2453
g6
g1967
sg8
I01
sg41
I00
sg9
g4
sS'_closed'
p2454
I00
sg10
Nsg42
Nsg17
g18
sg43
Nsg20
I01
sg44
g0
(g45
g2
Ntp2455
Rp2456
(dp2457
g49
I1
sg50
Nsg51
g7
sg52
(dp2458
sbsg54
g1984
sg23
Nsg24
Nsg77
g132
(g133
(I0
tp2459
g135
tp2460
Rp2461
(I1
(I4
tp2462
g59
I00
S'\x10\x10\x10\x10\x10\x10\xe0?\x10\x10\x10\x10\x10\x10\xe0?\x10\x10\x10\x10\x10\x10\xe0?\x00\x00\x00\x00\x00\x00\xf0?'
p2463
tp2464
bsg11
Nsg28
I00
sg29
I00
sg30
(dp2465
sg32
I00
sg85
Nsg86
I01
sg87
F1.0
sg88
g378
sg33
Nsg90
g1984
sg91
Nsg92
I01
sg93
Nsg94
g2461
sg96
Nsg97
g1999
sg99
g100
sg101
g102
sg103
g0
(g104
g105
((lp2466
(lp2467
I0
atp2468
tp2469
Rp2470
sg111
I0
sg112
I01
sg114
Nsg115
g187
sg1879
g2030
sg1881
g1882
sg1883
Nsg25
Nsg1884
g1943
sg34
NsS'_path'
p2471
g0
(cmatplotlib.path
Path
p2472
g2
Ntp2473
Rp2474
(dp2475
S'_should_simplify'
p2476
I00
sS'_codes'
p2477
NsS'_vertices'
p2478
g132
(g133
(I0
tp2479
g135
tp2480
Rp2481
(I1
(I60
I2
tp2482
g59
I00
S'\x82\\\xd2\xefS\x8b\xed\xbf\x00\x00\x00\x00\x00\x00\x00\x00\x82\\\xd2\xefS\x8b\xed\xbf\x00\x00\x00\x00\x00\x00\xf0?*\x8d\x9d\xcf\xb6\xc5\xe1\xbf\x00\x00\x00\x00\x00\x00\xf0?*\x8d\x9d\xcf\xb6\xc5\xe1\xbf\x00\x00\x00\x00\x00\x00\x10@L\xf7\xa2\xbdf\x00\xc8\xbf\x00\x00\x00\x00\x00\x00\x10@L\xf7\xa2\xbdf\x00\xc8\xbf\x00\x00\x00\x00\x00\x80E@\x10F0\xc3\r\x16\xc7?\x00\x00\x00\x00\x00\x80E@\x10F0\xc3\r\x16\xc7?\x00\x00\x00\x00\x00\x90q@\xdc\xe0\x00\x91 \x8b\xe1?\x00\x00\x00\x00\x00\x90q@\xdc\xe0\x00\x91 \x8b\xe1?\x00\x00\x00\x00\x00\xc0m@4\xb05\xb1\xbdP\xed?\x00\x00\x00\x00\x00\xc0m@4\xb05\xb1\xbdP\xed?\x00\x00\x00\x00\x00\x00c@\xc5?\xb5h-\x8b\xf4?\x00\x00\x00\x00\x00\x00c@\xc5?\xb5h-\x8b\xf4?\x00\x00\x00\x00\x00\x00]@q\xa7\xcf\xf8\xfbm\xfa?\x00\x00\x00\x00\x00\x00]@q\xa7\xcf\xf8\xfbm\xfa?\x00\x00\x00\x00\x00\x80P@\x8e\x07uDe(\x00@\x00\x00\x00\x00\x00\x80P@\x8e\x07uDe(\x00@\x00\x00\x00\x00\x00\xc0T@d;\x82\x8c\xcc\x19\x03@\x00\x00\x00\x00\x00\xc0T@d;\x82\x8c\xcc\x19\x03@\x00\x00\x00\x00\x00\x00C@:o\x8f\xd43\x0b\x06@\x00\x00\x00\x00\x00\x00C@:o\x8f\xd43\x0b\x06@\x00\x00\x00\x00\x00\x00=@\x10\xa3\x9c\x1c\x9b\xfc\x08@\x00\x00\x00\x00\x00\x00=@\x10\xa3\x9c\x1c\x9b\xfc\x08@\x00\x00\x00\x00\x00\x000@\xe6\xd6\xa9d\x02\xee\x0b@\x00\x00\x00\x00\x00\x000@\xe6\xd6\xa9d\x02\xee\x0b@\x00\x00\x00\x00\x00\x00\x1c@\xbc\n\xb7\xaci\xdf\x0e@\x00\x00\x00\x00\x00\x00\x1c@\xbc\n\xb7\xaci\xdf\x0e@\x00\x00\x00\x00\x00\x00"@I\x1fbzh\xe8\x10@\x00\x00\x00\x00\x00\x00"@I\x1fbzh\xe8\x10@\x00\x00\x00\x00\x00\x00\x08@4\xb9h\x1e\x1ca\x12@\x00\x00\x00\x00\x00\x00\x08@4\xb9h\x1e\x1ca\x12@\x00\x00\x00\x00\x00\x00\xf0?\x1fSo\xc2\xcf\xd9\x13@\x00\x00\x00\x00\x00\x00\xf0?\x1fSo\xc2\xcf\xd9\x13@\x00\x00\x00\x00\x00\x00\x00@\n\xeduf\x83R\x15@\x00\x00\x00\x00\x00\x00\x00@\n\xeduf\x83R\x15@\x00\x00\x00\x00\x00\x00\x00@\xf5\x86|\n7\xcb\x16@\x00\x00\x00\x00\x00\x00\x00@\xf5\x86|\n7\xcb\x16@\x00\x00\x00\x00\x00\x00\x00\x00\xe0 \x83\xae\xeaC\x18@\x00\x00\x00\x00\x00\x00\x00\x00\xe0 \x83\xae\xeaC\x18@\x00\x00\x00\x00\x00\x00\x00\x00\xcb\xba\x89R\x9e\xbc\x19@\x00\x00\x00\x00\x00\x00\x00\x00\xcb\xba\x89R\x9e\xbc\x19@\x00\x00\x00\x00\x00\x00\x00\x00\xb6T\x90\xf6Q5\x1b@\x00\x00\x00\x00\x00\x00\x00\x00\xb6T\x90\xf6Q5\x1b@\x00\x00\x00\x00\x00\x00\xf0?\xa0\xee\x96\x9a\x05\xae\x1c@\x00\x00\x00\x00\x00\x00\xf0?\xa0\xee\x96\x9a\x05\xae\x1c@\x00\x00\x00\x00\x00\x00\x00\x00\x8c\x88\x9d>\xb9&\x1e@\x00\x00\x00\x00\x00\x00\x00\x00\x8c\x88\x9d>\xb9&\x1e@\x00\x00\x00\x00\x00\x00\x00\x00v"\xa4\xe2l\x9f\x1f@\x00\x00\x00\x00\x00\x00\x00\x00v"\xa4\xe2l\x9f\x1f@\x00\x00\x00\x00\x00\x00\x00\x001^UC\x10\x8c @\x00\x00\x00\x00\x00\x00\x00\x001^UC\x10\x8c @\x00\x00\x00\x00\x00\x00\x00\x00&\xabX\x15jH!@\x00\x00\x00\x00\x00\x00\x00\x00&\xabX\x15jH!@\x00\x00\x00\x00\x00\x00\x00\x00\x1c\xf8[\xe7\xc3\x04"@\x00\x00\x00\x00\x00\x00\x00\x00\x1c\xf8[\xe7\xc3\x04"@\x00\x00\x00\x00\x00\x00\x00\x00\x11E_\xb9\x1d\xc1"@\x00\x00\x00\x00\x00\x00\x00\x00\x11E_\xb9\x1d\xc1"@\x00\x00\x00\x00\x00\x00\x00\x00\x07\x92b\x8bw}#@\x00\x00\x00\x00\x00\x00\x00\x00\x07\x92b\x8bw}#@\x00\x00\x00\x00\x00\x00\x00\x00'
p2483
tp2484
bsS'_readonly'
p2485
I00
sS'_simplify_threshold'
p2486
F0.1111111111111111
sS'_interpolation_steps'
p2487
I1
sS'_has_nonfinite'
p2488
I00
sbsbag0
(g2450
g2
Ntp2489
Rp2490
(dp2491
g6
g2034
sg8
I01
sg41
I00
sg9
g4
sg2454
I00
sg10
Nsg42
Nsg17
g18
sg43
Nsg20
I01
sg44
g0
(g45
g2
Ntp2492
Rp2493
(dp2494
g49
I1
sg50
Nsg51
g7
sg52
(dp2495
sbsg54
g2051
sg23
Nsg24
Nsg77
g132
(g133
(I0
tp2496
g135
tp2497
Rp2498
(I1
(I4
tp2499
g59
I00
S'\x00\x00\x00\x00\x00\x00\xf0?\x00\x00\x00\x00\x00\x00\x00\x00\x00\x00\x00\x00\x00\x00\x00\x00\x00\x00\x00\x00\x00\x00\xf0?'
p2500
tp2501
bsg11
Nsg28
I00
sg29
I00
sg30
(dp2502
sg32
I00
sg85
Nsg86
I01
sg87
F1.0
sg88
g868
sg33
Nsg90
g2051
sg91
Nsg92
I01
sg93
Nsg94
g2498
sg96
Nsg97
g2066
sg99
g100
sg101
g102
sg103
g0
(g104
g105
((lp2503
(lp2504
I0
atp2505
tp2506
Rp2507
sg111
I0
sg112
I01
sg114
Nsg115
g187
sg1879
g2096
sg1881
g1882
sg1883
Nsg25
Nsg1884
g1943
sg34
Nsg2471
g0
(g2472
g2
Ntp2508
Rp2509
(dp2510
g2476
I00
sg2477
Nsg2478
g132
(g133
(I0
tp2511
g135
tp2512
Rp2513
(I1
(I60
I2
tp2514
g59
I00
S'\x82\\\xd2\xefS\x8b\xed\xbf\x00\x00\x00\x00\x00\x00\x00\x00\x82\\\xd2\xefS\x8b\xed\xbf\x00\x00\x00\x00\x00\x00\x00\x00*\x8d\x9d\xcf\xb6\xc5\xe1\xbf\x00\x00\x00\x00\x00\x00\x00\x00*\x8d\x9d\xcf\xb6\xc5\xe1\xbf\x00\x00\x00\x00\x00\x00\x18@L\xf7\xa2\xbdf\x00\xc8\xbf\x00\x00\x00\x00\x00\x00\x18@L\xf7\xa2\xbdf\x00\xc8\xbf\x00\x00\x00\x00\x00\x80R@\x10F0\xc3\r\x16\xc7?\x00\x00\x00\x00\x00\x80R@\x10F0\xc3\r\x16\xc7?\x00\x00\x00\x00\x00\xd0s@\xdc\xe0\x00\x91 \x8b\xe1?\x00\x00\x00\x00\x00\xd0s@\xdc\xe0\x00\x91 \x8b\xe1?\x00\x00\x00\x00\x00\xa0c@4\xb05\xb1\xbdP\xed?\x00\x00\x00\x00\x00\xa0c@4\xb05\xb1\xbdP\xed?\x00\x00\x00\x00\x00@d@\xc5?\xb5h-\x8b\xf4?\x00\x00\x00\x00\x00@d@\xc5?\xb5h-\x8b\xf4?\x00\x00\x00\x00\x00\xc0]@q\xa7\xcf\xf8\xfbm\xfa?\x00\x00\x00\x00\x00\xc0]@q\xa7\xcf\xf8\xfbm\xfa?\x00\x00\x00\x00\x00\x80U@\x8e\x07uDe(\x00@\x00\x00\x00\x00\x00\x80U@\x8e\x07uDe(\x00@\x00\x00\x00\x00\x00\x00H@d;\x82\x8c\xcc\x19\x03@\x00\x00\x00\x00\x00\x00H@d;\x82\x8c\xcc\x19\x03@\x00\x00\x00\x00\x00\x80C@:o\x8f\xd43\x0b\x06@\x00\x00\x00\x00\x00\x80C@:o\x8f\xd43\x0b\x06@\x00\x00\x00\x00\x00\x00B@\x10\xa3\x9c\x1c\x9b\xfc\x08@\x00\x00\x00\x00\x00\x00B@\x10\xa3\x9c\x1c\x9b\xfc\x08@\x00\x00\x00\x00\x00\x00>@\xe6\xd6\xa9d\x02\xee\x0b@\x00\x00\x00\x00\x00\x00>@\xe6\xd6\xa9d\x02\xee\x0b@\x00\x00\x00\x00\x00\x000@\xbc\n\xb7\xaci\xdf\x0e@\x00\x00\x00\x00\x00\x000@\xbc\n\xb7\xaci\xdf\x0e@\x00\x00\x00\x00\x00\x00,@I\x1fbzh\xe8\x10@\x00\x00\x00\x00\x00\x00,@I\x1fbzh\xe8\x10@\x00\x00\x00\x00\x00\x00$@4\xb9h\x1e\x1ca\x12@\x00\x00\x00\x00\x00\x00$@4\xb9h\x1e\x1ca\x12@\x00\x00\x00\x00\x00\x00&@\x1fSo\xc2\xcf\xd9\x13@\x00\x00\x00\x00\x00\x00&@\x1fSo\xc2\xcf\xd9\x13@\x00\x00\x00\x00\x00\x00"@\n\xeduf\x83R\x15@\x00\x00\x00\x00\x00\x00"@\n\xeduf\x83R\x15@\x00\x00\x00\x00\x00\x00 @\xf5\x86|\n7\xcb\x16@\x00\x00\x00\x00\x00\x00 @\xf5\x86|\n7\xcb\x16@\x00\x00\x00\x00\x00\x00"@\xe0 \x83\xae\xeaC\x18@\x00\x00\x00\x00\x00\x00"@\xe0 \x83\xae\xeaC\x18@\x00\x00\x00\x00\x00\x00\x08@\xcb\xba\x89R\x9e\xbc\x19@\x00\x00\x00\x00\x00\x00\x08@\xcb\xba\x89R\x9e\xbc\x19@\x00\x00\x00\x00\x00\x00\x14@\xb6T\x90\xf6Q5\x1b@\x00\x00\x00\x00\x00\x00\x14@\xb6T\x90\xf6Q5\x1b@\x00\x00\x00\x00\x00\x00\x08@\xa0\xee\x96\x9a\x05\xae\x1c@\x00\x00\x00\x00\x00\x00\x08@\xa0\xee\x96\x9a\x05\xae\x1c@\x00\x00\x00\x00\x00\x00\x00@\x8c\x88\x9d>\xb9&\x1e@\x00\x00\x00\x00\x00\x00\x00@\x8c\x88\x9d>\xb9&\x1e@\x00\x00\x00\x00\x00\x00\x00@v"\xa4\xe2l\x9f\x1f@\x00\x00\x00\x00\x00\x00\x00@v"\xa4\xe2l\x9f\x1f@\x00\x00\x00\x00\x00\x00\x00@1^UC\x10\x8c @\x00\x00\x00\x00\x00\x00\x00@1^UC\x10\x8c @\x00\x00\x00\x00\x00\x00\xf0?&\xabX\x15jH!@\x00\x00\x00\x00\x00\x00\xf0?&\xabX\x15jH!@\x00\x00\x00\x00\x00\x00\x00\x00\x1c\xf8[\xe7\xc3\x04"@\x00\x00\x00\x00\x00\x00\x00\x00\x1c\xf8[\xe7\xc3\x04"@\x00\x00\x00\x00\x00\x00\x08@\x11E_\xb9\x1d\xc1"@\x00\x00\x00\x00\x00\x00\x08@\x11E_\xb9\x1d\xc1"@\x00\x00\x00\x00\x00\x00\xf0?\x07\x92b\x8bw}#@\x00\x00\x00\x00\x00\x00\xf0?\x07\x92b\x8bw}#@\x00\x00\x00\x00\x00\x00\x00\x00'
p2515
tp2516
bsg2485
I00
sg2486
F0.1111111111111111
sg2487
I1
sg2488
I00
sbsbasS'title'
p2517
g0
(g2104
g2
Ntp2518
Rp2519
(dp2520
g6
g7
sg8
I01
sg9
g4
sg10
Nsg2108
g0
(g2109
g2
Ntp2521
Rp2522
(dp2523
g2113
(lp2524
g2115
asg2116
Nsg2117
g2118
sg2119
g2118
sg2120
F9.6
sg2121
I400
sg2122
g2118
sbsg42
Nsg17
g18
sg2123
Nsg20
I01
sg23
Nsg75
F1.0
sg76
F0.5
sg24
Nsg25
Nsg11
Nsg28
I00
sg29
I00
sg30
(dp2525
sg2125
Nsg32
I00
sg1884
g1943
sg88
Nsg1883
Nsg2126
Nsg33
Nsg96
Nsg86
I01
sg2127
Vbaseline
p2526
sg2129
V
p2527
sg2131
Nsg103
g0
(g104
g105
((lp2528
(lp2529
tp2530
tp2531
Rp2532
sg111
I0
sg2137
Nsg112
I01
sg114
Nsg2138
F1.2
sg115
g1704
sg2163
I00
sg2164
I00
sg43
Nsg2165
g2166
sg2167
Vcenter
p2533
sg34
NsbsS'_current_image'
p2534
NsS'mouseover_set'
p2535
c__builtin__
set
p2536
((lp2537
tp2538
Rp2539
sg11
NsS'_cursorProps'
p2540
(I1
(g55
(g59
S'\x00\x00\x00\x00\x00\x00\x00\x00'
p2541
tp2542
Rp2543
g55
(g59
S'\x00\x00\x00\x00\x00\x00\x00\x00'
p2544
tp2545
Rp2546
g55
(g59
S'\x00\x00\x00\x00\x00\x00\x00\x00'
p2547
tp2548
Rp2549
I1
tp2550
tp2551
sS'numRows'
p2552
I1
sS'collections'
p2553
(lp2554
sg1884
g1943
sg30
(dp2555
sg32
I00
sS'containers'
p2556
(lp2557
sg29
I00
sg88
NsS'_get_lines'
p2558
g0
(g1947
g2
Ntp2559
Rp2560
(dp2561
g1951
g1943
sg1952
Vplot
p2562
sbsS'_aspect'
p2563
Vauto
p2564
sS'fmt_xdata'
p2565
Nsg1891
g0
(g1892
g2
Ntp2566
Rp2567
I01
bsg96
Nsg97
g2387
sg86
I01
sg1896
g237
sS'ignore_existing_data_limits'
p2568
I00
sg24
Nsg111
I0
sg112
I00
sS'_left_title'
p2569
g0
(g2104
g2
Ntp2570
Rp2571
(dp2572
g6
g7
sg8
I01
sg9
g4
sg10
Nsg2108
g0
(g2109
g2
Ntp2573
Rp2574
(dp2575
g2113
g2524
sg2116
Nsg2117
g2118
sg2119
g2118
sg2120
F9.6
sg2121
I400
sg2122
g2118
sbsg42
Nsg17
g18
sg2123
Nsg20
I01
sg23
Nsg75
F1.0
sg76
F0.0
sg24
Nsg25
Nsg11
Nsg28
I00
sg29
I00
sg30
(dp2576
sg2125
Nsg32
I00
sg1884
g1943
sg88
Nsg1883
Nsg2126
Nsg33
Nsg96
Nsg86
I01
sg2127
Vbaseline
p2577
sg2129
V
p2578
sg2131
Nsg103
g0
(g104
g105
((lp2579
(lp2580
tp2581
tp2582
Rp2583
sg111
I0
sg2137
Nsg112
I01
sg114
Nsg2138
F1.2
sg115
g1712
sg2163
I00
sg2164
I00
sg43
Nsg2165
g2166
sg2167
Vleft
p2584
sg34
NsbsS'_right_title'
p2585
g0
(g2104
g2
Ntp2586
Rp2587
(dp2588
g6
g7
sg8
I01
sg9
g4
sg10
Nsg2108
g0
(g2109
g2
Ntp2589
Rp2590
(dp2591
g2113
g2524
sg2116
Nsg2117
g2118
sg2119
g2118
sg2120
F9.6
sg2121
I400
sg2122
g2118
sbsg42
Nsg17
g18
sg2123
Nsg20
I01
sg23
Nsg75
F1.0
sg76
F1.0
sg24
Nsg25
Nsg11
Nsg28
I00
sg29
I00
sg30
(dp2592
sg2125
Nsg32
I00
sg1884
g1943
sg88
Nsg1883
Nsg2126
Nsg33
Nsg96
Nsg86
I01
sg2127
g2577
sg2129
V
p2593
sg2131
Nsg103
g0
(g104
g105
((lp2594
(lp2595
tp2596
tp2597
Rp2598
sg111
I0
sg2137
Nsg112
I01
sg114
Nsg2138
F1.2
sg115
g1716
sg2163
I00
sg2164
I00
sg43
Nsg2165
g2166
sg2167
Vright
p2599
sg34
NsbsS'transScale'
p2600
g191
sg115
NsS'axison'
p2601
I01
sS'patch'
p2602
g0
(g36
g2
Ntp2603
Rp2604
(dp2605
g6
g7
sg40
F1.0
sg41
I01
sg9
g4
sg8
I01
sg10
Nsg42
Nsg17
g18
sg43
Nsg20
I01
sg44
g0
(g45
g2
Ntp2606
Rp2607
(dp2608
g49
I1
sg50
Nsg51
g7
sg52
(dp2609
sbsg54
(F0.0
F0.0
F0.0
F0.0
tp2610
sg23
Nsg75
F0.0
sg76
F0.0
sg24
Nsg77
VNone
p2611
sg11
Nsg28
I00
sg29
I00
sg30
(dp2612
sg80
g827
sg32
I00
sg85
Nsg86
I01
sg87
F0.0
sg88
Nsg89
F1.0
sg33
Nsg90
g2610
sg91
Nsg92
I01
sg93
Nsg94
g2387
sg96
Nsg97
g98
sg99
g100
sg101
g102
sg103
g0
(g104
g105
((lp2613
(lp2614
tp2615
tp2616
Rp2617
sg111
I0
sg112
I01
sg113
F0.0
sg114
Nsg115
g234
sg1879
(NNtp2618
sg1881
g1882
sg1883
Nsg25
Nsg1884
Nsg34
NsbsS'viewLim'
p2619
g200
sg17
g18
sS'_subplotspec'
p2620
g1917
sS'_adjustable'
p2621
Vbox
p2622
sg9
g4
sS'titleOffsetTrans'
p2623
g1707
sS'_yaxis_transform'
p2624
g184
sS'_gridOn'
p2625
I00
sg10
NsS'colNum'
p2626
I0
sg42
Nsg1886
(lp2627
sS'_autoscaleXon'
p2628
I01
sS'_xmargin'
p2629
F0.05
sS'rowNum'
p2630
I0
sS'_position'
p2631
g240
sS'_rasterization_zorder'
p2632
NsS'_cachedRenderer'
p2633
NsS'_navigate'
p2634
I01
sg23
NsS'_originalPosition'
p2635
g0
(g127
g2
Ntp2636
Rp2637
(dp2638
g49
I1
sg131
g132
(g133
(I0
tp2639
g135
tp2640
Rp2641
(I1
(I2
tp2642
g59
I00
S'\x00\x00\x00\x00\x00\x00\xf0\x7f\x00\x00\x00\x00\x00\x00\xf0\x7f'
p2643
tp2644
bsg52
(dp2645
sg142
g132
(g133
(I0
tp2646
g135
tp2647
Rp2648
(I1
(I2
I2
tp2649
g59
I00
S'\x00\x00\x00\x00\x00\x00\xc0?\x00\x00\x00\x00\x00\x00\xc0?\xcd\xcc\xcc\xcc\xcc\xcc\xec?)\\\x8f\xc2\xf5(\xec?'
p2650
tp2651
bsg149
g132
(g133
(I0
tp2652
g135
tp2653
Rp2654
(I1
(I2
I2
tp2655
g59
I00
S'\x00\x00\x00\x00\x00\x00\xc0?\x00\x00\x00\x00\x00\x00\xc0?\xcd\xcc\xcc\xcc\xcc\xcc\xec?)\\\x8f\xc2\xf5(\xec?'
p2656
tp2657
bsg156
I01
sg51
g7
sbsg25
NsS'_xaxis_transform'
p2658
g1549
sg28
I00
sS'figbox'
p2659
g240
sS'xaxis'
p2660
g0
(cmatplotlib.axis
XAxis
p2661
g2
Ntp2662
Rp2663
(dp2664
g6
g7
sS'major'
p2665
g0
(cmatplotlib.axis
Ticker
p2666
g2
Ntp2667
Rp2668
(dp2669
S'locator'
p2670
g0
(cmatplotlib.ticker
AutoLocator
p2671
g2
Ntp2672
Rp2673
(dp2674
S'_min_n_ticks'
p2675
I2
sS'_symmetric'
p2676
I00
sS'_nbins'
p2677
Vauto
p2678
sS'_steps'
p2679
g132
(g133
(I0
tp2680
g135
tp2681
Rp2682
(I1
(I5
tp2683
g59
I00
S'\x00\x00\x00\x00\x00\x00\xf0?\x00\x00\x00\x00\x00\x00\x00@\x00\x00\x00\x00\x00\x00\x04@\x00\x00\x00\x00\x00\x00\x14@\x00\x00\x00\x00\x00\x00$@'
p2684
tp2685
bsS'_prune'
p2686
NsS'_extended_steps'
p2687
g132
(g133
(I0
tp2688
g135
tp2689
Rp2690
(I1
(I10
tp2691
g59
I00
S'\x9a\x99\x99\x99\x99\x99\xb9?\x9a\x99\x99\x99\x99\x99\xc9?\x00\x00\x00\x00\x00\x00\xd0?\x00\x00\x00\x00\x00\x00\xe0?\x00\x00\x00\x00\x00\x00\xf0?\x00\x00\x00\x00\x00\x00\x00@\x00\x00\x00\x00\x00\x00\x04@\x00\x00\x00\x00\x00\x00\x14@\x00\x00\x00\x00\x00\x00$@\x00\x00\x00\x00\x00\x004@'
p2692
tp2693
bsS'_integer'
p2694
I00
sS'axis'
p2695
g2663
sbsS'formatter'
p2696
g0
(cmatplotlib.ticker
ScalarFormatter
p2697
g2
Ntp2698
Rp2699
(dp2700
S'_powerlimits'
p2701
(lp2702
I-7
aI7
asS'orderOfMagnitude'
p2703
I0
sS'_useOffset'
p2704
I01
sS'_useLocale'
p2705
I00
sS'format'
p2706
g7
sS'_useMathText'
p2707
I00
sS'_offset_threshold'
p2708
I4
sS'offset'
p2709
I0
sg2163
I00
sS'_scientific'
p2710
I01
sg2695
g2663
sbsbsS'isDefault_label'
p2711
I00
sS'_scale'
p2712
g0
(cmatplotlib.scale
LinearScale
p2713
g2
Ntp2714
Rp2715
sg9
g4
sg8
I01
sS'_gridOnMinor'
p2716
I00
sg10
Nsg42
NsS'_smart_bounds'
p2717
I00
sg17
g18
sg20
I01
sg23
NsS'offsetText'
p2718
g0
(g2104
g2
Ntp2719
Rp2720
(dp2721
g6
g7
sg8
I01
sg9
g4
sg10
Nsg2108
g0
(g2109
g2
Ntp2722
Rp2723
(dp2724
g2113
(lp2725
g2115
asg2116
Nsg2117
g2118
sg2119
g2118
sg2120
F8.0
sg2121
I400
sg2122
g2118
sbsg42
Nsg17
g18
sg2123
Nsg20
I01
sg23
Nsg75
I0
sg76
I1
sg24
Nsg25
Nsg11
Nsg28
I00
sg29
I00
sg30
(dp2726
sg2125
Nsg32
I00
sg1884
Nsg88
Nsg1883
Nsg2126
Nsg33
Nsg96
Nsg86
I01
sg2127
Vtop
p2727
sg2129
V
p2728
sg2131
Nsg103
g0
(g104
g105
((lp2729
(lp2730
tp2731
tp2732
Rp2733
sg111
I0
sg2137
Nsg112
I01
sg114
Nsg2138
F1.2
sg115
g1385
sg2163
I00
sg2164
I00
sg43
Nsg2165
V0.
p2734
sg2167
Vright
p2735
sg34
Nsbsg24
Nsg25
Nsg11
NsS'label'
p2736
g0
(g2104
g2
Ntp2737
Rp2738
(dp2739
g6
g7
sg8
I01
sg9
g4
sg10
Nsg2108
g0
(g2109
g2
Ntp2740
Rp2741
(dp2742
g2113
(lp2743
g2115
asg2116
Nsg2117
g2118
sg2119
g2118
sg2120
F10.0
sg2121
I400
sg2122
g2118
sbsg42
Nsg17
g18
sg2123
Nsg20
I01
sg23
Nsg75
I0
sg76
F0.5
sg24
Nsg25
Nsg11
Nsg28
I00
sg29
I00
sg30
(dp2744
sg2125
Nsg32
I00
sg1884
Nsg88
Nsg1883
Nsg2126
Nsg33
Nsg96
Nsg86
I01
sg2127
Vtop
p2745
sg2129
VPSP Amplitude (mV)
p2746
sg2131
Nsg103
g0
(g104
g105
((lp2747
(lp2748
tp2749
tp2750
Rp2751
sg111
I0
sg2137
Nsg112
I01
sg114
Nsg2138
F1.2
sg115
g1541
sg2163
I00
sg2164
I00
sg43
Nsg2165
V0.
p2752
sg2167
Vcenter
p2753
sg34
Nsbsg28
I00
sS'isDefault_majfmt'
p2754
I01
sg29
I00
sg30
(dp2755
sS'units'
p2756
Nsg32
I00
sS'minor'
p2757
g0
(g2666
g2
Ntp2758
Rp2759
(dp2760
g2670
g0
(cmatplotlib.ticker
NullLocator
p2761
g2
Ntp2762
Rp2763
(dp2764
g2695
g2663
sbsg2696
g0
(cmatplotlib.ticker
NullFormatter
p2765
g2
Ntp2766
Rp2767
(dp2768
g2695
g2663
sbsbsg1884
g1943
sS'_major_tick_kw'
p2769
(dp2770
Vlabel1On
p2771
I01
sVgridOn
p2772
I00
sVlabel2On
p2773
I00
sVtick1On
p2774
I01
sVtick2On
p2775
I00
ssS'isDefault_minloc'
p2776
I01
sg88
g1515
sg33
NsS'_gridOnMajor'
p2777
I00
sS'_lastNumMinorTicks'
p2778
I1
sS'labelpad'
p2779
F4.0
sS'majorTicks'
p2780
(lp2781
g0
(cmatplotlib.axis
XTick
p2782
g2
Ntp2783
Rp2784
(dp2785
g6
g7
sg40
F0.8
sg9
g4
sS'tick1On'
p2786
I01
sg8
I01
sg10
Nsg111
I0
sg42
NsS'_pad'
p2787
F3.5
sS'_labelcolor'
p2788
g2734
sS'gridOn'
p2789
I00
sg2120
F0.0
sg17
g18
sS'_tickdir'
p2790
Vout
p2791
sg2736
g0
(g2104
g2
Ntp2792
Rp2793
(dp2794
g6
g7
sg8
I01
sg9
g4
sg10
Nsg2108
g0
(g2109
g2
Ntp2795
Rp2796
(dp2797
g2113
(lp2798
g2115
asg2116
Nsg2117
g2118
sg2119
g2118
sg2120
F8.0
sg2121
I400
sg2122
g2118
sbsg42
Nsg17
g18
sg2123
Nsg20
I01
sg23
Nsg75
I0
sg76
I0
sg24
Nsg25
Nsg11
Nsg28
I00
sg29
I00
sg30
(dp2799
sg2125
Nsg32
I00
sg1884
Nsg88
Nsg1883
Nsg2126
Nsg33
Nsg96
Nsg86
I01
sg2127
Vtop
p2800
sg2129
V
p2801
sg2131
Nsg103
g0
(g104
g105
((lp2802
(lp2803
tp2804
tp2805
Rp2806
sg111
I0
sg2137
Nsg112
I01
sg114
Nsg2138
F1.2
sg115
g1608
sg2163
I00
sg2164
I00
sg43
Nsg2165
g2734
sg2167
Vcenter
p2807
sg34
Nsbsg20
I01
sg23
NsS'label2On'
p2808
I00
sg24
Nsg25
Nsg11
NsS'tick2On'
p2809
I00
sg28
I00
sg29
I00
sg30
(dp2810
sS'_tickmarkers'
p2811
(I3
I2
tp2812
sg32
I00
sS'_zorder'
p2813
F2.01
sg1884
g1943
sS'label1On'
p2814
I01
sg88
g658
sg1883
NsS'label1'
p2815
g2793
sS'label2'
p2816
g0
(g2104
g2
Ntp2817
Rp2818
(dp2819
g6
g7
sg8
I01
sg9
g4
sg10
Nsg2108
g0
(g2109
g2
Ntp2820
Rp2821
(dp2822
g2113
(lp2823
g2115
asg2116
Nsg2117
g2118
sg2119
g2118
sg2120
F8.0
sg2121
I400
sg2122
g2118
sbsg42
Nsg17
g18
sg2123
Nsg20
I01
sg23
Nsg75
I1
sg76
I0
sg24
Nsg25
Nsg11
Nsg28
I00
sg29
I00
sg30
(dp2824
sg2125
Nsg32
I00
sg1884
Nsg88
Nsg1883
Nsg2126
Nsg33
Nsg96
Nsg86
I01
sg2127
Vbottom
p2825
sg2129
V
p2826
sg2131
Nsg103
g0
(g104
g105
((lp2827
(lp2828
tp2829
tp2830
Rp2831
sg111
I0
sg2137
Nsg112
I01
sg114
Nsg2138
F1.2
sg115
g1590
sg2163
I00
sg2164
I00
sg43
Nsg2165
g2734
sg2167
g2807
sg34
Nsbsg96
NsS'_loc'
p2832
I0
sg86
I01
sg103
g0
(g104
g105
((lp2833
(lp2834
tp2835
tp2836
Rp2837
sS'_base_pad'
p2838
F3.5
sS'tick1line'
p2839
g0
(cmatplotlib.lines
Line2D
p2840
g2
Ntp2841
Rp2842
(dp2843
g6
g7
sS'_dashcapstyle'
p2844
Vbutt
p2845
sS'_linestyles'
p2846
Nsg20
I01
sS'_x_filled'
p2847
NsS'ind_offset'
p2848
I0
sg75
Nsg76
Nsg24
Nsg11
Nsg29
I00
sg30
(dp2849
sg32
I00
sg1884
NsS'_markeredgewidth'
p2850
F0.8
sS'_dashSeq'
p2851
NsS'_markerfacecoloralt'
p2852
Vnone
p2853
sS'_markeredgecolor'
p2854
Vauto
p2855
sg96
Nsg86
I01
sS'_xorig'
p2856
(I0
tp2857
sg111
I0
sg112
I01
sS'_invalidy'
p2858
I01
sS'_invalidx'
p2859
I01
sg115
g1549
sS'_us_dashSeq'
p2860
NsS'zorder'
p2861
F2.01
sg2165
g2734
sS'pickradius'
p2862
I5
sg9
g4
sS'verticalOffset'
p2863
Nsg10
Nsg42
Nsg17
g18
sS'_solidjoinstyle'
p2864
Vround
p2865
sg23
Nsg25
Nsg28
I00
sS'_markevery'
p2866
Nsg34
NsS'_transformed_path'
p2867
NsS'_marker'
p2868
g0
(cmatplotlib.markers
MarkerStyle
p2869
g2
Ntp2870
Rp2871
(dp2872
g2868
I3
sS'_alt_path'
p2873
NsS'_snap_threshold'
p2874
F1.0
sg115
g0
(g157
g2
Ntp2875
Rp2876
(dp2877
g49
I2
sg50
Nsg120
g132
(g133
(I0
tp2878
g135
tp2879
Rp2880
(I1
(I3
I3
tp2881
g59
I00
S'\x00\x00\x00\x00\x00\x00\xf0?\x00\x00\x00\x00\x00\x00\x00\x00\x00\x00\x00\x00\x00\x00\x00\x00\x00\x00\x00\x00\x00\x00\x00\x00\x00\x00\x00\x00\x00\x00\xf0\xbf\x00\x00\x00\x00\x00\x00\x00\x00\x00\x00\x00\x00\x00\x00\x00\x00\x00\x00\x00\x00\x00\x00\x00\x00\x00\x00\x00\x00\x00\x00\xf0?'
p2882
tp2883
bsg51
g7
sg52
(dp2884
sbsS'_filled'
p2885
I00
sS'_fillstyle'
p2886
Vfull
p2887
sS'_alt_transform'
p2888
Nsg1881
Vbutt
p2889
sg99
Vround
p2890
sg2471
g0
(g2472
g2
Ntp2891
Rp2892
(dp2893
g2476
I00
sg2477
Nsg2478
g132
(g133
(I0
tp2894
g135
tp2895
Rp2896
(I1
(I2
I2
tp2897
g59
I00
S'\x00\x00\x00\x00\x00\x00\x00\x80\x00\x00\x00\x00\x00\x00\x00\x00\x00\x00\x00\x00\x00\x00\x00\x80\x00\x00\x00\x00\x00\x00\xf0?'
p2898
tp2899
bsg2485
I00
sg2486
F0.1111111111111111
sg2487
I1
sg2488
I00
sbsbsS'_markerfacecolor'
p2900
Vauto
p2901
sg88
Nsg33
Nsg92
I01
sS'_xy'
p2902
Nsg101
VNone
p2903
sg103
g0
(g104
g105
((lp2904
(lp2905
tp2906
tp2907
Rp2908
sS'_subslice'
p2909
I00
sS'_drawstyle'
p2910
Vdefault
p2911
sS'_solidcapstyle'
p2912
g2865
sS'_us_dashOffset'
p2913
Nsg114
NsS'_dashjoinstyle'
p2914
g2865
sS'_markersize'
p2915
F0.0
sg8
I01
sS'_dashOffset'
p2916
Nsg43
Nsg1883
NsS'_yorig'
p2917
(I0
tp2918
sg87
F0.5
sg2471
Nsbsg112
I00
sS'gridline'
p2919
g0
(g2840
g2
Ntp2920
Rp2921
(dp2922
g6
g7
sg8
I01
sg2912
g2865
sg9
g4
sg2844
g2845
sg2846
Nsg10
Nsg42
Nsg17
g18
sg2864
g2865
sg20
I01
sg2847
Nsg23
Nsg75
g132
(g133
(I0
tp2923
g135
tp2924
Rp2925
(I1
(I2
tp2926
g59
I00
S'\x00\x00\x00\x00\x00\x00\x00\x00\x00\x00\x00\x00\x00\x00\xf0?'
p2927
tp2928
bsg76
g132
(g133
(I0
tp2929
g135
tp2930
Rp2931
(I1
(I2
tp2932
g59
I00
S'\x00\x00\x00\x00\x00\x00\x00\x00\x00\x00\x00\x00\x00\x00\x00\x00'
p2933
tp2934
bsg24
Nsg25
Nsg11
Nsg2856
(F0.0
F0.0
tp2935
sg28
I00
sg2866
Nsg29
I00
sg30
(dp2936
sg2863
Nsg32
I00
sg2909
I00
sg1884
Nsg2867
Nsg2850
F1.0
sg2900
g2901
sg2851
Nsg2165
V.8
p2937
sg2868
g0
(g2869
g2
Ntp2938
Rp2939
(dp2940
g2868
VNone
p2941
sg2873
Nsg2874
Nsg115
g0
(g45
g2
Ntp2942
Rp2943
(dp2944
g49
I1
sg50
Nsg51
g7
sg52
(dp2945
sbsg2885
I00
sg2886
g2887
sg2888
Nsg1881
g2889
sg99
g2890
sg2471
g0
(g2472
g2
Ntp2946
Rp2947
(dp2948
g2476
I00
sg2477
Nsg2478
g132
(g133
(I0
tp2949
g135
tp2950
Rp2951
(I1
(I0
I2
tp2952
g59
I00
S''
p2953
tp2954
bsg2485
I00
sg2486
F0.1111111111111111
sg2487
I1
sg2488
I00
sbsbsg33
Nsg2852
g2853
sg92
I01
sg2854
g2855
sg96
Nsg2915
F0.0
sg86
I01
sg2902
g132
(g133
(I0
tp2955
g135
tp2956
Rp2957
(I1
(I2
I2
tp2958
g59
I00
S'\x00\x00\x00\x00\x00\x00\x00\x00\x00\x00\x00\x00\x00\x00\x00\x00\x00\x00\x00\x00\x00\x00\x00\x00\x00\x00\x00\x00\x00\x00\xf0?'
p2959
tp2960
bsg101
V-
p2961
sg103
g0
(g104
g105
((lp2962
(lp2963
tp2964
tp2965
Rp2966
sg111
I0
sg2910
g2911
sg2848
I0
sg2913
Nsg2862
I5
sg112
I01
sg114
F1.0
sg2914
g2865
sg2859
I00
sg115
g1549
sg2916
Nsg2860
Nsg2858
I00
sg43
Nsg1883
Nsg2917
(I0
F1.0
tp2967
sg88
g588
sg87
F0.8
sg34
Nsg2471
g0
(g2472
g2
Ntp2968
Rp2969
(dp2970
g2476
I00
sg2477
Nsg2478
g2957
sg2485
I00
sg2486
F0.1111111111111111
sg2487
I180
sg2488
I00
sbsbsg114
Nsg33
NsS'tick2line'
p2971
g0
(g2840
g2
Ntp2972
Rp2973
(dp2974
g6
g7
sg2844
g2845
sg2846
Nsg20
I01
sg2847
Nsg2848
I0
sg75
Nsg76
Nsg24
Nsg11
Nsg29
I00
sg30
(dp2975
sg32
I00
sg1884
Nsg2850
F0.8
sg2851
Nsg2852
g2853
sg2854
g2855
sg96
Nsg86
I01
sg2856
(I0
tp2976
sg111
I0
sg112
I01
sg2858
I01
sg2859
I01
sg115
g1549
sg2860
Nsg2861
F2.01
sg2165
g2734
sg2862
I5
sg9
g4
sg2863
Nsg10
Nsg42
Nsg17
g18
sg2864
g2865
sg23
Nsg25
Nsg28
I00
sg2866
Nsg34
Nsg2867
Nsg2868
g0
(g2869
g2
Ntp2977
Rp2978
(dp2979
g2868
I2
sg2873
Nsg2874
F1.0
sg115
g0
(g157
g2
Ntp2980
Rp2981
(dp2982
g49
I2
sg50
Nsg120
g132
(g133
(I0
tp2983
g135
tp2984
Rp2985
(I1
(I3
I3
tp2986
g59
I00
S'\x00\x00\x00\x00\x00\x00\xf0?\x00\x00\x00\x00\x00\x00\x00\x00\x00\x00\x00\x00\x00\x00\x00\x00\x00\x00\x00\x00\x00\x00\x00\x00\x00\x00\x00\x00\x00\x00\xf0?\x00\x00\x00\x00\x00\x00\x00\x00\x00\x00\x00\x00\x00\x00\x00\x00\x00\x00\x00\x00\x00\x00\x00\x00\x00\x00\x00\x00\x00\x00\xf0?'
p2987
tp2988
bsg51
g7
sg52
(dp2989
sbsg2885
I00
sg2886
g2887
sg2888
Nsg1881
g2889
sg99
g2890
sg2471
g2892
sbsg2900
g2901
sg88
Nsg33
Nsg92
I01
sg2902
Nsg101
VNone
p2990
sg103
g0
(g104
g105
((lp2991
(lp2992
tp2993
tp2994
Rp2995
sg2909
I00
sg2910
g2911
sg2912
g2865
sg2913
Nsg114
Nsg2914
g2865
sg2915
F0.0
sg8
I01
sg2916
Nsg43
Nsg1883
Nsg2917
(I1
tp2996
sg87
F0.5
sg2471
Nsbsg115
NsS'_labelsize'
p2997
F8.0
sS'_name'
p2998
Vxtick
p2999
sg43
Nsg2165
g2734
sg34
Nsbag0
(g2782
g2
Ntp3000
Rp3001
(dp3002
g6
g7
sg40
F0.8
sg9
g4
sg2786
I01
sg8
I01
sg10
Nsg111
I0
sg42
Nsg2787
F3.5
sg2788
g2734
sg2789
I00
sg2120
F0.0
sg17
g18
sg2790
g2791
sg2736
g0
(g2104
g2
Ntp3003
Rp3004
(dp3005
g6
g7
sg8
I01
sg9
g4
sg10
Nsg2108
g0
(g2109
g2
Ntp3006
Rp3007
(dp3008
g2113
(lp3009
g2115
asg2116
Nsg2117
g2118
sg2119
g2118
sg2120
F8.0
sg2121
I400
sg2122
g2118
sbsg42
Nsg17
g18
sg2123
Nsg20
I01
sg23
Nsg75
I0
sg76
I0
sg24
Nsg25
Nsg11
Nsg28
I00
sg29
I00
sg30
(dp3010
sg2125
Nsg32
I00
sg1884
Nsg88
Nsg1883
Nsg2126
Nsg33
Nsg96
Nsg86
I01
sg2127
g2800
sg2129
V
p3011
sg2131
Nsg103
g0
(g104
g105
((lp3012
(lp3013
tp3014
tp3015
Rp3016
sg111
I0
sg2137
Nsg112
I01
sg114
Nsg2138
F1.2
sg115
g1554
sg2163
I00
sg2164
I00
sg43
Nsg2165
g2734
sg2167
g2807
sg34
Nsbsg20
I01
sg23
Nsg2808
I00
sg24
Nsg25
Nsg11
Nsg2809
I00
sg28
I00
sg29
I00
sg30
(dp3017
sg2811
(I3
I2
tp3018
sg32
I00
sg2813
F2.01
sg1884
g1943
sg2814
I01
sg88
g1008
sg1883
Nsg2815
g3004
sg2816
g0
(g2104
g2
Ntp3019
Rp3020
(dp3021
g6
g7
sg8
I01
sg9
g4
sg10
Nsg2108
g0
(g2109
g2
Ntp3022
Rp3023
(dp3024
g2113
(lp3025
g2115
asg2116
Nsg2117
g2118
sg2119
g2118
sg2120
F8.0
sg2121
I400
sg2122
g2118
sbsg42
Nsg17
g18
sg2123
Nsg20
I01
sg23
Nsg75
I1
sg76
I0
sg24
Nsg25
Nsg11
Nsg28
I00
sg29
I00
sg30
(dp3026
sg2125
Nsg32
I00
sg1884
Nsg88
Nsg1883
Nsg2126
Nsg33
Nsg96
Nsg86
I01
sg2127
g2825
sg2129
V
p3027
sg2131
Nsg103
g0
(g104
g105
((lp3028
(lp3029
tp3030
tp3031
Rp3032
sg111
I0
sg2137
Nsg112
I01
sg114
Nsg2138
F1.2
sg115
g1581
sg2163
I00
sg2164
I00
sg43
Nsg2165
g2734
sg2167
g2807
sg34
Nsbsg96
Nsg2832
I0
sg86
I01
sg103
g0
(g104
g105
((lp3033
(lp3034
tp3035
tp3036
Rp3037
sg2838
F3.5
sg2839
g0
(g2840
g2
Ntp3038
Rp3039
(dp3040
g6
g7
sg2844
g2845
sg2846
Nsg20
I01
sg2847
Nsg2848
I0
sg75
Nsg76
Nsg24
Nsg11
Nsg29
I00
sg30
(dp3041
sg32
I00
sg1884
Nsg2850
F0.8
sg2851
Nsg2852
g2853
sg2854
g2855
sg96
Nsg86
I01
sg2856
(I0
tp3042
sg111
I0
sg112
I01
sg2858
I01
sg2859
I01
sg115
g1549
sg2860
Nsg2861
F2.01
sg2165
g2734
sg2862
I5
sg9
g4
sg2863
Nsg10
Nsg42
Nsg17
g18
sg2864
g2865
sg23
Nsg25
Nsg28
I00
sg2866
Nsg34
Nsg2867
Nsg2868
g0
(g2869
g2
Ntp3043
Rp3044
(dp3045
g2868
I3
sg2873
Nsg2874
F1.0
sg115
g0
(g157
g2
Ntp3046
Rp3047
(dp3048
g49
I2
sg50
Nsg120
g132
(g133
(I0
tp3049
g135
tp3050
Rp3051
(I1
(I3
I3
tp3052
g59
I00
S'\x00\x00\x00\x00\x00\x00\xf0?\x00\x00\x00\x00\x00\x00\x00\x00\x00\x00\x00\x00\x00\x00\x00\x00\x00\x00\x00\x00\x00\x00\x00\x00\x00\x00\x00\x00\x00\x00\xf0\xbf\x00\x00\x00\x00\x00\x00\x00\x00\x00\x00\x00\x00\x00\x00\x00\x00\x00\x00\x00\x00\x00\x00\x00\x00\x00\x00\x00\x00\x00\x00\xf0?'
p3053
tp3054
bsg51
g7
sg52
(dp3055
sbsg2885
I00
sg2886
g2887
sg2888
Nsg1881
g2889
sg99
g2890
sg2471
g2892
sbsg2900
g2901
sg88
Nsg33
Nsg92
I01
sg2902
Nsg101
g2903
sg103
g0
(g104
g105
((lp3056
(lp3057
tp3058
tp3059
Rp3060
sg2909
I00
sg2910
g2911
sg2912
g2865
sg2913
Nsg114
Nsg2914
g2865
sg2915
F0.0
sg8
I01
sg2916
Nsg43
Nsg1883
Nsg2917
g2918
sg87
F0.5
sg2471
Nsbsg112
I00
sg2919
g0
(g2840
g2
Ntp3061
Rp3062
(dp3063
g6
g7
sg8
I01
sg2912
g2865
sg9
g4
sg2844
g2845
sg2846
Nsg10
Nsg42
Nsg17
g18
sg2864
g2865
sg20
I01
sg2847
Nsg23
Nsg75
g132
(g133
(I0
tp3064
g135
tp3065
Rp3066
(I1
(I2
tp3067
g59
I00
S'\x00\x00\x00\x00\x00\x00\x00\x00\x00\x00\x00\x00\x00\x00\xf0?'
p3068
tp3069
bsg76
g132
(g133
(I0
tp3070
g135
tp3071
Rp3072
(I1
(I2
tp3073
g59
I00
S'\x00\x00\x00\x00\x00\x00\x00\x00\x00\x00\x00\x00\x00\x00\x00\x00'
p3074
tp3075
bsg24
Nsg25
Nsg11
Nsg2856
g2935
sg28
I00
sg2866
Nsg29
I00
sg30
(dp3076
sg2863
Nsg32
I00
sg2909
I00
sg1884
Nsg2867
Nsg2850
F1.0
sg2900
g2901
sg2851
Nsg2165
g2937
sg2868
g0
(g2869
g2
Ntp3077
Rp3078
(dp3079
g2868
g2941
sg2873
Nsg2874
Nsg115
g0
(g45
g2
Ntp3080
Rp3081
(dp3082
g49
I1
sg50
Nsg51
g7
sg52
(dp3083
sbsg2885
I00
sg2886
g2887
sg2888
Nsg1881
g2889
sg99
g2890
sg2471
g0
(g2472
g2
Ntp3084
Rp3085
(dp3086
g2476
I00
sg2477
Nsg2478
g132
(g133
(I0
tp3087
g135
tp3088
Rp3089
(I1
(I0
I2
tp3090
g59
I00
g2953
tp3091
bsg2485
I00
sg2486
F0.1111111111111111
sg2487
I1
sg2488
I00
sbsbsg33
Nsg2852
g2853
sg92
I01
sg2854
g2855
sg96
Nsg2915
F0.0
sg86
I01
sg2902
g132
(g133
(I0
tp3092
g135
tp3093
Rp3094
(I1
(I2
I2
tp3095
g59
I00
S'\x00\x00\x00\x00\x00\x00\x00\x00\x00\x00\x00\x00\x00\x00\x00\x00\x00\x00\x00\x00\x00\x00\x00\x00\x00\x00\x00\x00\x00\x00\xf0?'
p3096
tp3097
bsg101
g2961
sg103
g0
(g104
g105
((lp3098
(lp3099
tp3100
tp3101
Rp3102
sg111
I0
sg2910
g2911
sg2848
I0
sg2913
Nsg2862
I5
sg112
I01
sg114
F1.0
sg2914
g2865
sg2859
I00
sg115
g1549
sg2916
Nsg2860
Nsg2858
I00
sg43
Nsg1883
Nsg2917
g2967
sg88
g938
sg87
F0.8
sg34
Nsg2471
g0
(g2472
g2
Ntp3103
Rp3104
(dp3105
g2476
I00
sg2477
Nsg2478
g3094
sg2485
I00
sg2486
F0.1111111111111111
sg2487
I180
sg2488
I00
sbsbsg114
Nsg33
Nsg2971
g0
(g2840
g2
Ntp3106
Rp3107
(dp3108
g6
g7
sg2844
g2845
sg2846
Nsg20
I01
sg2847
Nsg2848
I0
sg75
Nsg76
Nsg24
Nsg11
Nsg29
I00
sg30
(dp3109
sg32
I00
sg1884
Nsg2850
F0.8
sg2851
Nsg2852
g2853
sg2854
g2855
sg96
Nsg86
I01
sg2856
(I0
tp3110
sg111
I0
sg112
I01
sg2858
I01
sg2859
I01
sg115
g1549
sg2860
Nsg2861
F2.01
sg2165
g2734
sg2862
I5
sg9
g4
sg2863
Nsg10
Nsg42
Nsg17
g18
sg2864
g2865
sg23
Nsg25
Nsg28
I00
sg2866
Nsg34
Nsg2867
Nsg2868
g0
(g2869
g2
Ntp3111
Rp3112
(dp3113
g2868
I2
sg2873
Nsg2874
F1.0
sg115
g0
(g157
g2
Ntp3114
Rp3115
(dp3116
g49
I2
sg50
Nsg120
g132
(g133
(I0
tp3117
g135
tp3118
Rp3119
(I1
(I3
I3
tp3120
g59
I00
S'\x00\x00\x00\x00\x00\x00\xf0?\x00\x00\x00\x00\x00\x00\x00\x00\x00\x00\x00\x00\x00\x00\x00\x00\x00\x00\x00\x00\x00\x00\x00\x00\x00\x00\x00\x00\x00\x00\xf0?\x00\x00\x00\x00\x00\x00\x00\x00\x00\x00\x00\x00\x00\x00\x00\x00\x00\x00\x00\x00\x00\x00\x00\x00\x00\x00\x00\x00\x00\x00\xf0?'
p3121
tp3122
bsg51
g7
sg52
(dp3123
sbsg2885
I00
sg2886
g2887
sg2888
Nsg1881
g2889
sg99
g2890
sg2471
g2892
sbsg2900
g2901
sg88
Nsg33
Nsg92
I01
sg2902
Nsg101
g2990
sg103
g0
(g104
g105
((lp3124
(lp3125
tp3126
tp3127
Rp3128
sg2909
I00
sg2910
g2911
sg2912
g2865
sg2913
Nsg114
Nsg2914
g2865
sg2915
F0.0
sg8
I01
sg2916
Nsg43
Nsg1883
Nsg2917
g2996
sg87
F0.5
sg2471
Nsbsg115
Nsg2997
F8.0
sg2998
g2999
sg43
Nsg2165
g2734
sg34
NsbasS'isDefault_majloc'
p3129
I01
sg1891
g0
(g1892
g2
Ntp3130
Rp3131
I01
bsg96
Nsg86
I01
sS'_autolabelpos'
p3132
I01
sg103
g0
(g104
g105
((lp3133
(lp3134
tp3135
tp3136
Rp3137
sg111
I0
sS'_lastNumMajorTicks'
p3138
I1
sS'converter'
p3139
Nsg112
I00
sg114
NsS'offset_text_position'
p3140
Vbottom
p3141
sg115
NsS'label_position'
p3142
Vbottom
p3143
sg43
Nsg1883
Nsg2862
I15
sS'minorTicks'
p3144
(lp3145
g0
(g2782
g2
Ntp3146
Rp3147
(dp3148
g6
g7
sg40
F0.6
sg9
g4
sg2786
I01
sg8
I01
sg10
Nsg111
I0
sg42
Nsg2787
F3.4
sg2788
g2734
sg2789
I00
sg2120
F0.0
sg17
g18
sg2790
g2791
sg2736
g0
(g2104
g2
Ntp3149
Rp3150
(dp3151
g6
g7
sg8
I01
sg9
g4
sg10
Nsg2108
g0
(g2109
g2
Ntp3152
Rp3153
(dp3154
g2113
(lp3155
g2115
asg2116
Nsg2117
g2118
sg2119
g2118
sg2120
F8.0
sg2121
I400
sg2122
g2118
sbsg42
Nsg17
g18
sg2123
Nsg20
I01
sg23
Nsg75
I0
sg76
I0
sg24
Nsg25
Nsg11
Nsg28
I00
sg29
I00
sg30
(dp3156
sg2125
Nsg32
I00
sg1884
Nsg88
Nsg1883
Nsg2126
Nsg33
Nsg96
Nsg86
I01
sg2127
g2800
sg2129
V
p3157
sg2131
Nsg103
g0
(g104
g105
((lp3158
(lp3159
tp3160
tp3161
Rp3162
sg111
I0
sg2137
Nsg112
I01
sg114
Nsg2138
F1.2
sg115
g1617
sg2163
I00
sg2164
I00
sg43
Nsg2165
g2734
sg2167
g2807
sg34
Nsbsg20
I01
sg23
Nsg2808
I00
sg24
Nsg25
Nsg11
Nsg2809
I00
sg28
I00
sg29
I00
sg30
(dp3163
sg2811
(I3
I2
tp3164
sg32
I00
sg2813
I2
sg1884
g1943
sg2814
I01
sg88
g1288
sg1883
Nsg2815
g3150
sg2816
g0
(g2104
g2
Ntp3165
Rp3166
(dp3167
g6
g7
sg8
I01
sg9
g4
sg10
Nsg2108
g0
(g2109
g2
Ntp3168
Rp3169
(dp3170
g2113
(lp3171
g2115
asg2116
Nsg2117
g2118
sg2119
g2118
sg2120
F8.0
sg2121
I400
sg2122
g2118
sbsg42
Nsg17
g18
sg2123
Nsg20
I01
sg23
Nsg75
I1
sg76
I0
sg24
Nsg25
Nsg11
Nsg28
I00
sg29
I00
sg30
(dp3172
sg2125
Nsg32
I00
sg1884
Nsg88
Nsg1883
Nsg2126
Nsg33
Nsg96
Nsg86
I01
sg2127
g2825
sg2129
V
p3173
sg2131
Nsg103
g0
(g104
g105
((lp3174
(lp3175
tp3176
tp3177
Rp3178
sg111
I0
sg2137
Nsg112
I01
sg114
Nsg2138
F1.2
sg115
g1572
sg2163
I00
sg2164
I00
sg43
Nsg2165
g2734
sg2167
g2807
sg34
Nsbsg96
Nsg2832
I0
sg86
I01
sg103
g0
(g104
g105
((lp3179
(lp3180
tp3181
tp3182
Rp3183
sg2838
F3.4
sg2839
g0
(g2840
g2
Ntp3184
Rp3185
(dp3186
g6
g7
sg2844
g2845
sg2846
Nsg20
I01
sg2847
Nsg2848
I0
sg75
Nsg76
Nsg24
Nsg11
Nsg29
I00
sg30
(dp3187
sg32
I00
sg1884
Nsg2850
F0.6
sg2851
Nsg2852
g2853
sg2854
g2855
sg96
Nsg86
I01
sg2856
(I0
tp3188
sg111
I0
sg112
I01
sg2858
I01
sg2859
I01
sg115
g1549
sg2860
Nsg2861
I2
sg2165
g2734
sg2862
I5
sg9
g4
sg2863
Nsg10
Nsg42
Nsg17
g18
sg2864
g2865
sg23
Nsg25
Nsg28
I00
sg2866
Nsg34
Nsg2867
Nsg2868
g0
(g2869
g2
Ntp3189
Rp3190
(dp3191
g2868
I3
sg2873
Nsg2874
F1.0
sg115
g0
(g157
g2
Ntp3192
Rp3193
(dp3194
g49
I2
sg50
Nsg120
g132
(g133
(I0
tp3195
g135
tp3196
Rp3197
(I1
(I3
I3
tp3198
g59
I00
S'\x00\x00\x00\x00\x00\x00\xf0?\x00\x00\x00\x00\x00\x00\x00\x00\x00\x00\x00\x00\x00\x00\x00\x00\x00\x00\x00\x00\x00\x00\x00\x00\x00\x00\x00\x00\x00\x00\xf0\xbf\x00\x00\x00\x00\x00\x00\x00\x00\x00\x00\x00\x00\x00\x00\x00\x00\x00\x00\x00\x00\x00\x00\x00\x00\x00\x00\x00\x00\x00\x00\xf0?'
p3199
tp3200
bsg51
g7
sg52
(dp3201
sbsg2885
I00
sg2886
g2887
sg2888
Nsg1881
g2889
sg99
g2890
sg2471
g2892
sbsg2900
g2901
sg88
Nsg33
Nsg92
I01
sg2902
Nsg101
g2903
sg103
g0
(g104
g105
((lp3202
(lp3203
tp3204
tp3205
Rp3206
sg2909
I00
sg2910
g2911
sg2912
g2865
sg2913
Nsg114
Nsg2914
g2865
sg2915
F0.0
sg8
I01
sg2916
Nsg43
Nsg1883
Nsg2917
g2918
sg87
F0.5
sg2471
Nsbsg112
I00
sg2919
g0
(g2840
g2
Ntp3207
Rp3208
(dp3209
g6
g7
sg8
I01
sg2912
g2865
sg9
g4
sg2844
g2845
sg2846
Nsg10
Nsg42
Nsg17
g18
sg2864
g2865
sg20
I01
sg2847
Nsg23
Nsg75
g132
(g133
(I0
tp3210
g135
tp3211
Rp3212
(I1
(I2
tp3213
g59
I00
S'\x00\x00\x00\x00\x00\x00\x00\x00\x00\x00\x00\x00\x00\x00\xf0?'
p3214
tp3215
bsg76
g132
(g133
(I0
tp3216
g135
tp3217
Rp3218
(I1
(I2
tp3219
g59
I00
S'\x00\x00\x00\x00\x00\x00\x00\x00\x00\x00\x00\x00\x00\x00\x00\x00'
p3220
tp3221
bsg24
Nsg25
Nsg11
Nsg2856
g2935
sg28
I00
sg2866
Nsg29
I00
sg30
(dp3222
sg2863
Nsg32
I00
sg2909
I00
sg1884
Nsg2867
Nsg2850
F1.0
sg2900
g2901
sg2851
Nsg2165
g2937
sg2868
g0
(g2869
g2
Ntp3223
Rp3224
(dp3225
g2868
g2941
sg2873
Nsg2874
Nsg115
g0
(g45
g2
Ntp3226
Rp3227
(dp3228
g49
I1
sg50
Nsg51
g7
sg52
(dp3229
sbsg2885
I00
sg2886
g2887
sg2888
Nsg1881
g2889
sg99
g2890
sg2471
g0
(g2472
g2
Ntp3230
Rp3231
(dp3232
g2476
I00
sg2477
Nsg2478
g132
(g133
(I0
tp3233
g135
tp3234
Rp3235
(I1
(I0
I2
tp3236
g59
I00
g2953
tp3237
bsg2485
I00
sg2486
F0.1111111111111111
sg2487
I1
sg2488
I00
sbsbsg33
Nsg2852
g2853
sg92
I01
sg2854
g2855
sg96
Nsg2915
F0.0
sg86
I01
sg2902
g132
(g133
(I0
tp3238
g135
tp3239
Rp3240
(I1
(I2
I2
tp3241
g59
I00
S'\x00\x00\x00\x00\x00\x00\x00\x00\x00\x00\x00\x00\x00\x00\x00\x00\x00\x00\x00\x00\x00\x00\x00\x00\x00\x00\x00\x00\x00\x00\xf0?'
p3242
tp3243
bsg101
g2961
sg103
g0
(g104
g105
((lp3244
(lp3245
tp3246
tp3247
Rp3248
sg111
I0
sg2910
g2911
sg2848
I0
sg2913
Nsg2862
I5
sg112
I01
sg114
F1.0
sg2914
g2865
sg2859
I00
sg115
g1549
sg2916
Nsg2860
Nsg2858
I00
sg43
Nsg1883
Nsg2917
g2967
sg88
g1218
sg87
F0.8
sg34
Nsg2471
g0
(g2472
g2
Ntp3249
Rp3250
(dp3251
g2476
I00
sg2477
Nsg2478
g3240
sg2485
I00
sg2486
F0.1111111111111111
sg2487
I180
sg2488
I00
sbsbsg114
Nsg33
Nsg2971
g0
(g2840
g2
Ntp3252
Rp3253
(dp3254
g6
g7
sg2844
g2845
sg2846
Nsg20
I01
sg2847
Nsg2848
I0
sg75
Nsg76
Nsg24
Nsg11
Nsg29
I00
sg30
(dp3255
sg32
I00
sg1884
Nsg2850
F0.6
sg2851
Nsg2852
g2853
sg2854
g2855
sg96
Nsg86
I01
sg2856
(I0
tp3256
sg111
I0
sg112
I01
sg2858
I01
sg2859
I01
sg115
g1549
sg2860
Nsg2861
I2
sg2165
g2734
sg2862
I5
sg9
g4
sg2863
Nsg10
Nsg42
Nsg17
g18
sg2864
g2865
sg23
Nsg25
Nsg28
I00
sg2866
Nsg34
Nsg2867
Nsg2868
g0
(g2869
g2
Ntp3257
Rp3258
(dp3259
g2868
I2
sg2873
Nsg2874
F1.0
sg115
g0
(g157
g2
Ntp3260
Rp3261
(dp3262
g49
I2
sg50
Nsg120
g132
(g133
(I0
tp3263
g135
tp3264
Rp3265
(I1
(I3
I3
tp3266
g59
I00
S'\x00\x00\x00\x00\x00\x00\xf0?\x00\x00\x00\x00\x00\x00\x00\x00\x00\x00\x00\x00\x00\x00\x00\x00\x00\x00\x00\x00\x00\x00\x00\x00\x00\x00\x00\x00\x00\x00\xf0?\x00\x00\x00\x00\x00\x00\x00\x00\x00\x00\x00\x00\x00\x00\x00\x00\x00\x00\x00\x00\x00\x00\x00\x00\x00\x00\x00\x00\x00\x00\xf0?'
p3267
tp3268
bsg51
g7
sg52
(dp3269
sbsg2885
I00
sg2886
g2887
sg2888
Nsg1881
g2889
sg99
g2890
sg2471
g2892
sbsg2900
g2901
sg88
Nsg33
Nsg92
I01
sg2902
Nsg101
g2990
sg103
g0
(g104
g105
((lp3270
(lp3271
tp3272
tp3273
Rp3274
sg2909
I00
sg2910
g2911
sg2912
g2865
sg2913
Nsg114
Nsg2914
g2865
sg2915
F0.0
sg8
I01
sg2916
Nsg43
Nsg1883
Nsg2917
g2996
sg87
F0.5
sg2471
Nsbsg115
Nsg2997
F8.0
sg2998
g2999
sg43
Nsg2165
g2734
sg34
Nsbag0
(g2782
g2
Ntp3275
Rp3276
(dp3277
g6
g7
sg40
F0.6
sg9
g4
sg2786
I01
sg8
I01
sg10
Nsg111
I0
sg42
Nsg2787
F3.4
sg2788
g2734
sg2789
I00
sg2120
F0.0
sg17
g18
sg2790
g2791
sg2736
g0
(g2104
g2
Ntp3278
Rp3279
(dp3280
g6
g7
sg8
I01
sg9
g4
sg10
Nsg2108
g0
(g2109
g2
Ntp3281
Rp3282
(dp3283
g2113
(lp3284
g2115
asg2116
Nsg2117
g2118
sg2119
g2118
sg2120
F8.0
sg2121
I400
sg2122
g2118
sbsg42
Nsg17
g18
sg2123
Nsg20
I01
sg23
Nsg75
I0
sg76
I0
sg24
Nsg25
Nsg11
Nsg28
I00
sg29
I00
sg30
(dp3285
sg2125
Nsg32
I00
sg1884
Nsg88
Nsg1883
Nsg2126
Nsg33
Nsg96
Nsg86
I01
sg2127
g2800
sg2129
V
p3286
sg2131
Nsg103
g0
(g104
g105
((lp3287
(lp3288
tp3289
tp3290
Rp3291
sg111
I0
sg2137
Nsg112
I01
sg114
Nsg2138
F1.2
sg115
g1563
sg2163
I00
sg2164
I00
sg43
Nsg2165
g2734
sg2167
g2807
sg34
Nsbsg20
I01
sg23
Nsg2808
I00
sg24
Nsg25
Nsg11
Nsg2809
I00
sg28
I00
sg29
I00
sg30
(dp3292
sg2811
(I3
I2
tp3293
sg32
I00
sg2813
I2
sg1884
g1943
sg2814
I01
sg88
g1148
sg1883
Nsg2815
g3279
sg2816
g0
(g2104
g2
Ntp3294
Rp3295
(dp3296
g6
g7
sg8
I01
sg9
g4
sg10
Nsg2108
g0
(g2109
g2
Ntp3297
Rp3298
(dp3299
g2113
(lp3300
g2115
asg2116
Nsg2117
g2118
sg2119
g2118
sg2120
F8.0
sg2121
I400
sg2122
g2118
sbsg42
Nsg17
g18
sg2123
Nsg20
I01
sg23
Nsg75
I1
sg76
I0
sg24
Nsg25
Nsg11
Nsg28
I00
sg29
I00
sg30
(dp3301
sg2125
Nsg32
I00
sg1884
Nsg88
Nsg1883
Nsg2126
Nsg33
Nsg96
Nsg86
I01
sg2127
g2825
sg2129
V
p3302
sg2131
Nsg103
g0
(g104
g105
((lp3303
(lp3304
tp3305
tp3306
Rp3307
sg111
I0
sg2137
Nsg112
I01
sg114
Nsg2138
F1.2
sg115
g1599
sg2163
I00
sg2164
I00
sg43
Nsg2165
g2734
sg2167
g2807
sg34
Nsbsg96
Nsg2832
I0
sg86
I01
sg103
g0
(g104
g105
((lp3308
(lp3309
tp3310
tp3311
Rp3312
sg2838
F3.4
sg2839
g0
(g2840
g2
Ntp3313
Rp3314
(dp3315
g6
g7
sg2844
g2845
sg2846
Nsg20
I01
sg2847
Nsg2848
I0
sg75
Nsg76
Nsg24
Nsg11
Nsg29
I00
sg30
(dp3316
sg32
I00
sg1884
Nsg2850
F0.6
sg2851
Nsg2852
g2853
sg2854
g2855
sg96
Nsg86
I01
sg2856
(I0
tp3317
sg111
I0
sg112
I01
sg2858
I01
sg2859
I01
sg115
g1549
sg2860
Nsg2861
I2
sg2165
g2734
sg2862
I5
sg9
g4
sg2863
Nsg10
Nsg42
Nsg17
g18
sg2864
g2865
sg23
Nsg25
Nsg28
I00
sg2866
Nsg34
Nsg2867
Nsg2868
g0
(g2869
g2
Ntp3318
Rp3319
(dp3320
g2868
I3
sg2873
Nsg2874
F1.0
sg115
g0
(g157
g2
Ntp3321
Rp3322
(dp3323
g49
I2
sg50
Nsg120
g132
(g133
(I0
tp3324
g135
tp3325
Rp3326
(I1
(I3
I3
tp3327
g59
I00
S'\x00\x00\x00\x00\x00\x00\xf0?\x00\x00\x00\x00\x00\x00\x00\x00\x00\x00\x00\x00\x00\x00\x00\x00\x00\x00\x00\x00\x00\x00\x00\x00\x00\x00\x00\x00\x00\x00\xf0\xbf\x00\x00\x00\x00\x00\x00\x00\x00\x00\x00\x00\x00\x00\x00\x00\x00\x00\x00\x00\x00\x00\x00\x00\x00\x00\x00\x00\x00\x00\x00\xf0?'
p3328
tp3329
bsg51
g7
sg52
(dp3330
sbsg2885
I00
sg2886
g2887
sg2888
Nsg1881
g2889
sg99
g2890
sg2471
g2892
sbsg2900
g2901
sg88
Nsg33
Nsg92
I01
sg2902
Nsg101
g2903
sg103
g0
(g104
g105
((lp3331
(lp3332
tp3333
tp3334
Rp3335
sg2909
I00
sg2910
g2911
sg2912
g2865
sg2913
Nsg114
Nsg2914
g2865
sg2915
F0.0
sg8
I01
sg2916
Nsg43
Nsg1883
Nsg2917
g2918
sg87
F0.5
sg2471
Nsbsg112
I00
sg2919
g0
(g2840
g2
Ntp3336
Rp3337
(dp3338
g6
g7
sg8
I01
sg2912
g2865
sg9
g4
sg2844
g2845
sg2846
Nsg10
Nsg42
Nsg17
g18
sg2864
g2865
sg20
I01
sg2847
Nsg23
Nsg75
g132
(g133
(I0
tp3339
g135
tp3340
Rp3341
(I1
(I2
tp3342
g59
I00
S'\x00\x00\x00\x00\x00\x00\x00\x00\x00\x00\x00\x00\x00\x00\xf0?'
p3343
tp3344
bsg76
g132
(g133
(I0
tp3345
g135
tp3346
Rp3347
(I1
(I2
tp3348
g59
I00
S'\x00\x00\x00\x00\x00\x00\x00\x00\x00\x00\x00\x00\x00\x00\x00\x00'
p3349
tp3350
bsg24
Nsg25
Nsg11
Nsg2856
g2935
sg28
I00
sg2866
Nsg29
I00
sg30
(dp3351
sg2863
Nsg32
I00
sg2909
I00
sg1884
Nsg2867
Nsg2850
F1.0
sg2900
g2901
sg2851
Nsg2165
g2937
sg2868
g0
(g2869
g2
Ntp3352
Rp3353
(dp3354
g2868
g2941
sg2873
Nsg2874
Nsg115
g0
(g45
g2
Ntp3355
Rp3356
(dp3357
g49
I1
sg50
Nsg51
g7
sg52
(dp3358
sbsg2885
I00
sg2886
g2887
sg2888
Nsg1881
g2889
sg99
g2890
sg2471
g0
(g2472
g2
Ntp3359
Rp3360
(dp3361
g2476
I00
sg2477
Nsg2478
g132
(g133
(I0
tp3362
g135
tp3363
Rp3364
(I1
(I0
I2
tp3365
g59
I00
g2953
tp3366
bsg2485
I00
sg2486
F0.1111111111111111
sg2487
I1
sg2488
I00
sbsbsg33
Nsg2852
g2853
sg92
I01
sg2854
g2855
sg96
Nsg2915
F0.0
sg86
I01
sg2902
g132
(g133
(I0
tp3367
g135
tp3368
Rp3369
(I1
(I2
I2
tp3370
g59
I00
S'\x00\x00\x00\x00\x00\x00\x00\x00\x00\x00\x00\x00\x00\x00\x00\x00\x00\x00\x00\x00\x00\x00\x00\x00\x00\x00\x00\x00\x00\x00\xf0?'
p3371
tp3372
bsg101
g2961
sg103
g0
(g104
g105
((lp3373
(lp3374
tp3375
tp3376
Rp3377
sg111
I0
sg2910
g2911
sg2848
I0
sg2913
Nsg2862
I5
sg112
I01
sg114
F1.0
sg2914
g2865
sg2859
I00
sg115
g1549
sg2916
Nsg2860
Nsg2858
I00
sg43
Nsg1883
Nsg2917
g2967
sg88
g1445
sg87
F0.8
sg34
Nsg2471
g0
(g2472
g2
Ntp3378
Rp3379
(dp3380
g2476
I00
sg2477
Nsg2478
g3369
sg2485
I00
sg2486
F0.1111111111111111
sg2487
I180
sg2488
I00
sbsbsg114
Nsg33
Nsg2971
g0
(g2840
g2
Ntp3381
Rp3382
(dp3383
g6
g7
sg2844
g2845
sg2846
Nsg20
I01
sg2847
Nsg2848
I0
sg75
Nsg76
Nsg24
Nsg11
Nsg29
I00
sg30
(dp3384
sg32
I00
sg1884
Nsg2850
F0.6
sg2851
Nsg2852
g2853
sg2854
g2855
sg96
Nsg86
I01
sg2856
(I0
tp3385
sg111
I0
sg112
I01
sg2858
I01
sg2859
I01
sg115
g1549
sg2860
Nsg2861
I2
sg2165
g2734
sg2862
I5
sg9
g4
sg2863
Nsg10
Nsg42
Nsg17
g18
sg2864
g2865
sg23
Nsg25
Nsg28
I00
sg2866
Nsg34
Nsg2867
Nsg2868
g0
(g2869
g2
Ntp3386
Rp3387
(dp3388
g2868
I2
sg2873
Nsg2874
F1.0
sg115
g0
(g157
g2
Ntp3389
Rp3390
(dp3391
g49
I2
sg50
Nsg120
g132
(g133
(I0
tp3392
g135
tp3393
Rp3394
(I1
(I3
I3
tp3395
g59
I00
S'\x00\x00\x00\x00\x00\x00\xf0?\x00\x00\x00\x00\x00\x00\x00\x00\x00\x00\x00\x00\x00\x00\x00\x00\x00\x00\x00\x00\x00\x00\x00\x00\x00\x00\x00\x00\x00\x00\xf0?\x00\x00\x00\x00\x00\x00\x00\x00\x00\x00\x00\x00\x00\x00\x00\x00\x00\x00\x00\x00\x00\x00\x00\x00\x00\x00\x00\x00\x00\x00\xf0?'
p3396
tp3397
bsg51
g7
sg52
(dp3398
sbsg2885
I00
sg2886
g2887
sg2888
Nsg1881
g2889
sg99
g2890
sg2471
g2892
sbsg2900
g2901
sg88
Nsg33
Nsg92
I01
sg2902
Nsg101
g2990
sg103
g0
(g104
g105
((lp3399
(lp3400
tp3401
tp3402
Rp3403
sg2909
I00
sg2910
g2911
sg2912
g2865
sg2913
Nsg114
Nsg2914
g2865
sg2915
F0.0
sg8
I01
sg2916
Nsg43
Nsg1883
Nsg2917
g2996
sg87
F0.5
sg2471
Nsbsg115
Nsg2997
F8.0
sg2998
g2999
sg43
Nsg2165
g2734
sg34
Nsbasg34
NsS'_minor_tick_kw'
p3404
(dp3405
g2771
I01
sg2773
I00
sg2774
I01
sg2775
I00
ssS'isDefault_minfmt'
p3406
I01
sbsS'_navigate_mode'
p3407
Nsg34
NsS'transAxes'
p3408
g234
sS'_connected'
p3409
(dp3410
sS'fmt_ydata'
p3411
NsS'dataLim'
p3412
g0
(g127
g2
Ntp3413
Rp3414
(dp3415
g49
I0
sg131
g132
(g133
(I0
tp3416
g135
tp3417
Rp3418
(I1
(I2
tp3419
g59
I00
S'\x10F0\xc3\r\x16\xc7?\x00\x00\x00\x00\x00\x00\xf0?'
p3420
tp3421
bsg52
(dp3422
sg142
g132
(g133
(I0
tp3423
g135
tp3424
Rp3425
(I1
(I2
I2
tp3426
g59
I00
S'\x00\x00\x00\x00\x00\x00\xf0\x7f\x00\x00\x00\x00\x00\x00\xf0\x7f\x00\x00\x00\x00\x00\x00\xf0\xff\x00\x00\x00\x00\x00\x00\xf0\xff'
p3427
tp3428
bsg149
g132
(g133
(I0
tp3429
g135
tp3430
Rp3431
(I1
(I2
I2
tp3432
g59
I00
S'\x82\\\xd2\xefS\x8b\xed\xbf\x00\x00\x00\x00\x00\x00\x00\x00\x07\x92b\x8bw}#@\x00\x00\x00\x00\x00\xd0s@'
p3433
tp3434
bsg156
I01
sg51
g7
sbsS'transData'
p3435
g187
sg33
NsS'_sharey'
p3436
NsS'_sharex'
p3437
NsS'axesPatch'
p3438
g2604
sS'_ymargin'
p3439
F0.05
sS'_axes_locator'
p3440
Nsg103
g0
(g104
g105
((lp3441
(lp3442
tp3443
tp3444
Rp3445
sS'numCols'
p3446
I1
sg114
Nsg1895
NsS'yaxis'
p3447
g0
(cmatplotlib.axis
YAxis
p3448
g2
Ntp3449
Rp3450
(dp3451
g6
g7
sg2665
g0
(g2666
g2
Ntp3452
Rp3453
(dp3454
g2670
g0
(g2671
g2
Ntp3455
Rp3456
(dp3457
g2675
I2
sg2676
I00
sg2677
g2678
sg2679
g132
(g133
(I0
tp3458
g135
tp3459
Rp3460
(I1
(I5
tp3461
g59
I00
S'\x00\x00\x00\x00\x00\x00\xf0?\x00\x00\x00\x00\x00\x00\x00@\x00\x00\x00\x00\x00\x00\x04@\x00\x00\x00\x00\x00\x00\x14@\x00\x00\x00\x00\x00\x00$@'
p3462
tp3463
bsg2686
Nsg2687
g132
(g133
(I0
tp3464
g135
tp3465
Rp3466
(I1
(I10
tp3467
g59
I00
S'\x9a\x99\x99\x99\x99\x99\xb9?\x9a\x99\x99\x99\x99\x99\xc9?\x00\x00\x00\x00\x00\x00\xd0?\x00\x00\x00\x00\x00\x00\xe0?\x00\x00\x00\x00\x00\x00\xf0?\x00\x00\x00\x00\x00\x00\x00@\x00\x00\x00\x00\x00\x00\x04@\x00\x00\x00\x00\x00\x00\x14@\x00\x00\x00\x00\x00\x00$@\x00\x00\x00\x00\x00\x004@'
p3468
tp3469
bsg2694
I00
sg2695
g3450
sbsg2696
g0
(g2697
g2
Ntp3470
Rp3471
(dp3472
g2701
g2702
sg2703
I0
sg2704
I01
sg2705
I00
sg2706
g7
sg2707
I00
sg2708
I4
sg2709
I0
sg2163
I00
sg2710
I01
sg2695
g3450
sbsbsg2711
I00
sg2712
g0
(g2713
g2
Ntp3473
Rp3474
sg9
g4
sg8
I01
sg2716
I00
sg10
Nsg42
Nsg2717
I00
sg17
g18
sg20
I01
sg23
Nsg2718
g0
(g2104
g2
Ntp3475
Rp3476
(dp3477
g6
g7
sg8
I01
sg9
g4
sg10
Nsg2108
g0
(g2109
g2
Ntp3478
Rp3479
(dp3480
g2113
(lp3481
g2115
asg2116
Nsg2117
g2118
sg2119
g2118
sg2120
F8.0
sg2121
I400
sg2122
g2118
sbsg42
Nsg17
g18
sg2123
Nsg20
I01
sg23
Nsg75
F0.5
sg76
I0
sg24
Nsg25
Nsg11
Nsg28
I00
sg29
I00
sg30
(dp3482
sg2125
Nsg32
I00
sg1884
Nsg88
Nsg1883
Nsg2126
Nsg33
Nsg96
Nsg86
I01
sg2127
Vbaseline
p3483
sg2129
V
p3484
sg2131
Nsg103
g0
(g104
g105
((lp3485
(lp3486
tp3487
tp3488
Rp3489
sg111
I0
sg2137
Nsg112
I01
sg114
Nsg2138
F1.2
sg115
g1393
sg2163
I00
sg2164
I00
sg43
Nsg2165
V0.
p3490
sg2167
Vleft
p3491
sg34
Nsbsg24
Nsg25
Nsg11
Nsg2736
g0
(g2104
g2
Ntp3492
Rp3493
(dp3494
g6
g7
sg8
I01
sg9
g4
sg10
Nsg2108
g0
(g2109
g2
Ntp3495
Rp3496
(dp3497
g2113
(lp3498
g2115
asg2116
Nsg2117
g2118
sg2119
g2118
sg2120
F10.0
sg2121
I400
sg2122
g2118
sbsg42
Nsg17
g18
sg2123
Nsg20
I01
sg23
Nsg75
F0.5
sg76
I0
sg24
Nsg25
Nsg11
Nsg28
I00
sg29
I00
sg30
(dp3499
sg2125
Nsg32
I00
sg1884
Nsg88
Nsg1883
Nsg2126
Vanchor
p3500
sg33
Nsg96
Nsg86
I01
sg2127
Vbottom
p3501
sg2129
V# recorded PSPs
p3502
sg2131
Nsg103
g0
(g104
g105
((lp3503
(lp3504
tp3505
tp3506
Rp3507
sg111
I0
sg2137
Vvertical
p3508
sg112
I01
sg114
Nsg2138
F1.2
sg115
g1696
sg2163
I00
sg2164
I00
sg43
Nsg2165
g2752
sg2167
Vcenter
p3509
sg34
Nsbsg28
I00
sg2754
I01
sg29
I00
sg30
(dp3510
sg2756
Nsg32
I00
sg2757
g0
(g2666
g2
Ntp3511
Rp3512
(dp3513
g2670
g0
(g2761
g2
Ntp3514
Rp3515
(dp3516
g2695
g3450
sbsg2696
g0
(g2765
g2
Ntp3517
Rp3518
(dp3519
g2695
g3450
sbsbsg1884
g1943
sg2769
(dp3520
g2771
I01
sg2772
I00
sg2773
I00
sg2774
I01
sg2775
I00
ssg2776
I01
sg88
g1670
sg33
Nsg2777
I00
sg2778
I1
sg2779
F4.0
sg2780
(lp3521
g0
(cmatplotlib.axis
YTick
p3522
g2
Ntp3523
Rp3524
(dp3525
g6
g7
sg40
F0.8
sg9
g4
sg2786
I01
sg8
I01
sg10
Nsg111
I0
sg42
Nsg2787
F3.5
sg2788
g3490
sg2789
I00
sg2120
F0.0
sg17
g18
sg2790
Vout
p3526
sg2736
g0
(g2104
g2
Ntp3527
Rp3528
(dp3529
g6
g7
sg8
I01
sg9
g4
sg10
Nsg2108
g0
(g2109
g2
Ntp3530
Rp3531
(dp3532
g2113
(lp3533
g2115
asg2116
Nsg2117
g2118
sg2119
g2118
sg2120
F8.0
sg2121
I400
sg2122
g2118
sbsg42
Nsg17
g18
sg2123
Nsg20
I01
sg23
Nsg75
I0
sg76
I0
sg24
Nsg25
Nsg11
Nsg28
I00
sg29
I00
sg30
(dp3534
sg2125
Nsg32
I00
sg1884
Nsg88
Nsg1883
Nsg2126
Nsg33
Nsg96
Nsg86
I01
sg2127
Vcenter_baseline
p3535
sg2129
V
p3536
sg2131
Nsg103
g0
(g104
g105
((lp3537
(lp3538
tp3539
tp3540
Rp3541
sg111
I0
sg2137
Nsg112
I01
sg114
Nsg2138
F1.2
sg115
g1814
sg2163
I00
sg2164
I00
sg43
Nsg2165
g3490
sg2167
Vright
p3542
sg34
Nsbsg20
I01
sg23
Nsg2808
I00
sg24
Nsg25
Nsg11
Nsg2809
I00
sg28
I00
sg29
I00
sg30
(dp3543
sg2811
(I0
I1
tp3544
sg32
I00
sg2813
F2.01
sg1884
g1943
sg2814
I01
sg88
g1765
sg1883
Nsg2815
g3528
sg2816
g0
(g2104
g2
Ntp3545
Rp3546
(dp3547
g6
g7
sg8
I01
sg9
g4
sg10
Nsg2108
g0
(g2109
g2
Ntp3548
Rp3549
(dp3550
g2113
(lp3551
g2115
asg2116
Nsg2117
g2118
sg2119
g2118
sg2120
F8.0
sg2121
I400
sg2122
g2118
sbsg42
Nsg17
g18
sg2123
Nsg20
I01
sg23
Nsg75
I0
sg76
I1
sg24
Nsg25
Nsg11
Nsg28
I00
sg29
I00
sg30
(dp3552
sg2125
Nsg32
I00
sg1884
Nsg88
Nsg1883
Nsg2126
Nsg33
Nsg96
Nsg86
I01
sg2127
g3535
sg2129
V
p3553
sg2131
Nsg103
g0
(g104
g105
((lp3554
(lp3555
tp3556
tp3557
Rp3558
sg111
I0
sg2137
Nsg112
I01
sg114
Nsg2138
F1.2
sg115
g178
sg2163
I00
sg2164
I00
sg43
Nsg2165
g3490
sg2167
Vleft
p3559
sg34
Nsbsg96
Nsg2832
I0
sg86
I01
sg103
g0
(g104
g105
((lp3560
(lp3561
tp3562
tp3563
Rp3564
sg2838
F3.5
sg2839
g0
(g2840
g2
Ntp3565
Rp3566
(dp3567
g6
g7
sg2844
g2845
sg2846
Nsg20
I01
sg2847
Nsg2848
I0
sg75
Nsg76
Nsg24
Nsg11
Nsg29
I00
sg30
(dp3568
sg32
I00
sg1884
Nsg2850
F0.8
sg2851
Nsg2852
g2853
sg2854
g2855
sg96
Nsg86
I01
sg2856
(I0
tp3569
sg111
I0
sg112
I01
sg2858
I01
sg2859
I01
sg115
g184
sg2860
Nsg2861
F2.01
sg2165
g3490
sg2862
I5
sg9
g4
sg2863
Nsg10
Nsg42
Nsg17
g18
sg2864
g2865
sg23
Nsg25
Nsg28
I00
sg2866
Nsg34
Nsg2867
Nsg2868
g0
(g2869
g2
Ntp3570
Rp3571
(dp3572
g2868
I0
sg2873
Nsg2874
F1.0
sg115
g0
(g157
g2
Ntp3573
Rp3574
(dp3575
g49
I2
sg50
Nsg120
g132
(g133
(I0
tp3576
g135
tp3577
Rp3578
(I1
(I3
I3
tp3579
g59
I00
S'\x00\x00\x00\x00\x00\x00\xf0\xbf\x00\x00\x00\x00\x00\x00\x00\x00\x00\x00\x00\x00\x00\x00\x00\x00\x00\x00\x00\x00\x00\x00\x00\x00\x00\x00\x00\x00\x00\x00\xf0?\x00\x00\x00\x00\x00\x00\x00\x00\x00\x00\x00\x00\x00\x00\x00\x00\x00\x00\x00\x00\x00\x00\x00\x00\x00\x00\x00\x00\x00\x00\xf0?'
p3580
tp3581
bsg51
g7
sg52
(dp3582
sbsg2885
I00
sg2886
g2887
sg2888
Nsg1881
g2889
sg99
g2890
sg2471
g0
(g2472
g2
Ntp3583
Rp3584
(dp3585
g2476
I00
sg2477
Nsg2478
g132
(g133
(I0
tp3586
g135
tp3587
Rp3588
(I1
(I2
I2
tp3589
g59
I00
S'\x00\x00\x00\x00\x00\x00\x00\x00\x00\x00\x00\x00\x00\x00\x00\x00\x00\x00\x00\x00\x00\x00\xf0?\x00\x00\x00\x00\x00\x00\x00\x00'
p3590
tp3591
bsg2485
I00
sg2486
F0.1111111111111111
sg2487
I1
sg2488
I00
sbsbsg2900
g2901
sg88
Nsg33
Nsg92
I01
sg2902
Nsg101
VNone
p3592
sg103
g0
(g104
g105
((lp3593
(lp3594
tp3595
tp3596
Rp3597
sg2909
I00
sg2910
g2911
sg2912
g2865
sg2913
Nsg114
Nsg2914
g2865
sg2915
F0.0
sg8
I01
sg2916
Nsg43
Nsg1883
Nsg2917
(I0
tp3598
sg87
F0.5
sg2471
Nsbsg112
I00
sg2919
g0
(g2840
g2
Ntp3599
Rp3600
(dp3601
g6
g7
sg8
I01
sg2912
g2865
sg9
g4
sg2844
g2845
sg2846
Nsg10
Nsg42
Nsg17
g18
sg2864
g2865
sg20
I01
sg2847
Nsg23
Nsg75
g132
(g133
(I0
tp3602
g135
tp3603
Rp3604
(I1
(I2
tp3605
g59
I00
S'\x00\x00\x00\x00\x00\x00\x00\x00\x00\x00\x00\x00\x00\x00\x00\x00'
p3606
tp3607
bsg76
g132
(g133
(I0
tp3608
g135
tp3609
Rp3610
(I1
(I2
tp3611
g59
I00
S'\x00\x00\x00\x00\x00\x00\x00\x00\x00\x00\x00\x00\x00\x00\xf0?'
p3612
tp3613
bsg24
Nsg25
Nsg11
Nsg2856
(I0
I1
tp3614
sg28
I00
sg2866
Nsg29
I00
sg30
(dp3615
sg2863
Nsg32
I00
sg2909
I00
sg1884
Nsg2867
Nsg2850
F1.0
sg2900
g2901
sg2851
Nsg2165
g2937
sg2868
g0
(g2869
g2
Ntp3616
Rp3617
(dp3618
g2868
g2941
sg2873
Nsg2874
Nsg115
g0
(g45
g2
Ntp3619
Rp3620
(dp3621
g49
I1
sg50
Nsg51
g7
sg52
(dp3622
sbsg2885
I00
sg2886
g2887
sg2888
Nsg1881
g2889
sg99
g2890
sg2471
g0
(g2472
g2
Ntp3623
Rp3624
(dp3625
g2476
I00
sg2477
Nsg2478
g132
(g133
(I0
tp3626
g135
tp3627
Rp3628
(I1
(I0
I2
tp3629
g59
I00
g2953
tp3630
bsg2485
I00
sg2486
F0.1111111111111111
sg2487
I1
sg2488
I00
sbsbsg33
Nsg2852
g2853
sg92
I01
sg2854
g2855
sg96
Nsg2915
F0.0
sg86
I01
sg2902
g132
(g133
(I0
tp3631
g135
tp3632
Rp3633
(I1
(I2
I2
tp3634
g59
I00
S'\x00\x00\x00\x00\x00\x00\x00\x00\x00\x00\x00\x00\x00\x00\x00\x00\x00\x00\x00\x00\x00\x00\xf0?\x00\x00\x00\x00\x00\x00\x00\x00'
p3635
tp3636
bsg101
g2961
sg103
g0
(g104
g105
((lp3637
(lp3638
tp3639
tp3640
Rp3641
sg111
I0
sg2910
g2911
sg2848
I0
sg2913
Nsg2862
I5
sg112
I01
sg114
F1.0
sg2914
g2865
sg2859
I00
sg115
g184
sg2916
Nsg2860
Nsg2858
I00
sg43
Nsg1883
Nsg2917
(I0
I0
tp3642
sg88
g448
sg87
F0.8
sg34
Nsg2471
g0
(g2472
g2
Ntp3643
Rp3644
(dp3645
g2476
I00
sg2477
Nsg2478
g3633
sg2485
I00
sg2486
F0.1111111111111111
sg2487
I180
sg2488
I00
sbsbsg114
Nsg33
Nsg2971
g0
(g2840
g2
Ntp3646
Rp3647
(dp3648
g6
g7
sg2844
g2845
sg2846
Nsg20
I01
sg2847
Nsg2848
I0
sg75
Nsg76
Nsg24
Nsg11
Nsg29
I00
sg30
(dp3649
sg32
I00
sg1884
Nsg2850
F0.8
sg2851
Nsg2852
g2853
sg2854
g2855
sg96
Nsg86
I01
sg2856
(I1
tp3650
sg111
I0
sg112
I01
sg2858
I01
sg2859
I01
sg115
g184
sg2860
Nsg2861
F2.01
sg2165
g3490
sg2862
I5
sg9
g4
sg2863
Nsg10
Nsg42
Nsg17
g18
sg2864
g2865
sg23
Nsg25
Nsg28
I00
sg2866
Nsg34
Nsg2867
Nsg2868
g0
(g2869
g2
Ntp3651
Rp3652
(dp3653
g2868
I1
sg2873
Nsg2874
F1.0
sg115
g0
(g157
g2
Ntp3654
Rp3655
(dp3656
g49
I2
sg50
Nsg120
g132
(g133
(I0
tp3657
g135
tp3658
Rp3659
(I1
(I3
I3
tp3660
g59
I00
S'\x00\x00\x00\x00\x00\x00\xf0?\x00\x00\x00\x00\x00\x00\x00\x00\x00\x00\x00\x00\x00\x00\x00\x00\x00\x00\x00\x00\x00\x00\x00\x00\x00\x00\x00\x00\x00\x00\xf0?\x00\x00\x00\x00\x00\x00\x00\x00\x00\x00\x00\x00\x00\x00\x00\x00\x00\x00\x00\x00\x00\x00\x00\x00\x00\x00\x00\x00\x00\x00\xf0?'
p3661
tp3662
bsg51
g7
sg52
(dp3663
sbsg2885
I00
sg2886
g2887
sg2888
Nsg1881
g2889
sg99
g2890
sg2471
g3584
sbsg2900
g2901
sg88
Nsg33
Nsg92
I01
sg2902
Nsg101
VNone
p3664
sg103
g0
(g104
g105
((lp3665
(lp3666
tp3667
tp3668
Rp3669
sg2909
I00
sg2910
g2911
sg2912
g2865
sg2913
Nsg114
Nsg2914
g2865
sg2915
F0.0
sg8
I01
sg2916
Nsg43
Nsg1883
Nsg2917
(I0
tp3670
sg87
F0.5
sg2471
Nsbsg115
Nsg2997
F8.0
sg2998
Vytick
p3671
sg43
Nsg2165
g3490
sg34
Nsbag0
(g3522
g2
Ntp3672
Rp3673
(dp3674
g6
g7
sg40
F0.8
sg9
g4
sg2786
I01
sg8
I01
sg10
Nsg111
I0
sg42
Nsg2787
F3.5
sg2788
g3490
sg2789
I00
sg2120
F0.0
sg17
g18
sg2790
g3526
sg2736
g0
(g2104
g2
Ntp3675
Rp3676
(dp3677
g6
g7
sg8
I01
sg9
g4
sg10
Nsg2108
g0
(g2109
g2
Ntp3678
Rp3679
(dp3680
g2113
(lp3681
g2115
asg2116
Nsg2117
g2118
sg2119
g2118
sg2120
F8.0
sg2121
I400
sg2122
g2118
sbsg42
Nsg17
g18
sg2123
Nsg20
I01
sg23
Nsg75
I0
sg76
I0
sg24
Nsg25
Nsg11
Nsg28
I00
sg29
I00
sg30
(dp3682
sg2125
Nsg32
I00
sg1884
Nsg88
Nsg1883
Nsg2126
Nsg33
Nsg96
Nsg86
I01
sg2127
g3535
sg2129
V
p3683
sg2131
Nsg103
g0
(g104
g105
((lp3684
(lp3685
tp3686
tp3687
Rp3688
sg111
I0
sg2137
Nsg112
I01
sg114
Nsg2138
F1.2
sg115
g1823
sg2163
I00
sg2164
I00
sg43
Nsg2165
g3490
sg2167
g3542
sg34
Nsbsg20
I01
sg23
Nsg2808
I00
sg24
Nsg25
Nsg11
Nsg2809
I00
sg28
I00
sg29
I00
sg30
(dp3689
sg2811
(I0
I1
tp3690
sg32
I00
sg2813
F2.01
sg1884
g1943
sg2814
I01
sg88
g728
sg1883
Nsg2815
g3676
sg2816
g0
(g2104
g2
Ntp3691
Rp3692
(dp3693
g6
g7
sg8
I01
sg9
g4
sg10
Nsg2108
g0
(g2109
g2
Ntp3694
Rp3695
(dp3696
g2113
(lp3697
g2115
asg2116
Nsg2117
g2118
sg2119
g2118
sg2120
F8.0
sg2121
I400
sg2122
g2118
sbsg42
Nsg17
g18
sg2123
Nsg20
I01
sg23
Nsg75
I0
sg76
I1
sg24
Nsg25
Nsg11
Nsg28
I00
sg29
I00
sg30
(dp3698
sg2125
Nsg32
I00
sg1884
Nsg88
Nsg1883
Nsg2126
Nsg33
Nsg96
Nsg86
I01
sg2127
g3535
sg2129
V
p3699
sg2131
Nsg103
g0
(g104
g105
((lp3700
(lp3701
tp3702
tp3703
Rp3704
sg111
I0
sg2137
Nsg112
I01
sg114
Nsg2138
F1.2
sg115
g1868
sg2163
I00
sg2164
I00
sg43
Nsg2165
g3490
sg2167
g3559
sg34
Nsbsg96
Nsg2832
I0
sg86
I01
sg103
g0
(g104
g105
((lp3705
(lp3706
tp3707
tp3708
Rp3709
sg2838
F3.5
sg2839
g0
(g2840
g2
Ntp3710
Rp3711
(dp3712
g6
g7
sg2844
g2845
sg2846
Nsg20
I01
sg2847
Nsg2848
I0
sg75
Nsg76
Nsg24
Nsg11
Nsg29
I00
sg30
(dp3713
sg32
I00
sg1884
Nsg2850
F0.8
sg2851
Nsg2852
g2853
sg2854
g2855
sg96
Nsg86
I01
sg2856
g3569
sg111
I0
sg112
I01
sg2858
I01
sg2859
I01
sg115
g184
sg2860
Nsg2861
F2.01
sg2165
g3490
sg2862
I5
sg9
g4
sg2863
Nsg10
Nsg42
Nsg17
g18
sg2864
g2865
sg23
Nsg25
Nsg28
I00
sg2866
Nsg34
Nsg2867
Nsg2868
g0
(g2869
g2
Ntp3714
Rp3715
(dp3716
g2868
I0
sg2873
Nsg2874
F1.0
sg115
g0
(g157
g2
Ntp3717
Rp3718
(dp3719
g49
I2
sg50
Nsg120
g132
(g133
(I0
tp3720
g135
tp3721
Rp3722
(I1
(I3
I3
tp3723
g59
I00
S'\x00\x00\x00\x00\x00\x00\xf0\xbf\x00\x00\x00\x00\x00\x00\x00\x00\x00\x00\x00\x00\x00\x00\x00\x00\x00\x00\x00\x00\x00\x00\x00\x00\x00\x00\x00\x00\x00\x00\xf0?\x00\x00\x00\x00\x00\x00\x00\x00\x00\x00\x00\x00\x00\x00\x00\x00\x00\x00\x00\x00\x00\x00\x00\x00\x00\x00\x00\x00\x00\x00\xf0?'
p3724
tp3725
bsg51
g7
sg52
(dp3726
sbsg2885
I00
sg2886
g2887
sg2888
Nsg1881
g2889
sg99
g2890
sg2471
g3584
sbsg2900
g2901
sg88
Nsg33
Nsg92
I01
sg2902
Nsg101
g3592
sg103
g0
(g104
g105
((lp3727
(lp3728
tp3729
tp3730
Rp3731
sg2909
I00
sg2910
g2911
sg2912
g2865
sg2913
Nsg114
Nsg2914
g2865
sg2915
F0.0
sg8
I01
sg2916
Nsg43
Nsg1883
Nsg2917
(I0
tp3732
sg87
F0.5
sg2471
Nsbsg112
I00
sg2919
g0
(g2840
g2
Ntp3733
Rp3734
(dp3735
g6
g7
sg8
I01
sg2912
g2865
sg9
g4
sg2844
g2845
sg2846
Nsg10
Nsg42
Nsg17
g18
sg2864
g2865
sg20
I01
sg2847
Nsg23
Nsg75
g132
(g133
(I0
tp3736
g135
tp3737
Rp3738
(I1
(I2
tp3739
g59
I00
S'\x00\x00\x00\x00\x00\x00\x00\x00\x00\x00\x00\x00\x00\x00\x00\x00'
p3740
tp3741
bsg76
g132
(g133
(I0
tp3742
g135
tp3743
Rp3744
(I1
(I2
tp3745
g59
I00
S'\x00\x00\x00\x00\x00\x00\x00\x00\x00\x00\x00\x00\x00\x00\xf0?'
p3746
tp3747
bsg24
Nsg25
Nsg11
Nsg2856
g3614
sg28
I00
sg2866
Nsg29
I00
sg30
(dp3748
sg2863
Nsg32
I00
sg2909
I00
sg1884
Nsg2867
Nsg2850
F1.0
sg2900
g2901
sg2851
Nsg2165
g2937
sg2868
g0
(g2869
g2
Ntp3749
Rp3750
(dp3751
g2868
g2941
sg2873
Nsg2874
Nsg115
g0
(g45
g2
Ntp3752
Rp3753
(dp3754
g49
I1
sg50
Nsg51
g7
sg52
(dp3755
sbsg2885
I00
sg2886
g2887
sg2888
Nsg1881
g2889
sg99
g2890
sg2471
g0
(g2472
g2
Ntp3756
Rp3757
(dp3758
g2476
I00
sg2477
Nsg2478
g132
(g133
(I0
tp3759
g135
tp3760
Rp3761
(I1
(I0
I2
tp3762
g59
I00
g2953
tp3763
bsg2485
I00
sg2486
F0.1111111111111111
sg2487
I1
sg2488
I00
sbsbsg33
Nsg2852
g2853
sg92
I01
sg2854
g2855
sg96
Nsg2915
F0.0
sg86
I01
sg2902
g132
(g133
(I0
tp3764
g135
tp3765
Rp3766
(I1
(I2
I2
tp3767
g59
I00
S'\x00\x00\x00\x00\x00\x00\x00\x00\x00\x00\x00\x00\x00\x00\x00\x00\x00\x00\x00\x00\x00\x00\xf0?\x00\x00\x00\x00\x00\x00\x00\x00'
p3768
tp3769
bsg101
g2961
sg103
g0
(g104
g105
((lp3770
(lp3771
tp3772
tp3773
Rp3774
sg111
I0
sg2910
g2911
sg2848
I0
sg2913
Nsg2862
I5
sg112
I01
sg114
F1.0
sg2914
g2865
sg2859
I00
sg115
g184
sg2916
Nsg2860
Nsg2858
I00
sg43
Nsg1883
Nsg2917
g3642
sg88
g798
sg87
F0.8
sg34
Nsg2471
g0
(g2472
g2
Ntp3775
Rp3776
(dp3777
g2476
I00
sg2477
Nsg2478
g3766
sg2485
I00
sg2486
F0.1111111111111111
sg2487
I180
sg2488
I00
sbsbsg114
Nsg33
Nsg2971
g0
(g2840
g2
Ntp3778
Rp3779
(dp3780
g6
g7
sg2844
g2845
sg2846
Nsg20
I01
sg2847
Nsg2848
I0
sg75
Nsg76
Nsg24
Nsg11
Nsg29
I00
sg30
(dp3781
sg32
I00
sg1884
Nsg2850
F0.8
sg2851
Nsg2852
g2853
sg2854
g2855
sg96
Nsg86
I01
sg2856
g3650
sg111
I0
sg112
I01
sg2858
I01
sg2859
I01
sg115
g184
sg2860
Nsg2861
F2.01
sg2165
g3490
sg2862
I5
sg9
g4
sg2863
Nsg10
Nsg42
Nsg17
g18
sg2864
g2865
sg23
Nsg25
Nsg28
I00
sg2866
Nsg34
Nsg2867
Nsg2868
g0
(g2869
g2
Ntp3782
Rp3783
(dp3784
g2868
I1
sg2873
Nsg2874
F1.0
sg115
g0
(g157
g2
Ntp3785
Rp3786
(dp3787
g49
I2
sg50
Nsg120
g132
(g133
(I0
tp3788
g135
tp3789
Rp3790
(I1
(I3
I3
tp3791
g59
I00
S'\x00\x00\x00\x00\x00\x00\xf0?\x00\x00\x00\x00\x00\x00\x00\x00\x00\x00\x00\x00\x00\x00\x00\x00\x00\x00\x00\x00\x00\x00\x00\x00\x00\x00\x00\x00\x00\x00\xf0?\x00\x00\x00\x00\x00\x00\x00\x00\x00\x00\x00\x00\x00\x00\x00\x00\x00\x00\x00\x00\x00\x00\x00\x00\x00\x00\x00\x00\x00\x00\xf0?'
p3792
tp3793
bsg51
g7
sg52
(dp3794
sbsg2885
I00
sg2886
g2887
sg2888
Nsg1881
g2889
sg99
g2890
sg2471
g3584
sbsg2900
g2901
sg88
Nsg33
Nsg92
I01
sg2902
Nsg101
g3664
sg103
g0
(g104
g105
((lp3795
(lp3796
tp3797
tp3798
Rp3799
sg2909
I00
sg2910
g2911
sg2912
g2865
sg2913
Nsg114
Nsg2914
g2865
sg2915
F0.0
sg8
I01
sg2916
Nsg43
Nsg1883
Nsg2917
(I0
tp3800
sg87
F0.5
sg2471
Nsbsg115
Nsg2997
F8.0
sg2998
g3671
sg43
Nsg2165
g3490
sg34
Nsbasg3129
I01
sg1891
g0
(g1892
g2
Ntp3801
Rp3802
I01
bsg96
Nsg86
I01
sg3132
I01
sg103
g0
(g104
g105
((lp3803
(lp3804
tp3805
tp3806
Rp3807
sg111
I0
sg3138
I1
sg3139
Nsg112
I00
sg114
Nsg3140
Vleft
p3808
sg115
Nsg3142
Vleft
p3809
sg43
Nsg1883
Nsg2862
I15
sg3144
(lp3810
g0
(g3522
g2
Ntp3811
Rp3812
(dp3813
g6
g7
sg40
F0.6
sg9
g4
sg2786
I01
sg8
I01
sg10
Nsg111
I0
sg42
Nsg2787
F3.4
sg2788
g3490
sg2789
I00
sg2120
F0.0
sg17
g18
sg2790
g3526
sg2736
g0
(g2104
g2
Ntp3814
Rp3815
(dp3816
g6
g7
sg8
I01
sg9
g4
sg10
Nsg2108
g0
(g2109
g2
Ntp3817
Rp3818
(dp3819
g2113
(lp3820
g2115
asg2116
Nsg2117
g2118
sg2119
g2118
sg2120
F8.0
sg2121
I400
sg2122
g2118
sbsg42
Nsg17
g18
sg2123
Nsg20
I01
sg23
Nsg75
I0
sg76
I0
sg24
Nsg25
Nsg11
Nsg28
I00
sg29
I00
sg30
(dp3821
sg2125
Nsg32
I00
sg1884
Nsg88
Nsg1883
Nsg2126
Nsg33
Nsg96
Nsg86
I01
sg2127
g3535
sg2129
V
p3822
sg2131
Nsg103
g0
(g104
g105
((lp3823
(lp3824
tp3825
tp3826
Rp3827
sg111
I0
sg2137
Nsg112
I01
sg114
Nsg2138
F1.2
sg115
g1850
sg2163
I00
sg2164
I00
sg43
Nsg2165
g3490
sg2167
g3542
sg34
Nsbsg20
I01
sg23
Nsg2808
I00
sg24
Nsg25
Nsg11
Nsg2809
I00
sg28
I00
sg29
I00
sg30
(dp3828
sg2811
(I0
I1
tp3829
sg32
I00
sg2813
I2
sg1884
g1943
sg2814
I01
sg88
g1078
sg1883
Nsg2815
g3815
sg2816
g0
(g2104
g2
Ntp3830
Rp3831
(dp3832
g6
g7
sg8
I01
sg9
g4
sg10
Nsg2108
g0
(g2109
g2
Ntp3833
Rp3834
(dp3835
g2113
(lp3836
g2115
asg2116
Nsg2117
g2118
sg2119
g2118
sg2120
F8.0
sg2121
I400
sg2122
g2118
sbsg42
Nsg17
g18
sg2123
Nsg20
I01
sg23
Nsg75
I0
sg76
I1
sg24
Nsg25
Nsg11
Nsg28
I00
sg29
I00
sg30
(dp3837
sg2125
Nsg32
I00
sg1884
Nsg88
Nsg1883
Nsg2126
Nsg33
Nsg96
Nsg86
I01
sg2127
g3535
sg2129
V
p3838
sg2131
Nsg103
g0
(g104
g105
((lp3839
(lp3840
tp3841
tp3842
Rp3843
sg111
I0
sg2137
Nsg112
I01
sg114
Nsg2138
F1.2
sg115
g1841
sg2163
I00
sg2164
I00
sg43
Nsg2165
g3490
sg2167
g3559
sg34
Nsbsg96
Nsg2832
I0
sg86
I01
sg103
g0
(g104
g105
((lp3844
(lp3845
tp3846
tp3847
Rp3848
sg2838
F3.4
sg2839
g0
(g2840
g2
Ntp3849
Rp3850
(dp3851
g6
g7
sg2844
g2845
sg2846
Nsg20
I01
sg2847
Nsg2848
I0
sg75
Nsg76
Nsg24
Nsg11
Nsg29
I00
sg30
(dp3852
sg32
I00
sg1884
Nsg2850
F0.6
sg2851
Nsg2852
g2853
sg2854
g2855
sg96
Nsg86
I01
sg2856
g3569
sg111
I0
sg112
I01
sg2858
I01
sg2859
I01
sg115
g184
sg2860
Nsg2861
I2
sg2165
g3490
sg2862
I5
sg9
g4
sg2863
Nsg10
Nsg42
Nsg17
g18
sg2864
g2865
sg23
Nsg25
Nsg28
I00
sg2866
Nsg34
Nsg2867
Nsg2868
g0
(g2869
g2
Ntp3853
Rp3854
(dp3855
g2868
I0
sg2873
Nsg2874
F1.0
sg115
g0
(g157
g2
Ntp3856
Rp3857
(dp3858
g49
I2
sg50
Nsg120
g132
(g133
(I0
tp3859
g135
tp3860
Rp3861
(I1
(I3
I3
tp3862
g59
I00
S'\x00\x00\x00\x00\x00\x00\xf0\xbf\x00\x00\x00\x00\x00\x00\x00\x00\x00\x00\x00\x00\x00\x00\x00\x00\x00\x00\x00\x00\x00\x00\x00\x00\x00\x00\x00\x00\x00\x00\xf0?\x00\x00\x00\x00\x00\x00\x00\x00\x00\x00\x00\x00\x00\x00\x00\x00\x00\x00\x00\x00\x00\x00\x00\x00\x00\x00\x00\x00\x00\x00\xf0?'
p3863
tp3864
bsg51
g7
sg52
(dp3865
sbsg2885
I00
sg2886
g2887
sg2888
Nsg1881
g2889
sg99
g2890
sg2471
g3584
sbsg2900
g2901
sg88
Nsg33
Nsg92
I01
sg2902
Nsg101
g3592
sg103
g0
(g104
g105
((lp3866
(lp3867
tp3868
tp3869
Rp3870
sg2909
I00
sg2910
g2911
sg2912
g2865
sg2913
Nsg114
Nsg2914
g2865
sg2915
F0.0
sg8
I01
sg2916
Nsg43
Nsg1883
Nsg2917
(I0
tp3871
sg87
F0.5
sg2471
Nsbsg112
I00
sg2919
g0
(g2840
g2
Ntp3872
Rp3873
(dp3874
g6
g7
sg8
I01
sg2912
g2865
sg9
g4
sg2844
g2845
sg2846
Nsg10
Nsg42
Nsg17
g18
sg2864
g2865
sg20
I01
sg2847
Nsg23
Nsg75
g132
(g133
(I0
tp3875
g135
tp3876
Rp3877
(I1
(I2
tp3878
g59
I00
S'\x00\x00\x00\x00\x00\x00\x00\x00\x00\x00\x00\x00\x00\x00\x00\x00'
p3879
tp3880
bsg76
g132
(g133
(I0
tp3881
g135
tp3882
Rp3883
(I1
(I2
tp3884
g59
I00
S'\x00\x00\x00\x00\x00\x00\x00\x00\x00\x00\x00\x00\x00\x00\xf0?'
p3885
tp3886
bsg24
Nsg25
Nsg11
Nsg2856
g3614
sg28
I00
sg2866
Nsg29
I00
sg30
(dp3887
sg2863
Nsg32
I00
sg2909
I00
sg1884
Nsg2867
Nsg2850
F1.0
sg2900
g2901
sg2851
Nsg2165
g2937
sg2868
g0
(g2869
g2
Ntp3888
Rp3889
(dp3890
g2868
g2941
sg2873
Nsg2874
Nsg115
g0
(g45
g2
Ntp3891
Rp3892
(dp3893
g49
I1
sg50
Nsg51
g7
sg52
(dp3894
sbsg2885
I00
sg2886
g2887
sg2888
Nsg1881
g2889
sg99
g2890
sg2471
g0
(g2472
g2
Ntp3895
Rp3896
(dp3897
g2476
I00
sg2477
Nsg2478
g132
(g133
(I0
tp3898
g135
tp3899
Rp3900
(I1
(I0
I2
tp3901
g59
I00
g2953
tp3902
bsg2485
I00
sg2486
F0.1111111111111111
sg2487
I1
sg2488
I00
sbsbsg33
Nsg2852
g2853
sg92
I01
sg2854
g2855
sg96
Nsg2915
F0.0
sg86
I01
sg2902
g132
(g133
(I0
tp3903
g135
tp3904
Rp3905
(I1
(I2
I2
tp3906
g59
I00
S'\x00\x00\x00\x00\x00\x00\x00\x00\x00\x00\x00\x00\x00\x00\x00\x00\x00\x00\x00\x00\x00\x00\xf0?\x00\x00\x00\x00\x00\x00\x00\x00'
p3907
tp3908
bsg101
g2961
sg103
g0
(g104
g105
((lp3909
(lp3910
tp3911
tp3912
Rp3913
sg111
I0
sg2910
g2911
sg2848
I0
sg2913
Nsg2862
I5
sg112
I01
sg114
F1.0
sg2914
g2865
sg2859
I00
sg115
g184
sg2916
Nsg2860
Nsg2858
I00
sg43
Nsg1883
Nsg2917
g3642
sg88
g308
sg87
F0.8
sg34
Nsg2471
g0
(g2472
g2
Ntp3914
Rp3915
(dp3916
g2476
I00
sg2477
Nsg2478
g3905
sg2485
I00
sg2486
F0.1111111111111111
sg2487
I180
sg2488
I00
sbsbsg114
Nsg33
Nsg2971
g0
(g2840
g2
Ntp3917
Rp3918
(dp3919
g6
g7
sg2844
g2845
sg2846
Nsg20
I01
sg2847
Nsg2848
I0
sg75
Nsg76
Nsg24
Nsg11
Nsg29
I00
sg30
(dp3920
sg32
I00
sg1884
Nsg2850
F0.6
sg2851
Nsg2852
g2853
sg2854
g2855
sg96
Nsg86
I01
sg2856
g3650
sg111
I0
sg112
I01
sg2858
I01
sg2859
I01
sg115
g184
sg2860
Nsg2861
I2
sg2165
g3490
sg2862
I5
sg9
g4
sg2863
Nsg10
Nsg42
Nsg17
g18
sg2864
g2865
sg23
Nsg25
Nsg28
I00
sg2866
Nsg34
Nsg2867
Nsg2868
g0
(g2869
g2
Ntp3921
Rp3922
(dp3923
g2868
I1
sg2873
Nsg2874
F1.0
sg115
g0
(g157
g2
Ntp3924
Rp3925
(dp3926
g49
I2
sg50
Nsg120
g132
(g133
(I0
tp3927
g135
tp3928
Rp3929
(I1
(I3
I3
tp3930
g59
I00
S'\x00\x00\x00\x00\x00\x00\xf0?\x00\x00\x00\x00\x00\x00\x00\x00\x00\x00\x00\x00\x00\x00\x00\x00\x00\x00\x00\x00\x00\x00\x00\x00\x00\x00\x00\x00\x00\x00\xf0?\x00\x00\x00\x00\x00\x00\x00\x00\x00\x00\x00\x00\x00\x00\x00\x00\x00\x00\x00\x00\x00\x00\x00\x00\x00\x00\x00\x00\x00\x00\xf0?'
p3931
tp3932
bsg51
g7
sg52
(dp3933
sbsg2885
I00
sg2886
g2887
sg2888
Nsg1881
g2889
sg99
g2890
sg2471
g3584
sbsg2900
g2901
sg88
Nsg33
Nsg92
I01
sg2902
Nsg101
g3664
sg103
g0
(g104
g105
((lp3934
(lp3935
tp3936
tp3937
Rp3938
sg2909
I00
sg2910
g2911
sg2912
g2865
sg2913
Nsg114
Nsg2914
g2865
sg2915
F0.0
sg8
I01
sg2916
Nsg43
Nsg1883
Nsg2917
(I0
tp3939
sg87
F0.5
sg2471
Nsbsg115
Nsg2997
F8.0
sg2998
g3671
sg43
Nsg2165
g3490
sg34
Nsbag0
(g3522
g2
Ntp3940
Rp3941
(dp3942
g6
g7
sg40
F0.6
sg9
g4
sg2786
I01
sg8
I01
sg10
Nsg111
I0
sg42
Nsg2787
F3.4
sg2788
g3490
sg2789
I00
sg2120
F0.0
sg17
g18
sg2790
g3526
sg2736
g0
(g2104
g2
Ntp3943
Rp3944
(dp3945
g6
g7
sg8
I01
sg9
g4
sg10
Nsg2108
g0
(g2109
g2
Ntp3946
Rp3947
(dp3948
g2113
(lp3949
g2115
asg2116
Nsg2117
g2118
sg2119
g2118
sg2120
F8.0
sg2121
I400
sg2122
g2118
sbsg42
Nsg17
g18
sg2123
Nsg20
I01
sg23
Nsg75
I0
sg76
I0
sg24
Nsg25
Nsg11
Nsg28
I00
sg29
I00
sg30
(dp3950
sg2125
Nsg32
I00
sg1884
Nsg88
Nsg1883
Nsg2126
Nsg33
Nsg96
Nsg86
I01
sg2127
g3535
sg2129
V
p3951
sg2131
Nsg103
g0
(g104
g105
((lp3952
(lp3953
tp3954
tp3955
Rp3956
sg111
I0
sg2137
Nsg112
I01
sg114
Nsg2138
F1.2
sg115
g1832
sg2163
I00
sg2164
I00
sg43
Nsg2165
g3490
sg2167
g3542
sg34
Nsbsg20
I01
sg23
Nsg2808
I00
sg24
Nsg25
Nsg11
Nsg2809
I00
sg28
I00
sg29
I00
sg30
(dp3957
sg2811
(I0
I1
tp3958
sg32
I00
sg2813
I2
sg1884
g1943
sg2814
I01
sg88
g1358
sg1883
Nsg2815
g3944
sg2816
g0
(g2104
g2
Ntp3959
Rp3960
(dp3961
g6
g7
sg8
I01
sg9
g4
sg10
Nsg2108
g0
(g2109
g2
Ntp3962
Rp3963
(dp3964
g2113
(lp3965
g2115
asg2116
Nsg2117
g2118
sg2119
g2118
sg2120
F8.0
sg2121
I400
sg2122
g2118
sbsg42
Nsg17
g18
sg2123
Nsg20
I01
sg23
Nsg75
I0
sg76
I1
sg24
Nsg25
Nsg11
Nsg28
I00
sg29
I00
sg30
(dp3966
sg2125
Nsg32
I00
sg1884
Nsg88
Nsg1883
Nsg2126
Nsg33
Nsg96
Nsg86
I01
sg2127
g3535
sg2129
V
p3967
sg2131
Nsg103
g0
(g104
g105
((lp3968
(lp3969
tp3970
tp3971
Rp3972
sg111
I0
sg2137
Nsg112
I01
sg114
Nsg2138
F1.2
sg115
g1859
sg2163
I00
sg2164
I00
sg43
Nsg2165
g3490
sg2167
g3559
sg34
Nsbsg96
Nsg2832
I0
sg86
I01
sg103
g0
(g104
g105
((lp3973
(lp3974
tp3975
tp3976
Rp3977
sg2838
F3.4
sg2839
g0
(g2840
g2
Ntp3978
Rp3979
(dp3980
g6
g7
sg2844
g2845
sg2846
Nsg20
I01
sg2847
Nsg2848
I0
sg75
Nsg76
Nsg24
Nsg11
Nsg29
I00
sg30
(dp3981
sg32
I00
sg1884
Nsg2850
F0.6
sg2851
Nsg2852
g2853
sg2854
g2855
sg96
Nsg86
I01
sg2856
g3569
sg111
I0
sg112
I01
sg2858
I01
sg2859
I01
sg115
g184
sg2860
Nsg2861
I2
sg2165
g3490
sg2862
I5
sg9
g4
sg2863
Nsg10
Nsg42
Nsg17
g18
sg2864
g2865
sg23
Nsg25
Nsg28
I00
sg2866
Nsg34
Nsg2867
Nsg2868
g0
(g2869
g2
Ntp3982
Rp3983
(dp3984
g2868
I0
sg2873
Nsg2874
F1.0
sg115
g0
(g157
g2
Ntp3985
Rp3986
(dp3987
g49
I2
sg50
Nsg120
g132
(g133
(I0
tp3988
g135
tp3989
Rp3990
(I1
(I3
I3
tp3991
g59
I00
S'\x00\x00\x00\x00\x00\x00\xf0\xbf\x00\x00\x00\x00\x00\x00\x00\x00\x00\x00\x00\x00\x00\x00\x00\x00\x00\x00\x00\x00\x00\x00\x00\x00\x00\x00\x00\x00\x00\x00\xf0?\x00\x00\x00\x00\x00\x00\x00\x00\x00\x00\x00\x00\x00\x00\x00\x00\x00\x00\x00\x00\x00\x00\x00\x00\x00\x00\x00\x00\x00\x00\xf0?'
p3992
tp3993
bsg51
g7
sg52
(dp3994
sbsg2885
I00
sg2886
g2887
sg2888
Nsg1881
g2889
sg99
g2890
sg2471
g3584
sbsg2900
g2901
sg88
Nsg33
Nsg92
I01
sg2902
Nsg101
g3592
sg103
g0
(g104
g105
((lp3995
(lp3996
tp3997
tp3998
Rp3999
sg2909
I00
sg2910
g2911
sg2912
g2865
sg2913
Nsg114
Nsg2914
g2865
sg2915
F0.0
sg8
I01
sg2916
Nsg43
Nsg1883
Nsg2917
(I0
tp4000
sg87
F0.5
sg2471
Nsbsg112
I00
sg2919
g0
(g2840
g2
Ntp4001
Rp4002
(dp4003
g6
g7
sg8
I01
sg2912
g2865
sg9
g4
sg2844
g2845
sg2846
Nsg10
Nsg42
Nsg17
g18
sg2864
g2865
sg20
I01
sg2847
Nsg23
Nsg75
g132
(g133
(I0
tp4004
g135
tp4005
Rp4006
(I1
(I2
tp4007
g59
I00
S'\x00\x00\x00\x00\x00\x00\x00\x00\x00\x00\x00\x00\x00\x00\x00\x00'
p4008
tp4009
bsg76
g132
(g133
(I0
tp4010
g135
tp4011
Rp4012
(I1
(I2
tp4013
g59
I00
S'\x00\x00\x00\x00\x00\x00\x00\x00\x00\x00\x00\x00\x00\x00\xf0?'
p4014
tp4015
bsg24
Nsg25
Nsg11
Nsg2856
g3614
sg28
I00
sg2866
Nsg29
I00
sg30
(dp4016
sg2863
Nsg32
I00
sg2909
I00
sg1884
Nsg2867
Nsg2850
F1.0
sg2900
g2901
sg2851
Nsg2165
g2937
sg2868
g0
(g2869
g2
Ntp4017
Rp4018
(dp4019
g2868
g2941
sg2873
Nsg2874
Nsg115
g0
(g45
g2
Ntp4020
Rp4021
(dp4022
g49
I1
sg50
Nsg51
g7
sg52
(dp4023
sbsg2885
I00
sg2886
g2887
sg2888
Nsg1881
g2889
sg99
g2890
sg2471
g0
(g2472
g2
Ntp4024
Rp4025
(dp4026
g2476
I00
sg2477
Nsg2478
g132
(g133
(I0
tp4027
g135
tp4028
Rp4029
(I1
(I0
I2
tp4030
g59
I00
g2953
tp4031
bsg2485
I00
sg2486
F0.1111111111111111
sg2487
I1
sg2488
I00
sbsbsg33
Nsg2852
g2853
sg92
I01
sg2854
g2855
sg96
Nsg2915
F0.0
sg86
I01
sg2902
g132
(g133
(I0
tp4032
g135
tp4033
Rp4034
(I1
(I2
I2
tp4035
g59
I00
S'\x00\x00\x00\x00\x00\x00\x00\x00\x00\x00\x00\x00\x00\x00\x00\x00\x00\x00\x00\x00\x00\x00\xf0?\x00\x00\x00\x00\x00\x00\x00\x00'
p4036
tp4037
bsg101
g2961
sg103
g0
(g104
g105
((lp4038
(lp4039
tp4040
tp4041
Rp4042
sg111
I0
sg2910
g2911
sg2848
I0
sg2913
Nsg2862
I5
sg112
I01
sg114
F1.0
sg2914
g2865
sg2859
I00
sg115
g184
sg2916
Nsg2860
Nsg2858
I00
sg43
Nsg1883
Nsg2917
g3642
sg88
g518
sg87
F0.8
sg34
Nsg2471
g0
(g2472
g2
Ntp4043
Rp4044
(dp4045
g2476
I00
sg2477
Nsg2478
g4034
sg2485
I00
sg2486
F0.1111111111111111
sg2487
I180
sg2488
I00
sbsbsg114
Nsg33
Nsg2971
g0
(g2840
g2
Ntp4046
Rp4047
(dp4048
g6
g7
sg2844
g2845
sg2846
Nsg20
I01
sg2847
Nsg2848
I0
sg75
Nsg76
Nsg24
Nsg11
Nsg29
I00
sg30
(dp4049
sg32
I00
sg1884
Nsg2850
F0.6
sg2851
Nsg2852
g2853
sg2854
g2855
sg96
Nsg86
I01
sg2856
g3650
sg111
I0
sg112
I01
sg2858
I01
sg2859
I01
sg115
g184
sg2860
Nsg2861
I2
sg2165
g3490
sg2862
I5
sg9
g4
sg2863
Nsg10
Nsg42
Nsg17
g18
sg2864
g2865
sg23
Nsg25
Nsg28
I00
sg2866
Nsg34
Nsg2867
Nsg2868
g0
(g2869
g2
Ntp4050
Rp4051
(dp4052
g2868
I1
sg2873
Nsg2874
F1.0
sg115
g0
(g157
g2
Ntp4053
Rp4054
(dp4055
g49
I2
sg50
Nsg120
g132
(g133
(I0
tp4056
g135
tp4057
Rp4058
(I1
(I3
I3
tp4059
g59
I00
S'\x00\x00\x00\x00\x00\x00\xf0?\x00\x00\x00\x00\x00\x00\x00\x00\x00\x00\x00\x00\x00\x00\x00\x00\x00\x00\x00\x00\x00\x00\x00\x00\x00\x00\x00\x00\x00\x00\xf0?\x00\x00\x00\x00\x00\x00\x00\x00\x00\x00\x00\x00\x00\x00\x00\x00\x00\x00\x00\x00\x00\x00\x00\x00\x00\x00\x00\x00\x00\x00\xf0?'
p4060
tp4061
bsg51
g7
sg52
(dp4062
sbsg2885
I00
sg2886
g2887
sg2888
Nsg1881
g2889
sg99
g2890
sg2471
g3584
sbsg2900
g2901
sg88
Nsg33
Nsg92
I01
sg2902
Nsg101
g3664
sg103
g0
(g104
g105
((lp4063
(lp4064
tp4065
tp4066
Rp4067
sg2909
I00
sg2910
g2911
sg2912
g2865
sg2913
Nsg114
Nsg2914
g2865
sg2915
F0.0
sg8
I01
sg2916
Nsg43
Nsg1883
Nsg2917
(I0
tp4068
sg87
F0.5
sg2471
Nsbsg115
Nsg2997
F8.0
sg2998
g3671
sg43
Nsg2165
g3490
sg34
Nsbasg34
Nsg3404
(dp4069
g2771
I01
sg2773
I00
sg2774
I01
sg2775
I00
ssg3406
I01
sbsS'_axisbelow'
p4070
I00
sg8
I01
sS'lines'
p4071
(lp4072
sS'_ycid'
p4073
I1
sS'spines'
p4074
ccollections
OrderedDict
p4075
((lp4076
(lp4077
Vleft
p4078
ag0
(cmatplotlib.spines
Spine
p4079
g2
Ntp4080
Rp4081
(dp4082
g6
g7
sg2717
I00
sg41
I01
sg9
g4
sS'_bounds'
p4083
Nsg8
I01
sg10
Nsg42
Nsg17
g18
sg43
Nsg20
I01
sg2695
g3450
sg44
g0
(g45
g2
Ntp4084
Rp4085
(dp4086
g49
I1
sg50
Nsg51
g7
sg52
(dp4087
sbsg54
(F0.0
F0.0
F0.0
F1.0
tp4088
sg23
Nsg24
Nsg77
V0.
p4089
sg11
Nsg28
I00
sg29
I00
sg30
(dp4090
sg1879
(NNtp4091
sg2631
(Voutward
p4092
F0.0
tp4093
sg32
I00
sg85
Nsg86
I01
sg87
F1.0
sS'_patch_type'
p4094
Vline
p4095
sg33
Nsg90
g4088
sg91
Nsg92
I01
sg93
Nsg94
Vnone
p4096
sg96
Nsg97
g2610
sg99
g100
sS'_patch_transform'
p4097
g0
(g45
g2
Ntp4098
Rp4099
(dp4100
g49
I1
sg50
Nsg51
g7
sg52
(dp4101
sbsg101
g102
sg103
g0
(g104
g105
((lp4102
(lp4103
tp4104
tp4105
Rp4106
sg111
I0
sS'_spine_transform'
p4107
(Videntity
p4108
g0
(g45
g2
Ntp4109
Rp4110
(dp4111
g49
I1
sg50
Nsg51
g7
sg52
(dp4112
sbtp4113
sg112
I01
sg114
NsS'spine_type'
p4114
g4078
sg115
g184
sg88
Nsg2861
F2.5
sg1881
Vprojecting
p4115
sg1883
Nsg25
Nsg1884
g1943
sg34
Nsg2471
g0
(g2472
g2
Ntp4116
Rp4117
(dp4118
g2476
I00
sg2477
Nsg2478
g132
(g133
(I0
tp4119
g135
tp4120
Rp4121
(I1
(I2
I2
tp4122
g59
I00
S'\x00\x00\x00\x00\x00\x00\x00\x00\x00\x00\x00\x00\x00\x00*@\x00\x00\x00\x00\x00\x00\x00\x00\x00\x00\x00\x00\x00\x00*@'
p4123
tp4124
bsg2485
I00
sg2486
F0.1111111111111111
sg2487
I1
sg2488
I00
sbsbaa(lp4125
Vright
p4126
ag0
(g4079
g2
Ntp4127
Rp4128
(dp4129
g6
g7
sg2717
I00
sg41
I01
sg9
g4
sg4083
Nsg8
I00
sg10
Nsg42
Nsg17
g18
sg43
Nsg20
I01
sg2695
g3450
sg44
g0
(g45
g2
Ntp4130
Rp4131
(dp4132
g49
I1
sg50
Nsg51
g7
sg52
(dp4133
sbsg54
g4088
sg23
Nsg24
Nsg77
g4089
sg11
Nsg28
I00
sg29
I00
sg30
(dp4134
sg1879
(NNtp4135
sg2631
g4093
sg32
I00
sg85
Nsg86
I01
sg87
F1.0
sg4094
g4095
sg33
Nsg90
g4088
sg91
Nsg92
I01
sg93
Nsg94
g4096
sg96
Nsg97
g2610
sg99
g100
sg4097
g0
(g45
g2
Ntp4136
Rp4137
(dp4138
g49
I1
sg50
Nsg51
g7
sg52
(dp4139
sbsg101
g102
sg103
g0
(g104
g105
((lp4140
(lp4141
tp4142
tp4143
Rp4144
sg111
I0
sg4107
(g4108
g0
(g45
g2
Ntp4145
Rp4146
(dp4147
g49
I1
sg50
Nsg51
g7
sg52
(dp4148
sbtp4149
sg112
I01
sg114
Nsg4114
g4126
sg115
g184
sg88
Nsg2861
F2.5
sg1881
g4115
sg1883
Nsg25
Nsg1884
g1943
sg34
Nsg2471
g0
(g2472
g2
Ntp4150
Rp4151
(dp4152
g2476
I00
sg2477
Nsg2478
g132
(g133
(I0
tp4153
g135
tp4154
Rp4155
(I1
(I2
I2
tp4156
g59
I00
S'\x00\x00\x00\x00\x00\x00\xf0?\x00\x00\x00\x00\x00\x00*@\x00\x00\x00\x00\x00\x00\xf0?\x00\x00\x00\x00\x00\x00*@'
p4157
tp4158
bsg2485
I00
sg2486
F0.1111111111111111
sg2487
I1
sg2488
I00
sbsbaa(lp4159
Vbottom
p4160
ag0
(g4079
g2
Ntp4161
Rp4162
(dp4163
g6
g7
sg2717
I00
sg41
I01
sg9
g4
sg4083
Nsg8
I01
sg10
Nsg42
Nsg17
g18
sg43
Nsg20
I01
sg2695
g2663
sg44
g0
(g45
g2
Ntp4164
Rp4165
(dp4166
g49
I1
sg50
Nsg51
g7
sg52
(dp4167
sbsg54
g4088
sg23
Nsg24
Nsg77
g4089
sg11
Nsg28
I00
sg29
I00
sg30
(dp4168
sg1879
(NNtp4169
sg2631
g4093
sg32
I00
sg85
Nsg86
I01
sg87
F1.0
sg4094
g4095
sg33
Nsg90
g4088
sg91
Nsg92
I01
sg93
Nsg94
g4096
sg96
Nsg97
g2610
sg99
g100
sg4097
g0
(g45
g2
Ntp4170
Rp4171
(dp4172
g49
I1
sg50
Nsg51
g7
sg52
(dp4173
sbsg101
g102
sg103
g0
(g104
g105
((lp4174
(lp4175
tp4176
tp4177
Rp4178
sg111
I0
sg4107
(g4108
g0
(g45
g2
Ntp4179
Rp4180
(dp4181
g49
I1
sg50
Nsg51
g7
sg52
(dp4182
sbtp4183
sg112
I01
sg114
Nsg4114
g4160
sg115
g1549
sg88
Nsg2861
F2.5
sg1881
g4115
sg1883
Nsg25
Nsg1884
g1943
sg34
Nsg2471
g0
(g2472
g2
Ntp4184
Rp4185
(dp4186
g2476
I00
sg2477
Nsg2478
g132
(g133
(I0
tp4187
g135
tp4188
Rp4189
(I1
(I2
I2
tp4190
g59
I00
S'\x00\x00\x00\x00\x00\x00*@\x00\x00\x00\x00\x00\x00\x00\x00\x00\x00\x00\x00\x00\x00*@\x00\x00\x00\x00\x00\x00\x00\x00'
p4191
tp4192
bsg2485
I00
sg2486
F0.1111111111111111
sg2487
I1
sg2488
I00
sbsbaa(lp4193
Vtop
p4194
ag0
(g4079
g2
Ntp4195
Rp4196
(dp4197
g6
g7
sg2717
I00
sg41
I01
sg9
g4
sg4083
Nsg8
I00
sg10
Nsg42
Nsg17
g18
sg43
Nsg20
I01
sg2695
g2663
sg44
g0
(g45
g2
Ntp4198
Rp4199
(dp4200
g49
I1
sg50
Nsg51
g7
sg52
(dp4201
sbsg54
g4088
sg23
Nsg24
Nsg77
g4089
sg11
Nsg28
I00
sg29
I00
sg30
(dp4202
sg1879
(NNtp4203
sg2631
g4093
sg32
I00
sg85
Nsg86
I01
sg87
F1.0
sg4094
g4095
sg33
Nsg90
g4088
sg91
Nsg92
I01
sg93
Nsg94
g4096
sg96
Nsg97
g2610
sg99
g100
sg4097
g0
(g45
g2
Ntp4204
Rp4205
(dp4206
g49
I1
sg50
Nsg51
g7
sg52
(dp4207
sbsg101
g102
sg103
g0
(g104
g105
((lp4208
(lp4209
tp4210
tp4211
Rp4212
sg111
I0
sg4107
(g4108
g0
(g45
g2
Ntp4213
Rp4214
(dp4215
g49
I1
sg50
Nsg51
g7
sg52
(dp4216
sbtp4217
sg112
I01
sg114
Nsg4114
g4194
sg115
g1549
sg88
Nsg2861
F2.5
sg1881
g4115
sg1883
Nsg25
Nsg1884
g1943
sg34
Nsg2471
g0
(g2472
g2
Ntp4218
Rp4219
(dp4220
g2476
I00
sg2477
Nsg2478
g132
(g133
(I0
tp4221
g135
tp4222
Rp4223
(I1
(I2
I2
tp4224
g59
I00
S'\x00\x00\x00\x00\x00\x00*@\x00\x00\x00\x00\x00\x00\xf0?\x00\x00\x00\x00\x00\x00*@\x00\x00\x00\x00\x00\x00\xf0?'
p4225
tp4226
bsg2485
I00
sg2486
F0.1111111111111111
sg2487
I1
sg2488
I00
sbsbaatp4227
Rp4228
sS'_anchor'
p4229
VC
p4230
sg43
Nsg1883
NsS'_use_sticky_edges'
p4231
I01
sbtp4232
tp4233
asS'_ind'
p4234
I1
sS'_pos'
p4235
I0
sbsg115
Nsg4071
(lp4236
sg2602
g38
sS'subplotpars'
p4237
g0
(cmatplotlib.figure
SubplotParams
p4238
g2
Ntp4239
Rp4240
(dp4241
g1927
F0.9
sg1929
F0.125
sg1930
F0.88
sg1931
F0.2
sS'validate'
p4242
I01
sg1933
F0.2
sg1935
F0.125
sbsg43
Nsg1883
NsS'bbox_inches'
p4243
g129
sS'transFigure'
p4244
g118
sS'_dpi'
p4245
F72.0
sb.