ccopy_reg
_reconstructor
p0
(cmatplotlib.figure
Figure
p1
c__builtin__
object
p2
Ntp3
Rp4
(dp5
S'_label'
p6
V
p7
sS'_visible'
p8
I01
sS'figure'
p9
NsS'stale_callback'
p10
NsS'_rasterized'
p11
NsS'texts'
p12
(lp13
sS'_hold'
p14
I01
sS'artists'
p15
(lp16
sS'_path_effects'
p17
(lp18
sS'frameon'
p19
I01
sS'_clipon'
p20
I01
sV__mpl_version__
p21
S'2.1.1'
p22
sS'_clippath'
p23
NsS'_sketch'
p24
NsS'_contains'
p25
NsS'_tight_parameters'
p26
(dp27
sS'_mouseover'
p28
I00
sS'_animated'
p29
I00
sS'_propobservers'
p30
(dp31
sS'eventson'
p32
I00
sS'_picker'
p33
NsS'_remove_method'
p34
NsS'_agg_filter'
p35
NsS'clipbox'
p36
NsV_restore_to_pylab
p37
I01
sS'images'
p38
(lp39
sS'_suptitle'
p40
NsS'dpi_scale_trans'
p41
g0
(cmatplotlib.transforms
Affine2D
p42
g2
Ntp43
Rp44
(dp45
S'_invalid'
p46
I2
sS'_inverted'
p47
NsS'_mtx'
p48
cnumpy.core.multiarray
_reconstruct
p49
(cnumpy
ndarray
p50
(I0
tp51
S'b'
p52
tp53
Rp54
(I1
(I3
I3
tp55
cnumpy
dtype
p56
(S'f8'
p57
I0
I1
tp58
Rp59
(I3
S'<'
p60
NNNI-1
I-1
I0
tp61
bI00
S'\x00\x00\x00\x00\x00\x00R@\x00\x00\x00\x00\x00\x00\x00\x00\x00\x00\x00\x00\x00\x00\x00\x00\x00\x00\x00\x00\x00\x00\x00\x00\x00\x00\x00\x00\x00\x00R@\x00\x00\x00\x00\x00\x00\x00\x00\x00\x00\x00\x00\x00\x00\x00\x00\x00\x00\x00\x00\x00\x00\x00\x00\x00\x00\x00\x00\x00\x00\xf0?'
p62
tp63
bsS'_shorthand_name'
p64
g7
sS'_parents'
p65
(dp66
I140468199420752
g0
(cmatplotlib.transforms
TransformedBbox
p67
g2
Ntp68
Rp69
(dp70
g46
I2
sS'_bbox'
p71
g0
(cmatplotlib.transforms
Bbox
p72
g2
Ntp73
Rp74
(dp75
g46
I2
sS'_minpos'
p76
g49
(g50
(I0
tp77
g52
tp78
Rp79
(I1
(I2
tp80
g59
I00
S'\x00\x00\x00\x00\x00\x00\xf0\x7f\x00\x00\x00\x00\x00\x00\xf0\x7f'
p81
tp82
bsg65
(dp83
I140468199420752
g69
ssS'_points_orig'
p84
g49
(g50
(I0
tp85
g52
tp86
Rp87
(I1
(I2
I2
tp88
g59
I00
S'\x00\x00\x00\x00\x00\x00\x00\x00\x00\x00\x00\x00\x00\x00\x00\x00\x00\x00\x00\x00\x00\x00\x18@\x00\x00\x00\x00\x00\x00\x10@'
p89
tp90
bsS'_points'
p91
g49
(g50
(I0
tp92
g52
tp93
Rp94
(I1
(I2
I2
tp95
g59
I00
S'\x00\x00\x00\x00\x00\x00\x00\x00\x00\x00\x00\x00\x00\x00\x00\x00\x00\x00\x00\x00\x00\x00\xf8?\x00\x00\x00\x00\x00\x00\xf8?'
p96
tp97
bsS'_ignore'
p98
I01
sg64
g7
sbsS'_transform'
p99
g44
sg91
Nsg65
(dp100
I140468202315024
g0
(cmatplotlib.transforms
BboxTransformTo
p101
g2
Ntp102
Rp103
(dp104
g46
I2
sg48
Nsg47
NsS'_boxout'
p105
g69
sg65
(dp106
I140468198457872
g0
(g67
g2
Ntp107
Rp108
(dp109
g46
I2
sg71
g0
(g72
g2
Ntp110
Rp111
(dp112
g46
I0
sg76
g49
(g50
(I0
tp113
g52
tp114
Rp115
(I1
(I2
tp116
g59
I00
S'\x00\x00\x00\x00\x00\x00\xf0\x7f\x00\x00\x00\x00\x00\x00\xf0\x7f'
p117
tp118
bsg65
(dp119
I140468198457872
g108
ssg84
g49
(g50
(I0
tp120
g52
tp121
Rp122
(I1
(I2
I2
tp123
g59
I00
S'\x00\x00\x00\x00\x00\x00\xc0?\x00\x00\x00\x00\x00\x00\xc0?\xcd\xcc\xcc\xcc\xcc\xcc\xec?)\\\x8f\xc2\xf5(\xec?'
p124
tp125
bsg91
g49
(g50
(I0
tp126
g52
tp127
Rp128
(I1
(I2
I2
tp129
g59
I00
S'\x00\x00\x00\x00\x00\x00\xc0?\x00\x00\x00\x00\x00\x00\xc0?\xcd\xcc\xcc\xcc\xcc\xcc\xec?)\\\x8f\xc2\xf5(\xec?'
p130
tp131
bsg98
I01
sg64
g7
sbsg99
g103
sg91
Nsg65
(dp132
I140468197534032
g0
(g101
g2
Ntp133
Rp134
(dp135
g46
I2
sg48
Nsg47
Nsg105
g108
sg65
(dp136
I140468201346064
g0
(cmatplotlib.transforms
CompositeGenericTransform
p137
g2
Ntp138
Rp139
(dp140
g46
I2
sS'input_dims'
p141
I2
sS'_a'
p142
g0
(g137
g2
Ntp143
Rp144
(dp145
g46
I1
sg141
I2
sg142
g0
(g101
g2
Ntp146
Rp147
(dp148
g46
I1
sg48
Nsg47
Nsg105
g0
(g72
g2
Ntp149
Rp150
(dp151
g46
I1
sg76
g49
(g50
(I0
tp152
g52
tp153
Rp154
(I1
(I2
tp155
g59
I00
S'\x00\x00\x00\x00\x00\x00\xf0\x7f\x00\x00\x00\x00\x00\x00\xf0\x7f'
p156
tp157
bsg65
(dp158
I140468201346960
g147
ssg84
g49
(g50
(I0
tp159
g52
tp160
Rp161
(I1
(I2
I2
tp162
g59
I00
S'\x00\x00\x00\x00\x00\x00\x00\x00\x00\x00\x00\x00\x00\x00\x00\x00\x00\x00\x00\x00\x00\x00\xf0?\x00\x00\x00\x00\x00\x00\xf0?'
p163
tp164
bsg91
g49
(g50
(I0
tp165
g52
tp166
Rp167
(I1
(I2
I2
tp168
g59
I00
S'\x00\x00\x00\x00\x00\x00\x00\x00\x00\x00\x00\x00\x00\x00\x00\x00\x00\x00\x00\x00\x00\x00\xf0?\x00\x00\x00\x00\x00\x00\xf0?'
p169
tp170
bsg98
I01
sg64
g7
sbsg65
(dp171
I140468201345616
g144
ssg64
g7
sbsS'output_dims'
p172
I2
sS'_b'
p173
g0
(g42
g2
Ntp174
Rp175
(dp176
g46
I2
sg47
Nsg48
g49
(g50
(I0
tp177
g52
tp178
Rp179
(I1
(I3
I3
tp180
g59
I00
S'\x00\x00\x00\x00\x00\x00\xf0?\x00\x00\x00\x00\x00\x00\x00\x00\x00\x00\x00\x00\x00\x00\x00\x00\x00\x00\x00\x00\x00\x00\x00\x00\x00\x00\x00\x00\x00\x00\xf0?\x00\x00\x00\x00\x00\x00\x00\x00\x00\x00\x00\x00\x00\x00\x00\x00\x00\x00\x00\x00\x00\x00\x00\x00\x00\x00\x00\x00\x00\x00\xf0?'
p181
tp182
bsg64
g7
sg65
(dp183
I140468201345616
g144
ssbsg65
(dp184
I140468201346064
g139
ssg64
g7
sbsg172
I2
sg173
g134
sg65
(dp185
I140468201347984
g0
(g67
g2
Ntp186
Rp187
(dp188
g46
I2
sg71
g0
(g72
g2
Ntp189
Rp190
(dp191
g46
I1
sg76
g49
(g50
(I0
tp192
g52
tp193
Rp194
(I1
(I2
tp195
g59
I00
S'\x00\x00\x00\x00\x00\x00\xf0\x7f\x00\x00\x00\x00\x00\x00\xf0\x7f'
p196
tp197
bsg65
(dp198
I140468201347984
g187
ssg84
g49
(g50
(I0
tp199
g52
tp200
Rp201
(I1
(I2
I2
tp202
g59
I00
S'\x00\x00\x00\x00\x00\x00\x00\x00\x00\x00\x00\x00\x00\x00\x00\x00\x00\x00\x00\x00\x00\x00\xf0?\x00\x00\x00\x00\x00\x00\xf0?'
p203
tp204
bsg91
g49
(g50
(I0
tp205
g52
tp206
Rp207
(I1
(I2
I2
tp208
g59
I00
S'\x00\x00\x00\x00\x00\x00\x00\x00\x00\x00\x00\x00\x00\x00\x00\x00\x00\x00\x00\x00\x00\x00\xf0?\x00\x00\x00\x00\x00\x00\xf0?'
p209
tp210
bsg98
I01
sg64
g7
sbsg99
g139
sg91
Nsg65
(dp211
sg64
g7
sbssg64
g7
sbsI140468206503184
g0
(cmatplotlib.transforms
BlendedAffine2D
p212
g2
Ntp213
Rp214
(dp215
g46
I2
sg48
NsS'_y'
p216
g0
(cmatplotlib.transforms
IdentityTransform
p217
g2
Ntp218
Rp219
(dp220
g46
I1
sg47
Nsg64
g7
sg65
(dp221
I140468206503184
g214
ssbsS'_x'
p222
g134
sg47
Nsg64
g7
sg65
(dp223
sbsI140468171435280
g0
(g137
g2
Ntp224
Rp225
(dp226
g46
I2
sg141
I2
sg142
g0
(g137
g2
Ntp227
Rp228
(dp229
g46
I1
sg141
I2
sg142
g0
(g101
g2
Ntp230
Rp231
(dp232
g46
I1
sg48
Nsg47
Nsg105
g0
(g72
g2
Ntp233
Rp234
(dp235
g46
I1
sg76
g49
(g50
(I0
tp236
g52
tp237
Rp238
(I1
(I2
tp239
g59
I00
S'\x00\x00\x00\x00\x00\x00\xf0\x7f\x00\x00\x00\x00\x00\x00\xf0\x7f'
p240
tp241
bsg65
(dp242
I140468198598288
g231
ssg84
g49
(g50
(I0
tp243
g52
tp244
Rp245
(I1
(I2
I2
tp246
g59
I00
S'\x00\x00\x00\x00\x00\x00\x00\x00\x00\x00\x00\x00\x00\x00\x00\x00\x00\x00\x00\x00\x00\x00\xf0?\x00\x00\x00\x00\x00\x00\xf0?'
p247
tp248
bsg91
g49
(g50
(I0
tp249
g52
tp250
Rp251
(I1
(I2
I2
tp252
g59
I00
S'\x00\x00\x00\x00\x00\x00\x00\x00\x00\x00\x00\x00\x00\x00\x00\x00\x00\x00\x00\x00\x00\x00\xf0?\x00\x00\x00\x00\x00\x00\xf0?'
p253
tp254
bsg98
I01
sg64
g7
sbsg65
(dp255
I140468171434896
g228
ssg64
g7
sbsg172
I2
sg173
g0
(g42
g2
Ntp256
Rp257
(dp258
g46
I2
sg47
Nsg48
g49
(g50
(I0
tp259
g52
tp260
Rp261
(I1
(I3
I3
tp262
g59
I00
S'\x00\x00\x00\x00\x00\x00\xf0?\x00\x00\x00\x00\x00\x00\x00\x00\x00\x00\x00\x00\x00\x00\x00\x00\x00\x00\x00\x00\x00\x00\x00\x00\x00\x00\x00\x00\x00\x00\xf0?\x00\x00\x00\x00\x00\x00\x00\x00\x00\x00\x00\x00\x00\x00\x00\x00\x00\x00\x00\x00\x00\x00\x00\x00\x00\x00\x00\x00\x00\x00\xf0?'
p263
tp264
bsg64
g7
sg65
(dp265
I140468171434896
g228
ssbsg65
(dp266
I140468171435280
g225
ssg64
g7
sbsg172
I2
sg173
g134
sg65
(dp267
I140468171435216
g0
(g67
g2
Ntp268
Rp269
(dp270
g46
I2
sg71
g0
(g72
g2
Ntp271
Rp272
(dp273
g46
I1
sg76
g49
(g50
(I0
tp274
g52
tp275
Rp276
(I1
(I2
tp277
g59
I00
S'\x00\x00\x00\x00\x00\x00\xf0\x7f\x00\x00\x00\x00\x00\x00\xf0\x7f'
p278
tp279
bsg65
(dp280
I140468171435216
g269
ssg84
g49
(g50
(I0
tp281
g52
tp282
Rp283
(I1
(I2
I2
tp284
g59
I00
S'\x00\x00\x00\x00\x00\x00\x00\x00\x00\x00\x00\x00\x00\x00\x00\x00\x00\x00\x00\x00\x00\x00\xf0?\x00\x00\x00\x00\x00\x00\xf0?'
p285
tp286
bsg91
g49
(g50
(I0
tp287
g52
tp288
Rp289
(I1
(I2
I2
tp290
g59
I00
S'\x00\x00\x00\x00\x00\x00\x00\x00\x00\x00\x00\x00\x00\x00\x00\x00\x00\x00\x00\x00\x00\x00\xf0?\x00\x00\x00\x00\x00\x00\xf0?'
p291
tp292
bsg98
I01
sg64
g7
sbsg99
g225
sg91
Nsg65
(dp293
sg64
g7
sbssg64
g7
sbsI140468171433360
g0
(g212
g2
Ntp294
Rp295
(dp296
g46
I2
sg48
Nsg216
g134
sg222
g0
(g217
g2
Ntp297
Rp298
(dp299
g46
I1
sg47
Nsg64
g7
sg65
(dp300
I140468171433360
g295
ssbsg47
Nsg64
g7
sg65
(dp301
sbsI140468200495120
g0
(g137
g2
Ntp302
Rp303
(dp304
g46
I2
sg141
I2
sg142
g0
(g137
g2
Ntp305
Rp306
(dp307
g46
I1
sg141
I2
sg142
g0
(g101
g2
Ntp308
Rp309
(dp310
g46
I1
sg48
Nsg47
Nsg105
g0
(g72
g2
Ntp311
Rp312
(dp313
g46
I1
sg76
g49
(g50
(I0
tp314
g52
tp315
Rp316
(I1
(I2
tp317
g59
I00
S'\x00\x00\x00\x00\x00\x00\xf0\x7f\x00\x00\x00\x00\x00\x00\xf0\x7f'
p318
tp319
bsg65
(dp320
I140468200493328
g309
ssg84
g49
(g50
(I0
tp321
g52
tp322
Rp323
(I1
(I2
I2
tp324
g59
I00
S'\x00\x00\x00\x00\x00\x00\x00\x00\x00\x00\x00\x00\x00\x00\x00\x00\x00\x00\x00\x00\x00\x00\xf0?\x00\x00\x00\x00\x00\x00\xf0?'
p325
tp326
bsg91
g49
(g50
(I0
tp327
g52
tp328
Rp329
(I1
(I2
I2
tp330
g59
I00
S'\x00\x00\x00\x00\x00\x00\x00\x00\x00\x00\x00\x00\x00\x00\x00\x00\x00\x00\x00\x00\x00\x00\xf0?\x00\x00\x00\x00\x00\x00\xf0?'
p331
tp332
bsg98
I01
sg64
g7
sbsg65
(dp333
I140468200493776
g306
ssg64
g7
sbsg172
I2
sg173
g0
(g42
g2
Ntp334
Rp335
(dp336
g46
I2
sg47
Nsg48
g49
(g50
(I0
tp337
g52
tp338
Rp339
(I1
(I3
I3
tp340
g59
I00
S'\x00\x00\x00\x00\x00\x00\xf0?\x00\x00\x00\x00\x00\x00\x00\x00\x00\x00\x00\x00\x00\x00\x00\x00\x00\x00\x00\x00\x00\x00\x00\x00\x00\x00\x00\x00\x00\x00\xf0?\x00\x00\x00\x00\x00\x00\x00\x00\x00\x00\x00\x00\x00\x00\x00\x00\x00\x00\x00\x00\x00\x00\x00\x00\x00\x00\x00\x00\x00\x00\xf0?'
p341
tp342
bsg64
g7
sg65
(dp343
I140468200493776
g306
ssbsg65
(dp344
I140468200495120
g303
ssg64
g7
sbsg172
I2
sg173
g134
sg65
(dp345
I140468200496912
g0
(g67
g2
Ntp346
Rp347
(dp348
g46
I2
sg71
g0
(g72
g2
Ntp349
Rp350
(dp351
g46
I1
sg76
g49
(g50
(I0
tp352
g52
tp353
Rp354
(I1
(I2
tp355
g59
I00
S'\x00\x00\x00\x00\x00\x00\xf0\x7f\x00\x00\x00\x00\x00\x00\xf0\x7f'
p356
tp357
bsg65
(dp358
I140468200496912
g347
ssg84
g49
(g50
(I0
tp359
g52
tp360
Rp361
(I1
(I2
I2
tp362
g59
I00
S'\x00\x00\x00\x00\x00\x00\x00\x00\x00\x00\x00\x00\x00\x00\x00\x00\x00\x00\x00\x00\x00\x00\xf0?\x00\x00\x00\x00\x00\x00\xf0?'
p363
tp364
bsg91
g49
(g50
(I0
tp365
g52
tp366
Rp367
(I1
(I2
I2
tp368
g59
I00
S'\x00\x00\x00\x00\x00\x00\x00\x00\x00\x00\x00\x00\x00\x00\x00\x00\x00\x00\x00\x00\x00\x00\xf0?\x00\x00\x00\x00\x00\x00\xf0?'
p369
tp370
bsg98
I01
sg64
g7
sbsg99
g303
sg91
Nsg65
(dp371
sg64
g7
sbssg64
g7
sbsI140468192126544
g0
(g137
g2
Ntp372
Rp373
(dp374
g46
I2
sg141
I2
sg142
g0
(g137
g2
Ntp375
Rp376
(dp377
g46
I1
sg141
I2
sg142
g0
(g101
g2
Ntp378
Rp379
(dp380
g46
I1
sg48
Nsg47
Nsg105
g0
(g72
g2
Ntp381
Rp382
(dp383
g46
I1
sg76
g49
(g50
(I0
tp384
g52
tp385
Rp386
(I1
(I2
tp387
g59
I00
S'\x00\x00\x00\x00\x00\x00\xf0\x7f\x00\x00\x00\x00\x00\x00\xf0\x7f'
p388
tp389
bsg65
(dp390
I140468192126160
g379
ssg84
g49
(g50
(I0
tp391
g52
tp392
Rp393
(I1
(I2
I2
tp394
g59
I00
S'\x00\x00\x00\x00\x00\x00\x00\x00\x00\x00\x00\x00\x00\x00\x00\x00\x00\x00\x00\x00\x00\x00\xf0?\x00\x00\x00\x00\x00\x00\xf0?'
p395
tp396
bsg91
g49
(g50
(I0
tp397
g52
tp398
Rp399
(I1
(I2
I2
tp400
g59
I00
S'\x00\x00\x00\x00\x00\x00\x00\x00\x00\x00\x00\x00\x00\x00\x00\x00\x00\x00\x00\x00\x00\x00\xf0?\x00\x00\x00\x00\x00\x00\xf0?'
p401
tp402
bsg98
I01
sg64
g7
sbsg65
(dp403
I140468192127120
g376
ssg64
g7
sbsg172
I2
sg173
g0
(g42
g2
Ntp404
Rp405
(dp406
g46
I2
sg47
Nsg48
g49
(g50
(I0
tp407
g52
tp408
Rp409
(I1
(I3
I3
tp410
g59
I00
S'\x00\x00\x00\x00\x00\x00\xf0?\x00\x00\x00\x00\x00\x00\x00\x00\x00\x00\x00\x00\x00\x00\x00\x00\x00\x00\x00\x00\x00\x00\x00\x00\x00\x00\x00\x00\x00\x00\xf0?\x00\x00\x00\x00\x00\x00\x00\x00\x00\x00\x00\x00\x00\x00\x00\x00\x00\x00\x00\x00\x00\x00\x00\x00\x00\x00\x00\x00\x00\x00\xf0?'
p411
tp412
bsg64
g7
sg65
(dp413
I140468192127120
g376
ssbsg65
(dp414
I140468192126544
g373
ssg64
g7
sbsg172
I2
sg173
g134
sg65
(dp415
I140468203552720
g0
(g67
g2
Ntp416
Rp417
(dp418
g46
I2
sg71
g0
(g72
g2
Ntp419
Rp420
(dp421
g46
I1
sg76
g49
(g50
(I0
tp422
g52
tp423
Rp424
(I1
(I2
tp425
g59
I00
S'\x00\x00\x00\x00\x00\x00\xf0\x7f\x00\x00\x00\x00\x00\x00\xf0\x7f'
p426
tp427
bsg65
(dp428
I140468203552720
g417
ssg84
g49
(g50
(I0
tp429
g52
tp430
Rp431
(I1
(I2
I2
tp432
g59
I00
S'\x00\x00\x00\x00\x00\x00\x00\x00\x00\x00\x00\x00\x00\x00\x00\x00\x00\x00\x00\x00\x00\x00\xf0?\x00\x00\x00\x00\x00\x00\xf0?'
p433
tp434
bsg91
g49
(g50
(I0
tp435
g52
tp436
Rp437
(I1
(I2
I2
tp438
g59
I00
S'\x00\x00\x00\x00\x00\x00\x00\x00\x00\x00\x00\x00\x00\x00\x00\x00\x00\x00\x00\x00\x00\x00\xf0?\x00\x00\x00\x00\x00\x00\xf0?'
p439
tp440
bsg98
I01
sg64
g7
sbsg99
g373
sg91
Nsg65
(dp441
sg64
g7
sbssg64
g7
sbsI140468203552144
g0
(g137
g2
Ntp442
Rp443
(dp444
g46
I2
sg141
I2
sg142
g0
(g137
g2
Ntp445
Rp446
(dp447
g46
I1
sg141
I2
sg142
g0
(g101
g2
Ntp448
Rp449
(dp450
g46
I1
sg48
Nsg47
Nsg105
g0
(g72
g2
Ntp451
Rp452
(dp453
g46
I1
sg76
g49
(g50
(I0
tp454
g52
tp455
Rp456
(I1
(I2
tp457
g59
I00
S'\x00\x00\x00\x00\x00\x00\xf0\x7f\x00\x00\x00\x00\x00\x00\xf0\x7f'
p458
tp459
bsg65
(dp460
I140468203549904
g449
ssg84
g49
(g50
(I0
tp461
g52
tp462
Rp463
(I1
(I2
I2
tp464
g59
I00
S'\x00\x00\x00\x00\x00\x00\x00\x00\x00\x00\x00\x00\x00\x00\x00\x00\x00\x00\x00\x00\x00\x00\xf0?\x00\x00\x00\x00\x00\x00\xf0?'
p465
tp466
bsg91
g49
(g50
(I0
tp467
g52
tp468
Rp469
(I1
(I2
I2
tp470
g59
I00
S'\x00\x00\x00\x00\x00\x00\x00\x00\x00\x00\x00\x00\x00\x00\x00\x00\x00\x00\x00\x00\x00\x00\xf0?\x00\x00\x00\x00\x00\x00\xf0?'
p471
tp472
bsg98
I01
sg64
g7
sbsg65
(dp473
I140468203550288
g446
ssg64
g7
sbsg172
I2
sg173
g0
(g42
g2
Ntp474
Rp475
(dp476
g46
I2
sg47
Nsg48
g49
(g50
(I0
tp477
g52
tp478
Rp479
(I1
(I3
I3
tp480
g59
I00
S'\x00\x00\x00\x00\x00\x00\xf0?\x00\x00\x00\x00\x00\x00\x00\x00\x00\x00\x00\x00\x00\x00\x00\x00\x00\x00\x00\x00\x00\x00\x00\x00\x00\x00\x00\x00\x00\x00\xf0?\x00\x00\x00\x00\x00\x00\x00\x00\x00\x00\x00\x00\x00\x00\x00\x00\x00\x00\x00\x00\x00\x00\x00\x00\x00\x00\x00\x00\x00\x00\xf0?'
p481
tp482
bsg64
g7
sg65
(dp483
I140468203550288
g446
ssbsg65
(dp484
I140468203552144
g443
ssg64
g7
sbsg172
I2
sg173
g134
sg65
(dp485
I140468203551568
g0
(g67
g2
Ntp486
Rp487
(dp488
g46
I2
sg71
g0
(g72
g2
Ntp489
Rp490
(dp491
g46
I1
sg76
g49
(g50
(I0
tp492
g52
tp493
Rp494
(I1
(I2
tp495
g59
I00
S'\x00\x00\x00\x00\x00\x00\xf0\x7f\x00\x00\x00\x00\x00\x00\xf0\x7f'
p496
tp497
bsg65
(dp498
I140468203551568
g487
ssg84
g49
(g50
(I0
tp499
g52
tp500
Rp501
(I1
(I2
I2
tp502
g59
I00
S'\x00\x00\x00\x00\x00\x00\x00\x00\x00\x00\x00\x00\x00\x00\x00\x00\x00\x00\x00\x00\x00\x00\xf0?\x00\x00\x00\x00\x00\x00\xf0?'
p503
tp504
bsg91
g49
(g50
(I0
tp505
g52
tp506
Rp507
(I1
(I2
I2
tp508
g59
I00
S'\x00\x00\x00\x00\x00\x00\x00\x00\x00\x00\x00\x00\x00\x00\x00\x00\x00\x00\x00\x00\x00\x00\xf0?\x00\x00\x00\x00\x00\x00\xf0?'
p509
tp510
bsg98
I01
sg64
g7
sbsg99
g443
sg91
Nsg65
(dp511
sg64
g7
sbssg64
g7
sbsI140468192126736
g0
(g137
g2
Ntp512
Rp513
(dp514
g46
I2
sg141
I2
sg142
g0
(g137
g2
Ntp515
Rp516
(dp517
g46
I1
sg141
I2
sg142
g0
(g101
g2
Ntp518
Rp519
(dp520
g46
I1
sg48
Nsg47
Nsg105
g0
(g72
g2
Ntp521
Rp522
(dp523
g46
I1
sg76
g49
(g50
(I0
tp524
g52
tp525
Rp526
(I1
(I2
tp527
g59
I00
S'\x00\x00\x00\x00\x00\x00\xf0\x7f\x00\x00\x00\x00\x00\x00\xf0\x7f'
p528
tp529
bsg65
(dp530
I140468193016208
g519
ssg84
g49
(g50
(I0
tp531
g52
tp532
Rp533
(I1
(I2
I2
tp534
g59
I00
S'\x00\x00\x00\x00\x00\x00\x00\x00\x00\x00\x00\x00\x00\x00\x00\x00\x00\x00\x00\x00\x00\x00\xf0?\x00\x00\x00\x00\x00\x00\xf0?'
p535
tp536
bsg91
g49
(g50
(I0
tp537
g52
tp538
Rp539
(I1
(I2
I2
tp540
g59
I00
S'\x00\x00\x00\x00\x00\x00\x00\x00\x00\x00\x00\x00\x00\x00\x00\x00\x00\x00\x00\x00\x00\x00\xf0?\x00\x00\x00\x00\x00\x00\xf0?'
p541
tp542
bsg98
I01
sg64
g7
sbsg65
(dp543
I140468193014352
g516
ssg64
g7
sbsg172
I2
sg173
g0
(g42
g2
Ntp544
Rp545
(dp546
g46
I2
sg47
Nsg48
g49
(g50
(I0
tp547
g52
tp548
Rp549
(I1
(I3
I3
tp550
g59
I00
S'\x00\x00\x00\x00\x00\x00\xf0?\x00\x00\x00\x00\x00\x00\x00\x00\x00\x00\x00\x00\x00\x00\x00\x00\x00\x00\x00\x00\x00\x00\x00\x00\x00\x00\x00\x00\x00\x00\xf0?\x00\x00\x00\x00\x00\x00\x00\x00\x00\x00\x00\x00\x00\x00\x00\x00\x00\x00\x00\x00\x00\x00\x00\x00\x00\x00\x00\x00\x00\x00\xf0?'
p551
tp552
bsg64
g7
sg65
(dp553
I140468193014352
g516
ssbsg65
(dp554
I140468192126736
g513
ssg64
g7
sbsg172
I2
sg173
g134
sg65
(dp555
I140468192127056
g0
(g67
g2
Ntp556
Rp557
(dp558
g46
I2
sg71
g0
(g72
g2
Ntp559
Rp560
(dp561
g46
I1
sg76
g49
(g50
(I0
tp562
g52
tp563
Rp564
(I1
(I2
tp565
g59
I00
S'\x00\x00\x00\x00\x00\x00\xf0\x7f\x00\x00\x00\x00\x00\x00\xf0\x7f'
p566
tp567
bsg65
(dp568
I140468192127056
g557
ssg84
g49
(g50
(I0
tp569
g52
tp570
Rp571
(I1
(I2
I2
tp572
g59
I00
S'\x00\x00\x00\x00\x00\x00\x00\x00\x00\x00\x00\x00\x00\x00\x00\x00\x00\x00\x00\x00\x00\x00\xf0?\x00\x00\x00\x00\x00\x00\xf0?'
p573
tp574
bsg91
g49
(g50
(I0
tp575
g52
tp576
Rp577
(I1
(I2
I2
tp578
g59
I00
S'\x00\x00\x00\x00\x00\x00\x00\x00\x00\x00\x00\x00\x00\x00\x00\x00\x00\x00\x00\x00\x00\x00\xf0?\x00\x00\x00\x00\x00\x00\xf0?'
p579
tp580
bsg98
I01
sg64
g7
sbsg99
g513
sg91
Nsg65
(dp581
sg64
g7
sbssg64
g7
sbsI140468196702032
g0
(g137
g2
Ntp582
Rp583
(dp584
g46
I2
sg141
I2
sg142
g0
(g137
g2
Ntp585
Rp586
(dp587
g46
I1
sg141
I2
sg142
g0
(g101
g2
Ntp588
Rp589
(dp590
g46
I1
sg48
Nsg47
Nsg105
g0
(g72
g2
Ntp591
Rp592
(dp593
g46
I1
sg76
g49
(g50
(I0
tp594
g52
tp595
Rp596
(I1
(I2
tp597
g59
I00
S'\x00\x00\x00\x00\x00\x00\xf0\x7f\x00\x00\x00\x00\x00\x00\xf0\x7f'
p598
tp599
bsg65
(dp600
I140468196702672
g589
ssg84
g49
(g50
(I0
tp601
g52
tp602
Rp603
(I1
(I2
I2
tp604
g59
I00
S'\x00\x00\x00\x00\x00\x00\x00\x00\x00\x00\x00\x00\x00\x00\x00\x00\x00\x00\x00\x00\x00\x00\xf0?\x00\x00\x00\x00\x00\x00\xf0?'
p605
tp606
bsg91
g49
(g50
(I0
tp607
g52
tp608
Rp609
(I1
(I2
I2
tp610
g59
I00
S'\x00\x00\x00\x00\x00\x00\x00\x00\x00\x00\x00\x00\x00\x00\x00\x00\x00\x00\x00\x00\x00\x00\xf0?\x00\x00\x00\x00\x00\x00\xf0?'
p611
tp612
bsg98
I01
sg64
g7
sbsg65
(dp613
I140468196703056
g586
ssg64
g7
sbsg172
I2
sg173
g0
(g42
g2
Ntp614
Rp615
(dp616
g46
I2
sg47
Nsg48
g49
(g50
(I0
tp617
g52
tp618
Rp619
(I1
(I3
I3
tp620
g59
I00
S'\x00\x00\x00\x00\x00\x00\xf0?\x00\x00\x00\x00\x00\x00\x00\x00\x00\x00\x00\x00\x00\x00\x00\x00\x00\x00\x00\x00\x00\x00\x00\x00\x00\x00\x00\x00\x00\x00\xf0?\x00\x00\x00\x00\x00\x00\x00\x00\x00\x00\x00\x00\x00\x00\x00\x00\x00\x00\x00\x00\x00\x00\x00\x00\x00\x00\x00\x00\x00\x00\xf0?'
p621
tp622
bsg64
g7
sg65
(dp623
I140468196703056
g586
ssbsg65
(dp624
I140468196702032
g583
ssg64
g7
sbsg172
I2
sg173
g134
sg65
(dp625
I140468196700624
g0
(g67
g2
Ntp626
Rp627
(dp628
g46
I2
sg71
g0
(g72
g2
Ntp629
Rp630
(dp631
g46
I1
sg76
g49
(g50
(I0
tp632
g52
tp633
Rp634
(I1
(I2
tp635
g59
I00
S'\x00\x00\x00\x00\x00\x00\xf0\x7f\x00\x00\x00\x00\x00\x00\xf0\x7f'
p636
tp637
bsg65
(dp638
I140468196700624
g627
ssg84
g49
(g50
(I0
tp639
g52
tp640
Rp641
(I1
(I2
I2
tp642
g59
I00
S'\x00\x00\x00\x00\x00\x00\x00\x00\x00\x00\x00\x00\x00\x00\x00\x00\x00\x00\x00\x00\x00\x00\xf0?\x00\x00\x00\x00\x00\x00\xf0?'
p643
tp644
bsg91
g49
(g50
(I0
tp645
g52
tp646
Rp647
(I1
(I2
I2
tp648
g59
I00
S'\x00\x00\x00\x00\x00\x00\x00\x00\x00\x00\x00\x00\x00\x00\x00\x00\x00\x00\x00\x00\x00\x00\xf0?\x00\x00\x00\x00\x00\x00\xf0?'
p649
tp650
bsg98
I01
sg64
g7
sbsg99
g583
sg91
Nsg65
(dp651
sg64
g7
sbssg64
g7
sbsI140468204414992
g0
(cmatplotlib.transforms
BlendedGenericTransform
p652
g2
Ntp653
Rp654
(dp655
g46
I2
sg216
g134
sg222
g0
(g137
g2
Ntp656
Rp657
(dp658
g46
I2
sg141
I2
sg142
g0
(cmatplotlib.transforms
TransformWrapper
p659
g2
Ntp660
Rp661
(dp662
Voutput_dims
p663
I2
sVparents
p664
(dp665
I140468198459408
g0
(g67
g2
Ntp666
Rp667
(dp668
g46
I2
sg71
g0
(g72
g2
Ntp669
Rp670
(dp671
g46
I2
sg76
g49
(g50
(I0
tp672
g52
tp673
Rp674
(I1
(I2
tp675
g59
I00
S'\x00\x00\x00\x00\x00\x00\xf0\x7f\x00\x00\x00\x00\x00\x00\xf0\x7f'
p676
tp677
bsg65
(dp678
I140468198459408
g667
ssg84
g49
(g50
(I0
tp679
g52
tp680
Rp681
(I1
(I2
I2
tp682
g59
I00
S'\x00\x00\x00\x00\x00\x00\x00\x00\x00\x00\x00\x00\x00\x00\x00\x00\x00\x00\x00\x00\x00\x00\xf0?\x00\x00\x00\x00\x00\x00\xf0?'
p683
tp684
bsg91
g49
(g50
(I0
tp685
g52
tp686
Rp687
(I1
(I2
I2
tp688
g59
I00
S'\x83\xa3\xfa\xb5M\x18\xe5\xbf\x00\x00\x00\x00\x00\x00\x00\x00bJCk0\xce)@\xcd\xcc\xcc\xcc\xcc\xccP@'
p689
tp690
bsg98
I01
sg64
g7
sbsg99
g661
sg91
Nsg65
(dp691
I140468198461328
g0
(cmatplotlib.transforms
BboxTransformFrom
p692
g2
Ntp693
Rp694
(dp695
g46
I2
sS'_boxin'
p696
g667
sg48
Nsg47
Nsg64
g7
sg65
(dp697
I140468186797904
g0
(g137
g2
Ntp698
Rp699
(dp700
g46
I2
sg141
I2
sg142
g694
sg172
I2
sg173
g134
sg65
(dp701
I140468186799120
g657
sI140468196703504
NsI140468196703824
Nssg64
g7
sbssbssg64
g7
sbsI140468186799120
g657
sI140468196703504
NsI140468196703824
NssVinput_dims
p702
I2
sVchild
p703
g0
(g212
g2
Ntp704
Rp705
(dp706
g46
I0
sg48
g49
(g50
(I0
tp707
g52
tp708
Rp709
(I1
(I3
I3
tp710
g59
I00
S'\x00\x00\x00\x00\x00\x00\xf0?\x00\x00\x00\x00\x00\x00\x00\x00\x00\x00\x00\x00\x00\x00\x00\x00\x00\x00\x00\x00\x00\x00\x00\x00\x00\x00\x00\x00\x00\x00\xf0?\x00\x00\x00\x00\x00\x00\x00\x00\x00\x00\x00\x00\x00\x00\x00\x00\x00\x00\x00\x00\x00\x00\x00\x00\x00\x00\x00\x00\x00\x00\xf0?'
p711
tp712
bsg216
g0
(g217
g2
Ntp713
Rp714
(dp715
g46
I1
sg47
Nsg64
g7
sg65
(dp716
I140468193015440
g705
ssbsg222
g0
(g217
g2
Ntp717
Rp718
(dp719
g46
I1
sg47
Nsg64
g7
sg65
(dp720
I140468193015440
g705
ssbsg47
Nsg64
g7
sg65
(dp721
I140468197534480
g661
ssbsbsg172
I2
sg173
g699
sg65
(dp722
I140468204414992
g654
sI140468204416464
g0
(g652
g2
Ntp723
Rp724
(dp725
g46
I2
sg216
g657
sg222
g134
sS'_affine'
p726
Nsg65
(dp727
I140468192125776
g0
(g137
g2
Ntp728
Rp729
(dp730
g46
I2
sg141
I2
sg142
g724
sg172
I2
sg173
g0
(cmatplotlib.transforms
ScaledTranslation
p731
g2
Ntp732
Rp733
(dp734
g46
I1
sg48
NsS'_scale_trans'
p735
g44
sg47
NsS'_t'
p736
(F-0.04722222222222222
I0
tp737
sg64
g7
sg65
(dp738
I140468192125776
g729
ssbsg65
(dp739
sg64
g7
sbsI140468171432912
NsI140468201346192
NsI140468203549584
g0
(g137
g2
Ntp740
Rp741
(dp742
g46
I2
sg141
I2
sg142
g724
sg172
I2
sg173
g0
(g731
g2
Ntp743
Rp744
(dp745
g46
I1
sg48
Nsg735
g44
sg47
Nsg736
(F-0.04861111111111111
I0
tp746
sg64
g7
sg65
(dp747
I140468203549584
g741
ssbsg65
(dp748
sg64
g7
sbsI140468203550096
g0
(g137
g2
Ntp749
Rp750
(dp751
g46
I2
sg141
I2
sg142
g724
sg172
I2
sg173
g0
(g731
g2
Ntp752
Rp753
(dp754
g46
I1
sg48
Nsg735
g44
sg47
Nsg736
(F0.04722222222222222
I0
tp755
sg64
g7
sg65
(dp756
I140468203550096
g750
ssbsg65
(dp757
sg64
g7
sbsI140468203550224
NsI140468201346640
NsI140468201346832
g0
(g137
g2
Ntp758
Rp759
(dp760
g46
I2
sg141
I2
sg142
g724
sg172
I2
sg173
g0
(g731
g2
Ntp761
Rp762
(dp763
g46
I1
sg48
Nsg735
g44
sg47
Nsg736
(F0.04861111111111111
I0
tp764
sg64
g7
sg65
(dp765
I140468201346832
g759
ssbsg65
(dp766
sg64
g7
sbsI140468200495248
NsI140468200495376
NsI140468203551056
g0
(g137
g2
Ntp767
Rp768
(dp769
g46
I2
sg141
I2
sg142
g724
sg172
I2
sg173
g0
(g731
g2
Ntp770
Rp771
(dp772
g46
I1
sg48
Nsg735
g44
sg47
Nsg736
(F-0.04722222222222222
I0
tp773
sg64
g7
sg65
(dp774
I140468203551056
g768
ssbsg65
(dp775
sg64
g7
sbsI140468198599056
g0
(g137
g2
Ntp776
Rp777
(dp778
g46
I2
sg141
I2
sg142
g724
sg172
I2
sg173
g0
(g731
g2
Ntp779
Rp780
(dp781
g46
I1
sg48
Nsg735
g44
sg47
Nsg736
(F-0.04861111111111111
I0
tp782
sg64
g7
sg65
(dp783
I140468198599056
g777
ssbsg65
(dp784
sg64
g7
sbsI140468192127440
g0
(g137
g2
Ntp785
Rp786
(dp787
g46
I2
sg141
I2
sg142
g724
sg172
I2
sg173
g0
(g731
g2
Ntp788
Rp789
(dp790
g46
I1
sg48
Nsg735
g44
sg47
Nsg736
(F0.04722222222222222
I0
tp791
sg64
g7
sg65
(dp792
I140468192127440
g786
ssbsg65
(dp793
sg64
g7
sbsI140468200495632
NsI140468203551504
NsI140468201347856
NsI140468201346896
NsI140468203552208
NsI140468171435664
NsI140468203552464
NsI140468203552528
NsI140468201348944
NsI140468201345936
NsI140468203552656
NsI140468201345168
NsI140468198598800
NsI140468201345360
NsI140468203549072
g0
(g137
g2
Ntp794
Rp795
(dp796
g46
I2
sg141
I2
sg142
g724
sg172
I2
sg173
g0
(g731
g2
Ntp797
Rp798
(dp799
g46
I1
sg48
Nsg735
g44
sg47
Nsg736
(F0.04861111111111111
I0
tp800
sg64
g7
sg65
(dp801
I140468203549072
g795
ssbsg65
(dp802
sg64
g7
sbsI140468203549136
Nssg64
g7
sbssg64
g7
sbsg726
Nsg65
(dp803
I140468193014800
g0
(g137
g2
Ntp804
Rp805
(dp806
g46
I2
sg141
I2
sg142
g654
sg172
I2
sg173
g0
(g731
g2
Ntp807
Rp808
(dp809
g46
I1
sg48
Nsg735
g44
sg47
Nsg736
(I0
F0.04722222222222222
tp810
sg64
g7
sg65
(dp811
I140468193014800
g805
ssbsg65
(dp812
sg64
g7
sbsI140468201346320
NsI140468171434896
NsI140468193015248
g0
(g137
g2
Ntp813
Rp814
(dp815
g46
I2
sg141
I2
sg142
g654
sg172
I2
sg173
g0
(g731
g2
Ntp816
Rp817
(dp818
g46
I1
sg48
Nsg735
g44
sg47
Nsg736
(I0
F-0.04722222222222222
tp819
sg64
g7
sg65
(dp820
I140468193015248
g814
ssbsg65
(dp821
sg64
g7
sbsI140468198598288
NsI140468171433680
NsI140468201347024
NsI140468200495120
NsI140468201347152
NsI140468192127184
NsI140468171434576
NsI140468193016592
g0
(g137
g2
Ntp822
Rp823
(dp824
g46
I2
sg141
I2
sg142
g654
sg172
I2
sg173
g0
(g731
g2
Ntp825
Rp826
(dp827
g46
I1
sg48
Nsg735
g44
sg47
Nsg736
(I0
F0.04861111111111111
tp828
sg64
g7
sg65
(dp829
I140468193016592
g823
ssbsg65
(dp830
sg64
g7
sbsI140468201348304
NsI140468171433808
NsI140468192128464
NsI140468193017424
NsI140468192128720
NsI140468200496912
NsI140468200494160
NsI140468193017808
NsI140468206501968
NsI140468192125200
g0
(g137
g2
Ntp831
Rp832
(dp833
g46
I2
sg141
I2
sg142
g654
sg172
I2
sg173
g0
(g731
g2
Ntp834
Rp835
(dp836
g46
I1
sg48
Nsg735
g44
sg47
Nsg736
(I0
F-0.04861111111111111
tp837
sg64
g7
sg65
(dp838
I140468192125200
g832
ssbsg65
(dp839
sg64
g7
sbsI140468171432272
NsI140468192125008
NsI140468193014032
g0
(g137
g2
Ntp840
Rp841
(dp842
g46
I2
sg141
I2
sg142
g654
sg172
I2
sg173
g0
(g731
g2
Ntp843
Rp844
(dp845
g46
I1
sg48
Nsg735
g44
sg47
Nsg736
(I0
F-0.04861111111111111
tp846
sg64
g7
sg65
(dp847
I140468193014032
g841
ssbsg65
(dp848
sg64
g7
sbsI140468201345552
g0
(g137
g2
Ntp849
Rp850
(dp851
g46
I2
sg141
I2
sg142
g654
sg172
I2
sg173
g0
(g731
g2
Ntp852
Rp853
(dp854
g46
I1
sg48
Nsg735
g44
sg47
Nsg736
(I0
F-0.04722222222222222
tp855
sg64
g7
sg65
(dp856
I140468201345552
g850
ssbsg65
(dp857
sg64
g7
sbsI140468171435216
NsI140468192125584
g0
(g137
g2
Ntp858
Rp859
(dp860
g46
I2
sg141
I2
sg142
g654
sg172
I2
sg173
g0
(g731
g2
Ntp861
Rp862
(dp863
g46
I1
sg48
Nsg735
g44
sg47
Nsg736
(I0
F0.04861111111111111
tp864
sg64
g7
sg65
(dp865
I140468192125584
g859
ssbsg65
(dp866
sg64
g7
sbsI140468200493328
NsI140468193014096
g0
(g137
g2
Ntp867
Rp868
(dp869
g46
I2
sg141
I2
sg142
g654
sg172
I2
sg173
g0
(g731
g2
Ntp870
Rp871
(dp872
g46
I1
sg48
Nsg735
g44
sg47
Nsg736
(I0
F0.04722222222222222
tp873
sg64
g7
sg65
(dp874
I140468193014096
g868
ssbsg65
(dp875
sg64
g7
sbsI140468198598096
Nssg64
g7
sbsI140468201345168
g0
(g137
g2
Ntp876
Rp877
(dp878
g46
I2
sg141
I2
sg142
g0
(g137
g2
Ntp879
Rp880
(dp881
g46
I1
sg141
I2
sg142
g0
(g101
g2
Ntp882
Rp883
(dp884
g46
I1
sg48
Nsg47
Nsg105
g0
(g72
g2
Ntp885
Rp886
(dp887
g46
I1
sg76
g49
(g50
(I0
tp888
g52
tp889
Rp890
(I1
(I2
tp891
g59
I00
S'\x00\x00\x00\x00\x00\x00\xf0\x7f\x00\x00\x00\x00\x00\x00\xf0\x7f'
p892
tp893
bsg65
(dp894
I140468201345488
g883
ssg84
g49
(g50
(I0
tp895
g52
tp896
Rp897
(I1
(I2
I2
tp898
g59
I00
S'\x00\x00\x00\x00\x00\x00\x00\x00\x00\x00\x00\x00\x00\x00\x00\x00\x00\x00\x00\x00\x00\x00\xf0?\x00\x00\x00\x00\x00\x00\xf0?'
p899
tp900
bsg91
g49
(g50
(I0
tp901
g52
tp902
Rp903
(I1
(I2
I2
tp904
g59
I00
S'\x00\x00\x00\x00\x00\x00\x00\x00\x00\x00\x00\x00\x00\x00\x00\x00\x00\x00\x00\x00\x00\x00\xf0?\x00\x00\x00\x00\x00\x00\xf0?'
p905
tp906
bsg98
I01
sg64
g7
sbsg65
(dp907
I140468201345104
g880
ssg64
g7
sbsg172
I2
sg173
g0
(g42
g2
Ntp908
Rp909
(dp910
g46
I2
sg47
Nsg48
g49
(g50
(I0
tp911
g52
tp912
Rp913
(I1
(I3
I3
tp914
g59
I00
S'\x00\x00\x00\x00\x00\x00\xf0?\x00\x00\x00\x00\x00\x00\x00\x00\x00\x00\x00\x00\x00\x00\x00\x00\x00\x00\x00\x00\x00\x00\x00\x00\x00\x00\x00\x00\x00\x00\xf0?\x00\x00\x00\x00\x00\x00\x00\x00\x00\x00\x00\x00\x00\x00\x00\x00\x00\x00\x00\x00\x00\x00\x00\x00\x00\x00\x00\x00\x00\x00\xf0?'
p915
tp916
bsg64
g7
sg65
(dp917
I140468201345104
g880
ssbsg65
(dp918
I140468201345168
g877
ssg64
g7
sbsg172
I2
sg173
g134
sg65
(dp919
I140468201346896
g0
(g67
g2
Ntp920
Rp921
(dp922
g46
I2
sg71
g0
(g72
g2
Ntp923
Rp924
(dp925
g46
I1
sg76
g49
(g50
(I0
tp926
g52
tp927
Rp928
(I1
(I2
tp929
g59
I00
S'\x00\x00\x00\x00\x00\x00\xf0\x7f\x00\x00\x00\x00\x00\x00\xf0\x7f'
p930
tp931
bsg65
(dp932
I140468201346896
g921
ssg84
g49
(g50
(I0
tp933
g52
tp934
Rp935
(I1
(I2
I2
tp936
g59
I00
S'\x00\x00\x00\x00\x00\x00\x00\x00\x00\x00\x00\x00\x00\x00\x00\x00\x00\x00\x00\x00\x00\x00\xf0?\x00\x00\x00\x00\x00\x00\xf0?'
p937
tp938
bsg91
g49
(g50
(I0
tp939
g52
tp940
Rp941
(I1
(I2
I2
tp942
g59
I00
S'\x00\x00\x00\x00\x00\x00\x00\x00\x00\x00\x00\x00\x00\x00\x00\x00\x00\x00\x00\x00\x00\x00\xf0?\x00\x00\x00\x00\x00\x00\xf0?'
p943
tp944
bsg98
I01
sg64
g7
sbsg99
g877
sg91
Nsg65
(dp945
sg64
g7
sbssg64
g7
sbsI140468196702288
g0
(g137
g2
Ntp946
Rp947
(dp948
g46
I2
sg141
I2
sg142
g0
(g137
g2
Ntp949
Rp950
(dp951
g46
I1
sg141
I2
sg142
g0
(g101
g2
Ntp952
Rp953
(dp954
g46
I1
sg48
Nsg47
Nsg105
g0
(g72
g2
Ntp955
Rp956
(dp957
g46
I1
sg76
g49
(g50
(I0
tp958
g52
tp959
Rp960
(I1
(I2
tp961
g59
I00
S'\x00\x00\x00\x00\x00\x00\xf0\x7f\x00\x00\x00\x00\x00\x00\xf0\x7f'
p962
tp963
bsg65
(dp964
I140468196702608
g953
ssg84
g49
(g50
(I0
tp965
g52
tp966
Rp967
(I1
(I2
I2
tp968
g59
I00
S'\x00\x00\x00\x00\x00\x00\x00\x00\x00\x00\x00\x00\x00\x00\x00\x00\x00\x00\x00\x00\x00\x00\xf0?\x00\x00\x00\x00\x00\x00\xf0?'
p969
tp970
bsg91
g49
(g50
(I0
tp971
g52
tp972
Rp973
(I1
(I2
I2
tp974
g59
I00
S'\x00\x00\x00\x00\x00\x00\x00\x00\x00\x00\x00\x00\x00\x00\x00\x00\x00\x00\x00\x00\x00\x00\xf0?\x00\x00\x00\x00\x00\x00\xf0?'
p975
tp976
bsg98
I01
sg64
g7
sbsg65
(dp977
I140468196703312
g950
ssg64
g7
sbsg172
I2
sg173
g0
(g42
g2
Ntp978
Rp979
(dp980
g46
I2
sg47
Nsg48
g49
(g50
(I0
tp981
g52
tp982
Rp983
(I1
(I3
I3
tp984
g59
I00
S'\x00\x00\x00\x00\x00\x00\xf0?\x00\x00\x00\x00\x00\x00\x00\x00\x00\x00\x00\x00\x00\x00\x00\x00\x00\x00\x00\x00\x00\x00\x00\x00\x00\x00\x00\x00\x00\x00\xf0?\x00\x00\x00\x00\x00\x00\x00\x00\x00\x00\x00\x00\x00\x00\x00\x00\x00\x00\x00\x00\x00\x00\x00\x00\x00\x00\x00\x00\x00\x00\xf0?'
p985
tp986
bsg64
g7
sg65
(dp987
I140468196703312
g950
ssbsg65
(dp988
I140468196702288
g947
ssg64
g7
sbsg172
I2
sg173
g134
sg65
(dp989
I140468196701392
g0
(g67
g2
Ntp990
Rp991
(dp992
g46
I2
sg71
g0
(g72
g2
Ntp993
Rp994
(dp995
g46
I1
sg76
g49
(g50
(I0
tp996
g52
tp997
Rp998
(I1
(I2
tp999
g59
I00
S'\x00\x00\x00\x00\x00\x00\xf0\x7f\x00\x00\x00\x00\x00\x00\xf0\x7f'
p1000
tp1001
bsg65
(dp1002
I140468196701392
g991
ssg84
g49
(g50
(I0
tp1003
g52
tp1004
Rp1005
(I1
(I2
I2
tp1006
g59
I00
S'\x00\x00\x00\x00\x00\x00\x00\x00\x00\x00\x00\x00\x00\x00\x00\x00\x00\x00\x00\x00\x00\x00\xf0?\x00\x00\x00\x00\x00\x00\xf0?'
p1007
tp1008
bsg91
g49
(g50
(I0
tp1009
g52
tp1010
Rp1011
(I1
(I2
I2
tp1012
g59
I00
S'\x00\x00\x00\x00\x00\x00\x00\x00\x00\x00\x00\x00\x00\x00\x00\x00\x00\x00\x00\x00\x00\x00\xf0?\x00\x00\x00\x00\x00\x00\xf0?'
p1013
tp1014
bsg98
I01
sg64
g7
sbsg99
g947
sg91
Nsg65
(dp1015
sg64
g7
sbssg64
g7
sbsI140468202129616
g0
(g137
g2
Ntp1016
Rp1017
(dp1018
g46
I2
sg141
I2
sg142
g134
sg172
I2
sg173
g0
(g731
g2
Ntp1019
Rp1020
(dp1021
g46
I1
sg48
Nsg735
g44
sg47
Nsg736
(F0.0
F0.08333333333333333
tp1022
sg64
g7
sg65
(dp1023
I140468202127504
g0
(g137
g2
Ntp1024
Rp1025
(dp1026
g46
I2
sg141
I2
sg142
g134
sg172
I2
sg173
g1020
sg65
(dp1027
sg64
g7
sbsI140468202129616
g1017
sI140468202128464
g0
(g137
g2
Ntp1028
Rp1029
(dp1030
g46
I2
sg141
I2
sg142
g134
sg172
I2
sg173
g1020
sg65
(dp1031
sg64
g7
sbssbsg65
(dp1032
sg64
g7
sbsI140468202129872
g0
(g137
g2
Ntp1033
Rp1034
(dp1035
g46
I2
sg141
I2
sg142
g0
(g137
g2
Ntp1036
Rp1037
(dp1038
g46
I1
sg141
I2
sg142
g0
(g101
g2
Ntp1039
Rp1040
(dp1041
g46
I1
sg48
Nsg47
Nsg105
g0
(g72
g2
Ntp1042
Rp1043
(dp1044
g46
I1
sg76
g49
(g50
(I0
tp1045
g52
tp1046
Rp1047
(I1
(I2
tp1048
g59
I00
S'\x00\x00\x00\x00\x00\x00\xf0\x7f\x00\x00\x00\x00\x00\x00\xf0\x7f'
p1049
tp1050
bsg65
(dp1051
I140468202128208
g1040
ssg84
g49
(g50
(I0
tp1052
g52
tp1053
Rp1054
(I1
(I2
I2
tp1055
g59
I00
S'\x00\x00\x00\x00\x00\x00\x00\x00\x00\x00\x00\x00\x00\x00\x00\x00\x00\x00\x00\x00\x00\x00\xf0?\x00\x00\x00\x00\x00\x00\xf0?'
p1056
tp1057
bsg91
g49
(g50
(I0
tp1058
g52
tp1059
Rp1060
(I1
(I2
I2
tp1061
g59
I00
S'\x00\x00\x00\x00\x00\x00\x00\x00\x00\x00\x00\x00\x00\x00\x00\x00\x00\x00\x00\x00\x00\x00\xf0?\x00\x00\x00\x00\x00\x00\xf0?'
p1062
tp1063
bsg98
I01
sg64
g7
sbsg65
(dp1064
I140468202128272
g1037
ssg64
g7
sbsg172
I2
sg173
g0
(g42
g2
Ntp1065
Rp1066
(dp1067
g46
I2
sg47
Nsg48
g49
(g50
(I0
tp1068
g52
tp1069
Rp1070
(I1
(I3
I3
tp1071
g59
I00
S'\x00\x00\x00\x00\x00\x00\xf0?\x00\x00\x00\x00\x00\x00\x00\x00\x00\x00\x00\x00\x00\x00\x00\x00\x00\x00\x00\x00\x00\x00\x00\x00\x00\x00\x00\x00\x00\x00\xf0?\x00\x00\x00\x00\x00\x00\x00\x00\x00\x00\x00\x00\x00\x00\x00\x00\x00\x00\x00\x00\x00\x00\x00\x00\x00\x00\x00\x00\x00\x00\xf0?'
p1072
tp1073
bsg64
g7
sg65
(dp1074
I140468202128272
g1037
ssbsg65
(dp1075
I140468202129872
g1034
ssg64
g7
sbsg172
I2
sg173
g134
sg65
(dp1076
I140468202128080
g0
(g67
g2
Ntp1077
Rp1078
(dp1079
g46
I2
sg71
g0
(g72
g2
Ntp1080
Rp1081
(dp1082
g46
I1
sg76
g49
(g50
(I0
tp1083
g52
tp1084
Rp1085
(I1
(I2
tp1086
g59
I00
S'\x00\x00\x00\x00\x00\x00\xf0\x7f\x00\x00\x00\x00\x00\x00\xf0\x7f'
p1087
tp1088
bsg65
(dp1089
I140468202128080
g1078
ssg84
g49
(g50
(I0
tp1090
g52
tp1091
Rp1092
(I1
(I2
I2
tp1093
g59
I00
S'\x00\x00\x00\x00\x00\x00\x00\x00\x00\x00\x00\x00\x00\x00\x00\x00\x00\x00\x00\x00\x00\x00\xf0?\x00\x00\x00\x00\x00\x00\xf0?'
p1094
tp1095
bsg91
g49
(g50
(I0
tp1096
g52
tp1097
Rp1098
(I1
(I2
I2
tp1099
g59
I00
S'\x00\x00\x00\x00\x00\x00\x00\x00\x00\x00\x00\x00\x00\x00\x00\x00\x00\x00\x00\x00\x00\x00\xf0?\x00\x00\x00\x00\x00\x00\xf0?'
p1100
tp1101
bsg98
I01
sg64
g7
sbsg99
g1034
sg91
Nsg65
(dp1102
sg64
g7
sbssg64
g7
sbsI140468206504592
g0
(g212
g2
Ntp1103
Rp1104
(dp1105
g46
I2
sg48
Nsg216
g0
(g217
g2
Ntp1106
Rp1107
(dp1108
g46
I1
sg47
Nsg64
g7
sg65
(dp1109
I140468206504592
g1104
ssbsg222
g134
sg47
Nsg64
g7
sg65
(dp1110
sbsI140468202130128
g0
(g137
g2
Ntp1111
Rp1112
(dp1113
g46
I2
sg141
I2
sg142
g0
(g137
g2
Ntp1114
Rp1115
(dp1116
g46
I1
sg141
I2
sg142
g0
(g101
g2
Ntp1117
Rp1118
(dp1119
g46
I1
sg48
Nsg47
Nsg105
g0
(g72
g2
Ntp1120
Rp1121
(dp1122
g46
I1
sg76
g49
(g50
(I0
tp1123
g52
tp1124
Rp1125
(I1
(I2
tp1126
g59
I00
S'\x00\x00\x00\x00\x00\x00\xf0\x7f\x00\x00\x00\x00\x00\x00\xf0\x7f'
p1127
tp1128
bsg65
(dp1129
I140468202127696
g1118
ssg84
g49
(g50
(I0
tp1130
g52
tp1131
Rp1132
(I1
(I2
I2
tp1133
g59
I00
S'\x00\x00\x00\x00\x00\x00\x00\x00\x00\x00\x00\x00\x00\x00\x00\x00\x00\x00\x00\x00\x00\x00\xf0?\x00\x00\x00\x00\x00\x00\xf0?'
p1134
tp1135
bsg91
g49
(g50
(I0
tp1136
g52
tp1137
Rp1138
(I1
(I2
I2
tp1139
g59
I00
S'\x00\x00\x00\x00\x00\x00\x00\x00\x00\x00\x00\x00\x00\x00\x00\x00\x00\x00\x00\x00\x00\x00\xf0?\x00\x00\x00\x00\x00\x00\xf0?'
p1140
tp1141
bsg98
I01
sg64
g7
sbsg65
(dp1142
I140468202128528
g1115
ssg64
g7
sbsg172
I2
sg173
g0
(g42
g2
Ntp1143
Rp1144
(dp1145
g46
I2
sg47
Nsg48
g49
(g50
(I0
tp1146
g52
tp1147
Rp1148
(I1
(I3
I3
tp1149
g59
I00
S'\x00\x00\x00\x00\x00\x00\xf0?\x00\x00\x00\x00\x00\x00\x00\x00\x00\x00\x00\x00\x00\x00\x00\x00\x00\x00\x00\x00\x00\x00\x00\x00\x00\x00\x00\x00\x00\x00\xf0?\x00\x00\x00\x00\x00\x00\x00\x00\x00\x00\x00\x00\x00\x00\x00\x00\x00\x00\x00\x00\x00\x00\x00\x00\x00\x00\x00\x00\x00\x00\xf0?'
p1150
tp1151
bsg64
g7
sg65
(dp1152
I140468202128528
g1115
ssbsg65
(dp1153
I140468202130128
g1112
ssg64
g7
sbsg172
I2
sg173
g134
sg65
(dp1154
I140468202129936
g0
(g67
g2
Ntp1155
Rp1156
(dp1157
g46
I2
sg71
g0
(g72
g2
Ntp1158
Rp1159
(dp1160
g46
I1
sg76
g49
(g50
(I0
tp1161
g52
tp1162
Rp1163
(I1
(I2
tp1164
g59
I00
S'\x00\x00\x00\x00\x00\x00\xf0\x7f\x00\x00\x00\x00\x00\x00\xf0\x7f'
p1165
tp1166
bsg65
(dp1167
I140468202129936
g1156
ssg84
g49
(g50
(I0
tp1168
g52
tp1169
Rp1170
(I1
(I2
I2
tp1171
g59
I00
S'\x00\x00\x00\x00\x00\x00\x00\x00\x00\x00\x00\x00\x00\x00\x00\x00\x00\x00\x00\x00\x00\x00\xf0?\x00\x00\x00\x00\x00\x00\xf0?'
p1172
tp1173
bsg91
g49
(g50
(I0
tp1174
g52
tp1175
Rp1176
(I1
(I2
I2
tp1177
g59
I00
S'\x00\x00\x00\x00\x00\x00\x00\x00\x00\x00\x00\x00\x00\x00\x00\x00\x00\x00\x00\x00\x00\x00\xf0?\x00\x00\x00\x00\x00\x00\xf0?'
p1178
tp1179
bsg98
I01
sg64
g7
sbsg99
g1112
sg91
Nsg65
(dp1180
sg64
g7
sbssg64
g7
sbsI140468202130192
g0
(g137
g2
Ntp1181
Rp1182
(dp1183
g46
I2
sg141
I2
sg142
g0
(g137
g2
Ntp1184
Rp1185
(dp1186
g46
I1
sg141
I2
sg142
g0
(g101
g2
Ntp1187
Rp1188
(dp1189
g46
I1
sg48
Nsg47
Nsg105
g0
(g72
g2
Ntp1190
Rp1191
(dp1192
g46
I1
sg76
g49
(g50
(I0
tp1193
g52
tp1194
Rp1195
(I1
(I2
tp1196
g59
I00
S'\x00\x00\x00\x00\x00\x00\xf0\x7f\x00\x00\x00\x00\x00\x00\xf0\x7f'
p1197
tp1198
bsg65
(dp1199
I140468202130640
g1188
ssg84
g49
(g50
(I0
tp1200
g52
tp1201
Rp1202
(I1
(I2
I2
tp1203
g59
I00
S'\x00\x00\x00\x00\x00\x00\x00\x00\x00\x00\x00\x00\x00\x00\x00\x00\x00\x00\x00\x00\x00\x00\xf0?\x00\x00\x00\x00\x00\x00\xf0?'
p1204
tp1205
bsg91
g49
(g50
(I0
tp1206
g52
tp1207
Rp1208
(I1
(I2
I2
tp1209
g59
I00
S'\x00\x00\x00\x00\x00\x00\x00\x00\x00\x00\x00\x00\x00\x00\x00\x00\x00\x00\x00\x00\x00\x00\xf0?\x00\x00\x00\x00\x00\x00\xf0?'
p1210
tp1211
bsg98
I01
sg64
g7
sbsg65
(dp1212
I140468202130960
g1185
ssg64
g7
sbsg172
I2
sg173
g0
(g42
g2
Ntp1213
Rp1214
(dp1215
g46
I2
sg47
Nsg48
g49
(g50
(I0
tp1216
g52
tp1217
Rp1218
(I1
(I3
I3
tp1219
g59
I00
S'\x00\x00\x00\x00\x00\x00\xf0?\x00\x00\x00\x00\x00\x00\x00\x00\x00\x00\x00\x00\x00\x00\x00\x00\x00\x00\x00\x00\x00\x00\x00\x00\x00\x00\x00\x00\x00\x00\xf0?\x00\x00\x00\x00\x00\x00\x00\x00\x00\x00\x00\x00\x00\x00\x00\x00\x00\x00\x00\x00\x00\x00\x00\x00\x00\x00\x00\x00\x00\x00\xf0?'
p1220
tp1221
bsg64
g7
sg65
(dp1222
I140468202130960
g1185
ssbsg65
(dp1223
I140468202130192
g1182
ssg64
g7
sbsg172
I2
sg173
g134
sg65
(dp1224
I140468202128592
g0
(g67
g2
Ntp1225
Rp1226
(dp1227
g46
I2
sg71
g0
(g72
g2
Ntp1228
Rp1229
(dp1230
g46
I1
sg76
g49
(g50
(I0
tp1231
g52
tp1232
Rp1233
(I1
(I2
tp1234
g59
I00
S'\x00\x00\x00\x00\x00\x00\xf0\x7f\x00\x00\x00\x00\x00\x00\xf0\x7f'
p1235
tp1236
bsg65
(dp1237
I140468202128592
g1226
ssg84
g49
(g50
(I0
tp1238
g52
tp1239
Rp1240
(I1
(I2
I2
tp1241
g59
I00
S'\x00\x00\x00\x00\x00\x00\x00\x00\x00\x00\x00\x00\x00\x00\x00\x00\x00\x00\x00\x00\x00\x00\xf0?\x00\x00\x00\x00\x00\x00\xf0?'
p1242
tp1243
bsg91
g49
(g50
(I0
tp1244
g52
tp1245
Rp1246
(I1
(I2
I2
tp1247
g59
I00
S'\x00\x00\x00\x00\x00\x00\x00\x00\x00\x00\x00\x00\x00\x00\x00\x00\x00\x00\x00\x00\x00\x00\xf0?\x00\x00\x00\x00\x00\x00\xf0?'
p1248
tp1249
bsg98
I01
sg64
g7
sbsg99
g1182
sg91
Nsg65
(dp1250
sg64
g7
sbssg64
g7
sbsI140468198599504
g0
(g137
g2
Ntp1251
Rp1252
(dp1253
g46
I2
sg141
I2
sg142
g0
(g137
g2
Ntp1254
Rp1255
(dp1256
g46
I1
sg141
I2
sg142
g0
(g101
g2
Ntp1257
Rp1258
(dp1259
g46
I1
sg48
Nsg47
Nsg105
g0
(g72
g2
Ntp1260
Rp1261
(dp1262
g46
I1
sg76
g49
(g50
(I0
tp1263
g52
tp1264
Rp1265
(I1
(I2
tp1266
g59
I00
S'\x00\x00\x00\x00\x00\x00\xf0\x7f\x00\x00\x00\x00\x00\x00\xf0\x7f'
p1267
tp1268
bsg65
(dp1269
I140468198597776
g1258
ssg84
g49
(g50
(I0
tp1270
g52
tp1271
Rp1272
(I1
(I2
I2
tp1273
g59
I00
S'\x00\x00\x00\x00\x00\x00\x00\x00\x00\x00\x00\x00\x00\x00\x00\x00\x00\x00\x00\x00\x00\x00\xf0?\x00\x00\x00\x00\x00\x00\xf0?'
p1274
tp1275
bsg91
g49
(g50
(I0
tp1276
g52
tp1277
Rp1278
(I1
(I2
I2
tp1279
g59
I00
S'\x00\x00\x00\x00\x00\x00\x00\x00\x00\x00\x00\x00\x00\x00\x00\x00\x00\x00\x00\x00\x00\x00\xf0?\x00\x00\x00\x00\x00\x00\xf0?'
p1280
tp1281
bsg98
I01
sg64
g7
sbsg65
(dp1282
I140468198600016
g1255
ssg64
g7
sbsg172
I2
sg173
g0
(g42
g2
Ntp1283
Rp1284
(dp1285
g46
I2
sg47
Nsg48
g49
(g50
(I0
tp1286
g52
tp1287
Rp1288
(I1
(I3
I3
tp1289
g59
I00
S'\x00\x00\x00\x00\x00\x00\xf0?\x00\x00\x00\x00\x00\x00\x00\x00\x00\x00\x00\x00\x00\x00\x00\x00\x00\x00\x00\x00\x00\x00\x00\x00\x00\x00\x00\x00\x00\x00\xf0?\x00\x00\x00\x00\x00\x00\x00\x00\x00\x00\x00\x00\x00\x00\x00\x00\x00\x00\x00\x00\x00\x00\x00\x00\x00\x00\x00\x00\x00\x00\xf0?'
p1290
tp1291
bsg64
g7
sg65
(dp1292
I140468198600016
g1255
ssbsg65
(dp1293
I140468198599504
g1252
ssg64
g7
sbsg172
I2
sg173
g134
sg65
(dp1294
I140468198597584
g0
(g67
g2
Ntp1295
Rp1296
(dp1297
g46
I2
sg71
g0
(g72
g2
Ntp1298
Rp1299
(dp1300
g46
I1
sg76
g49
(g50
(I0
tp1301
g52
tp1302
Rp1303
(I1
(I2
tp1304
g59
I00
S'\x00\x00\x00\x00\x00\x00\xf0\x7f\x00\x00\x00\x00\x00\x00\xf0\x7f'
p1305
tp1306
bsg65
(dp1307
I140468198597584
g1296
ssg84
g49
(g50
(I0
tp1308
g52
tp1309
Rp1310
(I1
(I2
I2
tp1311
g59
I00
S'\x00\x00\x00\x00\x00\x00\x00\x00\x00\x00\x00\x00\x00\x00\x00\x00\x00\x00\x00\x00\x00\x00\xf0?\x00\x00\x00\x00\x00\x00\xf0?'
p1312
tp1313
bsg91
g49
(g50
(I0
tp1314
g52
tp1315
Rp1316
(I1
(I2
I2
tp1317
g59
I00
S'\x00\x00\x00\x00\x00\x00\x00\x00\x00\x00\x00\x00\x00\x00\x00\x00\x00\x00\x00\x00\x00\x00\xf0?\x00\x00\x00\x00\x00\x00\xf0?'
p1318
tp1319
bsg98
I01
sg64
g7
sbsg99
g1252
sg91
Nsg65
(dp1320
sg64
g7
sbssg64
g7
sbsI140468196703248
g0
(g137
g2
Ntp1321
Rp1322
(dp1323
g46
I2
sg141
I2
sg142
g0
(g137
g2
Ntp1324
Rp1325
(dp1326
g46
I1
sg141
I2
sg142
g0
(g101
g2
Ntp1327
Rp1328
(dp1329
g46
I1
sg48
Nsg47
Nsg105
g0
(g72
g2
Ntp1330
Rp1331
(dp1332
g46
I1
sg76
g49
(g50
(I0
tp1333
g52
tp1334
Rp1335
(I1
(I2
tp1336
g59
I00
S'\x00\x00\x00\x00\x00\x00\xf0\x7f\x00\x00\x00\x00\x00\x00\xf0\x7f'
p1337
tp1338
bsg65
(dp1339
I140468196702544
g1328
ssg84
g49
(g50
(I0
tp1340
g52
tp1341
Rp1342
(I1
(I2
I2
tp1343
g59
I00
S'\x00\x00\x00\x00\x00\x00\x00\x00\x00\x00\x00\x00\x00\x00\x00\x00\x00\x00\x00\x00\x00\x00\xf0?\x00\x00\x00\x00\x00\x00\xf0?'
p1344
tp1345
bsg91
g49
(g50
(I0
tp1346
g52
tp1347
Rp1348
(I1
(I2
I2
tp1349
g59
I00
S'\x00\x00\x00\x00\x00\x00\x00\x00\x00\x00\x00\x00\x00\x00\x00\x00\x00\x00\x00\x00\x00\x00\xf0?\x00\x00\x00\x00\x00\x00\xf0?'
p1350
tp1351
bsg98
I01
sg64
g7
sbsg65
(dp1352
I140468196701008
g1325
ssg64
g7
sbsg172
I2
sg173
g0
(g42
g2
Ntp1353
Rp1354
(dp1355
g46
I2
sg47
Nsg48
g49
(g50
(I0
tp1356
g52
tp1357
Rp1358
(I1
(I3
I3
tp1359
g59
I00
S'\x00\x00\x00\x00\x00\x00\xf0?\x00\x00\x00\x00\x00\x00\x00\x00\x00\x00\x00\x00\x00\x00\x00\x00\x00\x00\x00\x00\x00\x00\x00\x00\x00\x00\x00\x00\x00\x00\xf0?\x00\x00\x00\x00\x00\x00\x00\x00\x00\x00\x00\x00\x00\x00\x00\x00\x00\x00\x00\x00\x00\x00\x00\x00\x00\x00\x00\x00\x00\x00\xf0?'
p1360
tp1361
bsg64
g7
sg65
(dp1362
I140468196701008
g1325
ssbsg65
(dp1363
I140468196703248
g1322
ssg64
g7
sbsg172
I2
sg173
g134
sg65
(dp1364
I140468196700432
g0
(g67
g2
Ntp1365
Rp1366
(dp1367
g46
I2
sg71
g0
(g72
g2
Ntp1368
Rp1369
(dp1370
g46
I1
sg76
g49
(g50
(I0
tp1371
g52
tp1372
Rp1373
(I1
(I2
tp1374
g59
I00
S'\x00\x00\x00\x00\x00\x00\xf0\x7f\x00\x00\x00\x00\x00\x00\xf0\x7f'
p1375
tp1376
bsg65
(dp1377
I140468196700432
g1366
ssg84
g49
(g50
(I0
tp1378
g52
tp1379
Rp1380
(I1
(I2
I2
tp1381
g59
I00
S'\x00\x00\x00\x00\x00\x00\x00\x00\x00\x00\x00\x00\x00\x00\x00\x00\x00\x00\x00\x00\x00\x00\xf0?\x00\x00\x00\x00\x00\x00\xf0?'
p1382
tp1383
bsg91
g49
(g50
(I0
tp1384
g52
tp1385
Rp1386
(I1
(I2
I2
tp1387
g59
I00
S'\x00\x00\x00\x00\x00\x00\x00\x00\x00\x00\x00\x00\x00\x00\x00\x00\x00\x00\x00\x00\x00\x00\xf0?\x00\x00\x00\x00\x00\x00\xf0?'
p1388
tp1389
bsg98
I01
sg64
g7
sbsg99
g1322
sg91
Nsg65
(dp1390
sg64
g7
sbssg64
g7
sbsI140468171435088
g0
(g212
g2
Ntp1391
Rp1392
(dp1393
g46
I2
sg48
Nsg216
g0
(g217
g2
Ntp1394
Rp1395
(dp1396
g46
I1
sg47
Nsg64
g7
sg65
(dp1397
I140468171435088
g1392
ssbsg222
g134
sg47
Nsg64
g7
sg65
(dp1398
sbsI140468186797904
g699
sI140468202130832
g0
(g137
g2
Ntp1399
Rp1400
(dp1401
g46
I2
sg141
I2
sg142
g0
(g137
g2
Ntp1402
Rp1403
(dp1404
g46
I1
sg141
I2
sg142
g0
(g101
g2
Ntp1405
Rp1406
(dp1407
g46
I1
sg48
Nsg47
Nsg105
g0
(g72
g2
Ntp1408
Rp1409
(dp1410
g46
I1
sg76
g49
(g50
(I0
tp1411
g52
tp1412
Rp1413
(I1
(I2
tp1414
g59
I00
S'\x00\x00\x00\x00\x00\x00\xf0\x7f\x00\x00\x00\x00\x00\x00\xf0\x7f'
p1415
tp1416
bsg65
(dp1417
I140468202128976
g1406
ssg84
g49
(g50
(I0
tp1418
g52
tp1419
Rp1420
(I1
(I2
I2
tp1421
g59
I00
S'\x00\x00\x00\x00\x00\x00\x00\x00\x00\x00\x00\x00\x00\x00\x00\x00\x00\x00\x00\x00\x00\x00\xf0?\x00\x00\x00\x00\x00\x00\xf0?'
p1422
tp1423
bsg91
g49
(g50
(I0
tp1424
g52
tp1425
Rp1426
(I1
(I2
I2
tp1427
g59
I00
S'\x00\x00\x00\x00\x00\x00\x00\x00\x00\x00\x00\x00\x00\x00\x00\x00\x00\x00\x00\x00\x00\x00\xf0?\x00\x00\x00\x00\x00\x00\xf0?'
p1428
tp1429
bsg98
I01
sg64
g7
sbsg65
(dp1430
I140468202131216
g1403
ssg64
g7
sbsg172
I2
sg173
g0
(g42
g2
Ntp1431
Rp1432
(dp1433
g46
I2
sg47
Nsg48
g49
(g50
(I0
tp1434
g52
tp1435
Rp1436
(I1
(I3
I3
tp1437
g59
I00
S'\x00\x00\x00\x00\x00\x00\xf0?\x00\x00\x00\x00\x00\x00\x00\x00\x00\x00\x00\x00\x00\x00\x00\x00\x00\x00\x00\x00\x00\x00\x00\x00\x00\x00\x00\x00\x00\x00\xf0?\x00\x00\x00\x00\x00\x00\x00\x00\x00\x00\x00\x00\x00\x00\x00\x00\x00\x00\x00\x00\x00\x00\x00\x00\x00\x00\x00\x00\x00\x00\xf0?'
p1438
tp1439
bsg64
g7
sg65
(dp1440
I140468202131216
g1403
ssbsg65
(dp1441
I140468202130832
g1400
ssg64
g7
sbsg172
I2
sg173
g134
sg65
(dp1442
I140468202130064
g0
(g67
g2
Ntp1443
Rp1444
(dp1445
g46
I2
sg71
g0
(g72
g2
Ntp1446
Rp1447
(dp1448
g46
I1
sg76
g49
(g50
(I0
tp1449
g52
tp1450
Rp1451
(I1
(I2
tp1452
g59
I00
S'\x00\x00\x00\x00\x00\x00\xf0\x7f\x00\x00\x00\x00\x00\x00\xf0\x7f'
p1453
tp1454
bsg65
(dp1455
I140468202130064
g1444
ssg84
g49
(g50
(I0
tp1456
g52
tp1457
Rp1458
(I1
(I2
I2
tp1459
g59
I00
S'\x00\x00\x00\x00\x00\x00\x00\x00\x00\x00\x00\x00\x00\x00\x00\x00\x00\x00\x00\x00\x00\x00\xf0?\x00\x00\x00\x00\x00\x00\xf0?'
p1460
tp1461
bsg91
g49
(g50
(I0
tp1462
g52
tp1463
Rp1464
(I1
(I2
I2
tp1465
g59
I00
S'\x00\x00\x00\x00\x00\x00\x00\x00\x00\x00\x00\x00\x00\x00\x00\x00\x00\x00\x00\x00\x00\x00\xf0?\x00\x00\x00\x00\x00\x00\xf0?'
p1466
tp1467
bsg98
I01
sg64
g7
sbsg99
g1400
sg91
Nsg65
(dp1468
sg64
g7
sbssg64
g7
sbsI140468204416464
g724
sI140468202131024
g0
(g137
g2
Ntp1469
Rp1470
(dp1471
g46
I2
sg141
I2
sg142
g0
(g137
g2
Ntp1472
Rp1473
(dp1474
g46
I1
sg141
I2
sg142
g0
(g101
g2
Ntp1475
Rp1476
(dp1477
g46
I1
sg48
Nsg47
Nsg105
g0
(g72
g2
Ntp1478
Rp1479
(dp1480
g46
I1
sg76
g49
(g50
(I0
tp1481
g52
tp1482
Rp1483
(I1
(I2
tp1484
g59
I00
S'\x00\x00\x00\x00\x00\x00\xf0\x7f\x00\x00\x00\x00\x00\x00\xf0\x7f'
p1485
tp1486
bsg65
(dp1487
I140468202130384
g1476
ssg84
g49
(g50
(I0
tp1488
g52
tp1489
Rp1490
(I1
(I2
I2
tp1491
g59
I00
S'\x00\x00\x00\x00\x00\x00\x00\x00\x00\x00\x00\x00\x00\x00\x00\x00\x00\x00\x00\x00\x00\x00\xf0?\x00\x00\x00\x00\x00\x00\xf0?'
p1492
tp1493
bsg91
g49
(g50
(I0
tp1494
g52
tp1495
Rp1496
(I1
(I2
I2
tp1497
g59
I00
S'\x00\x00\x00\x00\x00\x00\x00\x00\x00\x00\x00\x00\x00\x00\x00\x00\x00\x00\x00\x00\x00\x00\xf0?\x00\x00\x00\x00\x00\x00\xf0?'
p1498
tp1499
bsg98
I01
sg64
g7
sbsg65
(dp1500
I140468202130320
g1473
ssg64
g7
sbsg172
I2
sg173
g0
(g42
g2
Ntp1501
Rp1502
(dp1503
g46
I2
sg47
Nsg48
g49
(g50
(I0
tp1504
g52
tp1505
Rp1506
(I1
(I3
I3
tp1507
g59
I00
S'\x00\x00\x00\x00\x00\x00\xf0?\x00\x00\x00\x00\x00\x00\x00\x00\x00\x00\x00\x00\x00\x00\x00\x00\x00\x00\x00\x00\x00\x00\x00\x00\x00\x00\x00\x00\x00\x00\xf0?\x00\x00\x00\x00\x00\x00\x00\x00\x00\x00\x00\x00\x00\x00\x00\x00\x00\x00\x00\x00\x00\x00\x00\x00\x00\x00\x00\x00\x00\x00\xf0?'
p1508
tp1509
bsg64
g7
sg65
(dp1510
I140468202130320
g1473
ssbsg65
(dp1511
I140468202131024
g1470
ssg64
g7
sbsg172
I2
sg173
g134
sg65
(dp1512
I140468202127952
g0
(g67
g2
Ntp1513
Rp1514
(dp1515
g46
I2
sg71
g0
(g72
g2
Ntp1516
Rp1517
(dp1518
g46
I1
sg76
g49
(g50
(I0
tp1519
g52
tp1520
Rp1521
(I1
(I2
tp1522
g59
I00
S'\x00\x00\x00\x00\x00\x00\xf0\x7f\x00\x00\x00\x00\x00\x00\xf0\x7f'
p1523
tp1524
bsg65
(dp1525
I140468202127952
g1514
ssg84
g49
(g50
(I0
tp1526
g52
tp1527
Rp1528
(I1
(I2
I2
tp1529
g59
I00
S'\x00\x00\x00\x00\x00\x00\x00\x00\x00\x00\x00\x00\x00\x00\x00\x00\x00\x00\x00\x00\x00\x00\xf0?\x00\x00\x00\x00\x00\x00\xf0?'
p1530
tp1531
bsg91
g49
(g50
(I0
tp1532
g52
tp1533
Rp1534
(I1
(I2
I2
tp1535
g59
I00
S'\x00\x00\x00\x00\x00\x00\x00\x00\x00\x00\x00\x00\x00\x00\x00\x00\x00\x00\x00\x00\x00\x00\xf0?\x00\x00\x00\x00\x00\x00\xf0?'
p1536
tp1537
bsg98
I01
sg64
g7
sbsg99
g1470
sg91
Nsg65
(dp1538
sg64
g7
sbssg64
g7
sbsI140468202128464
g1029
sI140468196700240
g0
(g137
g2
Ntp1539
Rp1540
(dp1541
g46
I2
sg141
I2
sg142
g0
(g137
g2
Ntp1542
Rp1543
(dp1544
g46
I1
sg141
I2
sg142
g0
(g101
g2
Ntp1545
Rp1546
(dp1547
g46
I1
sg48
Nsg47
Nsg105
g0
(g72
g2
Ntp1548
Rp1549
(dp1550
g46
I1
sg76
g49
(g50
(I0
tp1551
g52
tp1552
Rp1553
(I1
(I2
tp1554
g59
I00
S'\x00\x00\x00\x00\x00\x00\xf0\x7f\x00\x00\x00\x00\x00\x00\xf0\x7f'
p1555
tp1556
bsg65
(dp1557
I140468202130256
g1546
ssg84
g49
(g50
(I0
tp1558
g52
tp1559
Rp1560
(I1
(I2
I2
tp1561
g59
I00
S'\x00\x00\x00\x00\x00\x00\x00\x00\x00\x00\x00\x00\x00\x00\x00\x00\x00\x00\x00\x00\x00\x00\xf0?\x00\x00\x00\x00\x00\x00\xf0?'
p1562
tp1563
bsg91
g49
(g50
(I0
tp1564
g52
tp1565
Rp1566
(I1
(I2
I2
tp1567
g59
I00
S'\x00\x00\x00\x00\x00\x00\x00\x00\x00\x00\x00\x00\x00\x00\x00\x00\x00\x00\x00\x00\x00\x00\xf0?\x00\x00\x00\x00\x00\x00\xf0?'
p1568
tp1569
bsg98
I01
sg64
g7
sbsg65
(dp1570
I140468196700816
g1543
ssg64
g7
sbsg172
I2
sg173
g0
(g42
g2
Ntp1571
Rp1572
(dp1573
g46
I2
sg47
Nsg48
g49
(g50
(I0
tp1574
g52
tp1575
Rp1576
(I1
(I3
I3
tp1577
g59
I00
S'\x00\x00\x00\x00\x00\x00\xf0?\x00\x00\x00\x00\x00\x00\x00\x00\x00\x00\x00\x00\x00\x00\x00\x00\x00\x00\x00\x00\x00\x00\x00\x00\x00\x00\x00\x00\x00\x00\xf0?\x00\x00\x00\x00\x00\x00\x00\x00\x00\x00\x00\x00\x00\x00\x00\x00\x00\x00\x00\x00\x00\x00\x00\x00\x00\x00\x00\x00\x00\x00\xf0?'
p1578
tp1579
bsg64
g7
sg65
(dp1580
I140468196700816
g1543
ssbsg65
(dp1581
I140468196700240
g1540
ssg64
g7
sbsg172
I2
sg173
g134
sg65
(dp1582
I140468196702800
g0
(g67
g2
Ntp1583
Rp1584
(dp1585
g46
I2
sg71
g0
(g72
g2
Ntp1586
Rp1587
(dp1588
g46
I1
sg76
g49
(g50
(I0
tp1589
g52
tp1590
Rp1591
(I1
(I2
tp1592
g59
I00
S'\x00\x00\x00\x00\x00\x00\xf0\x7f\x00\x00\x00\x00\x00\x00\xf0\x7f'
p1593
tp1594
bsg65
(dp1595
I140468196702800
g1584
ssg84
g49
(g50
(I0
tp1596
g52
tp1597
Rp1598
(I1
(I2
I2
tp1599
g59
I00
S'\x00\x00\x00\x00\x00\x00\x00\x00\x00\x00\x00\x00\x00\x00\x00\x00\x00\x00\x00\x00\x00\x00\xf0?\x00\x00\x00\x00\x00\x00\xf0?'
p1600
tp1601
bsg91
g49
(g50
(I0
tp1602
g52
tp1603
Rp1604
(I1
(I2
I2
tp1605
g59
I00
S'\x00\x00\x00\x00\x00\x00\x00\x00\x00\x00\x00\x00\x00\x00\x00\x00\x00\x00\x00\x00\x00\x00\xf0?\x00\x00\x00\x00\x00\x00\xf0?'
p1606
tp1607
bsg98
I01
sg64
g7
sbsg99
g1540
sg91
Nsg65
(dp1608
sg64
g7
sbssg64
g7
sbsI140468202127504
g1025
sI140468201346448
g0
(g137
g2
Ntp1609
Rp1610
(dp1611
g46
I2
sg141
I2
sg142
g0
(g137
g2
Ntp1612
Rp1613
(dp1614
g46
I1
sg141
I2
sg142
g0
(g101
g2
Ntp1615
Rp1616
(dp1617
g46
I1
sg48
Nsg47
Nsg105
g0
(g72
g2
Ntp1618
Rp1619
(dp1620
g46
I1
sg76
g49
(g50
(I0
tp1621
g52
tp1622
Rp1623
(I1
(I2
tp1624
g59
I00
S'\x00\x00\x00\x00\x00\x00\xf0\x7f\x00\x00\x00\x00\x00\x00\xf0\x7f'
p1625
tp1626
bsg65
(dp1627
I140468201347856
g1616
ssg84
g49
(g50
(I0
tp1628
g52
tp1629
Rp1630
(I1
(I2
I2
tp1631
g59
I00
S'\x00\x00\x00\x00\x00\x00\x00\x00\x00\x00\x00\x00\x00\x00\x00\x00\x00\x00\x00\x00\x00\x00\xf0?\x00\x00\x00\x00\x00\x00\xf0?'
p1632
tp1633
bsg91
g49
(g50
(I0
tp1634
g52
tp1635
Rp1636
(I1
(I2
I2
tp1637
g59
I00
S'\x00\x00\x00\x00\x00\x00\x00\x00\x00\x00\x00\x00\x00\x00\x00\x00\x00\x00\x00\x00\x00\x00\xf0?\x00\x00\x00\x00\x00\x00\xf0?'
p1638
tp1639
bsg98
I01
sg64
g7
sbsg65
(dp1640
I140468201347280
g1613
ssg64
g7
sbsg172
I2
sg173
g0
(g42
g2
Ntp1641
Rp1642
(dp1643
g46
I2
sg47
Nsg48
g49
(g50
(I0
tp1644
g52
tp1645
Rp1646
(I1
(I3
I3
tp1647
g59
I00
S'\x00\x00\x00\x00\x00\x00\xf0?\x00\x00\x00\x00\x00\x00\x00\x00\x00\x00\x00\x00\x00\x00\x00\x00\x00\x00\x00\x00\x00\x00\x00\x00\x00\x00\x00\x00\x00\x00\xf0?\x00\x00\x00\x00\x00\x00\x00\x00\x00\x00\x00\x00\x00\x00\x00\x00\x00\x00\x00\x00\x00\x00\x00\x00\x00\x00\x00\x00\x00\x00\xf0?'
p1648
tp1649
bsg64
g7
sg65
(dp1650
I140468201347280
g1613
ssbsg65
(dp1651
I140468201346448
g1610
ssg64
g7
sbsg172
I2
sg173
g134
sg65
(dp1652
I140468201345872
g0
(g67
g2
Ntp1653
Rp1654
(dp1655
g46
I2
sg71
g0
(g72
g2
Ntp1656
Rp1657
(dp1658
g46
I1
sg76
g49
(g50
(I0
tp1659
g52
tp1660
Rp1661
(I1
(I2
tp1662
g59
I00
S'\x00\x00\x00\x00\x00\x00\xf0\x7f\x00\x00\x00\x00\x00\x00\xf0\x7f'
p1663
tp1664
bsg65
(dp1665
I140468201345872
g1654
ssg84
g49
(g50
(I0
tp1666
g52
tp1667
Rp1668
(I1
(I2
I2
tp1669
g59
I00
S'\x00\x00\x00\x00\x00\x00\x00\x00\x00\x00\x00\x00\x00\x00\x00\x00\x00\x00\x00\x00\x00\x00\xf0?\x00\x00\x00\x00\x00\x00\xf0?'
p1670
tp1671
bsg91
g49
(g50
(I0
tp1672
g52
tp1673
Rp1674
(I1
(I2
I2
tp1675
g59
I00
S'\x00\x00\x00\x00\x00\x00\x00\x00\x00\x00\x00\x00\x00\x00\x00\x00\x00\x00\x00\x00\x00\x00\xf0?\x00\x00\x00\x00\x00\x00\xf0?'
p1676
tp1677
bsg98
I01
sg64
g7
sbsg99
g1610
sg91
Nsg65
(dp1678
sg64
g7
sbssg64
g7
sbsI140468171432336
g0
(g137
g2
Ntp1679
Rp1680
(dp1681
g46
I2
sg141
I2
sg142
g0
(g137
g2
Ntp1682
Rp1683
(dp1684
g46
I1
sg141
I2
sg142
g0
(g101
g2
Ntp1685
Rp1686
(dp1687
g46
I1
sg48
Nsg47
Nsg105
g0
(g72
g2
Ntp1688
Rp1689
(dp1690
g46
I1
sg76
g49
(g50
(I0
tp1691
g52
tp1692
Rp1693
(I1
(I2
tp1694
g59
I00
S'\x00\x00\x00\x00\x00\x00\xf0\x7f\x00\x00\x00\x00\x00\x00\xf0\x7f'
p1695
tp1696
bsg65
(dp1697
I140468171434000
g1686
ssg84
g49
(g50
(I0
tp1698
g52
tp1699
Rp1700
(I1
(I2
I2
tp1701
g59
I00
S'\x00\x00\x00\x00\x00\x00\x00\x00\x00\x00\x00\x00\x00\x00\x00\x00\x00\x00\x00\x00\x00\x00\xf0?\x00\x00\x00\x00\x00\x00\xf0?'
p1702
tp1703
bsg91
g49
(g50
(I0
tp1704
g52
tp1705
Rp1706
(I1
(I2
I2
tp1707
g59
I00
S'\x00\x00\x00\x00\x00\x00\x00\x00\x00\x00\x00\x00\x00\x00\x00\x00\x00\x00\x00\x00\x00\x00\xf0?\x00\x00\x00\x00\x00\x00\xf0?'
p1708
tp1709
bsg98
I01
sg64
g7
sbsg65
(dp1710
I140468171435344
g1683
ssg64
g7
sbsg172
I2
sg173
g0
(g42
g2
Ntp1711
Rp1712
(dp1713
g46
I2
sg47
Nsg48
g49
(g50
(I0
tp1714
g52
tp1715
Rp1716
(I1
(I3
I3
tp1717
g59
I00
S'\x00\x00\x00\x00\x00\x00\xf0?\x00\x00\x00\x00\x00\x00\x00\x00\x00\x00\x00\x00\x00\x00\x00\x00\x00\x00\x00\x00\x00\x00\x00\x00\x00\x00\x00\x00\x00\x00\xf0?\x00\x00\x00\x00\x00\x00\x00\x00\x00\x00\x00\x00\x00\x00\x00\x00\x00\x00\x00\x00\x00\x00\x00\x00\x00\x00\x00\x00\x00\x00\xf0?'
p1718
tp1719
bsg64
g7
sg65
(dp1720
I140468171435344
g1683
ssbsg65
(dp1721
I140468171432336
g1680
ssg64
g7
sbsg172
I2
sg173
g134
sg65
(dp1722
I140468171432656
g0
(g67
g2
Ntp1723
Rp1724
(dp1725
g46
I2
sg71
g0
(g72
g2
Ntp1726
Rp1727
(dp1728
g46
I1
sg76
g49
(g50
(I0
tp1729
g52
tp1730
Rp1731
(I1
(I2
tp1732
g59
I00
S'\x00\x00\x00\x00\x00\x00\xf0\x7f\x00\x00\x00\x00\x00\x00\xf0\x7f'
p1733
tp1734
bsg65
(dp1735
I140468171432656
g1724
ssg84
g49
(g50
(I0
tp1736
g52
tp1737
Rp1738
(I1
(I2
I2
tp1739
g59
I00
S'\x00\x00\x00\x00\x00\x00\x00\x00\x00\x00\x00\x00\x00\x00\x00\x00\x00\x00\x00\x00\x00\x00\xf0?\x00\x00\x00\x00\x00\x00\xf0?'
p1740
tp1741
bsg91
g49
(g50
(I0
tp1742
g52
tp1743
Rp1744
(I1
(I2
I2
tp1745
g59
I00
S'\x00\x00\x00\x00\x00\x00\x00\x00\x00\x00\x00\x00\x00\x00\x00\x00\x00\x00\x00\x00\x00\x00\xf0?\x00\x00\x00\x00\x00\x00\xf0?'
p1746
tp1747
bsg98
I01
sg64
g7
sbsg99
g1680
sg91
Nsg65
(dp1748
sg64
g7
sbssg64
g7
sbsI140468202127888
g0
(g137
g2
Ntp1749
Rp1750
(dp1751
g46
I2
sg141
I2
sg142
g0
(g137
g2
Ntp1752
Rp1753
(dp1754
g46
I1
sg141
I2
sg142
g0
(g101
g2
Ntp1755
Rp1756
(dp1757
g46
I1
sg48
Nsg47
Nsg105
g0
(g72
g2
Ntp1758
Rp1759
(dp1760
g46
I1
sg76
g49
(g50
(I0
tp1761
g52
tp1762
Rp1763
(I1
(I2
tp1764
g59
I00
S'\x00\x00\x00\x00\x00\x00\xf0\x7f\x00\x00\x00\x00\x00\x00\xf0\x7f'
p1765
tp1766
bsg65
(dp1767
I140468202128656
g1756
ssg84
g49
(g50
(I0
tp1768
g52
tp1769
Rp1770
(I1
(I2
I2
tp1771
g59
I00
S'\x00\x00\x00\x00\x00\x00\x00\x00\x00\x00\x00\x00\x00\x00\x00\x00\x00\x00\x00\x00\x00\x00\xf0?\x00\x00\x00\x00\x00\x00\xf0?'
p1772
tp1773
bsg91
g49
(g50
(I0
tp1774
g52
tp1775
Rp1776
(I1
(I2
I2
tp1777
g59
I00
S'\x00\x00\x00\x00\x00\x00\x00\x00\x00\x00\x00\x00\x00\x00\x00\x00\x00\x00\x00\x00\x00\x00\xf0?\x00\x00\x00\x00\x00\x00\xf0?'
p1778
tp1779
bsg98
I01
sg64
g7
sbsg65
(dp1780
I140468202131280
g1753
ssg64
g7
sbsg172
I2
sg173
g0
(g42
g2
Ntp1781
Rp1782
(dp1783
g46
I2
sg47
Nsg48
g49
(g50
(I0
tp1784
g52
tp1785
Rp1786
(I1
(I3
I3
tp1787
g59
I00
S'\x00\x00\x00\x00\x00\x00\xf0?\x00\x00\x00\x00\x00\x00\x00\x00\x00\x00\x00\x00\x00\x00\x00\x00\x00\x00\x00\x00\x00\x00\x00\x00\x00\x00\x00\x00\x00\x00\xf0?\x00\x00\x00\x00\x00\x00\x00\x00\x00\x00\x00\x00\x00\x00\x00\x00\x00\x00\x00\x00\x00\x00\x00\x00\x00\x00\x00\x00\x00\x00\xf0?'
p1788
tp1789
bsg64
g7
sg65
(dp1790
I140468202131280
g1753
ssbsg65
(dp1791
I140468202127888
g1750
ssg64
g7
sbsg172
I2
sg173
g134
sg65
(dp1792
I140468202129040
g0
(g67
g2
Ntp1793
Rp1794
(dp1795
g46
I2
sg71
g0
(g72
g2
Ntp1796
Rp1797
(dp1798
g46
I1
sg76
g49
(g50
(I0
tp1799
g52
tp1800
Rp1801
(I1
(I2
tp1802
g59
I00
S'\x00\x00\x00\x00\x00\x00\xf0\x7f\x00\x00\x00\x00\x00\x00\xf0\x7f'
p1803
tp1804
bsg65
(dp1805
I140468202129040
g1794
ssg84
g49
(g50
(I0
tp1806
g52
tp1807
Rp1808
(I1
(I2
I2
tp1809
g59
I00
S'\x00\x00\x00\x00\x00\x00\x00\x00\x00\x00\x00\x00\x00\x00\x00\x00\x00\x00\x00\x00\x00\x00\xf0?\x00\x00\x00\x00\x00\x00\xf0?'
p1810
tp1811
bsg91
g49
(g50
(I0
tp1812
g52
tp1813
Rp1814
(I1
(I2
I2
tp1815
g59
I00
S'\x00\x00\x00\x00\x00\x00\x00\x00\x00\x00\x00\x00\x00\x00\x00\x00\x00\x00\x00\x00\x00\x00\xf0?\x00\x00\x00\x00\x00\x00\xf0?'
p1816
tp1817
bsg98
I01
sg64
g7
sbsg99
g1750
sg91
Nsg65
(dp1818
sg64
g7
sbssg64
g7
sbssg64
g7
sbssg64
g7
sbssg64
g7
sbssg64
g7
sbsI140468171435344
NsI140468201346128
NsI140468203552400
g753
sI140468198597840
NsI140468200494352
NsI140468192125968
g862
sI140468203550160
g771
sI140468198598160
NsI140468200493520
NsI140468201346704
NsI140468203550416
NsI140468201346832
NsI140468198598608
NsI140468201347088
g762
sI140468193015888
NsI140468201348560
NsI140468193015952
g844
sI140468201347280
NsI140468171434320
NsI140468203551248
NsI140468193016400
NsI140468171434704
NsI140468203550736
g744
sI140468201347856
NsI140468200493776
NsI140468171434896
NsI140468200496080
NsI140468198599376
NsI140468201348176
g808
sI140468193016976
g817
sI140468201348304
g853
sI140468171434128
NsI140468192126416
g789
sI140468171433808
NsI140468193017296
g1020
sI140468201345488
NsI140468193017488
g871
sI140468192127312
NsI140468200496848
NsI140468192128784
NsI140468192125904
NsI140468201349008
NsI140468192128976
NsI140468200495632
NsI140468203549392
NsI140468193013904
g826
sI140468171432272
NsI140468201348816
NsI140468198600464
NsI140468198597712
g780
sI140468192125392
g733
sI140468171435216
NsI140468192127504
g835
sI140468201345744
NsI140468203549520
NsI140468203552080
g798
ssbsS'number'
p1819
I1
sS'callbacks'
p1820
g0
(cmatplotlib.cbook
CallbackRegistry
p1821
g2
Ntp1822
Rp1823
(dp1824
Vexception_handler
p1825
cmatplotlib.cbook
_exception_printer
p1826
sbsS'_snap'
p1827
NsS'_tight'
p1828
I00
sS'_stale'
p1829
I01
sS'bbox'
p1830
g69
sS'_sticky_edges'
p1831
g0
(cmatplotlib.artist
_XYPair
p1832
c__builtin__
tuple
p1833
((lp1834
(lp1835
tp1836
tp1837
Rp1838
sS'_oid'
p1839
I0
sS'patches'
p1840
(lp1841
sS'legends'
p1842
(lp1843
sS'suppressComposite'
p1844
NsS'_transformSet'
p1845
I00
sS'_alpha'
p1846
NsS'_axstack'
p1847
g0
(cmatplotlib.figure
AxesStack
p1848
g2
Ntp1849
Rp1850
(dp1851
S'_default'
p1852
NsS'_elements'
p1853
(lp1854
(((g0
(cmatplotlib.gridspec
SubplotSpec
p1855
g2
Ntp1856
Rp1857
(dp1858
S'num1'
p1859
I0
sS'num2'
p1860
I0
sS'_gridspec'
p1861
g0
(cmatplotlib.gridspec
GridSpec
p1862
g2
Ntp1863
Rp1864
(dp1865
S'_nrows'
p1866
I1
sS'right'
p1867
NsS'_col_width_ratios'
p1868
NsS'bottom'
p1869
NsS'top'
p1870
NsS'wspace'
p1871
NsS'_ncols'
p1872
I1
sS'hspace'
p1873
NsS'_row_height_ratios'
p1874
NsS'left'
p1875
Nsbsbtp1876
((Vsharey
p1877
Ntp1878
(Vsharex
p1879
Ntp1880
tp1881
tp1882
(I1
g0
(cmatplotlib.axes._subplots
_PicklableSubplotClassConstructor
p1883
g2
Ntp1884
Rp1885
(cmatplotlib.axes._axes
Axes
p1886
tp1887
Rp1888
(dp1889
S'transLimits'
p1890
g694
sS'_get_patches_for_fill'
p1891
g0
(cmatplotlib.axes._base
_process_plot_var_args
p1892
g2
Ntp1893
Rp1894
(dp1895
Vaxes
p1896
g1888
sVcommand
p1897
Vfill
p1898
sbsS'_xcid'
p1899
I1
sg6
g7
sS'legend_'
p1900
g0
(cmatplotlib.legend
Legend
p1901
g2
Ntp1902
Rp1903
(dp1904
g6
g7
sS'markerscale'
p1905
F1.0
sg9
g4
sS'legendHandles'
p1906
(lp1907
g0
(cmatplotlib.patches
Rectangle
p1908
g2
Ntp1909
Rp1910
(dp1911
g6
VControl
p1912
sS'_width'
p1913
F20.0
sS'_fill'
p1914
I00
sg9
g4
sg8
I01
sg10
Nsg35
Nsg17
g18
sS'_gid'
p1915
Nsg20
I01
sS'_combined_transform'
p1916
g0
(g217
g2
Ntp1917
Rp1918
(dp1919
g46
I1
sg47
Nsg64
g7
sg65
(dp1920
sbsS'_edgecolor'
p1921
(cnumpy.core.multiarray
scalar
p1922
(g59
S'\x10\x10\x10\x10\x10\x10\xe0?'
p1923
tp1924
Rp1925
g1922
(g59
S'\x10\x10\x10\x10\x10\x10\xe0?'
p1926
tp1927
Rp1928
g1922
(g59
S'\x10\x10\x10\x10\x10\x10\xe0?'
p1929
tp1930
Rp1931
g1922
(g59
S'\x00\x00\x00\x00\x00\x00\xf0?'
p1932
tp1933
Rp1934
tp1935
sS'angle'
p1936
F0.0
sg23
Nsg216
F-0.0
sg222
F-0.0
sg24
NsS'_original_edgecolor'
p1937
Nsg11
Nsg28
I00
sg29
I00
sg30
(dp1938
sS'_rect_transform'
p1939
g0
(g217
g2
Ntp1940
Rp1941
(dp1942
g46
I1
sg47
Nsg64
g7
sg65
(dp1943
sbsg32
I00
sS'_hatch'
p1944
Nsg1829
I01
sS'_linewidth'
p1945
F1.0
sg36
NsS'_height'
p1946
F7.0
sg33
NsS'_hatch_color'
p1947
g1935
sS'_dashes'
p1948
NsS'_antialiased'
p1949
I01
sS'_dashoffset'
p1950
NsS'_original_facecolor'
p1951
Nsg1827
NsS'_facecolor'
p1952
(g1922
(g59
S'\x10\x10\x10\x10\x10\x10\xe0?'
p1953
tp1954
Rp1955
g1922
(g59
S'\x10\x10\x10\x10\x10\x10\xe0?'
p1956
tp1957
Rp1958
g1922
(g59
S'\x10\x10\x10\x10\x10\x10\xe0?'
p1959
tp1960
Rp1961
I0
tp1962
sS'_joinstyle'
p1963
Vmiter
p1964
sS'_linestyle'
p1965
Vsolid
p1966
sg1831
g0
(g1832
g1833
((lp1967
(lp1968
I0
atp1969
tp1970
Rp1971
sg1839
I0
sg1845
I01
sg1846
Nsg99
g0
(cmatplotlib.transforms
CompositeAffine2D
p1972
g2
Ntp1973
Rp1974
(dp1975
g46
I1
sg141
I2
sg47
Nsg64
g7
sg48
Nsg65
(dp1976
sg172
I2
sg173
g0
(g42
g2
Ntp1977
Rp1978
(dp1979
g46
I2
sg47
Nsg48
g49
(g50
(I0
tp1980
g52
tp1981
Rp1982
(I1
(I3
I3
tp1983
g59
I00
S'\x00\x00\x00\x00\x00\x00\xf0?\x00\x00\x00\x00\x00\x00\x00\x00\x00\x00\x00\x00\x00\x00\x00\x00\x00\x00\x00\x00\x00\x00\x00\x00\x00\x00\x00\x00\x00\x00\xf0?\x00\x00\x00\x00\x00\x00\x00\x00\x00\x00\x00\x00\x00\x00\x00\x00\x00\x00\x00\x00\x00\x00\x00\x00\x00\x00\x00\x00\x00\x00\xf0?'
p1984
tp1985
bsg64
g7
sg65
(dp1986
I140468197588944
g1974
ssbsg142
g0
(g42
g2
Ntp1987
Rp1988
(dp1989
g46
I0
sg47
Nsg48
g49
(g50
(I0
tp1990
g52
tp1991
Rp1992
(I1
(I3
I3
tp1993
g59
I00
S'\x00\x00\x00\x00\x00\x00\xf0?\x00\x00\x00\x00\x00\x00\x00\x00\x00\x00\x00\x00\x00\x00\x00\x00\x00\x00\x00\x00\x00\x00\x00\x00\x00\x00\x00\x00\x00\x00\xf0?\x00\x00\x00\x00\x00\x00\x00\x00\x00\x00\x00\x00\x00\x00\x00\x00\x00\x00\x00\x00\x00\x00\x00\x00\x00\x00\x00\x00\x00\x00\xf0?'
p1994
tp1995
bsg64
g7
sg65
(dp1996
I140468197588944
g1974
ssbsbsS'_us_dashes'
p1997
(NNtp1998
sS'_capstyle'
p1999
Vbutt
p2000
sS'_url'
p2001
Nsg25
NsS'_axes'
p2002
g1888
sg34
Nsbag0
(g1908
g2
Ntp2003
Rp2004
(dp2005
g6
VGABAzine
p2006
sg1913
F20.0
sg1914
I00
sg9
g4
sg8
I01
sg10
Nsg35
Nsg17
g18
sg1915
Nsg20
I01
sg1916
g0
(g217
g2
Ntp2007
Rp2008
(dp2009
g46
I1
sg47
Nsg64
g7
sg65
(dp2010
sbsg1921
(g1922
(g59
S'\x00\x00\x00\x00\x00\x00\xf0?'
p2011
tp2012
Rp2013
g1922
(g59
S'\x00\x00\x00\x00\x00\x00\x00\x00'
p2014
tp2015
Rp2016
g1922
(g59
S'\x00\x00\x00\x00\x00\x00\x00\x00'
p2017
tp2018
Rp2019
g1922
(g59
S'\x00\x00\x00\x00\x00\x00\xf0?'
p2020
tp2021
Rp2022
tp2023
sg1936
F0.0
sg23
Nsg216
F-0.0
sg222
F-0.0
sg24
Nsg1937
Nsg11
Nsg28
I00
sg29
I00
sg30
(dp2024
sg1939
g0
(g217
g2
Ntp2025
Rp2026
(dp2027
g46
I1
sg47
Nsg64
g7
sg65
(dp2028
sbsg32
I00
sg1944
Nsg1829
I01
sg1945
F1.0
sg36
Nsg1946
F7.0
sg33
Nsg1947
g2023
sg1948
Nsg1949
I01
sg1950
Nsg1951
Nsg1827
Nsg1952
(g1922
(g59
S'\x00\x00\x00\x00\x00\x00\xf0?'
p2029
tp2030
Rp2031
g1922
(g59
S'\x00\x00\x00\x00\x00\x00\x00\x00'
p2032
tp2033
Rp2034
g1922
(g59
S'\x00\x00\x00\x00\x00\x00\x00\x00'
p2035
tp2036
Rp2037
I0
tp2038
sg1963
g1964
sg1965
g1966
sg1831
g0
(g1832
g1833
((lp2039
(lp2040
I0
atp2041
tp2042
Rp2043
sg1839
I0
sg1845
I01
sg1846
Nsg99
g0
(g1972
g2
Ntp2044
Rp2045
(dp2046
g46
I1
sg141
I2
sg47
Nsg64
g7
sg48
Nsg65
(dp2047
sg172
I2
sg173
g0
(g42
g2
Ntp2048
Rp2049
(dp2050
g46
I2
sg47
Nsg48
g49
(g50
(I0
tp2051
g52
tp2052
Rp2053
(I1
(I3
I3
tp2054
g59
I00
S'\x00\x00\x00\x00\x00\x00\xf0?\x00\x00\x00\x00\x00\x00\x00\x00\x00\x00\x00\x00\x00\x00\x00\x00\x00\x00\x00\x00\x00\x00\x00\x00\x00\x00\x00\x00\x00\x00\xf0?\x00\x00\x00\x00\x00\x00\x00\x00\x00\x00\x00\x00\x00\x00\x00\x00\x00\x00\x00\x00\x00\x00\x00\x00\x00\x00\x00\x00\x00\x00\xf0?'
p2055
tp2056
bsg64
g7
sg65
(dp2057
I140468197588752
g2045
ssbsg142
g0
(g42
g2
Ntp2058
Rp2059
(dp2060
g46
I0
sg47
Nsg48
g49
(g50
(I0
tp2061
g52
tp2062
Rp2063
(I1
(I3
I3
tp2064
g59
I00
S'\x00\x00\x00\x00\x00\x00\xf0?\x00\x00\x00\x00\x00\x00\x00\x00\x00\x00\x00\x00\x00\x00\x00\x00\x00\x00\x00\x00\x00\x00\x00\x00\x00\x00\x00\x00\x00\x00\xf0?\x00\x00\x00\x00\x00\x00\x00\x00\x00\x00\x00\x00\x00\x00\x00\x00\x00\x00\x00\x00\x00\x00\x00\x00\x00\x00\x00\x00\x00\x00\xf0?'
p2065
tp2066
bsg64
g7
sg65
(dp2067
I140468197588752
g2045
ssbsbsg1997
(NNtp2068
sg1999
g2000
sg2001
Nsg25
Nsg2002
g1888
sg34
NsbasS'_legend_title_box'
p2069
g0
(cmatplotlib.offsetbox
TextArea
p2070
g2
Ntp2071
Rp2072
(dp2073
g6
g7
sg8
I00
sg9
g4
sS'_children'
p2074
(lp2075
g0
(cmatplotlib.text
Text
p2076
g2
Ntp2077
Rp2078
(dp2079
g6
g7
sg8
I01
sg9
g4
sg10
NsS'_fontproperties'
p2080
g0
(cmatplotlib.font_manager
FontProperties
p2081
g2
Ntp2082
Rp2083
(dp2084
S'_family'
p2085
(lp2086
Vsans-serif
p2087
asS'_file'
p2088
NsS'_variant'
p2089
Vnormal
p2090
sS'_slant'
p2091
g2090
sS'_size'
p2092
F10.0
sS'_weight'
p2093
g2090
sS'_stretch'
p2094
g2090
sbsg35
Nsg17
g18
sS'_multialignment'
p2095
Nsg20
I01
sg23
Nsg216
I0
sg222
I0
sg24
Nsg25
Nsg11
Nsg28
I00
sg29
I00
sg30
(dp2096
sS'_renderer'
p2097
Nsg32
I00
sg2002
Nsg36
Nsg2001
NsS'_rotation_mode'
p2098
Nsg33
Nsg1827
Nsg1829
I01
sS'_verticalalignment'
p2099
Vbaseline
p2100
sS'_text'
p2101
VNone
p2102
sS'_bbox_patch'
p2103
Nsg1831
g0
(g1832
g1833
((lp2104
(lp2105
tp2106
tp2107
Rp2108
sg1839
I0
sS'_rotation'
p2109
Nsg1845
I01
sg1846
NsS'_linespacing'
p2110
F1.2
sg99
g0
(g1972
g2
Ntp2111
Rp2112
(dp2113
g46
I1
sg141
I2
sg47
Nsg64
g7
sg48
Nsg65
(dp2114
sg172
I2
sg173
g0
(g42
g2
Ntp2115
Rp2116
(dp2117
g46
I0
sg47
Nsg48
g49
(g50
(I0
tp2118
g52
tp2119
Rp2120
(I1
(I3
I3
tp2121
g59
I00
S'\x00\x00\x00\x00\x00\x00\xf0?\x00\x00\x00\x00\x00\x00\x00\x00\x00\x00\x00\x00\x00\x00\x00\x00\x00\x00\x00\x00\x00\x00\x00\x00\x00\x00\x00\x00\x00\x00\xf0?\x00\x00\x00\x00\x00\x00\x00\x00\x00\x00\x00\x00\x00\x00\x00\x00\x00\x00\x00\x00\x00\x00\x00\x00\x00\x00\x00\x00\x00\x00\xf0?'
p2122
tp2123
bsg64
g7
sg65
(dp2124
I140468197588560
g2112
ssbsg142
g0
(g42
g2
Ntp2125
Rp2126
(dp2127
g46
I2
sg47
Nsg48
g49
(g50
(I0
tp2128
g52
tp2129
Rp2130
(I1
(I3
I3
tp2131
g59
I00
S'\x00\x00\x00\x00\x00\x00\xf0?\x00\x00\x00\x00\x00\x00\x00\x00\x00\x00\x00\x00\x00\x00\x00\x00\x00\x00\x00\x00\x00\x00\x00\x00\x00\x00\x00\x00\x00\x00\xf0?\x00\x00\x00\x00\x00\x00\x00\x00\x00\x00\x00\x00\x00\x00\x00\x00\x00\x00\x00\x00\x00\x00\x00\x00\x00\x00\x00\x00\x00\x00\xf0?'
p2132
tp2133
bsg64
g7
sg65
(dp2134
I140468197588560
g2112
ssbsbsS'_usetex'
p2135
I00
sS'_wrap'
p2136
I00
sg1915
NsS'_color'
p2137
V0.
p2138
sS'_horizontalalignment'
p2139
Vleft
p2140
sg34
Nsbasg2101
g2078
sg10
Nsg35
NsS'_minimumdescent'
p2141
I01
sg17
g18
sg20
I00
sg23
Nsg24
Nsg25
Nsg11
Nsg28
I00
sg2002
Nsg30
(dp2142
sg32
I00
sg29
I00
sg36
Nsg33
Nsg1827
Nsg1829
I01
sS'_multilinebaseline'
p2143
Nsg1831
g0
(g1832
g1833
((lp2144
(lp2145
tp2146
tp2147
Rp2148
sg1839
I0
sS'offset_transform'
p2149
g2126
sg1845
I00
sg1846
NsS'_baseline_transform'
p2150
g2116
sg99
NsS'_offset'
p2151
(I0
I0
tp2152
sg1915
Nsg2001
Nsg34
Nsbsg8
I01
sS'_fontsize'
p2153
F10.0
sg10
NsS'_draggable'
p2154
Nsg11
NsS'columnspacing'
p2155
F2.0
sg12
(lp2156
g0
(g2076
g2
Ntp2157
Rp2158
(dp2159
g6
g7
sg8
I01
sg9
g4
sg10
Nsg2080
g0
(g2081
g2
Ntp2160
Rp2161
(dp2162
g2085
(lp2163
g2087
asg2088
Nsg2089
g2090
sg2091
g2090
sg2092
F10.0
sg2093
g2090
sg2094
g2090
sbsg35
Nsg17
g18
sg2095
Nsg20
I01
sg23
Nsg216
I0
sg222
I0
sg24
Nsg25
Nsg11
Nsg28
I00
sg29
I00
sg30
(dp2164
sg2097
Nsg32
I00
sg2002
Nsg36
Nsg2001
Nsg2098
Nsg33
Nsg1827
Nsg1829
I01
sg2099
g2100
sg2101
VControl
p2165
sg2103
Nsg1831
g0
(g1832
g1833
((lp2166
(lp2167
tp2168
tp2169
Rp2170
sg1839
I0
sg2109
Nsg1845
I01
sg1846
Nsg2110
F1.2
sg99
g0
(g1972
g2
Ntp2171
Rp2172
(dp2173
g46
I1
sg141
I2
sg47
Nsg64
g7
sg48
Nsg65
(dp2174
sg172
I2
sg173
g0
(g42
g2
Ntp2175
Rp2176
(dp2177
g46
I0
sg47
Nsg48
g49
(g50
(I0
tp2178
g52
tp2179
Rp2180
(I1
(I3
I3
tp2181
g59
I00
S'\x00\x00\x00\x00\x00\x00\xf0?\x00\x00\x00\x00\x00\x00\x00\x00\x00\x00\x00\x00\x00\x00\x00\x00\x00\x00\x00\x00\x00\x00\x00\x00\x00\x00\x00\x00\x00\x00\xf0?\x00\x00\x00\x00\x00\x00\x00\x00\x00\x00\x00\x00\x00\x00\x00\x00\x00\x00\x00\x00\x00\x00\x00\x00\x00\x00\x00\x00\x00\x00\xf0?'
p2182
tp2183
bsg64
g7
sg65
(dp2184
I140468196700752
g2172
ssbsg142
g0
(g42
g2
Ntp2185
Rp2186
(dp2187
g46
I2
sg47
Nsg48
g49
(g50
(I0
tp2188
g52
tp2189
Rp2190
(I1
(I3
I3
tp2191
g59
I00
S'\x00\x00\x00\x00\x00\x00\xf0?\x00\x00\x00\x00\x00\x00\x00\x00\x00\x00\x00\x00\x00\x00\x00\x00\x00\x00\x00\x00\x00\x00\x00\x00\x00\x00\x00\x00\x00\x00\xf0?\x00\x00\x00\x00\x00\x00\x00\x00\x00\x00\x00\x00\x00\x00\x00\x00\x00\x00\x00\x00\x00\x00\x00\x00\x00\x00\x00\x00\x00\x00\xf0?'
p2192
tp2193
bsg64
g7
sg65
(dp2194
I140468196700752
g2172
ssbsbsg2135
I00
sg2136
I00
sg1915
Nsg2137
g2138
sg2139
Vleft
p2195
sg34
Nsbag0
(g2076
g2
Ntp2196
Rp2197
(dp2198
g6
g7
sg8
I01
sg9
g4
sg10
Nsg2080
g2161
sg35
Nsg17
g18
sg2095
Nsg20
I01
sg23
Nsg216
I0
sg222
I0
sg24
Nsg25
Nsg11
Nsg28
I00
sg29
I00
sg30
(dp2199
sg2097
Nsg32
I00
sg2002
Nsg36
Nsg2001
Nsg2098
Nsg33
Nsg1827
Nsg1829
I01
sg2099
g2100
sg2101
VGABAzine
p2200
sg2103
Nsg1831
g0
(g1832
g1833
((lp2201
(lp2202
tp2203
tp2204
Rp2205
sg1839
I0
sg2109
Nsg1845
I01
sg1846
Nsg2110
F1.2
sg99
g0
(g1972
g2
Ntp2206
Rp2207
(dp2208
g46
I1
sg141
I2
sg47
Nsg64
g7
sg48
Nsg65
(dp2209
sg172
I2
sg173
g0
(g42
g2
Ntp2210
Rp2211
(dp2212
g46
I0
sg47
Nsg48
g49
(g50
(I0
tp2213
g52
tp2214
Rp2215
(I1
(I3
I3
tp2216
g59
I00
S'\x00\x00\x00\x00\x00\x00\xf0?\x00\x00\x00\x00\x00\x00\x00\x00\x00\x00\x00\x00\x00\x00\x00\x00\x00\x00\x00\x00\x00\x00\x00\x00\x00\x00\x00\x00\x00\x00\xf0?\x00\x00\x00\x00\x00\x00\x00\x00\x00\x00\x00\x00\x00\x00\x00\x00\x00\x00\x00\x00\x00\x00\x00\x00\x00\x00\x00\x00\x00\x00\xf0?'
p2217
tp2218
bsg64
g7
sg65
(dp2219
I140468197588624
g2207
ssbsg142
g0
(g42
g2
Ntp2220
Rp2221
(dp2222
g46
I2
sg47
Nsg48
g49
(g50
(I0
tp2223
g52
tp2224
Rp2225
(I1
(I3
I3
tp2226
g59
I00
S'\x00\x00\x00\x00\x00\x00\xf0?\x00\x00\x00\x00\x00\x00\x00\x00\x00\x00\x00\x00\x00\x00\x00\x00\x00\x00\x00\x00\x00\x00\x00\x00\x00\x00\x00\x00\x00\x00\xf0?\x00\x00\x00\x00\x00\x00\x00\x00\x00\x00\x00\x00\x00\x00\x00\x00\x00\x00\x00\x00\x00\x00\x00\x00\x00\x00\x00\x00\x00\x00\xf0?'
p2227
tp2228
bsg64
g7
sg65
(dp2229
I140468197588624
g2207
ssbsbsg2135
I00
sg2136
I00
sg1915
Nsg2137
g2138
sg2139
g2195
sg34
NsbasS'handletextpad'
p2230
F0.8
sS'borderaxespad'
p2231
F0.5
sg17
g18
sS'_legend_handle_box'
p2232
g0
(cmatplotlib.offsetbox
HPacker
p2233
g2
Ntp2234
Rp2235
(dp2236
g6
g7
sg8
I01
sg9
g4
sg2074
(lp2237
g0
(cmatplotlib.offsetbox
VPacker
p2238
g2
Ntp2239
Rp2240
(dp2241
g6
g7
sg8
I01
sg9
g4
sg2074
(lp2242
g0
(g2233
g2
Ntp2243
Rp2244
(dp2245
g6
g7
sg8
I01
sg9
g4
sg2074
(lp2246
g0
(cmatplotlib.offsetbox
DrawingArea
p2247
g2
Ntp2248
Rp2249
(dp2250
g6
g7
sg8
I01
sg9
g4
sg2074
(lp2251
g1910
asg10
NsS'height'
p2252
F7.0
sg35
Nsg17
g18
sg20
I00
sg23
Nsg24
Nsg25
NsS'dpi_transform'
p2253
g1988
sg11
NsS'_clip_children'
p2254
I00
sg28
I00
sS'width'
p2255
F20.0
sg29
I00
sg30
(dp2256
sg32
I00
sg2002
Nsg36
NsS'ydescent'
p2257
F0.0
sg33
Nsg1827
Nsg1829
I01
sg1831
g0
(g1832
g1833
((lp2258
(lp2259
tp2260
tp2261
Rp2262
sg1839
I0
sg2149
g1978
sg1845
I00
sg1846
Nsg99
Nsg2151
g2152
sS'xdescent'
p2263
F0.0
sg1915
Nsg2001
Nsg34
Nsbag0
(g2070
g2
Ntp2264
Rp2265
(dp2266
g6
g7
sg8
I01
sg9
g4
sg2074
(lp2267
g2158
asg2101
g2158
sg10
Nsg35
Nsg2141
I01
sg17
g18
sg20
I00
sg23
Nsg24
Nsg25
Nsg11
Nsg28
I00
sg2002
Nsg30
(dp2268
sg32
I00
sg29
I00
sg36
Nsg33
Nsg1827
Nsg1829
I01
sg2143
I01
sg1831
g0
(g1832
g1833
((lp2269
(lp2270
tp2271
tp2272
Rp2273
sg1839
I0
sg2149
g2186
sg1845
I00
sg1846
Nsg2150
g2176
sg99
Nsg2151
g2152
sg1915
Nsg2001
Nsg34
Nsbasg10
Nsg2252
Nsg35
Nsg17
g18
sg20
I00
sg23
Nsg24
Nsg25
NsS'sep'
p2274
F8.0
sg11
Nsg28
I00
sg2255
NsS'pad'
p2275
I0
sg29
I00
sg30
(dp2276
sg32
I00
sg2002
Nsg36
Nsg33
Nsg1827
Nsg1829
I01
sg1831
g0
(g1832
g1833
((lp2277
(lp2278
tp2279
tp2280
Rp2281
sg1839
I0
sg1845
I00
sg1846
NsS'align'
p2282
Vbaseline
p2283
sg99
Nsg2151
g2152
sg1915
Nsg2001
NsS'mode'
p2284
Vfixed
p2285
sg34
Nsbag0
(g2233
g2
Ntp2286
Rp2287
(dp2288
g6
g7
sg8
I01
sg9
g4
sg2074
(lp2289
g0
(g2247
g2
Ntp2290
Rp2291
(dp2292
g6
g7
sg8
I01
sg9
g4
sg2074
(lp2293
g2004
asg10
Nsg2252
F7.0
sg35
Nsg17
g18
sg20
I00
sg23
Nsg24
Nsg25
Nsg2253
g2059
sg11
Nsg2254
I00
sg28
I00
sg2255
F20.0
sg29
I00
sg30
(dp2294
sg32
I00
sg2002
Nsg36
Nsg2257
F0.0
sg33
Nsg1827
Nsg1829
I01
sg1831
g0
(g1832
g1833
((lp2295
(lp2296
tp2297
tp2298
Rp2299
sg1839
I0
sg2149
g2049
sg1845
I00
sg1846
Nsg99
Nsg2151
g2152
sg2263
F0.0
sg1915
Nsg2001
Nsg34
Nsbag0
(g2070
g2
Ntp2300
Rp2301
(dp2302
g6
g7
sg8
I01
sg9
g4
sg2074
(lp2303
g2197
asg2101
g2197
sg10
Nsg35
Nsg2141
I00
sg17
g18
sg20
I00
sg23
Nsg24
Nsg25
Nsg11
Nsg28
I00
sg2002
Nsg30
(dp2304
sg32
I00
sg29
I00
sg36
Nsg33
Nsg1827
Nsg1829
I01
sg2143
I01
sg1831
g0
(g1832
g1833
((lp2305
(lp2306
tp2307
tp2308
Rp2309
sg1839
I0
sg2149
g2221
sg1845
I00
sg1846
Nsg2150
g2211
sg99
Nsg2151
g2152
sg1915
Nsg2001
Nsg34
Nsbasg10
Nsg2252
Nsg35
Nsg17
g18
sg20
I00
sg23
Nsg24
Nsg25
Nsg2274
F8.0
sg11
Nsg28
I00
sg2255
Nsg2275
I0
sg29
I00
sg30
(dp2310
sg32
I00
sg2002
Nsg36
Nsg33
Nsg1827
Nsg1829
I01
sg1831
g0
(g1832
g1833
((lp2311
(lp2312
tp2313
tp2314
Rp2315
sg1839
I0
sg1845
I00
sg1846
Nsg2282
g2283
sg99
Nsg2151
g2152
sg1915
Nsg2001
Nsg2284
g2285
sg34
Nsbasg10
Nsg2252
Nsg35
Nsg17
g18
sg20
I00
sg23
Nsg24
Nsg25
Nsg2274
F5.0
sg11
Nsg28
I00
sg2255
Nsg2275
I0
sg29
I00
sg30
(dp2316
sg32
I00
sg2002
Nsg36
Nsg33
Nsg1827
Nsg1829
I01
sg1831
g0
(g1832
g1833
((lp2317
(lp2318
tp2319
tp2320
Rp2321
sg1839
I0
sg1845
I00
sg1846
Nsg2282
g2283
sg99
Nsg2151
g2152
sg1915
Nsg2001
Nsg2284
Vfixed
p2322
sg34
Nsbasg10
Nsg2252
Nsg35
Nsg17
g18
sg20
I00
sg23
Nsg24
Nsg25
Nsg2274
F20.0
sg11
Nsg28
I00
sg2255
Nsg2275
I0
sg29
I00
sg30
(dp2323
sg32
I00
sg2002
Nsg36
Nsg33
Nsg1827
Nsg1829
I01
sg1831
g0
(g1832
g1833
((lp2324
(lp2325
tp2326
tp2327
Rp2328
sg1839
I0
sg1845
I00
sg1846
Nsg2282
g2283
sg99
Nsg2151
g2152
sg1915
Nsg2001
Nsg2284
Vfixed
p2329
sg34
Nsbsg20
I01
sg28
I00
sg23
Nsg24
Nsg25
NsS'_mode'
p2330
NsS'numpoints'
p2331
I1
sS'_bbox_to_anchor'
p2332
NsS'prop'
p2333
g2161
sS'_scatteryoffsets'
p2334
g49
(g50
(I0
tp2335
g52
tp2336
Rp2337
(I1
(I1
tp2338
g59
I00
S'\x00\x00\x00\x00\x00\x00\xd8?'
p2339
tp2340
bsS'_custom_handler_map'
p2341
Nsg29
I00
sg30
(dp2342
sS'_drawFrame'
p2343
I00
sg32
I00
sS'handlelength'
p2344
F2.0
sg2002
g1888
sg35
Nsg36
NsS'parent'
p2345
g1888
sS'legendPatch'
p2346
g0
(cmatplotlib.patches
FancyBboxPatch
p2347
g2
Ntp2348
Rp2349
(dp2350
g6
g7
sg1913
F1.0
sg1914
I01
sg9
g4
sS'_mutation_aspect'
p2351
Nsg10
Nsg35
Nsg17
g18
sg1965
g1966
sg1915
Nsg20
I01
sg1916
g0
(g217
g2
Ntp2352
Rp2353
(dp2354
g46
I1
sg47
Nsg64
g7
sg65
(dp2355
sbsg1921
(F0.8
F0.8
F0.8
F0.8
tp2356
sg23
Nsg216
F0.0
sg222
F0.0
sg24
Nsg1937
V0.8
p2357
sg11
Nsg28
I00
sg29
I00
sg30
(dp2358
sg32
I00
sg1944
Nsg1829
I01
sg1945
F1.0
sg36
Nsg1946
F1.0
sg33
Nsg1947
g2356
sg1948
Nsg1949
I01
sg1950
Nsg1951
Vwhite
p2359
sg1827
I01
sg1952
(F1.0
F1.0
F1.0
F0.8
tp2360
sg1963
g1964
sS'_bbox_transmuter'
p2361
g0
(cmatplotlib.cbook
_NestedClassGetter
p2362
g2
Ntp2363
Rp2364
(cmatplotlib.patches
BoxStyle
p2365
S'Round'
p2366
tp2367
Rp2368
(dp2369
S'rounding_size'
p2370
F0.2
sg2275
I0
sbsS'_mutation_scale'
p2371
F10.0
sg1831
g0
(g1832
g1833
((lp2372
(lp2373
tp2374
tp2375
Rp2376
sg1839
I0
sg1845
I01
sg1846
F0.8
sg99
g0
(g217
g2
Ntp2377
Rp2378
(dp2379
g46
I1
sg47
Nsg64
g7
sg65
(dp2380
sbsg8
I01
sg1997
(NNtp2381
sg1999
g2000
sg2001
Nsg25
Nsg2002
g1888
sg34
Nsbsg33
NsS'scatterpoints'
p2382
I1
sS'labelspacing'
p2383
F0.5
sg1827
Nsg1829
I01
sS'_legend_box'
p2384
g0
(g2238
g2
Ntp2385
Rp2386
(dp2387
g6
g7
sg8
I01
sg9
g4
sg2074
(lp2388
g2072
ag2235
asg10
Nsg2252
Nsg35
Nsg17
g18
sg20
I00
sg23
Nsg24
Nsg25
Nsg2274
F5.0
sg11
Nsg28
I00
sg2255
Nsg2275
F4.0
sg29
I00
sg30
(dp2389
sg32
I00
sg2002
Nsg36
Nsg33
Nsg1827
Nsg1829
I01
sg1831
g0
(g1832
g1833
((lp2390
(lp2391
tp2392
tp2393
Rp2394
sg1839
I0
sg1845
I00
sg1846
Nsg2282
Vcenter
p2395
sg99
Nsg2151
g0
(cmatplotlib.cbook
_InstanceMethodPickler
p2396
g2
Ntp2397
Rp2398
(dp2399
S'parent_obj'
p2400
g1903
sS'instancemethod_name'
p2401
S'_findoffset'
p2402
sbsg1915
Nsg2001
Nsg2284
g2322
sg34
NsbsS'shadow'
p2403
I00
sg1831
g0
(g1832
g1833
((lp2404
(lp2405
tp2406
tp2407
Rp2408
sg1839
I0
sg1846
NsS'isaxes'
p2409
I01
sS'handleheight'
p2410
F0.7
sg1845
I00
sS'_last_fontsize_points'
p2411
F10.0
sS'borderpad'
p2412
F0.4
sS'_ncol'
p2413
I1
sg99
g2378
sS'_loc_real'
p2414
I0
sg1915
Nsg2001
Nsg34
Nsbsg12
(lp2415
sS'_frameon'
p2416
I01
sS'_autoscaleYon'
p2417
I01
sg14
I01
sg15
(lp2418
sg20
I01
sS'tables'
p2419
(lp2420
sg1840
(lp2421
g0
(cmatplotlib.patches
Polygon
p2422
g2
Ntp2423
Rp2424
(dp2425
g6
g1912
sg8
I01
sg1914
I00
sg9
g4
sS'_closed'
p2426
I00
sg10
Nsg35
Nsg17
g18
sg1915
Nsg20
I01
sg1916
g0
(g217
g2
Ntp2427
Rp2428
(dp2429
g46
I1
sg47
Nsg64
g7
sg65
(dp2430
sbsg1921
g1935
sg23
Nsg24
Nsg1937
g49
(g50
(I0
tp2431
g52
tp2432
Rp2433
(I1
(I4
tp2434
g59
I00
S'\x10\x10\x10\x10\x10\x10\xe0?\x10\x10\x10\x10\x10\x10\xe0?\x10\x10\x10\x10\x10\x10\xe0?\x00\x00\x00\x00\x00\x00\xf0?'
p2435
tp2436
bsg11
Nsg28
I00
sg29
I00
sg30
(dp2437
sg32
I00
sg1944
Nsg1829
I01
sg1945
F1.0
sg36
g991
sg33
Nsg1947
g1935
sg1948
Nsg1949
I01
sg1950
Nsg1951
g2433
sg1827
Nsg1952
g1962
sg1963
g1964
sg1965
g1966
sg1831
g0
(g1832
g1833
((lp2438
(lp2439
I0
atp2440
tp2441
Rp2442
sg1839
I0
sg1845
I01
sg1846
Nsg99
g657
sg1997
g1998
sg1999
g2000
sg2001
Nsg25
Nsg2002
g1888
sg34
NsS'_path'
p2443
g0
(cmatplotlib.path
Path
p2444
g2
Ntp2445
Rp2446
(dp2447
S'_should_simplify'
p2448
I00
sS'_codes'
p2449
NsS'_vertices'
p2450
g49
(g50
(I0
tp2451
g52
tp2452
Rp2453
(I1
(I60
I2
tp2454
g59
I00
S'\xad_\xb6)X\xe5\xa5\xbf\x00\x00\x00\x00\x00\x00\x00\x00\xad_\xb6)X\xe5\xa5\xbf\x00\x00\x00\x00\x00\x003@\xf2S\xbf\xa2\xcex\xd8?\x00\x00\x00\x00\x00\x003@\xf2S\xbf\xa2\xcex\xd8?\x00\x00\x00\x00\x00\x80L@\xed\xb9Z%$\xd7\xe9?\x00\x00\x00\x00\x00\x80L@\xed\xb9Z%$\xd7\xe9?\x00\x00\x00\x00\x00\x00G@\xf1\xe4\xaa|\xf0\xb8\xf3?\x00\x00\x00\x00\x00\x00G@\xf1\xe4\xaa|\xf0\xb8\xf3?\x00\x00\x00\x00\x00\x80E@\xebl\xa8\xe6N\x86\xfa?\x00\x00\x00\x00\x00\x80E@\xebl\xa8\xe6N\x86\xfa?\x00\x00\x00\x00\x00\x80J@r\xfaR\xa8\xd6\xa9\x00@\x00\x00\x00\x00\x00\x80J@r\xfaR\xa8\xd6\xa9\x00@\x00\x00\x00\x00\x00\x00P@o\xbeQ\xdd\x85\x10\x04@\x00\x00\x00\x00\x00\x00P@o\xbeQ\xdd\x85\x10\x04@\x00\x00\x00\x00\x00\x00E@l\x82P\x125w\x07@\x00\x00\x00\x00\x00\x00E@l\x82P\x125w\x07@\x00\x00\x00\x00\x00\x00B@iFOG\xe4\xdd\n@\x00\x00\x00\x00\x00\x00B@iFOG\xe4\xdd\n@\x00\x00\x00\x00\x00\x80D@f\nN|\x93D\x0e@\x00\x00\x00\x00\x00\x80D@f\nN|\x93D\x0e@\x00\x00\x00\x00\x00\x80A@2g\xa6X\xa1\xd5\x10@\x00\x00\x00\x00\x00\x80A@2g\xa6X\xa1\xd5\x10@\x00\x00\x00\x00\x00\x008@1\xc9%\xf3\xf8\x88\x12@\x00\x00\x00\x00\x00\x008@1\xc9%\xf3\xf8\x88\x12@\x00\x00\x00\x00\x00\x002@/+\xa5\x8dP<\x14@\x00\x00\x00\x00\x00\x002@/+\xa5\x8dP<\x14@\x00\x00\x00\x00\x00\x00(@-\x8d$(\xa8\xef\x15@\x00\x00\x00\x00\x00\x00(@-\x8d$(\xa8\xef\x15@\x00\x00\x00\x00\x00\x00\x14@,\xef\xa3\xc2\xff\xa2\x17@\x00\x00\x00\x00\x00\x00\x14@,\xef\xa3\xc2\xff\xa2\x17@\x00\x00\x00\x00\x00\x00 @+Q#]WV\x19@\x00\x00\x00\x00\x00\x00 @+Q#]WV\x19@\x00\x00\x00\x00\x00\x00\x08@)\xb3\xa2\xf7\xae\t\x1b@\x00\x00\x00\x00\x00\x00\x08@)\xb3\xa2\xf7\xae\t\x1b@\x00\x00\x00\x00\x00\x00\x08@\'\x15"\x92\x06\xbd\x1c@\x00\x00\x00\x00\x00\x00\x08@\'\x15"\x92\x06\xbd\x1c@\x00\x00\x00\x00\x00\x00\x00\x00&w\xa1,^p\x1e@\x00\x00\x00\x00\x00\x00\x00\x00&w\xa1,^p\x1e@\x00\x00\x00\x00\x00\x00\x00\x00\x92l\x90\xe3\xda\x11 @\x00\x00\x00\x00\x00\x00\x00\x00\x92l\x90\xe3\xda\x11 @\x00\x00\x00\x00\x00\x00\x00\x00\x91\x1d\xd0\xb0\x86\xeb @\x00\x00\x00\x00\x00\x00\x00\x00\x91\x1d\xd0\xb0\x86\xeb @\x00\x00\x00\x00\x00\x00\xf0?\x90\xce\x0f~2\xc5!@\x00\x00\x00\x00\x00\x00\xf0?\x90\xce\x0f~2\xc5!@\x00\x00\x00\x00\x00\x00\x00\x00\x90\x7fOK\xde\x9e"@\x00\x00\x00\x00\x00\x00\x00\x00\x90\x7fOK\xde\x9e"@\x00\x00\x00\x00\x00\x00\x00\x00\x8f0\x8f\x18\x8ax#@\x00\x00\x00\x00\x00\x00\x00\x00\x8f0\x8f\x18\x8ax#@\x00\x00\x00\x00\x00\x00\x00\x00\x8e\xe1\xce\xe55R$@\x00\x00\x00\x00\x00\x00\x00\x00\x8e\xe1\xce\xe55R$@\x00\x00\x00\x00\x00\x00\x00\x00\x8d\x92\x0e\xb3\xe1+%@\x00\x00\x00\x00\x00\x00\x00\x00\x8d\x92\x0e\xb3\xe1+%@\x00\x00\x00\x00\x00\x00\x00\x00\x8cCN\x80\x8d\x05&@\x00\x00\x00\x00\x00\x00\x00\x00\x8cCN\x80\x8d\x05&@\x00\x00\x00\x00\x00\x00\x00\x00\x8c\xf4\x8dM9\xdf&@\x00\x00\x00\x00\x00\x00\x00\x00\x8c\xf4\x8dM9\xdf&@\x00\x00\x00\x00\x00\x00\x00\x00\x8b\xa5\xcd\x1a\xe5\xb8\'@\x00\x00\x00\x00\x00\x00\x00\x00\x8b\xa5\xcd\x1a\xe5\xb8\'@\x00\x00\x00\x00\x00\x00\x00\x00\x8aV\r\xe8\x90\x92(@\x00\x00\x00\x00\x00\x00\x00\x00\x8aV\r\xe8\x90\x92(@\x00\x00\x00\x00\x00\x00\x00\x00'
p2455
tp2456
bsS'_readonly'
p2457
I00
sS'_simplify_threshold'
p2458
F0.1111111111111111
sS'_interpolation_steps'
p2459
I1
sS'_has_nonfinite'
p2460
I00
sbsbag0
(g2422
g2
Ntp2461
Rp2462
(dp2463
g6
g2006
sg8
I01
sg1914
I00
sg9
g4
sg2426
I00
sg10
Nsg35
Nsg17
g18
sg1915
Nsg20
I01
sg1916
g0
(g217
g2
Ntp2464
Rp2465
(dp2466
g46
I1
sg47
Nsg64
g7
sg65
(dp2467
sbsg1921
g2023
sg23
Nsg24
Nsg1937
g49
(g50
(I0
tp2468
g52
tp2469
Rp2470
(I1
(I4
tp2471
g59
I00
S'\x00\x00\x00\x00\x00\x00\xf0?\x00\x00\x00\x00\x00\x00\x00\x00\x00\x00\x00\x00\x00\x00\x00\x00\x00\x00\x00\x00\x00\x00\xf0?'
p2472
tp2473
bsg11
Nsg28
I00
sg29
I00
sg30
(dp2474
sg32
I00
sg1944
Nsg1829
I01
sg1945
F1.0
sg36
g1366
sg33
Nsg1947
g2023
sg1948
Nsg1949
I01
sg1950
Nsg1951
g2470
sg1827
Nsg1952
g2038
sg1963
g1964
sg1965
g1966
sg1831
g0
(g1832
g1833
((lp2475
(lp2476
I0
atp2477
tp2478
Rp2479
sg1839
I0
sg1845
I01
sg1846
Nsg99
g657
sg1997
g2068
sg1999
g2000
sg2001
Nsg25
Nsg2002
g1888
sg34
Nsg2443
g0
(g2444
g2
Ntp2480
Rp2481
(dp2482
g2448
I00
sg2449
Nsg2450
g49
(g50
(I0
tp2483
g52
tp2484
Rp2485
(I1
(I60
I2
tp2486
g59
I00
S'\xad_\xb6)X\xe5\xa5\xbf\x00\x00\x00\x00\x00\x00\x00\x00\xad_\xb6)X\xe5\xa5\xbf\x00\x00\x00\x00\x00\x00\x14@\xf2S\xbf\xa2\xcex\xd8?\x00\x00\x00\x00\x00\x00\x14@\xf2S\xbf\xa2\xcex\xd8?\x00\x00\x00\x00\x00\x00,@\xed\xb9Z%$\xd7\xe9?\x00\x00\x00\x00\x00\x00,@\xed\xb9Z%$\xd7\xe9?\x00\x00\x00\x00\x00\x80D@\xf1\xe4\xaa|\xf0\xb8\xf3?\x00\x00\x00\x00\x00\x80D@\xf1\xe4\xaa|\xf0\xb8\xf3?\x00\x00\x00\x00\x00\x00B@\xebl\xa8\xe6N\x86\xfa?\x00\x00\x00\x00\x00\x00B@\xebl\xa8\xe6N\x86\xfa?\x00\x00\x00\x00\x00\x00A@r\xfaR\xa8\xd6\xa9\x00@\x00\x00\x00\x00\x00\x00A@r\xfaR\xa8\xd6\xa9\x00@\x00\x00\x00\x00\x00\x00B@o\xbeQ\xdd\x85\x10\x04@\x00\x00\x00\x00\x00\x00B@o\xbeQ\xdd\x85\x10\x04@\x00\x00\x00\x00\x00\x00B@l\x82P\x125w\x07@\x00\x00\x00\x00\x00\x00B@l\x82P\x125w\x07@\x00\x00\x00\x00\x00\x80F@iFOG\xe4\xdd\n@\x00\x00\x00\x00\x00\x80F@iFOG\xe4\xdd\n@\x00\x00\x00\x00\x00\x00?@f\nN|\x93D\x0e@\x00\x00\x00\x00\x00\x00?@f\nN|\x93D\x0e@\x00\x00\x00\x00\x00\x00:@2g\xa6X\xa1\xd5\x10@\x00\x00\x00\x00\x00\x00:@2g\xa6X\xa1\xd5\x10@\x00\x00\x00\x00\x00\x003@1\xc9%\xf3\xf8\x88\x12@\x00\x00\x00\x00\x00\x003@1\xc9%\xf3\xf8\x88\x12@\x00\x00\x00\x00\x00\x00$@/+\xa5\x8dP<\x14@\x00\x00\x00\x00\x00\x00$@/+\xa5\x8dP<\x14@\x00\x00\x00\x00\x00\x00(@-\x8d$(\xa8\xef\x15@\x00\x00\x00\x00\x00\x00(@-\x8d$(\xa8\xef\x15@\x00\x00\x00\x00\x00\x007@,\xef\xa3\xc2\xff\xa2\x17@\x00\x00\x00\x00\x00\x007@,\xef\xa3\xc2\xff\xa2\x17@\x00\x00\x00\x00\x00\x00"@+Q#]WV\x19@\x00\x00\x00\x00\x00\x00"@+Q#]WV\x19@\x00\x00\x00\x00\x00\x00 @)\xb3\xa2\xf7\xae\t\x1b@\x00\x00\x00\x00\x00\x00 @)\xb3\xa2\xf7\xae\t\x1b@\x00\x00\x00\x00\x00\x00\x1c@\'\x15"\x92\x06\xbd\x1c@\x00\x00\x00\x00\x00\x00\x1c@\'\x15"\x92\x06\xbd\x1c@\x00\x00\x00\x00\x00\x00 @&w\xa1,^p\x1e@\x00\x00\x00\x00\x00\x00 @&w\xa1,^p\x1e@\x00\x00\x00\x00\x00\x00\x18@\x92l\x90\xe3\xda\x11 @\x00\x00\x00\x00\x00\x00\x18@\x92l\x90\xe3\xda\x11 @\x00\x00\x00\x00\x00\x00\x00@\x91\x1d\xd0\xb0\x86\xeb @\x00\x00\x00\x00\x00\x00\x00@\x91\x1d\xd0\xb0\x86\xeb @\x00\x00\x00\x00\x00\x00\x10@\x90\xce\x0f~2\xc5!@\x00\x00\x00\x00\x00\x00\x10@\x90\xce\x0f~2\xc5!@\x00\x00\x00\x00\x00\x00\x1c@\x90\x7fOK\xde\x9e"@\x00\x00\x00\x00\x00\x00\x1c@\x90\x7fOK\xde\x9e"@\x00\x00\x00\x00\x00\x00\x14@\x8f0\x8f\x18\x8ax#@\x00\x00\x00\x00\x00\x00\x14@\x8f0\x8f\x18\x8ax#@\x00\x00\x00\x00\x00\x00\x00@\x8e\xe1\xce\xe55R$@\x00\x00\x00\x00\x00\x00\x00@\x8e\xe1\xce\xe55R$@\x00\x00\x00\x00\x00\x00\x00@\x8d\x92\x0e\xb3\xe1+%@\x00\x00\x00\x00\x00\x00\x00@\x8d\x92\x0e\xb3\xe1+%@\x00\x00\x00\x00\x00\x00\xf0?\x8cCN\x80\x8d\x05&@\x00\x00\x00\x00\x00\x00\xf0?\x8cCN\x80\x8d\x05&@\x00\x00\x00\x00\x00\x00\x00\x00\x8c\xf4\x8dM9\xdf&@\x00\x00\x00\x00\x00\x00\x00\x00\x8c\xf4\x8dM9\xdf&@\x00\x00\x00\x00\x00\x00\x00\x00\x8b\xa5\xcd\x1a\xe5\xb8\'@\x00\x00\x00\x00\x00\x00\x00\x00\x8b\xa5\xcd\x1a\xe5\xb8\'@\x00\x00\x00\x00\x00\x00\x08@\x8aV\r\xe8\x90\x92(@\x00\x00\x00\x00\x00\x00\x08@\x8aV\r\xe8\x90\x92(@\x00\x00\x00\x00\x00\x00\x00\x00'
p2487
tp2488
bsg2457
I00
sg2458
F0.1111111111111111
sg2459
I1
sg2460
I00
sbsbasS'title'
p2489
g0
(g2076
g2
Ntp2490
Rp2491
(dp2492
g6
g7
sg8
I01
sg9
g4
sg10
Nsg2080
g0
(g2081
g2
Ntp2493
Rp2494
(dp2495
g2085
(lp2496
g2087
asg2088
Nsg2089
g2090
sg2091
g2090
sg2092
F12.0
sg2093
g2090
sg2094
g2090
sbsg35
Nsg17
g18
sg2095
Nsg20
I01
sg23
Nsg216
F1.0
sg222
F0.5
sg24
Nsg25
Nsg11
Nsg28
I00
sg29
I00
sg30
(dp2497
sg2097
Nsg32
I00
sg2002
g1888
sg36
Nsg2001
Nsg2098
Nsg33
Nsg1827
Nsg1829
I01
sg2099
Vbaseline
p2498
sg2101
V
p2499
sg2103
Nsg1831
g0
(g1832
g1833
((lp2500
(lp2501
tp2502
tp2503
Rp2504
sg1839
I0
sg2109
Nsg1845
I01
sg1846
Nsg2110
F1.2
sg99
g1025
sg2135
I00
sg2136
I00
sg1915
Nsg2137
g2138
sg2139
Vcenter
p2505
sg34
NsbsS'_current_image'
p2506
NsS'mouseover_set'
p2507
c__builtin__
set
p2508
((lp2509
tp2510
Rp2511
sg11
NsS'numRows'
p2512
I1
sS'collections'
p2513
(lp2514
sg2002
g1888
sg30
(dp2515
sg32
I00
sS'containers'
p2516
(lp2517
sg29
I00
sg36
NsS'_get_lines'
p2518
g0
(g1892
g2
Ntp2519
Rp2520
(dp2521
g1896
g1888
sg1897
Vplot
p2522
sbsS'_aspect'
p2523
Vauto
p2524
sS'fmt_xdata'
p2525
Nsg1820
g0
(g1821
g2
Ntp2526
Rp2527
(dp2528
g1825
g1826
sbsg1827
Nsg1952
g2359
sg1829
I01
sg1830
g108
sS'ignore_existing_data_limits'
p2529
I00
sg24
Nsg1839
I0
sg1845
I00
sS'_left_title'
p2530
g0
(g2076
g2
Ntp2531
Rp2532
(dp2533
g6
g7
sg8
I01
sg9
g4
sg10
Nsg2080
g0
(g2081
g2
Ntp2534
Rp2535
(dp2536
g2085
g2496
sg2088
Nsg2089
g2090
sg2091
g2090
sg2092
F12.0
sg2093
g2090
sg2094
g2090
sbsg35
Nsg17
g18
sg2095
Nsg20
I01
sg23
Nsg216
F1.0
sg222
F0.0
sg24
Nsg25
Nsg11
Nsg28
I00
sg29
I00
sg30
(dp2537
sg2097
Nsg32
I00
sg2002
g1888
sg36
Nsg2001
Nsg2098
Nsg33
Nsg1827
Nsg1829
I01
sg2099
Vbaseline
p2538
sg2101
V
p2539
sg2103
Nsg1831
g0
(g1832
g1833
((lp2540
(lp2541
tp2542
tp2543
Rp2544
sg1839
I0
sg2109
Nsg1845
I01
sg1846
Nsg2110
F1.2
sg99
g1017
sg2135
I00
sg2136
I00
sg1915
Nsg2137
g2138
sg2139
Vleft
p2545
sg34
NsbsS'_right_title'
p2546
g0
(g2076
g2
Ntp2547
Rp2548
(dp2549
g6
g7
sg8
I01
sg9
g4
sg10
Nsg2080
g0
(g2081
g2
Ntp2550
Rp2551
(dp2552
g2085
g2496
sg2088
Nsg2089
g2090
sg2091
g2090
sg2092
F12.0
sg2093
g2090
sg2094
g2090
sbsg35
Nsg17
g18
sg2095
Nsg20
I01
sg23
Nsg216
F1.0
sg222
F1.0
sg24
Nsg25
Nsg11
Nsg28
I00
sg29
I00
sg30
(dp2553
sg2097
Nsg32
I00
sg2002
g1888
sg36
Nsg2001
Nsg2098
Nsg33
Nsg1827
Nsg1829
I01
sg2099
g2538
sg2101
V
p2554
sg2103
Nsg1831
g0
(g1832
g1833
((lp2555
(lp2556
tp2557
tp2558
Rp2559
sg1839
I0
sg2109
Nsg1845
I01
sg1846
Nsg2110
F1.2
sg99
g1029
sg2135
I00
sg2136
I00
sg1915
Nsg2137
g2138
sg2139
Vright
p2560
sg34
NsbsS'transScale'
p2561
g661
sg99
NsS'axison'
p2562
I01
sS'patch'
p2563
g0
(g1908
g2
Ntp2564
Rp2565
(dp2566
g6
g7
sg1913
F1.0
sg1914
I01
sg9
g4
sg8
I01
sg10
Nsg35
Nsg17
g18
sg1915
Nsg20
I01
sg1916
g0
(g217
g2
Ntp2567
Rp2568
(dp2569
g46
I1
sg47
Nsg64
g7
sg65
(dp2570
sbsg1921
(F0.0
F0.0
F0.0
F0.0
tp2571
sg1936
F0.0
sg23
Nsg216
F0.0
sg222
F0.0
sg24
Nsg1937
VNone
p2572
sg11
Nsg28
I00
sg29
I00
sg30
(dp2573
sg1939
g1325
sg32
I00
sg1944
Nsg1829
I01
sg1945
F0.0
sg36
Nsg1946
F1.0
sg33
Nsg1947
g2571
sg1948
Nsg1949
I01
sg1950
Nsg1951
g2359
sg1827
Nsg1952
(F1.0
F1.0
F1.0
F1.0
tp2574
sg1963
g1964
sg1965
g1966
sg1831
g0
(g1832
g1833
((lp2575
(lp2576
tp2577
tp2578
Rp2579
sg1839
I0
sg1845
I01
sg1846
Nsg99
g134
sg1997
(NNtp2580
sg1999
g2000
sg2001
Nsg25
Nsg2002
Nsg34
NsbsS'viewLim'
p2581
g670
sg17
g18
sS'_subplotspec'
p2582
g1857
sS'_adjustable'
p2583
Vbox
p2584
sg9
g4
sS'titleOffsetTrans'
p2585
g1020
sS'_yaxis_transform'
p2586
g724
sS'_gridOn'
p2587
I00
sg10
NsS'colNum'
p2588
I0
sg35
Nsg38
(lp2589
sS'_autoscaleXon'
p2590
I01
sS'_xmargin'
p2591
F0.05
sS'rowNum'
p2592
I0
sS'_position'
p2593
g111
sS'_rasterization_zorder'
p2594
NsS'_cachedRenderer'
p2595
NsS'_navigate'
p2596
I01
sg23
NsS'_originalPosition'
p2597
g0
(g72
g2
Ntp2598
Rp2599
(dp2600
g46
I1
sg76
g49
(g50
(I0
tp2601
g52
tp2602
Rp2603
(I1
(I2
tp2604
g59
I00
S'\x00\x00\x00\x00\x00\x00\xf0\x7f\x00\x00\x00\x00\x00\x00\xf0\x7f'
p2605
tp2606
bsg65
(dp2607
sg84
g49
(g50
(I0
tp2608
g52
tp2609
Rp2610
(I1
(I2
I2
tp2611
g59
I00
S'\x00\x00\x00\x00\x00\x00\xc0?\x00\x00\x00\x00\x00\x00\xc0?\xcd\xcc\xcc\xcc\xcc\xcc\xec?)\\\x8f\xc2\xf5(\xec?'
p2612
tp2613
bsg91
g49
(g50
(I0
tp2614
g52
tp2615
Rp2616
(I1
(I2
I2
tp2617
g59
I00
S'\x00\x00\x00\x00\x00\x00\xc0?\x00\x00\x00\x00\x00\x00\xc0?\xcd\xcc\xcc\xcc\xcc\xcc\xec?)\\\x8f\xc2\xf5(\xec?'
p2618
tp2619
bsg98
I01
sg64
g7
sbsg25
NsS'_xaxis_transform'
p2620
g654
sg28
I00
sS'figbox'
p2621
g111
sS'xaxis'
p2622
g0
(cmatplotlib.axis
XAxis
p2623
g2
Ntp2624
Rp2625
(dp2626
g6
g7
sS'major'
p2627
g0
(cmatplotlib.axis
Ticker
p2628
g2
Ntp2629
Rp2630
(dp2631
S'locator'
p2632
g0
(cmatplotlib.ticker
AutoLocator
p2633
g2
Ntp2634
Rp2635
(dp2636
S'_min_n_ticks'
p2637
I2
sS'_symmetric'
p2638
I00
sS'_nbins'
p2639
Vauto
p2640
sS'_steps'
p2641
g49
(g50
(I0
tp2642
g52
tp2643
Rp2644
(I1
(I5
tp2645
g59
I00
S'\x00\x00\x00\x00\x00\x00\xf0?\x00\x00\x00\x00\x00\x00\x00@\x00\x00\x00\x00\x00\x00\x04@\x00\x00\x00\x00\x00\x00\x14@\x00\x00\x00\x00\x00\x00$@'
p2646
tp2647
bsS'_prune'
p2648
NsS'_extended_steps'
p2649
g49
(g50
(I0
tp2650
g52
tp2651
Rp2652
(I1
(I10
tp2653
g59
I00
S'\x9a\x99\x99\x99\x99\x99\xb9?\x9a\x99\x99\x99\x99\x99\xc9?\x00\x00\x00\x00\x00\x00\xd0?\x00\x00\x00\x00\x00\x00\xe0?\x00\x00\x00\x00\x00\x00\xf0?\x00\x00\x00\x00\x00\x00\x00@\x00\x00\x00\x00\x00\x00\x04@\x00\x00\x00\x00\x00\x00\x14@\x00\x00\x00\x00\x00\x00$@\x00\x00\x00\x00\x00\x004@'
p2654
tp2655
bsS'_integer'
p2656
I00
sS'axis'
p2657
g2625
sbsS'formatter'
p2658
g0
(cmatplotlib.ticker
ScalarFormatter
p2659
g2
Ntp2660
Rp2661
(dp2662
S'_powerlimits'
p2663
(lp2664
I-7
aI7
asS'orderOfMagnitude'
p2665
I0
sS'_useOffset'
p2666
I01
sS'_useLocale'
p2667
I00
sS'format'
p2668
g7
sS'_useMathText'
p2669
I00
sS'_offset_threshold'
p2670
I4
sS'offset'
p2671
I0
sg2135
I00
sS'_scientific'
p2672
I01
sg2657
g2625
sbsbsS'isDefault_label'
p2673
I00
sS'_scale'
p2674
g0
(cmatplotlib.scale
LinearScale
p2675
g2
Ntp2676
Rp2677
sg9
g4
sg8
I01
sS'_gridOnMinor'
p2678
I00
sg10
Nsg35
NsS'_smart_bounds'
p2679
I00
sg17
g18
sg20
I01
sg23
NsS'offsetText'
p2680
g0
(g2076
g2
Ntp2681
Rp2682
(dp2683
g6
g7
sg8
I01
sg9
g4
sg10
Nsg2080
g0
(g2081
g2
Ntp2684
Rp2685
(dp2686
g2085
(lp2687
g2087
asg2088
Nsg2089
g2090
sg2091
g2090
sg2092
F8.0
sg2093
g2090
sg2094
g2090
sbsg35
Nsg17
g18
sg2095
Nsg20
I01
sg23
Nsg216
I0
sg222
I1
sg24
Nsg25
Nsg11
Nsg28
I00
sg29
I00
sg30
(dp2688
sg2097
Nsg32
I00
sg2002
Nsg36
Nsg2001
Nsg2098
Nsg33
Nsg1827
Nsg1829
I01
sg2099
Vtop
p2689
sg2101
V
p2690
sg2103
Nsg1831
g0
(g1832
g1833
((lp2691
(lp2692
tp2693
tp2694
Rp2695
sg1839
I0
sg2109
Nsg1845
I01
sg1846
Nsg2110
F1.2
sg99
g1104
sg2135
I00
sg2136
I00
sg1915
Nsg2137
V0.
p2696
sg2139
Vright
p2697
sg34
Nsbsg24
Nsg25
Nsg11
NsS'label'
p2698
g0
(g2076
g2
Ntp2699
Rp2700
(dp2701
g6
g7
sg8
I01
sg9
g4
sg10
Nsg2080
g0
(g2081
g2
Ntp2702
Rp2703
(dp2704
g2085
(lp2705
g2087
asg2088
Nsg2089
g2090
sg2091
g2090
sg2092
F10.0
sg2093
g2090
sg2094
g2090
sbsg35
Nsg17
g18
sg2095
Nsg20
I01
sg23
Nsg216
I0
sg222
F0.5
sg24
Nsg25
Nsg11
Nsg28
I00
sg29
I00
sg30
(dp2706
sg2097
Nsg32
I00
sg2002
Nsg36
Nsg2001
Nsg2098
Nsg33
Nsg1827
Nsg1829
I01
sg2099
Vtop
p2707
sg2101
VPSP Amplitude (mV)
p2708
sg2103
Nsg1831
g0
(g1832
g1833
((lp2709
(lp2710
tp2711
tp2712
Rp2713
sg1839
I0
sg2109
Nsg1845
I01
sg1846
Nsg2110
F1.2
sg99
g214
sg2135
I00
sg2136
I00
sg1915
Nsg2137
V0.
p2714
sg2139
Vcenter
p2715
sg34
Nsbsg28
I00
sS'isDefault_majfmt'
p2716
I01
sg29
I00
sg30
(dp2717
sS'units'
p2718
Nsg32
I00
sS'minor'
p2719
g0
(g2628
g2
Ntp2720
Rp2721
(dp2722
g2632
g0
(cmatplotlib.ticker
NullLocator
p2723
g2
Ntp2724
Rp2725
(dp2726
g2657
g2625
sbsg2658
g0
(cmatplotlib.ticker
NullFormatter
p2727
g2
Ntp2728
Rp2729
(dp2730
g2657
g2625
sbsbsg2002
g1888
sS'_major_tick_kw'
p2731
(dp2732
Vlabel1On
p2733
I01
sVgridOn
p2734
I00
sVlabel2On
p2735
I00
sVtick1On
p2736
I01
sVtick2On
p2737
I00
ssS'isDefault_minloc'
p2738
I01
sg36
g557
sg33
NsS'_gridOnMajor'
p2739
I00
sS'_lastNumMinorTicks'
p2740
I1
sS'labelpad'
p2741
F4.0
sS'majorTicks'
p2742
(lp2743
g0
(cmatplotlib.axis
XTick
p2744
g2
Ntp2745
Rp2746
(dp2747
g6
g7
sg1913
F0.8
sg9
g4
sS'tick1On'
p2748
I01
sg8
I01
sg10
Nsg1839
I0
sg35
NsS'_pad'
p2749
F3.5
sS'_labelcolor'
p2750
g2696
sS'gridOn'
p2751
I00
sg2092
F0.0
sg17
g18
sS'_tickdir'
p2752
Vout
p2753
sg2698
g0
(g2076
g2
Ntp2754
Rp2755
(dp2756
g6
g7
sg8
I01
sg9
g4
sg10
Nsg2080
g0
(g2081
g2
Ntp2757
Rp2758
(dp2759
g2085
(lp2760
g2087
asg2088
Nsg2089
g2090
sg2091
g2090
sg2092
F8.0
sg2093
g2090
sg2094
g2090
sbsg35
Nsg17
g18
sg2095
Nsg20
I01
sg23
Nsg216
I0
sg222
I0
sg24
Nsg25
Nsg11
Nsg28
I00
sg29
I00
sg30
(dp2761
sg2097
Nsg32
I00
sg2002
Nsg36
Nsg2001
Nsg2098
Nsg33
Nsg1827
Nsg1829
I01
sg2099
Vtop
p2762
sg2101
V
p2763
sg2103
Nsg1831
g0
(g1832
g1833
((lp2764
(lp2765
tp2766
tp2767
Rp2768
sg1839
I0
sg2109
Nsg1845
I01
sg1846
Nsg2110
F1.2
sg99
g832
sg2135
I00
sg2136
I00
sg1915
Nsg2137
g2696
sg2139
Vcenter
p2769
sg34
Nsbsg20
I01
sg23
NsS'label2On'
p2770
I00
sg24
Nsg25
Nsg11
NsS'tick2On'
p2771
I00
sg28
I00
sg29
I00
sg30
(dp2772
sS'_tickmarkers'
p2773
(I3
I2
tp2774
sg32
I00
sS'_zorder'
p2775
F2.01
sg2002
g1888
sS'label1On'
p2776
I01
sg36
g417
sg2001
NsS'label1'
p2777
g2755
sS'label2'
p2778
g0
(g2076
g2
Ntp2779
Rp2780
(dp2781
g6
g7
sg8
I01
sg9
g4
sg10
Nsg2080
g0
(g2081
g2
Ntp2782
Rp2783
(dp2784
g2085
(lp2785
g2087
asg2088
Nsg2089
g2090
sg2091
g2090
sg2092
F8.0
sg2093
g2090
sg2094
g2090
sbsg35
Nsg17
g18
sg2095
Nsg20
I01
sg23
Nsg216
I1
sg222
I0
sg24
Nsg25
Nsg11
Nsg28
I00
sg29
I00
sg30
(dp2786
sg2097
Nsg32
I00
sg2002
Nsg36
Nsg2001
Nsg2098
Nsg33
Nsg1827
Nsg1829
I01
sg2099
Vbottom
p2787
sg2101
V
p2788
sg2103
Nsg1831
g0
(g1832
g1833
((lp2789
(lp2790
tp2791
tp2792
Rp2793
sg1839
I0
sg2109
Nsg1845
I01
sg1846
Nsg2110
F1.2
sg99
g859
sg2135
I00
sg2136
I00
sg1915
Nsg2137
g2696
sg2139
g2769
sg34
Nsbsg1827
NsS'_loc'
p2794
I0
sg1829
I01
sg1831
g0
(g1832
g1833
((lp2795
(lp2796
tp2797
tp2798
Rp2799
sS'_base_pad'
p2800
F3.5
sS'tick1line'
p2801
g0
(cmatplotlib.lines
Line2D
p2802
g2
Ntp2803
Rp2804
(dp2805
g6
g7
sS'_dashcapstyle'
p2806
Vbutt
p2807
sS'_linestyles'
p2808
Nsg20
I01
sS'_x_filled'
p2809
NsS'ind_offset'
p2810
I0
sg216
Nsg222
Nsg24
Nsg11
Nsg29
I00
sg30
(dp2811
sg32
I00
sg2002
NsS'_markeredgewidth'
p2812
F0.8
sS'_dashSeq'
p2813
NsS'_markerfacecoloralt'
p2814
Vnone
p2815
sS'_markeredgecolor'
p2816
Vauto
p2817
sg1827
Nsg1829
I01
sS'_xorig'
p2818
(I0
tp2819
sg1839
I0
sg1845
I01
sS'_invalidy'
p2820
I01
sS'_invalidx'
p2821
I01
sg99
g654
sS'_us_dashSeq'
p2822
NsS'zorder'
p2823
F2.01
sg2137
g2696
sS'pickradius'
p2824
I5
sg9
g4
sS'verticalOffset'
p2825
Nsg10
Nsg35
Nsg17
g18
sS'_solidjoinstyle'
p2826
Vround
p2827
sg23
Nsg25
Nsg28
I00
sS'_markevery'
p2828
Nsg34
NsS'_transformed_path'
p2829
NsS'_marker'
p2830
g0
(cmatplotlib.markers
MarkerStyle
p2831
g2
Ntp2832
Rp2833
(dp2834
g2830
I3
sS'_alt_path'
p2835
NsS'_snap_threshold'
p2836
F1.0
sg99
g0
(g42
g2
Ntp2837
Rp2838
(dp2839
g46
I2
sg47
Nsg48
g49
(g50
(I0
tp2840
g52
tp2841
Rp2842
(I1
(I3
I3
tp2843
g59
I00
S'\x00\x00\x00\x00\x00\x00\xf0?\x00\x00\x00\x00\x00\x00\x00\x00\x00\x00\x00\x00\x00\x00\x00\x00\x00\x00\x00\x00\x00\x00\x00\x00\x00\x00\x00\x00\x00\x00\xf0\xbf\x00\x00\x00\x00\x00\x00\x00\x00\x00\x00\x00\x00\x00\x00\x00\x00\x00\x00\x00\x00\x00\x00\x00\x00\x00\x00\x00\x00\x00\x00\xf0?'
p2844
tp2845
bsg64
g7
sg65
(dp2846
sbsS'_filled'
p2847
I00
sS'_fillstyle'
p2848
Vfull
p2849
sS'_alt_transform'
p2850
Nsg1999
Vbutt
p2851
sg1963
Vround
p2852
sg2443
g0
(g2444
g2
Ntp2853
Rp2854
(dp2855
g2448
I00
sg2449
Nsg2450
g49
(g50
(I0
tp2856
g52
tp2857
Rp2858
(I1
(I2
I2
tp2859
g59
I00
S'\x00\x00\x00\x00\x00\x00\x00\x80\x00\x00\x00\x00\x00\x00\x00\x00\x00\x00\x00\x00\x00\x00\x00\x80\x00\x00\x00\x00\x00\x00\xf0?'
p2860
tp2861
bsg2457
I00
sg2458
F0.1111111111111111
sg2459
I1
sg2460
I00
sbsbsS'_markerfacecolor'
p2862
Vauto
p2863
sg36
Nsg33
Nsg1949
I01
sS'_xy'
p2864
Nsg1965
VNone
p2865
sg1831
g0
(g1832
g1833
((lp2866
(lp2867
tp2868
tp2869
Rp2870
sS'_subslice'
p2871
I00
sS'_drawstyle'
p2872
Vdefault
p2873
sS'_solidcapstyle'
p2874
g2827
sS'_us_dashOffset'
p2875
Nsg1846
NsS'_dashjoinstyle'
p2876
g2827
sS'_markersize'
p2877
F0.0
sg8
I01
sS'_dashOffset'
p2878
Nsg1915
Nsg2001
NsS'_yorig'
p2879
(I0
tp2880
sg1945
F0.5
sg2443
Nsbsg1845
I00
sS'gridline'
p2881
g0
(g2802
g2
Ntp2882
Rp2883
(dp2884
g6
g7
sg8
I01
sg2874
g2827
sg9
g4
sg2806
g2807
sg2808
Nsg10
Nsg35
Nsg17
g18
sg2826
g2827
sg20
I01
sg2809
Nsg23
Nsg216
g49
(g50
(I0
tp2885
g52
tp2886
Rp2887
(I1
(I2
tp2888
g59
I00
S'\x00\x00\x00\x00\x00\x00\x00\x00\x00\x00\x00\x00\x00\x00\xf0?'
p2889
tp2890
bsg222
g49
(g50
(I0
tp2891
g52
tp2892
Rp2893
(I1
(I2
tp2894
g59
I00
S'\x00\x00\x00\x00\x00\x00\x00\x00\x00\x00\x00\x00\x00\x00\x00\x00'
p2895
tp2896
bsg24
Nsg25
Nsg11
Nsg2818
(F0.0
F0.0
tp2897
sg28
I00
sg2828
Nsg29
I00
sg30
(dp2898
sg2825
Nsg32
I00
sg2871
I00
sg2002
Nsg2829
Nsg2812
F1.0
sg2862
g2863
sg2813
Nsg2137
V.8
p2899
sg2830
g0
(g2831
g2
Ntp2900
Rp2901
(dp2902
g2830
VNone
p2903
sg2835
Nsg2836
Nsg99
g0
(g217
g2
Ntp2904
Rp2905
(dp2906
g46
I1
sg47
Nsg64
g7
sg65
(dp2907
sbsg2847
I00
sg2848
g2849
sg2850
Nsg1999
g2851
sg1963
g2852
sg2443
g0
(g2444
g2
Ntp2908
Rp2909
(dp2910
g2448
I00
sg2449
Nsg2450
g49
(g50
(I0
tp2911
g52
tp2912
Rp2913
(I1
(I0
I2
tp2914
g59
I00
S''
p2915
tp2916
bsg2457
I00
sg2458
F0.1111111111111111
sg2459
I1
sg2460
I00
sbsbsg33
Nsg2814
g2815
sg1949
I01
sg2816
g2817
sg1827
Nsg2877
F0.0
sg1829
I01
sg2864
g49
(g50
(I0
tp2917
g52
tp2918
Rp2919
(I1
(I2
I2
tp2920
g59
I00
S'\x00\x00\x00\x00\x00\x00\x00\x00\x00\x00\x00\x00\x00\x00\x00\x00\x00\x00\x00\x00\x00\x00\x00\x00\x00\x00\x00\x00\x00\x00\xf0?'
p2921
tp2922
bsg1965
V-
p2923
sg1831
g0
(g1832
g1833
((lp2924
(lp2925
tp2926
tp2927
Rp2928
sg1839
I0
sg2872
g2873
sg2810
I0
sg2875
Nsg2824
I5
sg1845
I01
sg1846
F1.0
sg2876
g2827
sg2821
I00
sg99
g654
sg2878
Nsg2822
Nsg2820
I00
sg1915
Nsg2001
Nsg2879
(I0
F1.0
tp2929
sg36
g487
sg1945
F0.8
sg34
Nsg2443
g0
(g2444
g2
Ntp2930
Rp2931
(dp2932
g2448
I00
sg2449
Nsg2450
g49
(g50
(I0
tp2933
g52
tp2934
Rp2935
(I1
(I2
I2
tp2936
g59
I01
S'\x00\x00\x00\x00\x00\x00\x00\x00\x00\x00\x00\x00\x00\x00\x00\x00\x00\x00\x00\x00\x00\x00\x00\x00\x00\x00\x00\x00\x00\x00\xf0?'
p2937
tp2938
bsg2457
I00
sg2458
F0.1111111111111111
sg2459
I180
sg2460
I00
sbsbsg1846
Nsg33
NsS'tick2line'
p2939
g0
(g2802
g2
Ntp2940
Rp2941
(dp2942
g6
g7
sg2806
g2807
sg2808
Nsg20
I01
sg2809
Nsg2810
I0
sg216
Nsg222
Nsg24
Nsg11
Nsg29
I00
sg30
(dp2943
sg32
I00
sg2002
Nsg2812
F0.8
sg2813
Nsg2814
g2815
sg2816
g2817
sg1827
Nsg1829
I01
sg2818
(I0
tp2944
sg1839
I0
sg1845
I01
sg2820
I01
sg2821
I01
sg99
g654
sg2822
Nsg2823
F2.01
sg2137
g2696
sg2824
I5
sg9
g4
sg2825
Nsg10
Nsg35
Nsg17
g18
sg2826
g2827
sg23
Nsg25
Nsg28
I00
sg2828
Nsg34
Nsg2829
Nsg2830
g0
(g2831
g2
Ntp2945
Rp2946
(dp2947
g2830
I2
sg2835
Nsg2836
F1.0
sg99
g0
(g42
g2
Ntp2948
Rp2949
(dp2950
g46
I2
sg47
Nsg48
g49
(g50
(I0
tp2951
g52
tp2952
Rp2953
(I1
(I3
I3
tp2954
g59
I00
S'\x00\x00\x00\x00\x00\x00\xf0?\x00\x00\x00\x00\x00\x00\x00\x00\x00\x00\x00\x00\x00\x00\x00\x00\x00\x00\x00\x00\x00\x00\x00\x00\x00\x00\x00\x00\x00\x00\xf0?\x00\x00\x00\x00\x00\x00\x00\x00\x00\x00\x00\x00\x00\x00\x00\x00\x00\x00\x00\x00\x00\x00\x00\x00\x00\x00\x00\x00\x00\x00\xf0?'
p2955
tp2956
bsg64
g7
sg65
(dp2957
sbsg2847
I00
sg2848
g2849
sg2850
Nsg1999
g2851
sg1963
g2852
sg2443
g2854
sbsg2862
g2863
sg36
Nsg33
Nsg1949
I01
sg2864
Nsg1965
VNone
p2958
sg1831
g0
(g1832
g1833
((lp2959
(lp2960
tp2961
tp2962
Rp2963
sg2871
I00
sg2872
g2873
sg2874
g2827
sg2875
Nsg1846
Nsg2876
g2827
sg2877
F0.0
sg8
I01
sg2878
Nsg1915
Nsg2001
Nsg2879
(I1
tp2964
sg1945
F0.5
sg2443
Nsbsg99
NsS'_labelsize'
p2965
F8.0
sS'_name'
p2966
Vxtick
p2967
sS'_labelrotation'
p2968
(Vdefault
p2969
I0
tp2970
sg1915
Nsg2137
g2696
sg34
Nsbag0
(g2744
g2
Ntp2971
Rp2972
(dp2973
g6
g7
sg1913
F0.8
sg9
g4
sg2748
I01
sg8
I01
sg10
Nsg1839
I0
sg35
Nsg2749
F3.5
sg2750
g2696
sg2751
I00
sg2092
F0.0
sg17
g18
sg2752
g2753
sg2698
g0
(g2076
g2
Ntp2974
Rp2975
(dp2976
g6
g7
sg8
I01
sg9
g4
sg10
Nsg2080
g0
(g2081
g2
Ntp2977
Rp2978
(dp2979
g2085
(lp2980
g2087
asg2088
Nsg2089
g2090
sg2091
g2090
sg2092
F8.0
sg2093
g2090
sg2094
g2090
sbsg35
Nsg17
g18
sg2095
Nsg20
I01
sg23
Nsg216
I0
sg222
I0
sg24
Nsg25
Nsg11
Nsg28
I00
sg29
I00
sg30
(dp2981
sg2097
Nsg32
I00
sg2002
Nsg36
Nsg2001
Nsg2098
Nsg33
Nsg1827
Nsg1829
I01
sg2099
g2762
sg2101
V
p2982
sg2103
Nsg1831
g0
(g1832
g1833
((lp2983
(lp2984
tp2985
tp2986
Rp2987
sg1839
I0
sg2109
Nsg1845
I01
sg1846
Nsg2110
F1.2
sg99
g841
sg2135
I00
sg2136
I00
sg1915
Nsg2137
g2696
sg2139
g2769
sg34
Nsbsg20
I01
sg23
Nsg2770
I00
sg24
Nsg25
Nsg11
Nsg2771
I00
sg28
I00
sg29
I00
sg30
(dp2988
sg2773
(I3
I2
tp2989
sg32
I00
sg2775
F2.01
sg2002
g1888
sg2776
I01
sg36
g347
sg2001
Nsg2777
g2975
sg2778
g0
(g2076
g2
Ntp2990
Rp2991
(dp2992
g6
g7
sg8
I01
sg9
g4
sg10
Nsg2080
g0
(g2081
g2
Ntp2993
Rp2994
(dp2995
g2085
(lp2996
g2087
asg2088
Nsg2089
g2090
sg2091
g2090
sg2092
F8.0
sg2093
g2090
sg2094
g2090
sbsg35
Nsg17
g18
sg2095
Nsg20
I01
sg23
Nsg216
I1
sg222
I0
sg24
Nsg25
Nsg11
Nsg28
I00
sg29
I00
sg30
(dp2997
sg2097
Nsg32
I00
sg2002
Nsg36
Nsg2001
Nsg2098
Nsg33
Nsg1827
Nsg1829
I01
sg2099
g2787
sg2101
V
p2998
sg2103
Nsg1831
g0
(g1832
g1833
((lp2999
(lp3000
tp3001
tp3002
Rp3003
sg1839
I0
sg2109
Nsg1845
I01
sg1846
Nsg2110
F1.2
sg99
g823
sg2135
I00
sg2136
I00
sg1915
Nsg2137
g2696
sg2139
g2769
sg34
Nsbsg1827
Nsg2794
I0
sg1829
I01
sg1831
g0
(g1832
g1833
((lp3004
(lp3005
tp3006
tp3007
Rp3008
sg2800
F3.5
sg2801
g0
(g2802
g2
Ntp3009
Rp3010
(dp3011
g6
g7
sg2806
g2807
sg2808
Nsg20
I01
sg2809
Nsg2810
I0
sg216
Nsg222
Nsg24
Nsg11
Nsg29
I00
sg30
(dp3012
sg32
I00
sg2002
Nsg2812
F0.8
sg2813
Nsg2814
g2815
sg2816
g2817
sg1827
Nsg1829
I01
sg2818
(I0
tp3013
sg1839
I0
sg1845
I01
sg2820
I01
sg2821
I01
sg99
g654
sg2822
Nsg2823
F2.01
sg2137
g2696
sg2824
I5
sg9
g4
sg2825
Nsg10
Nsg35
Nsg17
g18
sg2826
g2827
sg23
Nsg25
Nsg28
I00
sg2828
Nsg34
Nsg2829
Nsg2830
g0
(g2831
g2
Ntp3014
Rp3015
(dp3016
g2830
I3
sg2835
Nsg2836
F1.0
sg99
g0
(g42
g2
Ntp3017
Rp3018
(dp3019
g46
I2
sg47
Nsg48
g49
(g50
(I0
tp3020
g52
tp3021
Rp3022
(I1
(I3
I3
tp3023
g59
I00
S'\x00\x00\x00\x00\x00\x00\xf0?\x00\x00\x00\x00\x00\x00\x00\x00\x00\x00\x00\x00\x00\x00\x00\x00\x00\x00\x00\x00\x00\x00\x00\x00\x00\x00\x00\x00\x00\x00\xf0\xbf\x00\x00\x00\x00\x00\x00\x00\x00\x00\x00\x00\x00\x00\x00\x00\x00\x00\x00\x00\x00\x00\x00\x00\x00\x00\x00\x00\x00\x00\x00\xf0?'
p3024
tp3025
bsg64
g7
sg65
(dp3026
sbsg2847
I00
sg2848
g2849
sg2850
Nsg1999
g2851
sg1963
g2852
sg2443
g2854
sbsg2862
g2863
sg36
Nsg33
Nsg1949
I01
sg2864
Nsg1965
g2865
sg1831
g0
(g1832
g1833
((lp3027
(lp3028
tp3029
tp3030
Rp3031
sg2871
I00
sg2872
g2873
sg2874
g2827
sg2875
Nsg1846
Nsg2876
g2827
sg2877
F0.0
sg8
I01
sg2878
Nsg1915
Nsg2001
Nsg2879
g2880
sg1945
F0.5
sg2443
Nsbsg1845
I00
sg2881
g0
(g2802
g2
Ntp3032
Rp3033
(dp3034
g6
g7
sg8
I01
sg2874
g2827
sg9
g4
sg2806
g2807
sg2808
Nsg10
Nsg35
Nsg17
g18
sg2826
g2827
sg20
I01
sg2809
Nsg23
Nsg216
g49
(g50
(I0
tp3035
g52
tp3036
Rp3037
(I1
(I2
tp3038
g59
I00
S'\x00\x00\x00\x00\x00\x00\x00\x00\x00\x00\x00\x00\x00\x00\xf0?'
p3039
tp3040
bsg222
g49
(g50
(I0
tp3041
g52
tp3042
Rp3043
(I1
(I2
tp3044
g59
I00
S'\x00\x00\x00\x00\x00\x00\x00\x00\x00\x00\x00\x00\x00\x00\x00\x00'
p3045
tp3046
bsg24
Nsg25
Nsg11
Nsg2818
g2897
sg28
I00
sg2828
Nsg29
I00
sg30
(dp3047
sg2825
Nsg32
I00
sg2871
I00
sg2002
Nsg2829
Nsg2812
F1.0
sg2862
g2863
sg2813
Nsg2137
g2899
sg2830
g0
(g2831
g2
Ntp3048
Rp3049
(dp3050
g2830
g2903
sg2835
Nsg2836
Nsg99
g0
(g217
g2
Ntp3051
Rp3052
(dp3053
g46
I1
sg47
Nsg64
g7
sg65
(dp3054
sbsg2847
I00
sg2848
g2849
sg2850
Nsg1999
g2851
sg1963
g2852
sg2443
g2909
sbsg33
Nsg2814
g2815
sg1949
I01
sg2816
g2817
sg1827
Nsg2877
F0.0
sg1829
I01
sg2864
g49
(g50
(I0
tp3055
g52
tp3056
Rp3057
(I1
(I2
I2
tp3058
g59
I00
S'\x00\x00\x00\x00\x00\x00\x00\x00\x00\x00\x00\x00\x00\x00\x00\x00\x00\x00\x00\x00\x00\x00\x00\x00\x00\x00\x00\x00\x00\x00\xf0?'
p3059
tp3060
bsg1965
g2923
sg1831
g0
(g1832
g1833
((lp3061
(lp3062
tp3063
tp3064
Rp3065
sg1839
I0
sg2872
g2873
sg2810
I0
sg2875
Nsg2824
I5
sg1845
I01
sg1846
F1.0
sg2876
g2827
sg2821
I00
sg99
g654
sg2878
Nsg2822
Nsg2820
I00
sg1915
Nsg2001
Nsg2879
g2929
sg36
g1296
sg1945
F0.8
sg34
Nsg2443
g0
(g2444
g2
Ntp3066
Rp3067
(dp3068
g2448
I00
sg2449
Nsg2450
g49
(g50
(I0
tp3069
g52
tp3070
Rp3071
(I1
(I2
I2
tp3072
g59
I01
S'\x00\x00\x00\x00\x00\x00\x00\x00\x00\x00\x00\x00\x00\x00\x00\x00\x00\x00\x00\x00\x00\x00\x00\x00\x00\x00\x00\x00\x00\x00\xf0?'
p3073
tp3074
bsg2457
I00
sg2458
F0.1111111111111111
sg2459
I180
sg2460
I00
sbsbsg1846
Nsg33
Nsg2939
g0
(g2802
g2
Ntp3075
Rp3076
(dp3077
g6
g7
sg2806
g2807
sg2808
Nsg20
I01
sg2809
Nsg2810
I0
sg216
Nsg222
Nsg24
Nsg11
Nsg29
I00
sg30
(dp3078
sg32
I00
sg2002
Nsg2812
F0.8
sg2813
Nsg2814
g2815
sg2816
g2817
sg1827
Nsg1829
I01
sg2818
(I0
tp3079
sg1839
I0
sg1845
I01
sg2820
I01
sg2821
I01
sg99
g654
sg2822
Nsg2823
F2.01
sg2137
g2696
sg2824
I5
sg9
g4
sg2825
Nsg10
Nsg35
Nsg17
g18
sg2826
g2827
sg23
Nsg25
Nsg28
I00
sg2828
Nsg34
Nsg2829
Nsg2830
g0
(g2831
g2
Ntp3080
Rp3081
(dp3082
g2830
I2
sg2835
Nsg2836
F1.0
sg99
g0
(g42
g2
Ntp3083
Rp3084
(dp3085
g46
I2
sg47
Nsg48
g49
(g50
(I0
tp3086
g52
tp3087
Rp3088
(I1
(I3
I3
tp3089
g59
I00
S'\x00\x00\x00\x00\x00\x00\xf0?\x00\x00\x00\x00\x00\x00\x00\x00\x00\x00\x00\x00\x00\x00\x00\x00\x00\x00\x00\x00\x00\x00\x00\x00\x00\x00\x00\x00\x00\x00\xf0?\x00\x00\x00\x00\x00\x00\x00\x00\x00\x00\x00\x00\x00\x00\x00\x00\x00\x00\x00\x00\x00\x00\x00\x00\x00\x00\x00\x00\x00\x00\xf0?'
p3090
tp3091
bsg64
g7
sg65
(dp3092
sbsg2847
I00
sg2848
g2849
sg2850
Nsg1999
g2851
sg1963
g2852
sg2443
g2854
sbsg2862
g2863
sg36
Nsg33
Nsg1949
I01
sg2864
Nsg1965
g2958
sg1831
g0
(g1832
g1833
((lp3093
(lp3094
tp3095
tp3096
Rp3097
sg2871
I00
sg2872
g2873
sg2874
g2827
sg2875
Nsg1846
Nsg2876
g2827
sg2877
F0.0
sg8
I01
sg2878
Nsg1915
Nsg2001
Nsg2879
g2964
sg1945
F0.5
sg2443
Nsbsg99
Nsg2965
F8.0
sg2966
g2967
sg2968
(g2969
I0
tp3098
sg1915
Nsg2137
g2696
sg34
NsbasS'isDefault_majloc'
p3099
I01
sg1820
g0
(g1821
g2
Ntp3100
Rp3101
(dp3102
g1825
g1826
sbsg1827
Nsg1829
I01
sS'_autolabelpos'
p3103
I01
sg1831
g0
(g1832
g1833
((lp3104
(lp3105
tp3106
tp3107
Rp3108
sg1839
I0
sS'_lastNumMajorTicks'
p3109
I1
sS'converter'
p3110
Nsg1845
I00
sg1846
NsS'offset_text_position'
p3111
Vbottom
p3112
sg99
NsS'_unit_data'
p3113
NsS'label_position'
p3114
Vbottom
p3115
sg1915
Nsg2001
Nsg2824
I15
sS'minorTicks'
p3116
(lp3117
g0
(g2744
g2
Ntp3118
Rp3119
(dp3120
g6
g7
sg1913
F0.6
sg9
g4
sg2748
I01
sg8
I01
sg10
Nsg1839
I0
sg35
Nsg2749
F3.4
sg2750
g2696
sg2751
I00
sg2092
F0.0
sg17
g18
sg2752
g2753
sg2698
g0
(g2076
g2
Ntp3121
Rp3122
(dp3123
g6
g7
sg8
I01
sg9
g4
sg10
Nsg2080
g0
(g2081
g2
Ntp3124
Rp3125
(dp3126
g2085
(lp3127
g2087
asg2088
Nsg2089
g2090
sg2091
g2090
sg2092
F8.0
sg2093
g2090
sg2094
g2090
sbsg35
Nsg17
g18
sg2095
Nsg20
I01
sg23
Nsg216
I0
sg222
I0
sg24
Nsg25
Nsg11
Nsg28
I00
sg29
I00
sg30
(dp3128
sg2097
Nsg32
I00
sg2002
Nsg36
Nsg2001
Nsg2098
Nsg33
Nsg1827
Nsg1829
I01
sg2099
g2762
sg2101
V
p3129
sg2103
Nsg1831
g0
(g1832
g1833
((lp3130
(lp3131
tp3132
tp3133
Rp3134
sg1839
I0
sg2109
Nsg1845
I01
sg1846
Nsg2110
F1.2
sg99
g850
sg2135
I00
sg2136
I00
sg1915
Nsg2137
g2696
sg2139
g2769
sg34
Nsbsg20
I01
sg23
Nsg2770
I00
sg24
Nsg25
Nsg11
Nsg2771
I00
sg28
I00
sg29
I00
sg30
(dp3135
sg2773
(I3
I2
tp3136
sg32
I00
sg2775
I2
sg2002
g1888
sg2776
I01
sg36
g269
sg2001
Nsg2777
g3122
sg2778
g0
(g2076
g2
Ntp3137
Rp3138
(dp3139
g6
g7
sg8
I01
sg9
g4
sg10
Nsg2080
g0
(g2081
g2
Ntp3140
Rp3141
(dp3142
g2085
(lp3143
g2087
asg2088
Nsg2089
g2090
sg2091
g2090
sg2092
F8.0
sg2093
g2090
sg2094
g2090
sbsg35
Nsg17
g18
sg2095
Nsg20
I01
sg23
Nsg216
I1
sg222
I0
sg24
Nsg25
Nsg11
Nsg28
I00
sg29
I00
sg30
(dp3144
sg2097
Nsg32
I00
sg2002
Nsg36
Nsg2001
Nsg2098
Nsg33
Nsg1827
Nsg1829
I01
sg2099
g2787
sg2101
V
p3145
sg2103
Nsg1831
g0
(g1832
g1833
((lp3146
(lp3147
tp3148
tp3149
Rp3150
sg1839
I0
sg2109
Nsg1845
I01
sg1846
Nsg2110
F1.2
sg99
g805
sg2135
I00
sg2136
I00
sg1915
Nsg2137
g2696
sg2139
g2769
sg34
Nsbsg1827
Nsg2794
I0
sg1829
I01
sg1831
g0
(g1832
g1833
((lp3151
(lp3152
tp3153
tp3154
Rp3155
sg2800
F3.4
sg2801
g0
(g2802
g2
Ntp3156
Rp3157
(dp3158
g6
g7
sg2806
g2807
sg2808
Nsg20
I01
sg2809
Nsg2810
I0
sg216
Nsg222
Nsg24
Nsg11
Nsg29
I00
sg30
(dp3159
sg32
I00
sg2002
Nsg2812
F0.6
sg2813
Nsg2814
g2815
sg2816
g2817
sg1827
Nsg1829
I01
sg2818
(I0
tp3160
sg1839
I0
sg1845
I01
sg2820
I01
sg2821
I01
sg99
g654
sg2822
Nsg2823
I2
sg2137
g2696
sg2824
I5
sg9
g4
sg2825
Nsg10
Nsg35
Nsg17
g18
sg2826
g2827
sg23
Nsg25
Nsg28
I00
sg2828
Nsg34
Nsg2829
Nsg2830
g0
(g2831
g2
Ntp3161
Rp3162
(dp3163
g2830
I3
sg2835
Nsg2836
F1.0
sg99
g0
(g42
g2
Ntp3164
Rp3165
(dp3166
g46
I2
sg47
Nsg48
g49
(g50
(I0
tp3167
g52
tp3168
Rp3169
(I1
(I3
I3
tp3170
g59
I00
S'\x00\x00\x00\x00\x00\x00\xf0?\x00\x00\x00\x00\x00\x00\x00\x00\x00\x00\x00\x00\x00\x00\x00\x00\x00\x00\x00\x00\x00\x00\x00\x00\x00\x00\x00\x00\x00\x00\xf0\xbf\x00\x00\x00\x00\x00\x00\x00\x00\x00\x00\x00\x00\x00\x00\x00\x00\x00\x00\x00\x00\x00\x00\x00\x00\x00\x00\x00\x00\x00\x00\xf0?'
p3171
tp3172
bsg64
g7
sg65
(dp3173
sbsg2847
I00
sg2848
g2849
sg2850
Nsg1999
g2851
sg1963
g2852
sg2443
g2854
sbsg2862
g2863
sg36
Nsg33
Nsg1949
I01
sg2864
Nsg1965
g2865
sg1831
g0
(g1832
g1833
((lp3174
(lp3175
tp3176
tp3177
Rp3178
sg2871
I00
sg2872
g2873
sg2874
g2827
sg2875
Nsg1846
Nsg2876
g2827
sg2877
F0.0
sg8
I01
sg2878
Nsg1915
Nsg2001
Nsg2879
g2880
sg1945
F0.5
sg2443
Nsbsg1845
I00
sg2881
g0
(g2802
g2
Ntp3179
Rp3180
(dp3181
g6
g7
sg8
I01
sg2874
g2827
sg9
g4
sg2806
g2807
sg2808
Nsg10
Nsg35
Nsg17
g18
sg2826
g2827
sg20
I01
sg2809
Nsg23
Nsg216
g49
(g50
(I0
tp3182
g52
tp3183
Rp3184
(I1
(I2
tp3185
g59
I00
S'\x00\x00\x00\x00\x00\x00\x00\x00\x00\x00\x00\x00\x00\x00\xf0?'
p3186
tp3187
bsg222
g49
(g50
(I0
tp3188
g52
tp3189
Rp3190
(I1
(I2
tp3191
g59
I00
S'\x00\x00\x00\x00\x00\x00\x00\x00\x00\x00\x00\x00\x00\x00\x00\x00'
p3192
tp3193
bsg24
Nsg25
Nsg11
Nsg2818
g2897
sg28
I00
sg2828
Nsg29
I00
sg30
(dp3194
sg2825
Nsg32
I00
sg2871
I00
sg2002
Nsg2829
Nsg2812
F1.0
sg2862
g2863
sg2813
Nsg2137
g2899
sg2830
g0
(g2831
g2
Ntp3195
Rp3196
(dp3197
g2830
g2903
sg2835
Nsg2836
Nsg99
g0
(g217
g2
Ntp3198
Rp3199
(dp3200
g46
I1
sg47
Nsg64
g7
sg65
(dp3201
sbsg2847
I00
sg2848
g2849
sg2850
Nsg1999
g2851
sg1963
g2852
sg2443
g2909
sbsg33
Nsg2814
g2815
sg1949
I01
sg2816
g2817
sg1827
Nsg2877
F0.0
sg1829
I01
sg2864
g49
(g50
(I0
tp3202
g52
tp3203
Rp3204
(I1
(I2
I2
tp3205
g59
I00
S'\x00\x00\x00\x00\x00\x00\x00\x00\x00\x00\x00\x00\x00\x00\x00\x00\x00\x00\x00\x00\x00\x00\x00\x00\x00\x00\x00\x00\x00\x00\xf0?'
p3206
tp3207
bsg1965
g2923
sg1831
g0
(g1832
g1833
((lp3208
(lp3209
tp3210
tp3211
Rp3212
sg1839
I0
sg2872
g2873
sg2810
I0
sg2875
Nsg2824
I5
sg1845
I01
sg1846
F1.0
sg2876
g2827
sg2821
I00
sg99
g654
sg2878
Nsg2822
Nsg2820
I00
sg1915
Nsg2001
Nsg2879
g2929
sg36
g1724
sg1945
F0.8
sg34
Nsg2443
g0
(g2444
g2
Ntp3213
Rp3214
(dp3215
g2448
I00
sg2449
Nsg2450
g49
(g50
(I0
tp3216
g52
tp3217
Rp3218
(I1
(I2
I2
tp3219
g59
I01
S'\x00\x00\x00\x00\x00\x00\x00\x00\x00\x00\x00\x00\x00\x00\x00\x00\x00\x00\x00\x00\x00\x00\x00\x00\x00\x00\x00\x00\x00\x00\xf0?'
p3220
tp3221
bsg2457
I00
sg2458
F0.1111111111111111
sg2459
I180
sg2460
I00
sbsbsg1846
Nsg33
Nsg2939
g0
(g2802
g2
Ntp3222
Rp3223
(dp3224
g6
g7
sg2806
g2807
sg2808
Nsg20
I01
sg2809
Nsg2810
I0
sg216
Nsg222
Nsg24
Nsg11
Nsg29
I00
sg30
(dp3225
sg32
I00
sg2002
Nsg2812
F0.6
sg2813
Nsg2814
g2815
sg2816
g2817
sg1827
Nsg1829
I01
sg2818
(I0
tp3226
sg1839
I0
sg1845
I01
sg2820
I01
sg2821
I01
sg99
g654
sg2822
Nsg2823
I2
sg2137
g2696
sg2824
I5
sg9
g4
sg2825
Nsg10
Nsg35
Nsg17
g18
sg2826
g2827
sg23
Nsg25
Nsg28
I00
sg2828
Nsg34
Nsg2829
Nsg2830
g0
(g2831
g2
Ntp3227
Rp3228
(dp3229
g2830
I2
sg2835
Nsg2836
F1.0
sg99
g0
(g42
g2
Ntp3230
Rp3231
(dp3232
g46
I2
sg47
Nsg48
g49
(g50
(I0
tp3233
g52
tp3234
Rp3235
(I1
(I3
I3
tp3236
g59
I00
S'\x00\x00\x00\x00\x00\x00\xf0?\x00\x00\x00\x00\x00\x00\x00\x00\x00\x00\x00\x00\x00\x00\x00\x00\x00\x00\x00\x00\x00\x00\x00\x00\x00\x00\x00\x00\x00\x00\xf0?\x00\x00\x00\x00\x00\x00\x00\x00\x00\x00\x00\x00\x00\x00\x00\x00\x00\x00\x00\x00\x00\x00\x00\x00\x00\x00\x00\x00\x00\x00\xf0?'
p3237
tp3238
bsg64
g7
sg65
(dp3239
sbsg2847
I00
sg2848
g2849
sg2850
Nsg1999
g2851
sg1963
g2852
sg2443
g2854
sbsg2862
g2863
sg36
Nsg33
Nsg1949
I01
sg2864
Nsg1965
g2958
sg1831
g0
(g1832
g1833
((lp3240
(lp3241
tp3242
tp3243
Rp3244
sg2871
I00
sg2872
g2873
sg2874
g2827
sg2875
Nsg1846
Nsg2876
g2827
sg2877
F0.0
sg8
I01
sg2878
Nsg1915
Nsg2001
Nsg2879
g2964
sg1945
F0.5
sg2443
Nsbsg99
Nsg2965
F8.0
sg2966
g2967
sg2968
(g2969
I0
tp3245
sg1915
Nsg2137
g2696
sg34
Nsbag0
(g2744
g2
Ntp3246
Rp3247
(dp3248
g6
g7
sg1913
F0.6
sg9
g4
sg2748
I01
sg8
I01
sg10
Nsg1839
I0
sg35
Nsg2749
F3.4
sg2750
g2696
sg2751
I00
sg2092
F0.0
sg17
g18
sg2752
g2753
sg2698
g0
(g2076
g2
Ntp3249
Rp3250
(dp3251
g6
g7
sg8
I01
sg9
g4
sg10
Nsg2080
g0
(g2081
g2
Ntp3252
Rp3253
(dp3254
g2085
(lp3255
g2087
asg2088
Nsg2089
g2090
sg2091
g2090
sg2092
F8.0
sg2093
g2090
sg2094
g2090
sbsg35
Nsg17
g18
sg2095
Nsg20
I01
sg23
Nsg216
I0
sg222
I0
sg24
Nsg25
Nsg11
Nsg28
I00
sg29
I00
sg30
(dp3256
sg2097
Nsg32
I00
sg2002
Nsg36
Nsg2001
Nsg2098
Nsg33
Nsg1827
Nsg1829
I01
sg2099
g2762
sg2101
V
p3257
sg2103
Nsg1831
g0
(g1832
g1833
((lp3258
(lp3259
tp3260
tp3261
Rp3262
sg1839
I0
sg2109
Nsg1845
I01
sg1846
Nsg2110
F1.2
sg99
g814
sg2135
I00
sg2136
I00
sg1915
Nsg2137
g2696
sg2139
g2769
sg34
Nsbsg20
I01
sg23
Nsg2770
I00
sg24
Nsg25
Nsg11
Nsg2771
I00
sg28
I00
sg29
I00
sg30
(dp3263
sg2773
(I3
I2
tp3264
sg32
I00
sg2775
I2
sg2002
g1888
sg2776
I01
sg36
g921
sg2001
Nsg2777
g3250
sg2778
g0
(g2076
g2
Ntp3265
Rp3266
(dp3267
g6
g7
sg8
I01
sg9
g4
sg10
Nsg2080
g0
(g2081
g2
Ntp3268
Rp3269
(dp3270
g2085
(lp3271
g2087
asg2088
Nsg2089
g2090
sg2091
g2090
sg2092
F8.0
sg2093
g2090
sg2094
g2090
sbsg35
Nsg17
g18
sg2095
Nsg20
I01
sg23
Nsg216
I1
sg222
I0
sg24
Nsg25
Nsg11
Nsg28
I00
sg29
I00
sg30
(dp3272
sg2097
Nsg32
I00
sg2002
Nsg36
Nsg2001
Nsg2098
Nsg33
Nsg1827
Nsg1829
I01
sg2099
g2787
sg2101
V
p3273
sg2103
Nsg1831
g0
(g1832
g1833
((lp3274
(lp3275
tp3276
tp3277
Rp3278
sg1839
I0
sg2109
Nsg1845
I01
sg1846
Nsg2110
F1.2
sg99
g868
sg2135
I00
sg2136
I00
sg1915
Nsg2137
g2696
sg2139
g2769
sg34
Nsbsg1827
Nsg2794
I0
sg1829
I01
sg1831
g0
(g1832
g1833
((lp3279
(lp3280
tp3281
tp3282
Rp3283
sg2800
F3.4
sg2801
g0
(g2802
g2
Ntp3284
Rp3285
(dp3286
g6
g7
sg2806
g2807
sg2808
Nsg20
I01
sg2809
Nsg2810
I0
sg216
Nsg222
Nsg24
Nsg11
Nsg29
I00
sg30
(dp3287
sg32
I00
sg2002
Nsg2812
F0.6
sg2813
Nsg2814
g2815
sg2816
g2817
sg1827
Nsg1829
I01
sg2818
(I0
tp3288
sg1839
I0
sg1845
I01
sg2820
I01
sg2821
I01
sg99
g654
sg2822
Nsg2823
I2
sg2137
g2696
sg2824
I5
sg9
g4
sg2825
Nsg10
Nsg35
Nsg17
g18
sg2826
g2827
sg23
Nsg25
Nsg28
I00
sg2828
Nsg34
Nsg2829
Nsg2830
g0
(g2831
g2
Ntp3289
Rp3290
(dp3291
g2830
I3
sg2835
Nsg2836
F1.0
sg99
g0
(g42
g2
Ntp3292
Rp3293
(dp3294
g46
I2
sg47
Nsg48
g49
(g50
(I0
tp3295
g52
tp3296
Rp3297
(I1
(I3
I3
tp3298
g59
I00
S'\x00\x00\x00\x00\x00\x00\xf0?\x00\x00\x00\x00\x00\x00\x00\x00\x00\x00\x00\x00\x00\x00\x00\x00\x00\x00\x00\x00\x00\x00\x00\x00\x00\x00\x00\x00\x00\x00\xf0\xbf\x00\x00\x00\x00\x00\x00\x00\x00\x00\x00\x00\x00\x00\x00\x00\x00\x00\x00\x00\x00\x00\x00\x00\x00\x00\x00\x00\x00\x00\x00\xf0?'
p3299
tp3300
bsg64
g7
sg65
(dp3301
sbsg2847
I00
sg2848
g2849
sg2850
Nsg1999
g2851
sg1963
g2852
sg2443
g2854
sbsg2862
g2863
sg36
Nsg33
Nsg1949
I01
sg2864
Nsg1965
g2865
sg1831
g0
(g1832
g1833
((lp3302
(lp3303
tp3304
tp3305
Rp3306
sg2871
I00
sg2872
g2873
sg2874
g2827
sg2875
Nsg1846
Nsg2876
g2827
sg2877
F0.0
sg8
I01
sg2878
Nsg1915
Nsg2001
Nsg2879
g2880
sg1945
F0.5
sg2443
Nsbsg1845
I00
sg2881
g0
(g2802
g2
Ntp3307
Rp3308
(dp3309
g6
g7
sg8
I01
sg2874
g2827
sg9
g4
sg2806
g2807
sg2808
Nsg10
Nsg35
Nsg17
g18
sg2826
g2827
sg20
I01
sg2809
Nsg23
Nsg216
g49
(g50
(I0
tp3310
g52
tp3311
Rp3312
(I1
(I2
tp3313
g59
I00
S'\x00\x00\x00\x00\x00\x00\x00\x00\x00\x00\x00\x00\x00\x00\xf0?'
p3314
tp3315
bsg222
g49
(g50
(I0
tp3316
g52
tp3317
Rp3318
(I1
(I2
tp3319
g59
I00
S'\x00\x00\x00\x00\x00\x00\x00\x00\x00\x00\x00\x00\x00\x00\x00\x00'
p3320
tp3321
bsg24
Nsg25
Nsg11
Nsg2818
g2897
sg28
I00
sg2828
Nsg29
I00
sg30
(dp3322
sg2825
Nsg32
I00
sg2871
I00
sg2002
Nsg2829
Nsg2812
F1.0
sg2862
g2863
sg2813
Nsg2137
g2899
sg2830
g0
(g2831
g2
Ntp3323
Rp3324
(dp3325
g2830
g2903
sg2835
Nsg2836
Nsg99
g0
(g217
g2
Ntp3326
Rp3327
(dp3328
g46
I1
sg47
Nsg64
g7
sg65
(dp3329
sbsg2847
I00
sg2848
g2849
sg2850
Nsg1999
g2851
sg1963
g2852
sg2443
g2909
sbsg33
Nsg2814
g2815
sg1949
I01
sg2816
g2817
sg1827
Nsg2877
F0.0
sg1829
I01
sg2864
g49
(g50
(I0
tp3330
g52
tp3331
Rp3332
(I1
(I2
I2
tp3333
g59
I00
S'\x00\x00\x00\x00\x00\x00\x00\x00\x00\x00\x00\x00\x00\x00\x00\x00\x00\x00\x00\x00\x00\x00\x00\x00\x00\x00\x00\x00\x00\x00\xf0?'
p3334
tp3335
bsg1965
g2923
sg1831
g0
(g1832
g1833
((lp3336
(lp3337
tp3338
tp3339
Rp3340
sg1839
I0
sg2872
g2873
sg2810
I0
sg2875
Nsg2824
I5
sg1845
I01
sg1846
F1.0
sg2876
g2827
sg2821
I00
sg99
g654
sg2878
Nsg2822
Nsg2820
I00
sg1915
Nsg2001
Nsg2879
g2929
sg36
g1654
sg1945
F0.8
sg34
Nsg2443
g0
(g2444
g2
Ntp3341
Rp3342
(dp3343
g2448
I00
sg2449
Nsg2450
g49
(g50
(I0
tp3344
g52
tp3345
Rp3346
(I1
(I2
I2
tp3347
g59
I01
S'\x00\x00\x00\x00\x00\x00\x00\x00\x00\x00\x00\x00\x00\x00\x00\x00\x00\x00\x00\x00\x00\x00\x00\x00\x00\x00\x00\x00\x00\x00\xf0?'
p3348
tp3349
bsg2457
I00
sg2458
F0.1111111111111111
sg2459
I180
sg2460
I00
sbsbsg1846
Nsg33
Nsg2939
g0
(g2802
g2
Ntp3350
Rp3351
(dp3352
g6
g7
sg2806
g2807
sg2808
Nsg20
I01
sg2809
Nsg2810
I0
sg216
Nsg222
Nsg24
Nsg11
Nsg29
I00
sg30
(dp3353
sg32
I00
sg2002
Nsg2812
F0.6
sg2813
Nsg2814
g2815
sg2816
g2817
sg1827
Nsg1829
I01
sg2818
(I0
tp3354
sg1839
I0
sg1845
I01
sg2820
I01
sg2821
I01
sg99
g654
sg2822
Nsg2823
I2
sg2137
g2696
sg2824
I5
sg9
g4
sg2825
Nsg10
Nsg35
Nsg17
g18
sg2826
g2827
sg23
Nsg25
Nsg28
I00
sg2828
Nsg34
Nsg2829
Nsg2830
g0
(g2831
g2
Ntp3355
Rp3356
(dp3357
g2830
I2
sg2835
Nsg2836
F1.0
sg99
g0
(g42
g2
Ntp3358
Rp3359
(dp3360
g46
I2
sg47
Nsg48
g49
(g50
(I0
tp3361
g52
tp3362
Rp3363
(I1
(I3
I3
tp3364
g59
I00
S'\x00\x00\x00\x00\x00\x00\xf0?\x00\x00\x00\x00\x00\x00\x00\x00\x00\x00\x00\x00\x00\x00\x00\x00\x00\x00\x00\x00\x00\x00\x00\x00\x00\x00\x00\x00\x00\x00\xf0?\x00\x00\x00\x00\x00\x00\x00\x00\x00\x00\x00\x00\x00\x00\x00\x00\x00\x00\x00\x00\x00\x00\x00\x00\x00\x00\x00\x00\x00\x00\xf0?'
p3365
tp3366
bsg64
g7
sg65
(dp3367
sbsg2847
I00
sg2848
g2849
sg2850
Nsg1999
g2851
sg1963
g2852
sg2443
g2854
sbsg2862
g2863
sg36
Nsg33
Nsg1949
I01
sg2864
Nsg1965
g2958
sg1831
g0
(g1832
g1833
((lp3368
(lp3369
tp3370
tp3371
Rp3372
sg2871
I00
sg2872
g2873
sg2874
g2827
sg2875
Nsg1846
Nsg2876
g2827
sg2877
F0.0
sg8
I01
sg2878
Nsg1915
Nsg2001
Nsg2879
g2964
sg1945
F0.5
sg2443
Nsbsg99
Nsg2965
F8.0
sg2966
g2967
sg2968
(g2969
I0
tp3373
sg1915
Nsg2137
g2696
sg34
Nsbasg34
NsS'_minor_tick_kw'
p3374
(dp3375
g2733
I01
sg2735
I00
sg2736
I01
sg2737
I00
ssS'isDefault_minfmt'
p3376
I01
sbsS'_navigate_mode'
p3377
Nsg34
NsS'transAxes'
p3378
g134
sS'_connected'
p3379
(dp3380
sS'fmt_ydata'
p3381
NsS'dataLim'
p3382
g0
(g72
g2
Ntp3383
Rp3384
(dp3385
g46
I0
sg76
g49
(g50
(I0
tp3386
g52
tp3387
Rp3388
(I1
(I2
tp3389
g59
I00
S'\xf2S\xbf\xa2\xcex\xd8?\x00\x00\x00\x00\x00\x00\xf0?'
p3390
tp3391
bsg65
(dp3392
sg84
g49
(g50
(I0
tp3393
g52
tp3394
Rp3395
(I1
(I2
I2
tp3396
g59
I00
S'\x00\x00\x00\x00\x00\x00\xf0\x7f\x00\x00\x00\x00\x00\x00\xf0\x7f\x00\x00\x00\x00\x00\x00\xf0\xff\x00\x00\x00\x00\x00\x00\xf0\xff'
p3397
tp3398
bsg91
g49
(g50
(I0
tp3399
g52
tp3400
Rp3401
(I1
(I2
I2
tp3402
g59
I00
S'\xad_\xb6)X\xe5\xa5\xbf\x00\x00\x00\x00\x00\x00\x00\x00\x8aV\r\xe8\x90\x92(@\x00\x00\x00\x00\x00\x00P@'
p3403
tp3404
bsg98
I01
sg64
g7
sbsS'transData'
p3405
g657
sg33
NsS'_sharey'
p3406
NsS'_sharex'
p3407
NsS'_ymargin'
p3408
F0.05
sS'_axes_locator'
p3409
Nsg1831
g0
(g1832
g1833
((lp3410
(lp3411
tp3412
tp3413
Rp3414
sS'numCols'
p3415
I1
sg1846
Nsg1828
NsS'yaxis'
p3416
g0
(cmatplotlib.axis
YAxis
p3417
g2
Ntp3418
Rp3419
(dp3420
g6
g7
sg2627
g0
(g2628
g2
Ntp3421
Rp3422
(dp3423
g2632
g0
(g2633
g2
Ntp3424
Rp3425
(dp3426
g2637
I2
sg2638
I00
sg2639
g2640
sg2641
g49
(g50
(I0
tp3427
g52
tp3428
Rp3429
(I1
(I5
tp3430
g59
I00
S'\x00\x00\x00\x00\x00\x00\xf0?\x00\x00\x00\x00\x00\x00\x00@\x00\x00\x00\x00\x00\x00\x04@\x00\x00\x00\x00\x00\x00\x14@\x00\x00\x00\x00\x00\x00$@'
p3431
tp3432
bsg2648
Nsg2649
g49
(g50
(I0
tp3433
g52
tp3434
Rp3435
(I1
(I10
tp3436
g59
I00
S'\x9a\x99\x99\x99\x99\x99\xb9?\x9a\x99\x99\x99\x99\x99\xc9?\x00\x00\x00\x00\x00\x00\xd0?\x00\x00\x00\x00\x00\x00\xe0?\x00\x00\x00\x00\x00\x00\xf0?\x00\x00\x00\x00\x00\x00\x00@\x00\x00\x00\x00\x00\x00\x04@\x00\x00\x00\x00\x00\x00\x14@\x00\x00\x00\x00\x00\x00$@\x00\x00\x00\x00\x00\x004@'
p3437
tp3438
bsg2656
I00
sg2657
g3419
sbsg2658
g0
(g2659
g2
Ntp3439
Rp3440
(dp3441
g2663
g2664
sg2665
I0
sg2666
I01
sg2667
I00
sg2668
g7
sg2669
I00
sg2670
I4
sg2671
I0
sg2135
I00
sg2672
I01
sg2657
g3419
sbsbsg2673
I00
sg2674
g0
(g2675
g2
Ntp3442
Rp3443
sg9
g4
sg8
I01
sg2678
I00
sg10
Nsg35
Nsg2679
I00
sg17
g18
sg20
I01
sg23
Nsg2680
g0
(g2076
g2
Ntp3444
Rp3445
(dp3446
g6
g7
sg8
I01
sg9
g4
sg10
Nsg2080
g0
(g2081
g2
Ntp3447
Rp3448
(dp3449
g2085
(lp3450
g2087
asg2088
Nsg2089
g2090
sg2091
g2090
sg2092
F8.0
sg2093
g2090
sg2094
g2090
sbsg35
Nsg17
g18
sg2095
Nsg20
I01
sg23
Nsg216
F0.5
sg222
I0
sg24
Nsg25
Nsg11
Nsg28
I00
sg29
I00
sg30
(dp3451
sg2097
Nsg32
I00
sg2002
Nsg36
Nsg2001
Nsg2098
Nsg33
Nsg1827
Nsg1829
I01
sg2099
Vbaseline
p3452
sg2101
V
p3453
sg2103
Nsg1831
g0
(g1832
g1833
((lp3454
(lp3455
tp3456
tp3457
Rp3458
sg1839
I0
sg2109
Nsg1845
I01
sg1846
Nsg2110
F1.2
sg99
g1392
sg2135
I00
sg2136
I00
sg1915
Nsg2137
V0.
p3459
sg2139
Vleft
p3460
sg34
Nsbsg24
Nsg25
Nsg11
Nsg2698
g0
(g2076
g2
Ntp3461
Rp3462
(dp3463
g6
g7
sg8
I01
sg9
g4
sg10
Nsg2080
g0
(g2081
g2
Ntp3464
Rp3465
(dp3466
g2085
(lp3467
g2087
asg2088
Nsg2089
g2090
sg2091
g2090
sg2092
F10.0
sg2093
g2090
sg2094
g2090
sbsg35
Nsg17
g18
sg2095
Nsg20
I01
sg23
Nsg216
F0.5
sg222
I0
sg24
Nsg25
Nsg11
Nsg28
I00
sg29
I00
sg30
(dp3468
sg2097
Nsg32
I00
sg2002
Nsg36
Nsg2001
Nsg2098
Vanchor
p3469
sg33
Nsg1827
Nsg1829
I01
sg2099
Vbottom
p3470
sg2101
V# recorded PSPs
p3471
sg2103
Nsg1831
g0
(g1832
g1833
((lp3472
(lp3473
tp3474
tp3475
Rp3476
sg1839
I0
sg2109
Vvertical
p3477
sg1845
I01
sg1846
Nsg2110
F1.2
sg99
g295
sg2135
I00
sg2136
I00
sg1915
Nsg2137
g2714
sg2139
Vcenter
p3478
sg34
Nsbsg28
I00
sg2716
I01
sg29
I00
sg30
(dp3479
sg2718
Nsg32
I00
sg2719
g0
(g2628
g2
Ntp3480
Rp3481
(dp3482
g2632
g0
(g2723
g2
Ntp3483
Rp3484
(dp3485
g2657
g3419
sbsg2658
g0
(g2727
g2
Ntp3486
Rp3487
(dp3488
g2657
g3419
sbsbsg2002
g1888
sg2731
(dp3489
g2733
I01
sg2734
I00
sg2735
I00
sg2736
I01
sg2737
I00
ssg2738
I01
sg36
g187
sg33
Nsg2739
I00
sg2740
I1
sg2741
F4.0
sg2742
(lp3490
g0
(cmatplotlib.axis
YTick
p3491
g2
Ntp3492
Rp3493
(dp3494
g6
g7
sg1913
F0.8
sg9
g4
sg2748
I01
sg8
I01
sg10
Nsg1839
I0
sg35
Nsg2749
F3.5
sg2750
g3459
sg2751
I00
sg2092
F0.0
sg17
g18
sg2752
Vout
p3495
sg2698
g0
(g2076
g2
Ntp3496
Rp3497
(dp3498
g6
g7
sg8
I01
sg9
g4
sg10
Nsg2080
g0
(g2081
g2
Ntp3499
Rp3500
(dp3501
g2085
(lp3502
g2087
asg2088
Nsg2089
g2090
sg2091
g2090
sg2092
F8.0
sg2093
g2090
sg2094
g2090
sbsg35
Nsg17
g18
sg2095
Nsg20
I01
sg23
Nsg216
I0
sg222
I0
sg24
Nsg25
Nsg11
Nsg28
I00
sg29
I00
sg30
(dp3503
sg2097
Nsg32
I00
sg2002
Nsg36
Nsg2001
Nsg2098
Nsg33
Nsg1827
Nsg1829
I01
sg2099
Vcenter_baseline
p3504
sg2101
V
p3505
sg2103
Nsg1831
g0
(g1832
g1833
((lp3506
(lp3507
tp3508
tp3509
Rp3510
sg1839
I0
sg2109
Nsg1845
I01
sg1846
Nsg2110
F1.2
sg99
g777
sg2135
I00
sg2136
I00
sg1915
Nsg2137
g3459
sg2139
Vright
p3511
sg34
Nsbsg20
I01
sg23
Nsg2770
I00
sg24
Nsg25
Nsg11
Nsg2771
I00
sg28
I00
sg29
I00
sg30
(dp3512
sg2773
(I0
I1
tp3513
sg32
I00
sg2775
F2.01
sg2002
g1888
sg2776
I01
sg36
g1794
sg2001
Nsg2777
g3497
sg2778
g0
(g2076
g2
Ntp3514
Rp3515
(dp3516
g6
g7
sg8
I01
sg9
g4
sg10
Nsg2080
g0
(g2081
g2
Ntp3517
Rp3518
(dp3519
g2085
(lp3520
g2087
asg2088
Nsg2089
g2090
sg2091
g2090
sg2092
F8.0
sg2093
g2090
sg2094
g2090
sbsg35
Nsg17
g18
sg2095
Nsg20
I01
sg23
Nsg216
I0
sg222
I1
sg24
Nsg25
Nsg11
Nsg28
I00
sg29
I00
sg30
(dp3521
sg2097
Nsg32
I00
sg2002
Nsg36
Nsg2001
Nsg2098
Nsg33
Nsg1827
Nsg1829
I01
sg2099
g3504
sg2101
V
p3522
sg2103
Nsg1831
g0
(g1832
g1833
((lp3523
(lp3524
tp3525
tp3526
Rp3527
sg1839
I0
sg2109
Nsg1845
I01
sg1846
Nsg2110
F1.2
sg99
g759
sg2135
I00
sg2136
I00
sg1915
Nsg2137
g3459
sg2139
Vleft
p3528
sg34
Nsbsg1827
Nsg2794
I0
sg1829
I01
sg1831
g0
(g1832
g1833
((lp3529
(lp3530
tp3531
tp3532
Rp3533
sg2800
F3.5
sg2801
g0
(g2802
g2
Ntp3534
Rp3535
(dp3536
g6
g7
sg2806
g2807
sg2808
Nsg20
I01
sg2809
Nsg2810
I0
sg216
Nsg222
Nsg24
Nsg11
Nsg29
I00
sg30
(dp3537
sg32
I00
sg2002
Nsg2812
F0.8
sg2813
Nsg2814
g2815
sg2816
g2817
sg1827
Nsg1829
I01
sg2818
(I0
tp3538
sg1839
I0
sg1845
I01
sg2820
I01
sg2821
I01
sg99
g724
sg2822
Nsg2823
F2.01
sg2137
g3459
sg2824
I5
sg9
g4
sg2825
Nsg10
Nsg35
Nsg17
g18
sg2826
g2827
sg23
Nsg25
Nsg28
I00
sg2828
Nsg34
Nsg2829
Nsg2830
g0
(g2831
g2
Ntp3539
Rp3540
(dp3541
g2830
I0
sg2835
Nsg2836
F1.0
sg99
g0
(g42
g2
Ntp3542
Rp3543
(dp3544
g46
I2
sg47
Nsg48
g49
(g50
(I0
tp3545
g52
tp3546
Rp3547
(I1
(I3
I3
tp3548
g59
I00
S'\x00\x00\x00\x00\x00\x00\xf0\xbf\x00\x00\x00\x00\x00\x00\x00\x00\x00\x00\x00\x00\x00\x00\x00\x00\x00\x00\x00\x00\x00\x00\x00\x00\x00\x00\x00\x00\x00\x00\xf0?\x00\x00\x00\x00\x00\x00\x00\x00\x00\x00\x00\x00\x00\x00\x00\x00\x00\x00\x00\x00\x00\x00\x00\x00\x00\x00\x00\x00\x00\x00\xf0?'
p3549
tp3550
bsg64
g7
sg65
(dp3551
sbsg2847
I00
sg2848
g2849
sg2850
Nsg1999
g2851
sg1963
g2852
sg2443
g0
(g2444
g2
Ntp3552
Rp3553
(dp3554
g2448
I00
sg2449
Nsg2450
g49
(g50
(I0
tp3555
g52
tp3556
Rp3557
(I1
(I2
I2
tp3558
g59
I00
S'\x00\x00\x00\x00\x00\x00\x00\x00\x00\x00\x00\x00\x00\x00\x00\x00\x00\x00\x00\x00\x00\x00\xf0?\x00\x00\x00\x00\x00\x00\x00\x00'
p3559
tp3560
bsg2457
I00
sg2458
F0.1111111111111111
sg2459
I1
sg2460
I00
sbsbsg2862
g2863
sg36
Nsg33
Nsg1949
I01
sg2864
Nsg1965
VNone
p3561
sg1831
g0
(g1832
g1833
((lp3562
(lp3563
tp3564
tp3565
Rp3566
sg2871
I00
sg2872
g2873
sg2874
g2827
sg2875
Nsg1846
Nsg2876
g2827
sg2877
F0.0
sg8
I01
sg2878
Nsg1915
Nsg2001
Nsg2879
(I0
tp3567
sg1945
F0.5
sg2443
Nsbsg1845
I00
sg2881
g0
(g2802
g2
Ntp3568
Rp3569
(dp3570
g6
g7
sg8
I01
sg2874
g2827
sg9
g4
sg2806
g2807
sg2808
Nsg10
Nsg35
Nsg17
g18
sg2826
g2827
sg20
I01
sg2809
Nsg23
Nsg216
g49
(g50
(I0
tp3571
g52
tp3572
Rp3573
(I1
(I2
tp3574
g59
I00
S'\x00\x00\x00\x00\x00\x00\x00\x00\x00\x00\x00\x00\x00\x00\x00\x00'
p3575
tp3576
bsg222
g49
(g50
(I0
tp3577
g52
tp3578
Rp3579
(I1
(I2
tp3580
g59
I00
S'\x00\x00\x00\x00\x00\x00\x00\x00\x00\x00\x00\x00\x00\x00\xf0?'
p3581
tp3582
bsg24
Nsg25
Nsg11
Nsg2818
(I0
I1
tp3583
sg28
I00
sg2828
Nsg29
I00
sg30
(dp3584
sg2825
Nsg32
I00
sg2871
I00
sg2002
Nsg2829
Nsg2812
F1.0
sg2862
g2863
sg2813
Nsg2137
g2899
sg2830
g0
(g2831
g2
Ntp3585
Rp3586
(dp3587
g2830
g2903
sg2835
Nsg2836
Nsg99
g0
(g217
g2
Ntp3588
Rp3589
(dp3590
g46
I1
sg47
Nsg64
g7
sg65
(dp3591
sbsg2847
I00
sg2848
g2849
sg2850
Nsg1999
g2851
sg1963
g2852
sg2443
g2909
sbsg33
Nsg2814
g2815
sg1949
I01
sg2816
g2817
sg1827
Nsg2877
F0.0
sg1829
I01
sg2864
g49
(g50
(I0
tp3592
g52
tp3593
Rp3594
(I1
(I2
I2
tp3595
g59
I00
S'\x00\x00\x00\x00\x00\x00\x00\x00\x00\x00\x00\x00\x00\x00\x00\x00\x00\x00\x00\x00\x00\x00\xf0?\x00\x00\x00\x00\x00\x00\x00\x00'
p3596
tp3597
bsg1965
g2923
sg1831
g0
(g1832
g1833
((lp3598
(lp3599
tp3600
tp3601
Rp3602
sg1839
I0
sg2872
g2873
sg2810
I0
sg2875
Nsg2824
I5
sg1845
I01
sg1846
F1.0
sg2876
g2827
sg2821
I00
sg99
g724
sg2878
Nsg2822
Nsg2820
I00
sg1915
Nsg2001
Nsg2879
(I0
I0
tp3603
sg36
g1514
sg1945
F0.8
sg34
Nsg2443
g0
(g2444
g2
Ntp3604
Rp3605
(dp3606
g2448
I00
sg2449
Nsg2450
g49
(g50
(I0
tp3607
g52
tp3608
Rp3609
(I1
(I2
I2
tp3610
g59
I01
S'\x00\x00\x00\x00\x00\x00\x00\x00\x00\x00\x00\x00\x00\x00\xf0?\x00\x00\x00\x00\x00\x00\x00\x00\x00\x00\x00\x00\x00\x00\x00\x00'
p3611
tp3612
bsg2457
I00
sg2458
F0.1111111111111111
sg2459
I180
sg2460
I00
sbsbsg1846
Nsg33
Nsg2939
g0
(g2802
g2
Ntp3613
Rp3614
(dp3615
g6
g7
sg2806
g2807
sg2808
Nsg20
I01
sg2809
Nsg2810
I0
sg216
Nsg222
Nsg24
Nsg11
Nsg29
I00
sg30
(dp3616
sg32
I00
sg2002
Nsg2812
F0.8
sg2813
Nsg2814
g2815
sg2816
g2817
sg1827
Nsg1829
I01
sg2818
(I1
tp3617
sg1839
I0
sg1845
I01
sg2820
I01
sg2821
I01
sg99
g724
sg2822
Nsg2823
F2.01
sg2137
g3459
sg2824
I5
sg9
g4
sg2825
Nsg10
Nsg35
Nsg17
g18
sg2826
g2827
sg23
Nsg25
Nsg28
I00
sg2828
Nsg34
Nsg2829
Nsg2830
g0
(g2831
g2
Ntp3618
Rp3619
(dp3620
g2830
I1
sg2835
Nsg2836
F1.0
sg99
g0
(g42
g2
Ntp3621
Rp3622
(dp3623
g46
I2
sg47
Nsg48
g49
(g50
(I0
tp3624
g52
tp3625
Rp3626
(I1
(I3
I3
tp3627
g59
I00
S'\x00\x00\x00\x00\x00\x00\xf0?\x00\x00\x00\x00\x00\x00\x00\x00\x00\x00\x00\x00\x00\x00\x00\x00\x00\x00\x00\x00\x00\x00\x00\x00\x00\x00\x00\x00\x00\x00\xf0?\x00\x00\x00\x00\x00\x00\x00\x00\x00\x00\x00\x00\x00\x00\x00\x00\x00\x00\x00\x00\x00\x00\x00\x00\x00\x00\x00\x00\x00\x00\xf0?'
p3628
tp3629
bsg64
g7
sg65
(dp3630
sbsg2847
I00
sg2848
g2849
sg2850
Nsg1999
g2851
sg1963
g2852
sg2443
g3553
sbsg2862
g2863
sg36
Nsg33
Nsg1949
I01
sg2864
Nsg1965
VNone
p3631
sg1831
g0
(g1832
g1833
((lp3632
(lp3633
tp3634
tp3635
Rp3636
sg2871
I00
sg2872
g2873
sg2874
g2827
sg2875
Nsg1846
Nsg2876
g2827
sg2877
F0.0
sg8
I01
sg2878
Nsg1915
Nsg2001
Nsg2879
(I0
tp3637
sg1945
F0.5
sg2443
Nsbsg99
Nsg2965
F8.0
sg2966
Vytick
p3638
sg2968
(g2969
I0
tp3639
sg1915
Nsg2137
g3459
sg34
Nsbag0
(g3491
g2
Ntp3640
Rp3641
(dp3642
g6
g7
sg1913
F0.8
sg9
g4
sg2748
I01
sg8
I01
sg10
Nsg1839
I0
sg35
Nsg2749
F3.5
sg2750
g3459
sg2751
I00
sg2092
F0.0
sg17
g18
sg2752
g3495
sg2698
g0
(g2076
g2
Ntp3643
Rp3644
(dp3645
g6
g7
sg8
I01
sg9
g4
sg10
Nsg2080
g0
(g2081
g2
Ntp3646
Rp3647
(dp3648
g2085
(lp3649
g2087
asg2088
Nsg2089
g2090
sg2091
g2090
sg2092
F8.0
sg2093
g2090
sg2094
g2090
sbsg35
Nsg17
g18
sg2095
Nsg20
I01
sg23
Nsg216
I0
sg222
I0
sg24
Nsg25
Nsg11
Nsg28
I00
sg29
I00
sg30
(dp3650
sg2097
Nsg32
I00
sg2002
Nsg36
Nsg2001
Nsg2098
Nsg33
Nsg1827
Nsg1829
I01
sg2099
g3504
sg2101
V
p3651
sg2103
Nsg1831
g0
(g1832
g1833
((lp3652
(lp3653
tp3654
tp3655
Rp3656
sg1839
I0
sg2109
Nsg1845
I01
sg1846
Nsg2110
F1.2
sg99
g741
sg2135
I00
sg2136
I00
sg1915
Nsg2137
g3459
sg2139
g3511
sg34
Nsbsg20
I01
sg23
Nsg2770
I00
sg24
Nsg25
Nsg11
Nsg2771
I00
sg28
I00
sg29
I00
sg30
(dp3657
sg2773
(I0
I1
tp3658
sg32
I00
sg2775
F2.01
sg2002
g1888
sg2776
I01
sg36
g1444
sg2001
Nsg2777
g3644
sg2778
g0
(g2076
g2
Ntp3659
Rp3660
(dp3661
g6
g7
sg8
I01
sg9
g4
sg10
Nsg2080
g0
(g2081
g2
Ntp3662
Rp3663
(dp3664
g2085
(lp3665
g2087
asg2088
Nsg2089
g2090
sg2091
g2090
sg2092
F8.0
sg2093
g2090
sg2094
g2090
sbsg35
Nsg17
g18
sg2095
Nsg20
I01
sg23
Nsg216
I0
sg222
I1
sg24
Nsg25
Nsg11
Nsg28
I00
sg29
I00
sg30
(dp3666
sg2097
Nsg32
I00
sg2002
Nsg36
Nsg2001
Nsg2098
Nsg33
Nsg1827
Nsg1829
I01
sg2099
g3504
sg2101
V
p3667
sg2103
Nsg1831
g0
(g1832
g1833
((lp3668
(lp3669
tp3670
tp3671
Rp3672
sg1839
I0
sg2109
Nsg1845
I01
sg1846
Nsg2110
F1.2
sg99
g795
sg2135
I00
sg2136
I00
sg1915
Nsg2137
g3459
sg2139
g3528
sg34
Nsbsg1827
Nsg2794
I0
sg1829
I01
sg1831
g0
(g1832
g1833
((lp3673
(lp3674
tp3675
tp3676
Rp3677
sg2800
F3.5
sg2801
g0
(g2802
g2
Ntp3678
Rp3679
(dp3680
g6
g7
sg2806
g2807
sg2808
Nsg20
I01
sg2809
Nsg2810
I0
sg216
Nsg222
Nsg24
Nsg11
Nsg29
I00
sg30
(dp3681
sg32
I00
sg2002
Nsg2812
F0.8
sg2813
Nsg2814
g2815
sg2816
g2817
sg1827
Nsg1829
I01
sg2818
g3538
sg1839
I0
sg1845
I01
sg2820
I01
sg2821
I01
sg99
g724
sg2822
Nsg2823
F2.01
sg2137
g3459
sg2824
I5
sg9
g4
sg2825
Nsg10
Nsg35
Nsg17
g18
sg2826
g2827
sg23
Nsg25
Nsg28
I00
sg2828
Nsg34
Nsg2829
Nsg2830
g0
(g2831
g2
Ntp3682
Rp3683
(dp3684
g2830
I0
sg2835
Nsg2836
F1.0
sg99
g0
(g42
g2
Ntp3685
Rp3686
(dp3687
g46
I2
sg47
Nsg48
g49
(g50
(I0
tp3688
g52
tp3689
Rp3690
(I1
(I3
I3
tp3691
g59
I00
S'\x00\x00\x00\x00\x00\x00\xf0\xbf\x00\x00\x00\x00\x00\x00\x00\x00\x00\x00\x00\x00\x00\x00\x00\x00\x00\x00\x00\x00\x00\x00\x00\x00\x00\x00\x00\x00\x00\x00\xf0?\x00\x00\x00\x00\x00\x00\x00\x00\x00\x00\x00\x00\x00\x00\x00\x00\x00\x00\x00\x00\x00\x00\x00\x00\x00\x00\x00\x00\x00\x00\xf0?'
p3692
tp3693
bsg64
g7
sg65
(dp3694
sbsg2847
I00
sg2848
g2849
sg2850
Nsg1999
g2851
sg1963
g2852
sg2443
g3553
sbsg2862
g2863
sg36
Nsg33
Nsg1949
I01
sg2864
Nsg1965
g3561
sg1831
g0
(g1832
g1833
((lp3695
(lp3696
tp3697
tp3698
Rp3699
sg2871
I00
sg2872
g2873
sg2874
g2827
sg2875
Nsg1846
Nsg2876
g2827
sg2877
F0.0
sg8
I01
sg2878
Nsg1915
Nsg2001
Nsg2879
(I0
tp3700
sg1945
F0.5
sg2443
Nsbsg1845
I00
sg2881
g0
(g2802
g2
Ntp3701
Rp3702
(dp3703
g6
g7
sg8
I01
sg2874
g2827
sg9
g4
sg2806
g2807
sg2808
Nsg10
Nsg35
Nsg17
g18
sg2826
g2827
sg20
I01
sg2809
Nsg23
Nsg216
g49
(g50
(I0
tp3704
g52
tp3705
Rp3706
(I1
(I2
tp3707
g59
I00
S'\x00\x00\x00\x00\x00\x00\x00\x00\x00\x00\x00\x00\x00\x00\x00\x00'
p3708
tp3709
bsg222
g49
(g50
(I0
tp3710
g52
tp3711
Rp3712
(I1
(I2
tp3713
g59
I00
S'\x00\x00\x00\x00\x00\x00\x00\x00\x00\x00\x00\x00\x00\x00\xf0?'
p3714
tp3715
bsg24
Nsg25
Nsg11
Nsg2818
g3583
sg28
I00
sg2828
Nsg29
I00
sg30
(dp3716
sg2825
Nsg32
I00
sg2871
I00
sg2002
Nsg2829
Nsg2812
F1.0
sg2862
g2863
sg2813
Nsg2137
g2899
sg2830
g0
(g2831
g2
Ntp3717
Rp3718
(dp3719
g2830
g2903
sg2835
Nsg2836
Nsg99
g0
(g217
g2
Ntp3720
Rp3721
(dp3722
g46
I1
sg47
Nsg64
g7
sg65
(dp3723
sbsg2847
I00
sg2848
g2849
sg2850
Nsg1999
g2851
sg1963
g2852
sg2443
g2909
sbsg33
Nsg2814
g2815
sg1949
I01
sg2816
g2817
sg1827
Nsg2877
F0.0
sg1829
I01
sg2864
g49
(g50
(I0
tp3724
g52
tp3725
Rp3726
(I1
(I2
I2
tp3727
g59
I00
S'\x00\x00\x00\x00\x00\x00\x00\x00\x00\x00\x00\x00\x00\x00\x00\x00\x00\x00\x00\x00\x00\x00\xf0?\x00\x00\x00\x00\x00\x00\x00\x00'
p3728
tp3729
bsg1965
g2923
sg1831
g0
(g1832
g1833
((lp3730
(lp3731
tp3732
tp3733
Rp3734
sg1839
I0
sg2872
g2873
sg2810
I0
sg2875
Nsg2824
I5
sg1845
I01
sg1846
F1.0
sg2876
g2827
sg2821
I00
sg99
g724
sg2878
Nsg2822
Nsg2820
I00
sg1915
Nsg2001
Nsg2879
g3603
sg36
g1078
sg1945
F0.8
sg34
Nsg2443
g0
(g2444
g2
Ntp3735
Rp3736
(dp3737
g2448
I00
sg2449
Nsg2450
g49
(g50
(I0
tp3738
g52
tp3739
Rp3740
(I1
(I2
I2
tp3741
g59
I01
S'\x00\x00\x00\x00\x00\x00\x00\x00\x00\x00\x00\x00\x00\x00\xf0?\x00\x00\x00\x00\x00\x00\x00\x00\x00\x00\x00\x00\x00\x00\x00\x00'
p3742
tp3743
bsg2457
I00
sg2458
F0.1111111111111111
sg2459
I180
sg2460
I00
sbsbsg1846
Nsg33
Nsg2939
g0
(g2802
g2
Ntp3744
Rp3745
(dp3746
g6
g7
sg2806
g2807
sg2808
Nsg20
I01
sg2809
Nsg2810
I0
sg216
Nsg222
Nsg24
Nsg11
Nsg29
I00
sg30
(dp3747
sg32
I00
sg2002
Nsg2812
F0.8
sg2813
Nsg2814
g2815
sg2816
g2817
sg1827
Nsg1829
I01
sg2818
g3617
sg1839
I0
sg1845
I01
sg2820
I01
sg2821
I01
sg99
g724
sg2822
Nsg2823
F2.01
sg2137
g3459
sg2824
I5
sg9
g4
sg2825
Nsg10
Nsg35
Nsg17
g18
sg2826
g2827
sg23
Nsg25
Nsg28
I00
sg2828
Nsg34
Nsg2829
Nsg2830
g0
(g2831
g2
Ntp3748
Rp3749
(dp3750
g2830
I1
sg2835
Nsg2836
F1.0
sg99
g0
(g42
g2
Ntp3751
Rp3752
(dp3753
g46
I2
sg47
Nsg48
g49
(g50
(I0
tp3754
g52
tp3755
Rp3756
(I1
(I3
I3
tp3757
g59
I00
S'\x00\x00\x00\x00\x00\x00\xf0?\x00\x00\x00\x00\x00\x00\x00\x00\x00\x00\x00\x00\x00\x00\x00\x00\x00\x00\x00\x00\x00\x00\x00\x00\x00\x00\x00\x00\x00\x00\xf0?\x00\x00\x00\x00\x00\x00\x00\x00\x00\x00\x00\x00\x00\x00\x00\x00\x00\x00\x00\x00\x00\x00\x00\x00\x00\x00\x00\x00\x00\x00\xf0?'
p3758
tp3759
bsg64
g7
sg65
(dp3760
sbsg2847
I00
sg2848
g2849
sg2850
Nsg1999
g2851
sg1963
g2852
sg2443
g3553
sbsg2862
g2863
sg36
Nsg33
Nsg1949
I01
sg2864
Nsg1965
g3631
sg1831
g0
(g1832
g1833
((lp3761
(lp3762
tp3763
tp3764
Rp3765
sg2871
I00
sg2872
g2873
sg2874
g2827
sg2875
Nsg1846
Nsg2876
g2827
sg2877
F0.0
sg8
I01
sg2878
Nsg1915
Nsg2001
Nsg2879
(I0
tp3766
sg1945
F0.5
sg2443
Nsbsg99
Nsg2965
F8.0
sg2966
g3638
sg2968
(g2969
I0
tp3767
sg1915
Nsg2137
g3459
sg34
Nsbasg3099
I01
sg1820
g0
(g1821
g2
Ntp3768
Rp3769
(dp3770
g1825
g1826
sbsg1827
Nsg1829
I01
sg3103
I01
sg1831
g0
(g1832
g1833
((lp3771
(lp3772
tp3773
tp3774
Rp3775
sg1839
I0
sg3109
I1
sg3110
Nsg1845
I00
sg1846
Nsg3111
Vleft
p3776
sg99
Nsg3113
Nsg3114
Vleft
p3777
sg1915
Nsg2001
Nsg2824
I15
sg3116
(lp3778
g0
(g3491
g2
Ntp3779
Rp3780
(dp3781
g6
g7
sg1913
F0.6
sg9
g4
sg2748
I01
sg8
I01
sg10
Nsg1839
I0
sg35
Nsg2749
F3.4
sg2750
g3459
sg2751
I00
sg2092
F0.0
sg17
g18
sg2752
g3495
sg2698
g0
(g2076
g2
Ntp3782
Rp3783
(dp3784
g6
g7
sg8
I01
sg9
g4
sg10
Nsg2080
g0
(g2081
g2
Ntp3785
Rp3786
(dp3787
g2085
(lp3788
g2087
asg2088
Nsg2089
g2090
sg2091
g2090
sg2092
F8.0
sg2093
g2090
sg2094
g2090
sbsg35
Nsg17
g18
sg2095
Nsg20
I01
sg23
Nsg216
I0
sg222
I0
sg24
Nsg25
Nsg11
Nsg28
I00
sg29
I00
sg30
(dp3789
sg2097
Nsg32
I00
sg2002
Nsg36
Nsg2001
Nsg2098
Nsg33
Nsg1827
Nsg1829
I01
sg2099
g3504
sg2101
V
p3790
sg2103
Nsg1831
g0
(g1832
g1833
((lp3791
(lp3792
tp3793
tp3794
Rp3795
sg1839
I0
sg2109
Nsg1845
I01
sg1846
Nsg2110
F1.2
sg99
g768
sg2135
I00
sg2136
I00
sg1915
Nsg2137
g3459
sg2139
g3511
sg34
Nsbsg20
I01
sg23
Nsg2770
I00
sg24
Nsg25
Nsg11
Nsg2771
I00
sg28
I00
sg29
I00
sg30
(dp3796
sg2773
(I0
I1
tp3797
sg32
I00
sg2775
I2
sg2002
g1888
sg2776
I01
sg36
g1226
sg2001
Nsg2777
g3783
sg2778
g0
(g2076
g2
Ntp3798
Rp3799
(dp3800
g6
g7
sg8
I01
sg9
g4
sg10
Nsg2080
g0
(g2081
g2
Ntp3801
Rp3802
(dp3803
g2085
(lp3804
g2087
asg2088
Nsg2089
g2090
sg2091
g2090
sg2092
F8.0
sg2093
g2090
sg2094
g2090
sbsg35
Nsg17
g18
sg2095
Nsg20
I01
sg23
Nsg216
I0
sg222
I1
sg24
Nsg25
Nsg11
Nsg28
I00
sg29
I00
sg30
(dp3805
sg2097
Nsg32
I00
sg2002
Nsg36
Nsg2001
Nsg2098
Nsg33
Nsg1827
Nsg1829
I01
sg2099
g3504
sg2101
V
p3806
sg2103
Nsg1831
g0
(g1832
g1833
((lp3807
(lp3808
tp3809
tp3810
Rp3811
sg1839
I0
sg2109
Nsg1845
I01
sg1846
Nsg2110
F1.2
sg99
g750
sg2135
I00
sg2136
I00
sg1915
Nsg2137
g3459
sg2139
g3528
sg34
Nsbsg1827
Nsg2794
I0
sg1829
I01
sg1831
g0
(g1832
g1833
((lp3812
(lp3813
tp3814
tp3815
Rp3816
sg2800
F3.4
sg2801
g0
(g2802
g2
Ntp3817
Rp3818
(dp3819
g6
g7
sg2806
g2807
sg2808
Nsg20
I01
sg2809
Nsg2810
I0
sg216
Nsg222
Nsg24
Nsg11
Nsg29
I00
sg30
(dp3820
sg32
I00
sg2002
Nsg2812
F0.6
sg2813
Nsg2814
g2815
sg2816
g2817
sg1827
Nsg1829
I01
sg2818
g3538
sg1839
I0
sg1845
I01
sg2820
I01
sg2821
I01
sg99
g724
sg2822
Nsg2823
I2
sg2137
g3459
sg2824
I5
sg9
g4
sg2825
Nsg10
Nsg35
Nsg17
g18
sg2826
g2827
sg23
Nsg25
Nsg28
I00
sg2828
Nsg34
Nsg2829
Nsg2830
g0
(g2831
g2
Ntp3821
Rp3822
(dp3823
g2830
I0
sg2835
Nsg2836
F1.0
sg99
g0
(g42
g2
Ntp3824
Rp3825
(dp3826
g46
I2
sg47
Nsg48
g49
(g50
(I0
tp3827
g52
tp3828
Rp3829
(I1
(I3
I3
tp3830
g59
I00
S'\x00\x00\x00\x00\x00\x00\xf0\xbf\x00\x00\x00\x00\x00\x00\x00\x00\x00\x00\x00\x00\x00\x00\x00\x00\x00\x00\x00\x00\x00\x00\x00\x00\x00\x00\x00\x00\x00\x00\xf0?\x00\x00\x00\x00\x00\x00\x00\x00\x00\x00\x00\x00\x00\x00\x00\x00\x00\x00\x00\x00\x00\x00\x00\x00\x00\x00\x00\x00\x00\x00\xf0?'
p3831
tp3832
bsg64
g7
sg65
(dp3833
sbsg2847
I00
sg2848
g2849
sg2850
Nsg1999
g2851
sg1963
g2852
sg2443
g3553
sbsg2862
g2863
sg36
Nsg33
Nsg1949
I01
sg2864
Nsg1965
g3561
sg1831
g0
(g1832
g1833
((lp3834
(lp3835
tp3836
tp3837
Rp3838
sg2871
I00
sg2872
g2873
sg2874
g2827
sg2875
Nsg1846
Nsg2876
g2827
sg2877
F0.0
sg8
I01
sg2878
Nsg1915
Nsg2001
Nsg2879
(I0
tp3839
sg1945
F0.5
sg2443
Nsbsg1845
I00
sg2881
g0
(g2802
g2
Ntp3840
Rp3841
(dp3842
g6
g7
sg8
I01
sg2874
g2827
sg9
g4
sg2806
g2807
sg2808
Nsg10
Nsg35
Nsg17
g18
sg2826
g2827
sg20
I01
sg2809
Nsg23
Nsg216
g49
(g50
(I0
tp3843
g52
tp3844
Rp3845
(I1
(I2
tp3846
g59
I00
S'\x00\x00\x00\x00\x00\x00\x00\x00\x00\x00\x00\x00\x00\x00\x00\x00'
p3847
tp3848
bsg222
g49
(g50
(I0
tp3849
g52
tp3850
Rp3851
(I1
(I2
tp3852
g59
I00
S'\x00\x00\x00\x00\x00\x00\x00\x00\x00\x00\x00\x00\x00\x00\xf0?'
p3853
tp3854
bsg24
Nsg25
Nsg11
Nsg2818
g3583
sg28
I00
sg2828
Nsg29
I00
sg30
(dp3855
sg2825
Nsg32
I00
sg2871
I00
sg2002
Nsg2829
Nsg2812
F1.0
sg2862
g2863
sg2813
Nsg2137
g2899
sg2830
g0
(g2831
g2
Ntp3856
Rp3857
(dp3858
g2830
g2903
sg2835
Nsg2836
Nsg99
g0
(g217
g2
Ntp3859
Rp3860
(dp3861
g46
I1
sg47
Nsg64
g7
sg65
(dp3862
sbsg2847
I00
sg2848
g2849
sg2850
Nsg1999
g2851
sg1963
g2852
sg2443
g2909
sbsg33
Nsg2814
g2815
sg1949
I01
sg2816
g2817
sg1827
Nsg2877
F0.0
sg1829
I01
sg2864
g49
(g50
(I0
tp3863
g52
tp3864
Rp3865
(I1
(I2
I2
tp3866
g59
I00
S'\x00\x00\x00\x00\x00\x00\x00\x00\x00\x00\x00\x00\x00\x00\x00\x00\x00\x00\x00\x00\x00\x00\xf0?\x00\x00\x00\x00\x00\x00\x00\x00'
p3867
tp3868
bsg1965
g2923
sg1831
g0
(g1832
g1833
((lp3869
(lp3870
tp3871
tp3872
Rp3873
sg1839
I0
sg2872
g2873
sg2810
I0
sg2875
Nsg2824
I5
sg1845
I01
sg1846
F1.0
sg2876
g2827
sg2821
I00
sg99
g724
sg2878
Nsg2822
Nsg2820
I00
sg1915
Nsg2001
Nsg2879
g3603
sg36
g1156
sg1945
F0.8
sg34
Nsg2443
g0
(g2444
g2
Ntp3874
Rp3875
(dp3876
g2448
I00
sg2449
Nsg2450
g49
(g50
(I0
tp3877
g52
tp3878
Rp3879
(I1
(I2
I2
tp3880
g59
I01
S'\x00\x00\x00\x00\x00\x00\x00\x00\x00\x00\x00\x00\x00\x00\xf0?\x00\x00\x00\x00\x00\x00\x00\x00\x00\x00\x00\x00\x00\x00\x00\x00'
p3881
tp3882
bsg2457
I00
sg2458
F0.1111111111111111
sg2459
I180
sg2460
I00
sbsbsg1846
Nsg33
Nsg2939
g0
(g2802
g2
Ntp3883
Rp3884
(dp3885
g6
g7
sg2806
g2807
sg2808
Nsg20
I01
sg2809
Nsg2810
I0
sg216
Nsg222
Nsg24
Nsg11
Nsg29
I00
sg30
(dp3886
sg32
I00
sg2002
Nsg2812
F0.6
sg2813
Nsg2814
g2815
sg2816
g2817
sg1827
Nsg1829
I01
sg2818
g3617
sg1839
I0
sg1845
I01
sg2820
I01
sg2821
I01
sg99
g724
sg2822
Nsg2823
I2
sg2137
g3459
sg2824
I5
sg9
g4
sg2825
Nsg10
Nsg35
Nsg17
g18
sg2826
g2827
sg23
Nsg25
Nsg28
I00
sg2828
Nsg34
Nsg2829
Nsg2830
g0
(g2831
g2
Ntp3887
Rp3888
(dp3889
g2830
I1
sg2835
Nsg2836
F1.0
sg99
g0
(g42
g2
Ntp3890
Rp3891
(dp3892
g46
I2
sg47
Nsg48
g49
(g50
(I0
tp3893
g52
tp3894
Rp3895
(I1
(I3
I3
tp3896
g59
I00
S'\x00\x00\x00\x00\x00\x00\xf0?\x00\x00\x00\x00\x00\x00\x00\x00\x00\x00\x00\x00\x00\x00\x00\x00\x00\x00\x00\x00\x00\x00\x00\x00\x00\x00\x00\x00\x00\x00\xf0?\x00\x00\x00\x00\x00\x00\x00\x00\x00\x00\x00\x00\x00\x00\x00\x00\x00\x00\x00\x00\x00\x00\x00\x00\x00\x00\x00\x00\x00\x00\xf0?'
p3897
tp3898
bsg64
g7
sg65
(dp3899
sbsg2847
I00
sg2848
g2849
sg2850
Nsg1999
g2851
sg1963
g2852
sg2443
g3553
sbsg2862
g2863
sg36
Nsg33
Nsg1949
I01
sg2864
Nsg1965
g3631
sg1831
g0
(g1832
g1833
((lp3900
(lp3901
tp3902
tp3903
Rp3904
sg2871
I00
sg2872
g2873
sg2874
g2827
sg2875
Nsg1846
Nsg2876
g2827
sg2877
F0.0
sg8
I01
sg2878
Nsg1915
Nsg2001
Nsg2879
(I0
tp3905
sg1945
F0.5
sg2443
Nsbsg99
Nsg2965
F8.0
sg2966
g3638
sg2968
(g2969
I0
tp3906
sg1915
Nsg2137
g3459
sg34
Nsbag0
(g3491
g2
Ntp3907
Rp3908
(dp3909
g6
g7
sg1913
F0.6
sg9
g4
sg2748
I01
sg8
I01
sg10
Nsg1839
I0
sg35
Nsg2749
F3.4
sg2750
g3459
sg2751
I00
sg2092
F0.0
sg17
g18
sg2752
g3495
sg2698
g0
(g2076
g2
Ntp3910
Rp3911
(dp3912
g6
g7
sg8
I01
sg9
g4
sg10
Nsg2080
g0
(g2081
g2
Ntp3913
Rp3914
(dp3915
g2085
(lp3916
g2087
asg2088
Nsg2089
g2090
sg2091
g2090
sg2092
F8.0
sg2093
g2090
sg2094
g2090
sbsg35
Nsg17
g18
sg2095
Nsg20
I01
sg23
Nsg216
I0
sg222
I0
sg24
Nsg25
Nsg11
Nsg28
I00
sg29
I00
sg30
(dp3917
sg2097
Nsg32
I00
sg2002
Nsg36
Nsg2001
Nsg2098
Nsg33
Nsg1827
Nsg1829
I01
sg2099
g3504
sg2101
V
p3918
sg2103
Nsg1831
g0
(g1832
g1833
((lp3919
(lp3920
tp3921
tp3922
Rp3923
sg1839
I0
sg2109
Nsg1845
I01
sg1846
Nsg2110
F1.2
sg99
g729
sg2135
I00
sg2136
I00
sg1915
Nsg2137
g3459
sg2139
g3511
sg34
Nsbsg20
I01
sg23
Nsg2770
I00
sg24
Nsg25
Nsg11
Nsg2771
I00
sg28
I00
sg29
I00
sg30
(dp3924
sg2773
(I0
I1
tp3925
sg32
I00
sg2775
I2
sg2002
g1888
sg2776
I01
sg36
g1584
sg2001
Nsg2777
g3911
sg2778
g0
(g2076
g2
Ntp3926
Rp3927
(dp3928
g6
g7
sg8
I01
sg9
g4
sg10
Nsg2080
g0
(g2081
g2
Ntp3929
Rp3930
(dp3931
g2085
(lp3932
g2087
asg2088
Nsg2089
g2090
sg2091
g2090
sg2092
F8.0
sg2093
g2090
sg2094
g2090
sbsg35
Nsg17
g18
sg2095
Nsg20
I01
sg23
Nsg216
I0
sg222
I1
sg24
Nsg25
Nsg11
Nsg28
I00
sg29
I00
sg30
(dp3933
sg2097
Nsg32
I00
sg2002
Nsg36
Nsg2001
Nsg2098
Nsg33
Nsg1827
Nsg1829
I01
sg2099
g3504
sg2101
V
p3934
sg2103
Nsg1831
g0
(g1832
g1833
((lp3935
(lp3936
tp3937
tp3938
Rp3939
sg1839
I0
sg2109
Nsg1845
I01
sg1846
Nsg2110
F1.2
sg99
g786
sg2135
I00
sg2136
I00
sg1915
Nsg2137
g3459
sg2139
g3528
sg34
Nsbsg1827
Nsg2794
I0
sg1829
I01
sg1831
g0
(g1832
g1833
((lp3940
(lp3941
tp3942
tp3943
Rp3944
sg2800
F3.4
sg2801
g0
(g2802
g2
Ntp3945
Rp3946
(dp3947
g6
g7
sg2806
g2807
sg2808
Nsg20
I01
sg2809
Nsg2810
I0
sg216
Nsg222
Nsg24
Nsg11
Nsg29
I00
sg30
(dp3948
sg32
I00
sg2002
Nsg2812
F0.6
sg2813
Nsg2814
g2815
sg2816
g2817
sg1827
Nsg1829
I01
sg2818
g3538
sg1839
I0
sg1845
I01
sg2820
I01
sg2821
I01
sg99
g724
sg2822
Nsg2823
I2
sg2137
g3459
sg2824
I5
sg9
g4
sg2825
Nsg10
Nsg35
Nsg17
g18
sg2826
g2827
sg23
Nsg25
Nsg28
I00
sg2828
Nsg34
Nsg2829
Nsg2830
g0
(g2831
g2
Ntp3949
Rp3950
(dp3951
g2830
I0
sg2835
Nsg2836
F1.0
sg99
g0
(g42
g2
Ntp3952
Rp3953
(dp3954
g46
I2
sg47
Nsg48
g49
(g50
(I0
tp3955
g52
tp3956
Rp3957
(I1
(I3
I3
tp3958
g59
I00
S'\x00\x00\x00\x00\x00\x00\xf0\xbf\x00\x00\x00\x00\x00\x00\x00\x00\x00\x00\x00\x00\x00\x00\x00\x00\x00\x00\x00\x00\x00\x00\x00\x00\x00\x00\x00\x00\x00\x00\xf0?\x00\x00\x00\x00\x00\x00\x00\x00\x00\x00\x00\x00\x00\x00\x00\x00\x00\x00\x00\x00\x00\x00\x00\x00\x00\x00\x00\x00\x00\x00\xf0?'
p3959
tp3960
bsg64
g7
sg65
(dp3961
sbsg2847
I00
sg2848
g2849
sg2850
Nsg1999
g2851
sg1963
g2852
sg2443
g3553
sbsg2862
g2863
sg36
Nsg33
Nsg1949
I01
sg2864
Nsg1965
g3561
sg1831
g0
(g1832
g1833
((lp3962
(lp3963
tp3964
tp3965
Rp3966
sg2871
I00
sg2872
g2873
sg2874
g2827
sg2875
Nsg1846
Nsg2876
g2827
sg2877
F0.0
sg8
I01
sg2878
Nsg1915
Nsg2001
Nsg2879
(I0
tp3967
sg1945
F0.5
sg2443
Nsbsg1845
I00
sg2881
g0
(g2802
g2
Ntp3968
Rp3969
(dp3970
g6
g7
sg8
I01
sg2874
g2827
sg9
g4
sg2806
g2807
sg2808
Nsg10
Nsg35
Nsg17
g18
sg2826
g2827
sg20
I01
sg2809
Nsg23
Nsg216
g49
(g50
(I0
tp3971
g52
tp3972
Rp3973
(I1
(I2
tp3974
g59
I00
S'\x00\x00\x00\x00\x00\x00\x00\x00\x00\x00\x00\x00\x00\x00\x00\x00'
p3975
tp3976
bsg222
g49
(g50
(I0
tp3977
g52
tp3978
Rp3979
(I1
(I2
tp3980
g59
I00
S'\x00\x00\x00\x00\x00\x00\x00\x00\x00\x00\x00\x00\x00\x00\xf0?'
p3981
tp3982
bsg24
Nsg25
Nsg11
Nsg2818
g3583
sg28
I00
sg2828
Nsg29
I00
sg30
(dp3983
sg2825
Nsg32
I00
sg2871
I00
sg2002
Nsg2829
Nsg2812
F1.0
sg2862
g2863
sg2813
Nsg2137
g2899
sg2830
g0
(g2831
g2
Ntp3984
Rp3985
(dp3986
g2830
g2903
sg2835
Nsg2836
Nsg99
g0
(g217
g2
Ntp3987
Rp3988
(dp3989
g46
I1
sg47
Nsg64
g7
sg65
(dp3990
sbsg2847
I00
sg2848
g2849
sg2850
Nsg1999
g2851
sg1963
g2852
sg2443
g2909
sbsg33
Nsg2814
g2815
sg1949
I01
sg2816
g2817
sg1827
Nsg2877
F0.0
sg1829
I01
sg2864
g49
(g50
(I0
tp3991
g52
tp3992
Rp3993
(I1
(I2
I2
tp3994
g59
I00
S'\x00\x00\x00\x00\x00\x00\x00\x00\x00\x00\x00\x00\x00\x00\x00\x00\x00\x00\x00\x00\x00\x00\xf0?\x00\x00\x00\x00\x00\x00\x00\x00'
p3995
tp3996
bsg1965
g2923
sg1831
g0
(g1832
g1833
((lp3997
(lp3998
tp3999
tp4000
Rp4001
sg1839
I0
sg2872
g2873
sg2810
I0
sg2875
Nsg2824
I5
sg1845
I01
sg1846
F1.0
sg2876
g2827
sg2821
I00
sg99
g724
sg2878
Nsg2822
Nsg2820
I00
sg1915
Nsg2001
Nsg2879
g3603
sg36
g627
sg1945
F0.8
sg34
Nsg2443
g0
(g2444
g2
Ntp4002
Rp4003
(dp4004
g2448
I00
sg2449
Nsg2450
g49
(g50
(I0
tp4005
g52
tp4006
Rp4007
(I1
(I2
I2
tp4008
g59
I01
S'\x00\x00\x00\x00\x00\x00\x00\x00\x00\x00\x00\x00\x00\x00\xf0?\x00\x00\x00\x00\x00\x00\x00\x00\x00\x00\x00\x00\x00\x00\x00\x00'
p4009
tp4010
bsg2457
I00
sg2458
F0.1111111111111111
sg2459
I180
sg2460
I00
sbsbsg1846
Nsg33
Nsg2939
g0
(g2802
g2
Ntp4011
Rp4012
(dp4013
g6
g7
sg2806
g2807
sg2808
Nsg20
I01
sg2809
Nsg2810
I0
sg216
Nsg222
Nsg24
Nsg11
Nsg29
I00
sg30
(dp4014
sg32
I00
sg2002
Nsg2812
F0.6
sg2813
Nsg2814
g2815
sg2816
g2817
sg1827
Nsg1829
I01
sg2818
g3617
sg1839
I0
sg1845
I01
sg2820
I01
sg2821
I01
sg99
g724
sg2822
Nsg2823
I2
sg2137
g3459
sg2824
I5
sg9
g4
sg2825
Nsg10
Nsg35
Nsg17
g18
sg2826
g2827
sg23
Nsg25
Nsg28
I00
sg2828
Nsg34
Nsg2829
Nsg2830
g0
(g2831
g2
Ntp4015
Rp4016
(dp4017
g2830
I1
sg2835
Nsg2836
F1.0
sg99
g0
(g42
g2
Ntp4018
Rp4019
(dp4020
g46
I2
sg47
Nsg48
g49
(g50
(I0
tp4021
g52
tp4022
Rp4023
(I1
(I3
I3
tp4024
g59
I00
S'\x00\x00\x00\x00\x00\x00\xf0?\x00\x00\x00\x00\x00\x00\x00\x00\x00\x00\x00\x00\x00\x00\x00\x00\x00\x00\x00\x00\x00\x00\x00\x00\x00\x00\x00\x00\x00\x00\xf0?\x00\x00\x00\x00\x00\x00\x00\x00\x00\x00\x00\x00\x00\x00\x00\x00\x00\x00\x00\x00\x00\x00\x00\x00\x00\x00\x00\x00\x00\x00\xf0?'
p4025
tp4026
bsg64
g7
sg65
(dp4027
sbsg2847
I00
sg2848
g2849
sg2850
Nsg1999
g2851
sg1963
g2852
sg2443
g3553
sbsg2862
g2863
sg36
Nsg33
Nsg1949
I01
sg2864
Nsg1965
g3631
sg1831
g0
(g1832
g1833
((lp4028
(lp4029
tp4030
tp4031
Rp4032
sg2871
I00
sg2872
g2873
sg2874
g2827
sg2875
Nsg1846
Nsg2876
g2827
sg2877
F0.0
sg8
I01
sg2878
Nsg1915
Nsg2001
Nsg2879
(I0
tp4033
sg1945
F0.5
sg2443
Nsbsg99
Nsg2965
F8.0
sg2966
g3638
sg2968
(g2969
I0
tp4034
sg1915
Nsg2137
g3459
sg34
Nsbasg34
Nsg3374
(dp4035
g2733
I01
sg2735
I00
sg2736
I01
sg2737
I00
ssg3376
I01
sbsS'_axisbelow'
p4036
I00
sg8
I01
sS'lines'
p4037
(lp4038
sS'_ycid'
p4039
I1
sS'spines'
p4040
ccollections
OrderedDict
p4041
((lp4042
(lp4043
Vleft
p4044
ag0
(cmatplotlib.spines
Spine
p4045
g2
Ntp4046
Rp4047
(dp4048
g6
g7
sg2679
I00
sg1914
I01
sg9
g4
sS'_bounds'
p4049
Nsg8
I01
sg10
Nsg35
Nsg17
g18
sg1915
Nsg20
I01
sg2657
g3419
sg1916
g0
(g217
g2
Ntp4050
Rp4051
(dp4052
g46
I1
sg47
Nsg64
g7
sg65
(dp4053
sbsg1921
(F0.0
F0.0
F0.0
F1.0
tp4054
sg23
Nsg24
Nsg1937
V0.
p4055
sg11
Nsg28
I00
sg29
I00
sg30
(dp4056
sg1997
(NNtp4057
sg2593
(Voutward
p4058
F0.0
tp4059
sg32
I00
sg1944
Nsg1829
I01
sg1945
F1.0
sS'_patch_type'
p4060
Vline
p4061
sg33
Nsg1947
g4054
sg1948
Nsg1949
I01
sg1950
Nsg1951
Vnone
p4062
sg1827
Nsg1952
g2571
sg1963
g1964
sS'_patch_transform'
p4063
g0
(g217
g2
Ntp4064
Rp4065
(dp4066
g46
I1
sg47
Nsg64
g7
sg65
(dp4067
sbsg1965
g1966
sg1831
g0
(g1832
g1833
((lp4068
(lp4069
tp4070
tp4071
Rp4072
sg1839
I0
sS'_spine_transform'
p4073
(Videntity
p4074
g0
(g217
g2
Ntp4075
Rp4076
(dp4077
g46
I1
sg47
Nsg64
g7
sg65
(dp4078
sbtp4079
sg1845
I01
sg1846
NsS'spine_type'
p4080
g4044
sg99
g724
sg36
Nsg2823
F2.5
sg1999
Vprojecting
p4081
sg2001
Nsg25
Nsg2002
g1888
sg34
Nsg2443
g0
(g2444
g2
Ntp4082
Rp4083
(dp4084
g2448
I00
sg2449
Nsg2450
g49
(g50
(I0
tp4085
g52
tp4086
Rp4087
(I1
(I2
I2
tp4088
g59
I00
S'\x00\x00\x00\x00\x00\x00\x00\x00\x00\x00\x00\x00\x00\x00*@\x00\x00\x00\x00\x00\x00\x00\x00\x00\x00\x00\x00\x00\x00*@'
p4089
tp4090
bsg2457
I00
sg2458
F0.1111111111111111
sg2459
I1
sg2460
I00
sbsbaa(lp4091
Vright
p4092
ag0
(g4045
g2
Ntp4093
Rp4094
(dp4095
g6
g7
sg2679
I00
sg1914
I01
sg9
g4
sg4049
Nsg8
I00
sg10
Nsg35
Nsg17
g18
sg1915
Nsg20
I01
sg2657
g3419
sg1916
g0
(g217
g2
Ntp4096
Rp4097
(dp4098
g46
I1
sg47
Nsg64
g7
sg65
(dp4099
sbsg1921
g4054
sg23
Nsg24
Nsg1937
g4055
sg11
Nsg28
I00
sg29
I00
sg30
(dp4100
sg1997
(NNtp4101
sg2593
g4059
sg32
I00
sg1944
Nsg1829
I01
sg1945
F1.0
sg4060
g4061
sg33
Nsg1947
g4054
sg1948
Nsg1949
I01
sg1950
Nsg1951
g4062
sg1827
Nsg1952
g2571
sg1963
g1964
sg4063
g0
(g217
g2
Ntp4102
Rp4103
(dp4104
g46
I1
sg47
Nsg64
g7
sg65
(dp4105
sbsg1965
g1966
sg1831
g0
(g1832
g1833
((lp4106
(lp4107
tp4108
tp4109
Rp4110
sg1839
I0
sg4073
(g4074
g0
(g217
g2
Ntp4111
Rp4112
(dp4113
g46
I1
sg47
Nsg64
g7
sg65
(dp4114
sbtp4115
sg1845
I01
sg1846
Nsg4080
g4092
sg99
g724
sg36
Nsg2823
F2.5
sg1999
g4081
sg2001
Nsg25
Nsg2002
g1888
sg34
Nsg2443
g0
(g2444
g2
Ntp4116
Rp4117
(dp4118
g2448
I00
sg2449
Nsg2450
g49
(g50
(I0
tp4119
g52
tp4120
Rp4121
(I1
(I2
I2
tp4122
g59
I00
S'\x00\x00\x00\x00\x00\x00\xf0?\x00\x00\x00\x00\x00\x00*@\x00\x00\x00\x00\x00\x00\xf0?\x00\x00\x00\x00\x00\x00*@'
p4123
tp4124
bsg2457
I00
sg2458
F0.1111111111111111
sg2459
I1
sg2460
I00
sbsbaa(lp4125
Vbottom
p4126
ag0
(g4045
g2
Ntp4127
Rp4128
(dp4129
g6
g7
sg2679
I00
sg1914
I01
sg9
g4
sg4049
Nsg8
I01
sg10
Nsg35
Nsg17
g18
sg1915
Nsg20
I01
sg2657
g2625
sg1916
g0
(g217
g2
Ntp4130
Rp4131
(dp4132
g46
I1
sg47
Nsg64
g7
sg65
(dp4133
sbsg1921
g4054
sg23
Nsg24
Nsg1937
g4055
sg11
Nsg28
I00
sg29
I00
sg30
(dp4134
sg1997
(NNtp4135
sg2593
g4059
sg32
I00
sg1944
Nsg1829
I01
sg1945
F1.0
sg4060
g4061
sg33
Nsg1947
g4054
sg1948
Nsg1949
I01
sg1950
Nsg1951
g4062
sg1827
Nsg1952
g2571
sg1963
g1964
sg4063
g0
(g217
g2
Ntp4136
Rp4137
(dp4138
g46
I1
sg47
Nsg64
g7
sg65
(dp4139
sbsg1965
g1966
sg1831
g0
(g1832
g1833
((lp4140
(lp4141
tp4142
tp4143
Rp4144
sg1839
I0
sg4073
(g4074
g0
(g217
g2
Ntp4145
Rp4146
(dp4147
g46
I1
sg47
Nsg64
g7
sg65
(dp4148
sbtp4149
sg1845
I01
sg1846
Nsg4080
g4126
sg99
g654
sg36
Nsg2823
F2.5
sg1999
g4081
sg2001
Nsg25
Nsg2002
g1888
sg34
Nsg2443
g0
(g2444
g2
Ntp4150
Rp4151
(dp4152
g2448
I00
sg2449
Nsg2450
g49
(g50
(I0
tp4153
g52
tp4154
Rp4155
(I1
(I2
I2
tp4156
g59
I00
S'\x00\x00\x00\x00\x00\x00*@\x00\x00\x00\x00\x00\x00\x00\x00\x00\x00\x00\x00\x00\x00*@\x00\x00\x00\x00\x00\x00\x00\x00'
p4157
tp4158
bsg2457
I00
sg2458
F0.1111111111111111
sg2459
I1
sg2460
I00
sbsbaa(lp4159
Vtop
p4160
ag0
(g4045
g2
Ntp4161
Rp4162
(dp4163
g6
g7
sg2679
I00
sg1914
I01
sg9
g4
sg4049
Nsg8
I00
sg10
Nsg35
Nsg17
g18
sg1915
Nsg20
I01
sg2657
g2625
sg1916
g0
(g217
g2
Ntp4164
Rp4165
(dp4166
g46
I1
sg47
Nsg64
g7
sg65
(dp4167
sbsg1921
g4054
sg23
Nsg24
Nsg1937
g4055
sg11
Nsg28
I00
sg29
I00
sg30
(dp4168
sg1997
(NNtp4169
sg2593
g4059
sg32
I00
sg1944
Nsg1829
I01
sg1945
F1.0
sg4060
g4061
sg33
Nsg1947
g4054
sg1948
Nsg1949
I01
sg1950
Nsg1951
g4062
sg1827
Nsg1952
g2571
sg1963
g1964
sg4063
g0
(g217
g2
Ntp4170
Rp4171
(dp4172
g46
I1
sg47
Nsg64
g7
sg65
(dp4173
sbsg1965
g1966
sg1831
g0
(g1832
g1833
((lp4174
(lp4175
tp4176
tp4177
Rp4178
sg1839
I0
sg4073
(g4074
g0
(g217
g2
Ntp4179
Rp4180
(dp4181
g46
I1
sg47
Nsg64
g7
sg65
(dp4182
sbtp4183
sg1845
I01
sg1846
Nsg4080
g4160
sg99
g654
sg36
Nsg2823
F2.5
sg1999
g4081
sg2001
Nsg25
Nsg2002
g1888
sg34
Nsg2443
g0
(g2444
g2
Ntp4184
Rp4185
(dp4186
g2448
I00
sg2449
Nsg2450
g49
(g50
(I0
tp4187
g52
tp4188
Rp4189
(I1
(I2
I2
tp4190
g59
I00
S'\x00\x00\x00\x00\x00\x00*@\x00\x00\x00\x00\x00\x00\xf0?\x00\x00\x00\x00\x00\x00*@\x00\x00\x00\x00\x00\x00\xf0?'
p4191
tp4192
bsg2457
I00
sg2458
F0.1111111111111111
sg2459
I1
sg2460
I00
sbsbaatp4193
Rp4194
sS'_anchor'
p4195
VC
p4196
sg1915
Nsg2001
NsS'_use_sticky_edges'
p4197
I01
sbtp4198
tp4199
asS'_ind'
p4200
I1
sS'_pos'
p4201
I0
sbsg99
Nsg4037
(lp4202
sg2563
g0
(g1908
g2
Ntp4203
Rp4204
(dp4205
g6
g7
sg1913
I1
sg1914
I01
sg9
g4
sg8
I01
sg10
Nsg35
Nsg17
g18
sg1915
Nsg20
I01
sg1916
g0
(g217
g2
Ntp4206
Rp4207
(dp4208
g46
I1
sg47
Nsg64
g7
sg65
(dp4209
sbsg1921
(g1922
(g59
S'\x00\x00\x00\x00\x00\x00\xf0?'
p4210
tp4211
Rp4212
g1922
(g59
S'\x00\x00\x00\x00\x00\x00\xf0?'
p4213
tp4214
Rp4215
g1922
(g59
S'\x00\x00\x00\x00\x00\x00\xf0?'
p4216
tp4217
Rp4218
g1922
(g59
S'\x00\x00\x00\x00\x00\x00\x00\x00'
p4219
tp4220
Rp4221
tp4222
sg1936
F0.0
sg23
Nsg216
I0
sg222
I0
sg24
Nsg1937
(I1
I1
I1
I0
tp4223
sg11
Nsg28
I00
sg29
I00
sg30
(dp4224
sg1939
g0
(g217
g2
Ntp4225
Rp4226
(dp4227
g46
I1
sg47
Nsg64
g7
sg65
(dp4228
sbsg32
I00
sg1944
Nsg1829
I01
sg1945
F0.0
sg36
Nsg1946
I1
sg33
Nsg1947
g4222
sg1948
Nsg1949
I00
sg1950
Nsg1951
(I1
I1
I1
I0
tp4229
sg1827
Nsg1952
g4222
sg1963
g1964
sg1965
g1966
sg1831
g0
(g1832
g1833
((lp4230
(lp4231
tp4232
tp4233
Rp4234
sg1839
I0
sg1845
I01
sg1846
Nsg99
g103
sg1997
(NNtp4235
sg1999
g2000
sg2001
Nsg25
Nsg2002
Nsg34
NsbsS'subplotpars'
p4236
g0
(cmatplotlib.figure
SubplotParams
p4237
g2
Ntp4238
Rp4239
(dp4240
g1867
F0.9
sg1869
F0.125
sg1870
F0.88
sg1871
F0.2
sS'validate'
p4241
I01
sg1873
F0.2
sg1875
F0.125
sbsg1915
Nsg2001
NsS'bbox_inches'
p4242
g74
sS'transFigure'
p4243
g103
sS'_dpi'
p4244
F72.0
sb.