ccopy_reg
_reconstructor
p0
(cmatplotlib.figure
Figure
p1
c__builtin__
object
p2
Ntp3
Rp4
(dp5
S'_label'
p6
V
p7
sS'_visible'
p8
I01
sS'figure'
p9
NsS'stale_callback'
p10
NsS'_rasterized'
p11
NsS'texts'
p12
(lp13
sS'_hold'
p14
I01
sS'artists'
p15
(lp16
sS'_path_effects'
p17
(lp18
sS'frameon'
p19
I01
sS'_clipon'
p20
I01
sV__mpl_version__
p21
S'2.0.2'
p22
sS'_clippath'
p23
NsS'_sketch'
p24
NsS'_contains'
p25
NsS'_tight_parameters'
p26
(dp27
sS'_mouseover'
p28
I00
sS'_animated'
p29
I00
sS'_propobservers'
p30
(dp31
sS'eventson'
p32
I00
sS'_picker'
p33
NsS'_remove_method'
p34
NsS'figurePatch'
p35
g0
(cmatplotlib.patches
Rectangle
p36
g2
Ntp37
Rp38
(dp39
g6
g7
sS'_width'
p40
F1.0
sS'_fill'
p41
I01
sg9
g4
sg8
I01
sg10
NsS'_agg_filter'
p42
Nsg17
g18
sS'_gid'
p43
Nsg20
I01
sS'_combined_transform'
p44
g0
(cmatplotlib.transforms
IdentityTransform
p45
g2
Ntp46
Rp47
(dp48
S'_invalid'
p49
I1
sS'_inverted'
p50
NsS'_shorthand_name'
p51
g7
sS'_parents'
p52
(dp53
sbsS'_edgecolor'
p54
(cnumpy.core.multiarray
scalar
p55
(cnumpy
dtype
p56
(S'f8'
p57
I0
I1
tp58
Rp59
(I3
S'<'
p60
NNNI-1
I-1
I0
tp61
bS'\x00\x00\x00\x00\x00\x00\xf0?'
p62
tp63
Rp64
g55
(g59
S'\x00\x00\x00\x00\x00\x00\xf0?'
p65
tp66
Rp67
g55
(g59
S'\x00\x00\x00\x00\x00\x00\xf0?'
p68
tp69
Rp70
g55
(g59
S'\x00\x00\x00\x00\x00\x00\x00\x00'
p71
tp72
Rp73
tp74
sg23
NsS'_y'
p75
F0.0
sS'_x'
p76
F0.0
sg24
NsS'_original_edgecolor'
p77
(I1
I1
I1
I0
tp78
sg11
Nsg28
I00
sg29
I00
sg30
(dp79
sS'_rect_transform'
p80
g0
(g45
g2
Ntp81
Rp82
(dp83
g49
I1
sg50
Nsg51
g7
sg52
(dp84
sbsg32
I00
sS'_hatch'
p85
NsS'_stale'
p86
I01
sS'_linewidth'
p87
F0.0
sS'clipbox'
p88
NsS'_height'
p89
F1.0
sg33
NsS'_hatch_color'
p90
g74
sS'_dashes'
p91
NsS'_antialiased'
p92
I00
sS'_dashoffset'
p93
NsS'_original_facecolor'
p94
Vwhite
p95
sS'_snap'
p96
NsS'_facecolor'
p97
(F1.0
F1.0
F1.0
F1.0
tp98
sS'_joinstyle'
p99
Vmiter
p100
sS'_linestyle'
p101
Vsolid
p102
sS'_sticky_edges'
p103
g0
(cmatplotlib.artist
_XYPair
p104
c__builtin__
tuple
p105
((lp106
(lp107
tp108
tp109
Rp110
sS'_oid'
p111
I0
sS'_transformSet'
p112
I01
sS'_angle'
p113
F0.0
sS'_alpha'
p114
NsS'_transform'
p115
g0
(cmatplotlib.transforms
BboxTransformTo
p116
g2
Ntp117
Rp118
(dp119
g49
I2
sS'_mtx'
p120
Nsg50
NsS'_boxout'
p121
g0
(cmatplotlib.transforms
TransformedBbox
p122
g2
Ntp123
Rp124
(dp125
g49
I2
sS'_bbox'
p126
g0
(cmatplotlib.transforms
Bbox
p127
g2
Ntp128
Rp129
(dp130
g49
I2
sS'_minpos'
p131
cnumpy.core.multiarray
_reconstruct
p132
(cnumpy
ndarray
p133
(I0
tp134
S'b'
p135
tp136
Rp137
(I1
(I2
tp138
g59
I00
S'\x00\x00\x00\x00\x00\x00\xf0\x7f\x00\x00\x00\x00\x00\x00\xf0\x7f'
p139
tp140
bsg52
(dp141
I140029661575376
g124
ssS'_points_orig'
p142
g132
(g133
(I0
tp143
g135
tp144
Rp145
(I1
(I2
I2
tp146
g59
I00
S'\x00\x00\x00\x00\x00\x00\x00\x00\x00\x00\x00\x00\x00\x00\x00\x00\x00\x00\x00\x00\x00\x00\x18@\x00\x00\x00\x00\x00\x00\x10@'
p147
tp148
bsS'_points'
p149
g132
(g133
(I0
tp150
g135
tp151
Rp152
(I1
(I2
I2
tp153
g59
I00
S'\x00\x00\x00\x00\x00\x00\x00\x00\x00\x00\x00\x00\x00\x00\x00\x00\x00\x00\x00\x00\x00\x00\xf8?\x00\x00\x00\x00\x00\x00\xf8?'
p154
tp155
bsS'_ignore'
p156
I01
sg51
g7
sbsg115
g0
(cmatplotlib.transforms
Affine2D
p157
g2
Ntp158
Rp159
(dp160
g49
I2
sg50
Nsg120
g132
(g133
(I0
tp161
g135
tp162
Rp163
(I1
(I3
I3
tp164
g59
I00
S'\x00\x00\x00\x00\x00\x00R@\x00\x00\x00\x00\x00\x00\x00\x00\x00\x00\x00\x00\x00\x00\x00\x00\x00\x00\x00\x00\x00\x00\x00\x00\x00\x00\x00\x00\x00\x00R@\x00\x00\x00\x00\x00\x00\x00\x00\x00\x00\x00\x00\x00\x00\x00\x00\x00\x00\x00\x00\x00\x00\x00\x00\x00\x00\x00\x00\x00\x00\xf0?'
p165
tp166
bsg51
g7
sg52
(dp167
I140029622794064
g0
(cmatplotlib.transforms
ScaledTranslation
p168
g2
Ntp169
Rp170
(dp171
g49
I1
sg120
NsS'_scale_trans'
p172
g159
sg50
NsS'_t'
p173
(I0
F0.04861111111111111
tp174
sg51
g7
sg52
(dp175
I140029622794576
g0
(cmatplotlib.transforms
CompositeGenericTransform
p176
g2
Ntp177
Rp178
(dp179
g49
I2
sS'input_dims'
p180
I2
sS'_a'
p181
g0
(cmatplotlib.transforms
BlendedGenericTransform
p182
g2
Ntp183
Rp184
(dp185
g49
I2
sg75
g0
(g116
g2
Ntp186
Rp187
(dp188
g49
I2
sg120
Nsg50
Nsg121
g0
(g122
g2
Ntp189
Rp190
(dp191
g49
I2
sg126
g0
(g127
g2
Ntp192
Rp193
(dp194
g49
I0
sg131
g132
(g133
(I0
tp195
g135
tp196
Rp197
(I1
(I2
tp198
g59
I00
S'\x00\x00\x00\x00\x00\x00\xf0\x7f\x00\x00\x00\x00\x00\x00\xf0\x7f'
p199
tp200
bsg52
(dp201
I140029623869776
g190
ssg142
g132
(g133
(I0
tp202
g135
tp203
Rp204
(I1
(I2
I2
tp205
g59
I00
S'\x00\x00\x00\x00\x00\x00\xc0?\x00\x00\x00\x00\x00\x00\xc0?\xcd\xcc\xcc\xcc\xcc\xcc\xec?)\\\x8f\xc2\xf5(\xec?'
p206
tp207
bsg149
g132
(g133
(I0
tp208
g135
tp209
Rp210
(I1
(I2
I2
tp211
g59
I00
S'\x00\x00\x00\x00\x00\x00\xc0?\x00\x00\x00\x00\x00\x00\xc0?\xcd\xcc\xcc\xcc\xcc\xcc\xec?)\\\x8f\xc2\xf5(\xec?'
p212
tp213
bsg156
I01
sg51
g7
sbsg115
g118
sg149
Nsg52
(dp214
I140029624651536
g187
ssg51
g7
sbsg52
(dp215
I140029622993744
g0
(cmatplotlib.transforms
BlendedAffine2D
p216
g2
Ntp217
Rp218
(dp219
g49
I2
sg120
Nsg75
g0
(g45
g2
Ntp220
Rp221
(dp222
g49
I1
sg50
Nsg51
g7
sg52
(dp223
I140029622993744
g218
ssbsg76
g187
sg50
Nsg51
g7
sg52
(dp224
sbsI140029619086608
g0
(g176
g2
Ntp225
Rp226
(dp227
g49
I2
sg180
I2
sg181
g187
sS'output_dims'
p228
I2
sS'_b'
p229
g0
(g168
g2
Ntp230
Rp231
(dp232
g49
I1
sg120
Nsg172
g159
sg50
Nsg173
(F0.0
F0.08333333333333333
tp233
sg51
g7
sg52
(dp234
I140029619087120
g0
(g176
g2
Ntp235
Rp236
(dp237
g49
I2
sg180
I2
sg181
g187
sg228
I2
sg229
g231
sg52
(dp238
sg51
g7
sbsI140029619086608
g226
sI140029619088848
g0
(g176
g2
Ntp239
Rp240
(dp241
g49
I2
sg180
I2
sg181
g187
sg228
I2
sg229
g231
sg52
(dp242
sg51
g7
sbssbsg52
(dp243
sg51
g7
sbsI140029623785360
g0
(g176
g2
Ntp244
Rp245
(dp246
g49
I2
sg180
I2
sg181
g0
(g176
g2
Ntp247
Rp248
(dp249
g49
I1
sg180
I2
sg181
g0
(g116
g2
Ntp250
Rp251
(dp252
g49
I1
sg120
Nsg50
Nsg121
g0
(g127
g2
Ntp253
Rp254
(dp255
g49
I1
sg131
g132
(g133
(I0
tp256
g135
tp257
Rp258
(I1
(I2
tp259
g59
I00
S'\x00\x00\x00\x00\x00\x00\xf0\x7f\x00\x00\x00\x00\x00\x00\xf0\x7f'
p260
tp261
bsg52
(dp262
I140029623786832
g251
ssg142
g132
(g133
(I0
tp263
g135
tp264
Rp265
(I1
(I2
I2
tp266
g59
I00
S'\x00\x00\x00\x00\x00\x00\x00\x00\x00\x00\x00\x00\x00\x00\x00\x00\x00\x00\x00\x00\x00\x00\xf0?\x00\x00\x00\x00\x00\x00\xf0?'
p267
tp268
bsg149
g132
(g133
(I0
tp269
g135
tp270
Rp271
(I1
(I2
I2
tp272
g59
I00
S'\x00\x00\x00\x00\x00\x00\x00\x00\x00\x00\x00\x00\x00\x00\x00\x00\x00\x00\x00\x00\x00\x00\xf0?\x00\x00\x00\x00\x00\x00\xf0?'
p273
tp274
bsg156
I01
sg51
g7
sbsg52
(dp275
I140029623784848
g248
ssg51
g7
sbsg228
I2
sg229
g0
(g157
g2
Ntp276
Rp277
(dp278
g49
I2
sg50
Nsg120
g132
(g133
(I0
tp279
g135
tp280
Rp281
(I1
(I3
I3
tp282
g59
I00
S'\x00\x00\x00\x00\x00\x00\xf0?\x00\x00\x00\x00\x00\x00\x00\x00\x00\x00\x00\x00\x00\x00\x00\x00\x00\x00\x00\x00\x00\x00\x00\x00\x00\x00\x00\x00\x00\x00\xf0?\x00\x00\x00\x00\x00\x00\x00\x00\x00\x00\x00\x00\x00\x00\x00\x00\x00\x00\x00\x00\x00\x00\x00\x00\x00\x00\x00\x00\x00\x00\xf0?'
p283
tp284
bsg51
g7
sg52
(dp285
I140029623784848
g248
ssbsg52
(dp286
I140029623785360
g245
ssg51
g7
sbsg228
I2
sg229
g187
sg52
(dp287
I140029623785168
g0
(g122
g2
Ntp288
Rp289
(dp290
g49
I2
sg126
g0
(g127
g2
Ntp291
Rp292
(dp293
g49
I1
sg131
g132
(g133
(I0
tp294
g135
tp295
Rp296
(I1
(I2
tp297
g59
I00
S'\x00\x00\x00\x00\x00\x00\xf0\x7f\x00\x00\x00\x00\x00\x00\xf0\x7f'
p298
tp299
bsg52
(dp300
I140029623785168
g289
ssg142
g132
(g133
(I0
tp301
g135
tp302
Rp303
(I1
(I2
I2
tp304
g59
I00
S'\x00\x00\x00\x00\x00\x00\x00\x00\x00\x00\x00\x00\x00\x00\x00\x00\x00\x00\x00\x00\x00\x00\xf0?\x00\x00\x00\x00\x00\x00\xf0?'
p305
tp306
bsg149
g132
(g133
(I0
tp307
g135
tp308
Rp309
(I1
(I2
I2
tp310
g59
I00
S'\x00\x00\x00\x00\x00\x00\x00\x00\x00\x00\x00\x00\x00\x00\x00\x00\x00\x00\x00\x00\x00\x00\xf0?\x00\x00\x00\x00\x00\x00\xf0?'
p311
tp312
bsg156
I01
sg51
g7
sbsg115
g245
sg149
Nsg52
(dp313
sg51
g7
sbssg51
g7
sbsI140029623917200
g0
(g176
g2
Ntp314
Rp315
(dp316
g49
I2
sg180
I2
sg181
g0
(g176
g2
Ntp317
Rp318
(dp319
g49
I1
sg180
I2
sg181
g0
(g116
g2
Ntp320
Rp321
(dp322
g49
I1
sg120
Nsg50
Nsg121
g0
(g127
g2
Ntp323
Rp324
(dp325
g49
I1
sg131
g132
(g133
(I0
tp326
g135
tp327
Rp328
(I1
(I2
tp329
g59
I00
S'\x00\x00\x00\x00\x00\x00\xf0\x7f\x00\x00\x00\x00\x00\x00\xf0\x7f'
p330
tp331
bsg52
(dp332
I140029623914576
g321
ssg142
g132
(g133
(I0
tp333
g135
tp334
Rp335
(I1
(I2
I2
tp336
g59
I00
S'\x00\x00\x00\x00\x00\x00\x00\x00\x00\x00\x00\x00\x00\x00\x00\x00\x00\x00\x00\x00\x00\x00\xf0?\x00\x00\x00\x00\x00\x00\xf0?'
p337
tp338
bsg149
g132
(g133
(I0
tp339
g135
tp340
Rp341
(I1
(I2
I2
tp342
g59
I00
S'\x00\x00\x00\x00\x00\x00\x00\x00\x00\x00\x00\x00\x00\x00\x00\x00\x00\x00\x00\x00\x00\x00\xf0?\x00\x00\x00\x00\x00\x00\xf0?'
p343
tp344
bsg156
I01
sg51
g7
sbsg52
(dp345
I140029623914832
g318
ssg51
g7
sbsg228
I2
sg229
g0
(g157
g2
Ntp346
Rp347
(dp348
g49
I2
sg50
Nsg120
g132
(g133
(I0
tp349
g135
tp350
Rp351
(I1
(I3
I3
tp352
g59
I00
S'\x00\x00\x00\x00\x00\x00\xf0?\x00\x00\x00\x00\x00\x00\x00\x00\x00\x00\x00\x00\x00\x00\x00\x00\x00\x00\x00\x00\x00\x00\x00\x00\x00\x00\x00\x00\x00\x00\xf0?\x00\x00\x00\x00\x00\x00\x00\x00\x00\x00\x00\x00\x00\x00\x00\x00\x00\x00\x00\x00\x00\x00\x00\x00\x00\x00\x00\x00\x00\x00\xf0?'
p353
tp354
bsg51
g7
sg52
(dp355
I140029623914832
g318
ssbsg52
(dp356
I140029623917200
g315
ssg51
g7
sbsg228
I2
sg229
g187
sg52
(dp357
I140029623918096
g0
(g122
g2
Ntp358
Rp359
(dp360
g49
I2
sg126
g0
(g127
g2
Ntp361
Rp362
(dp363
g49
I1
sg131
g132
(g133
(I0
tp364
g135
tp365
Rp366
(I1
(I2
tp367
g59
I00
S'\x00\x00\x00\x00\x00\x00\xf0\x7f\x00\x00\x00\x00\x00\x00\xf0\x7f'
p368
tp369
bsg52
(dp370
I140029623918096
g359
ssg142
g132
(g133
(I0
tp371
g135
tp372
Rp373
(I1
(I2
I2
tp374
g59
I00
S'\x00\x00\x00\x00\x00\x00\x00\x00\x00\x00\x00\x00\x00\x00\x00\x00\x00\x00\x00\x00\x00\x00\xf0?\x00\x00\x00\x00\x00\x00\xf0?'
p375
tp376
bsg149
g132
(g133
(I0
tp377
g135
tp378
Rp379
(I1
(I2
I2
tp380
g59
I00
S'\x00\x00\x00\x00\x00\x00\x00\x00\x00\x00\x00\x00\x00\x00\x00\x00\x00\x00\x00\x00\x00\x00\xf0?\x00\x00\x00\x00\x00\x00\xf0?'
p381
tp382
bsg156
I01
sg51
g7
sbsg115
g315
sg149
Nsg52
(dp383
sg51
g7
sbssg51
g7
sbsI140029624059600
g0
(g176
g2
Ntp384
Rp385
(dp386
g49
I2
sg180
I2
sg181
g0
(g176
g2
Ntp387
Rp388
(dp389
g49
I1
sg180
I2
sg181
g0
(g116
g2
Ntp390
Rp391
(dp392
g49
I1
sg120
Nsg50
Nsg121
g0
(g127
g2
Ntp393
Rp394
(dp395
g49
I1
sg131
g132
(g133
(I0
tp396
g135
tp397
Rp398
(I1
(I2
tp399
g59
I00
S'\x00\x00\x00\x00\x00\x00\xf0\x7f\x00\x00\x00\x00\x00\x00\xf0\x7f'
p400
tp401
bsg52
(dp402
I140029624060944
g391
ssg142
g132
(g133
(I0
tp403
g135
tp404
Rp405
(I1
(I2
I2
tp406
g59
I00
S'\x00\x00\x00\x00\x00\x00\x00\x00\x00\x00\x00\x00\x00\x00\x00\x00\x00\x00\x00\x00\x00\x00\xf0?\x00\x00\x00\x00\x00\x00\xf0?'
p407
tp408
bsg149
g132
(g133
(I0
tp409
g135
tp410
Rp411
(I1
(I2
I2
tp412
g59
I00
S'\x00\x00\x00\x00\x00\x00\x00\x00\x00\x00\x00\x00\x00\x00\x00\x00\x00\x00\x00\x00\x00\x00\xf0?\x00\x00\x00\x00\x00\x00\xf0?'
p413
tp414
bsg156
I01
sg51
g7
sbsg52
(dp415
I140029624061648
g388
ssg51
g7
sbsg228
I2
sg229
g0
(g157
g2
Ntp416
Rp417
(dp418
g49
I2
sg50
Nsg120
g132
(g133
(I0
tp419
g135
tp420
Rp421
(I1
(I3
I3
tp422
g59
I00
S'\x00\x00\x00\x00\x00\x00\xf0?\x00\x00\x00\x00\x00\x00\x00\x00\x00\x00\x00\x00\x00\x00\x00\x00\x00\x00\x00\x00\x00\x00\x00\x00\x00\x00\x00\x00\x00\x00\xf0?\x00\x00\x00\x00\x00\x00\x00\x00\x00\x00\x00\x00\x00\x00\x00\x00\x00\x00\x00\x00\x00\x00\x00\x00\x00\x00\x00\x00\x00\x00\xf0?'
p423
tp424
bsg51
g7
sg52
(dp425
I140029624061648
g388
ssbsg52
(dp426
I140029624059600
g385
ssg51
g7
sbsg228
I2
sg229
g187
sg52
(dp427
I140029624060880
g0
(g122
g2
Ntp428
Rp429
(dp430
g49
I2
sg126
g0
(g127
g2
Ntp431
Rp432
(dp433
g49
I1
sg131
g132
(g133
(I0
tp434
g135
tp435
Rp436
(I1
(I2
tp437
g59
I00
S'\x00\x00\x00\x00\x00\x00\xf0\x7f\x00\x00\x00\x00\x00\x00\xf0\x7f'
p438
tp439
bsg52
(dp440
I140029624060880
g429
ssg142
g132
(g133
(I0
tp441
g135
tp442
Rp443
(I1
(I2
I2
tp444
g59
I00
S'\x00\x00\x00\x00\x00\x00\x00\x00\x00\x00\x00\x00\x00\x00\x00\x00\x00\x00\x00\x00\x00\x00\xf0?\x00\x00\x00\x00\x00\x00\xf0?'
p445
tp446
bsg149
g132
(g133
(I0
tp447
g135
tp448
Rp449
(I1
(I2
I2
tp450
g59
I00
S'\x00\x00\x00\x00\x00\x00\x00\x00\x00\x00\x00\x00\x00\x00\x00\x00\x00\x00\x00\x00\x00\x00\xf0?\x00\x00\x00\x00\x00\x00\xf0?'
p451
tp452
bsg156
I01
sg51
g7
sbsg115
g385
sg149
Nsg52
(dp453
sg51
g7
sbssg51
g7
sbsI140029619087120
g236
sI140029622994768
g0
(g216
g2
Ntp454
Rp455
(dp456
g49
I2
sg120
Nsg75
g0
(g45
g2
Ntp457
Rp458
(dp459
g49
I1
sg50
Nsg51
g7
sg52
(dp460
I140029622994768
g455
ssbsg76
g187
sg50
Nsg51
g7
sg52
(dp461
sbsI140029622249360
g184
sI140029622995088
g0
(g176
g2
Ntp462
Rp463
(dp464
g49
I2
sg180
I2
sg181
g0
(g176
g2
Ntp465
Rp466
(dp467
g49
I1
sg180
I2
sg181
g0
(g116
g2
Ntp468
Rp469
(dp470
g49
I1
sg120
Nsg50
Nsg121
g0
(g127
g2
Ntp471
Rp472
(dp473
g49
I1
sg131
g132
(g133
(I0
tp474
g135
tp475
Rp476
(I1
(I2
tp477
g59
I00
S'\x00\x00\x00\x00\x00\x00\xf0\x7f\x00\x00\x00\x00\x00\x00\xf0\x7f'
p478
tp479
bsg52
(dp480
I140029622993872
g469
ssg142
g132
(g133
(I0
tp481
g135
tp482
Rp483
(I1
(I2
I2
tp484
g59
I00
S'\x00\x00\x00\x00\x00\x00\x00\x00\x00\x00\x00\x00\x00\x00\x00\x00\x00\x00\x00\x00\x00\x00\xf0?\x00\x00\x00\x00\x00\x00\xf0?'
p485
tp486
bsg149
g132
(g133
(I0
tp487
g135
tp488
Rp489
(I1
(I2
I2
tp490
g59
I00
S'\x00\x00\x00\x00\x00\x00\x00\x00\x00\x00\x00\x00\x00\x00\x00\x00\x00\x00\x00\x00\x00\x00\xf0?\x00\x00\x00\x00\x00\x00\xf0?'
p491
tp492
bsg156
I01
sg51
g7
sbsg52
(dp493
I140029622993552
g466
ssg51
g7
sbsg228
I2
sg229
g0
(g157
g2
Ntp494
Rp495
(dp496
g49
I2
sg50
Nsg120
g132
(g133
(I0
tp497
g135
tp498
Rp499
(I1
(I3
I3
tp500
g59
I00
S'\x00\x00\x00\x00\x00\x00\xf0?\x00\x00\x00\x00\x00\x00\x00\x00\x00\x00\x00\x00\x00\x00\x00\x00\x00\x00\x00\x00\x00\x00\x00\x00\x00\x00\x00\x00\x00\x00\xf0?\x00\x00\x00\x00\x00\x00\x00\x00\x00\x00\x00\x00\x00\x00\x00\x00\x00\x00\x00\x00\x00\x00\x00\x00\x00\x00\x00\x00\x00\x00\xf0?'
p501
tp502
bsg51
g7
sg52
(dp503
I140029622993552
g466
ssbsg52
(dp504
I140029622995088
g463
ssg51
g7
sbsg228
I2
sg229
g187
sg52
(dp505
I140029622995536
g0
(g122
g2
Ntp506
Rp507
(dp508
g49
I2
sg126
g0
(g127
g2
Ntp509
Rp510
(dp511
g49
I1
sg131
g132
(g133
(I0
tp512
g135
tp513
Rp514
(I1
(I2
tp515
g59
I00
S'\x00\x00\x00\x00\x00\x00\xf0\x7f\x00\x00\x00\x00\x00\x00\xf0\x7f'
p516
tp517
bsg52
(dp518
I140029622995536
g507
ssg142
g132
(g133
(I0
tp519
g135
tp520
Rp521
(I1
(I2
I2
tp522
g59
I00
S'\x00\x00\x00\x00\x00\x00\x00\x00\x00\x00\x00\x00\x00\x00\x00\x00\x00\x00\x00\x00\x00\x00\xf0?\x00\x00\x00\x00\x00\x00\xf0?'
p523
tp524
bsg149
g132
(g133
(I0
tp525
g135
tp526
Rp527
(I1
(I2
I2
tp528
g59
I00
S'\x00\x00\x00\x00\x00\x00\x00\x00\x00\x00\x00\x00\x00\x00\x00\x00\x00\x00\x00\x00\x00\x00\xf0?\x00\x00\x00\x00\x00\x00\xf0?'
p529
tp530
bsg156
I01
sg51
g7
sbsg115
g463
sg149
Nsg52
(dp531
sg51
g7
sbssg51
g7
sbsI140029623785680
g0
(g176
g2
Ntp532
Rp533
(dp534
g49
I2
sg180
I2
sg181
g0
(g176
g2
Ntp535
Rp536
(dp537
g49
I1
sg180
I2
sg181
g0
(g116
g2
Ntp538
Rp539
(dp540
g49
I1
sg120
Nsg50
Nsg121
g0
(g127
g2
Ntp541
Rp542
(dp543
g49
I1
sg131
g132
(g133
(I0
tp544
g135
tp545
Rp546
(I1
(I2
tp547
g59
I00
S'\x00\x00\x00\x00\x00\x00\xf0\x7f\x00\x00\x00\x00\x00\x00\xf0\x7f'
p548
tp549
bsg52
(dp550
I140029623785488
g539
ssg142
g132
(g133
(I0
tp551
g135
tp552
Rp553
(I1
(I2
I2
tp554
g59
I00
S'\x00\x00\x00\x00\x00\x00\x00\x00\x00\x00\x00\x00\x00\x00\x00\x00\x00\x00\x00\x00\x00\x00\xf0?\x00\x00\x00\x00\x00\x00\xf0?'
p555
tp556
bsg149
g132
(g133
(I0
tp557
g135
tp558
Rp559
(I1
(I2
I2
tp560
g59
I00
S'\x00\x00\x00\x00\x00\x00\x00\x00\x00\x00\x00\x00\x00\x00\x00\x00\x00\x00\x00\x00\x00\x00\xf0?\x00\x00\x00\x00\x00\x00\xf0?'
p561
tp562
bsg156
I01
sg51
g7
sbsg52
(dp563
I140029623785936
g536
ssg51
g7
sbsg228
I2
sg229
g0
(g157
g2
Ntp564
Rp565
(dp566
g49
I2
sg50
Nsg120
g132
(g133
(I0
tp567
g135
tp568
Rp569
(I1
(I3
I3
tp570
g59
I00
S'\x00\x00\x00\x00\x00\x00\xf0?\x00\x00\x00\x00\x00\x00\x00\x00\x00\x00\x00\x00\x00\x00\x00\x00\x00\x00\x00\x00\x00\x00\x00\x00\x00\x00\x00\x00\x00\x00\xf0?\x00\x00\x00\x00\x00\x00\x00\x00\x00\x00\x00\x00\x00\x00\x00\x00\x00\x00\x00\x00\x00\x00\x00\x00\x00\x00\x00\x00\x00\x00\xf0?'
p571
tp572
bsg51
g7
sg52
(dp573
I140029623785936
g536
ssbsg52
(dp574
I140029623785680
g533
ssg51
g7
sbsg228
I2
sg229
g187
sg52
(dp575
I140029623784080
g0
(g122
g2
Ntp576
Rp577
(dp578
g49
I2
sg126
g0
(g127
g2
Ntp579
Rp580
(dp581
g49
I1
sg131
g132
(g133
(I0
tp582
g135
tp583
Rp584
(I1
(I2
tp585
g59
I00
S'\x00\x00\x00\x00\x00\x00\xf0\x7f\x00\x00\x00\x00\x00\x00\xf0\x7f'
p586
tp587
bsg52
(dp588
I140029623784080
g577
ssg142
g132
(g133
(I0
tp589
g135
tp590
Rp591
(I1
(I2
I2
tp592
g59
I00
S'\x00\x00\x00\x00\x00\x00\x00\x00\x00\x00\x00\x00\x00\x00\x00\x00\x00\x00\x00\x00\x00\x00\xf0?\x00\x00\x00\x00\x00\x00\xf0?'
p593
tp594
bsg149
g132
(g133
(I0
tp595
g135
tp596
Rp597
(I1
(I2
I2
tp598
g59
I00
S'\x00\x00\x00\x00\x00\x00\x00\x00\x00\x00\x00\x00\x00\x00\x00\x00\x00\x00\x00\x00\x00\x00\xf0?\x00\x00\x00\x00\x00\x00\xf0?'
p599
tp600
bsg156
I01
sg51
g7
sbsg115
g533
sg149
Nsg52
(dp601
sg51
g7
sbssg51
g7
sbsI140029662284048
g0
(g176
g2
Ntp602
Rp603
(dp604
g49
I2
sg180
I2
sg181
g0
(g176
g2
Ntp605
Rp606
(dp607
g49
I1
sg180
I2
sg181
g0
(g116
g2
Ntp608
Rp609
(dp610
g49
I1
sg120
Nsg50
Nsg121
g0
(g127
g2
Ntp611
Rp612
(dp613
g49
I1
sg131
g132
(g133
(I0
tp614
g135
tp615
Rp616
(I1
(I2
tp617
g59
I00
S'\x00\x00\x00\x00\x00\x00\xf0\x7f\x00\x00\x00\x00\x00\x00\xf0\x7f'
p618
tp619
bsg52
(dp620
I140029662283536
g609
ssg142
g132
(g133
(I0
tp621
g135
tp622
Rp623
(I1
(I2
I2
tp624
g59
I00
S'\x00\x00\x00\x00\x00\x00\x00\x00\x00\x00\x00\x00\x00\x00\x00\x00\x00\x00\x00\x00\x00\x00\xf0?\x00\x00\x00\x00\x00\x00\xf0?'
p625
tp626
bsg149
g132
(g133
(I0
tp627
g135
tp628
Rp629
(I1
(I2
I2
tp630
g59
I00
S'\x00\x00\x00\x00\x00\x00\x00\x00\x00\x00\x00\x00\x00\x00\x00\x00\x00\x00\x00\x00\x00\x00\xf0?\x00\x00\x00\x00\x00\x00\xf0?'
p631
tp632
bsg156
I01
sg51
g7
sbsg52
(dp633
I140029662284240
g606
ssg51
g7
sbsg228
I2
sg229
g0
(g157
g2
Ntp634
Rp635
(dp636
g49
I2
sg50
Nsg120
g132
(g133
(I0
tp637
g135
tp638
Rp639
(I1
(I3
I3
tp640
g59
I00
S'\x00\x00\x00\x00\x00\x00\xf0?\x00\x00\x00\x00\x00\x00\x00\x00\x00\x00\x00\x00\x00\x00\x00\x00\x00\x00\x00\x00\x00\x00\x00\x00\x00\x00\x00\x00\x00\x00\xf0?\x00\x00\x00\x00\x00\x00\x00\x00\x00\x00\x00\x00\x00\x00\x00\x00\x00\x00\x00\x00\x00\x00\x00\x00\x00\x00\x00\x00\x00\x00\xf0?'
p641
tp642
bsg51
g7
sg52
(dp643
I140029662284240
g606
ssbsg52
(dp644
I140029662284048
g603
ssg51
g7
sbsg228
I2
sg229
g187
sg52
(dp645
I140029662283920
g0
(g122
g2
Ntp646
Rp647
(dp648
g49
I2
sg126
g0
(g127
g2
Ntp649
Rp650
(dp651
g49
I1
sg131
g132
(g133
(I0
tp652
g135
tp653
Rp654
(I1
(I2
tp655
g59
I00
S'\x00\x00\x00\x00\x00\x00\xf0\x7f\x00\x00\x00\x00\x00\x00\xf0\x7f'
p656
tp657
bsg52
(dp658
I140029662283920
g647
ssg142
g132
(g133
(I0
tp659
g135
tp660
Rp661
(I1
(I2
I2
tp662
g59
I00
S'\x00\x00\x00\x00\x00\x00\x00\x00\x00\x00\x00\x00\x00\x00\x00\x00\x00\x00\x00\x00\x00\x00\xf0?\x00\x00\x00\x00\x00\x00\xf0?'
p663
tp664
bsg149
g132
(g133
(I0
tp665
g135
tp666
Rp667
(I1
(I2
I2
tp668
g59
I00
S'\x00\x00\x00\x00\x00\x00\x00\x00\x00\x00\x00\x00\x00\x00\x00\x00\x00\x00\x00\x00\x00\x00\xf0?\x00\x00\x00\x00\x00\x00\xf0?'
p669
tp670
bsg156
I01
sg51
g7
sbsg115
g603
sg149
Nsg52
(dp671
sg51
g7
sbssg51
g7
sbsI140029619088848
g240
sI140029619087824
g0
(g176
g2
Ntp672
Rp673
(dp674
g49
I2
sg180
I2
sg181
g0
(g176
g2
Ntp675
Rp676
(dp677
g49
I1
sg180
I2
sg181
g0
(g116
g2
Ntp678
Rp679
(dp680
g49
I1
sg120
Nsg50
Nsg121
g0
(g127
g2
Ntp681
Rp682
(dp683
g49
I1
sg131
g132
(g133
(I0
tp684
g135
tp685
Rp686
(I1
(I2
tp687
g59
I00
S'\x00\x00\x00\x00\x00\x00\xf0\x7f\x00\x00\x00\x00\x00\x00\xf0\x7f'
p688
tp689
bsg52
(dp690
I140029619085840
g679
ssg142
g132
(g133
(I0
tp691
g135
tp692
Rp693
(I1
(I2
I2
tp694
g59
I00
S'\x00\x00\x00\x00\x00\x00\x00\x00\x00\x00\x00\x00\x00\x00\x00\x00\x00\x00\x00\x00\x00\x00\xf0?\x00\x00\x00\x00\x00\x00\xf0?'
p695
tp696
bsg149
g132
(g133
(I0
tp697
g135
tp698
Rp699
(I1
(I2
I2
tp700
g59
I00
S'\x00\x00\x00\x00\x00\x00\x00\x00\x00\x00\x00\x00\x00\x00\x00\x00\x00\x00\x00\x00\x00\x00\xf0?\x00\x00\x00\x00\x00\x00\xf0?'
p701
tp702
bsg156
I01
sg51
g7
sbsg52
(dp703
I140029619086480
g676
ssg51
g7
sbsg228
I2
sg229
g0
(g157
g2
Ntp704
Rp705
(dp706
g49
I2
sg50
Nsg120
g132
(g133
(I0
tp707
g135
tp708
Rp709
(I1
(I3
I3
tp710
g59
I00
S'\x00\x00\x00\x00\x00\x00\xf0?\x00\x00\x00\x00\x00\x00\x00\x00\x00\x00\x00\x00\x00\x00\x00\x00\x00\x00\x00\x00\x00\x00\x00\x00\x00\x00\x00\x00\x00\x00\xf0?\x00\x00\x00\x00\x00\x00\x00\x00\x00\x00\x00\x00\x00\x00\x00\x00\x00\x00\x00\x00\x00\x00\x00\x00\x00\x00\x00\x00\x00\x00\xf0?'
p711
tp712
bsg51
g7
sg52
(dp713
I140029619086480
g676
ssbsg52
(dp714
I140029619087824
g673
ssg51
g7
sbsg228
I2
sg229
g187
sg52
(dp715
I140029619085392
g0
(g122
g2
Ntp716
Rp717
(dp718
g49
I2
sg126
g0
(g127
g2
Ntp719
Rp720
(dp721
g49
I1
sg131
g132
(g133
(I0
tp722
g135
tp723
Rp724
(I1
(I2
tp725
g59
I00
S'\x00\x00\x00\x00\x00\x00\xf0\x7f\x00\x00\x00\x00\x00\x00\xf0\x7f'
p726
tp727
bsg52
(dp728
I140029619085392
g717
ssg142
g132
(g133
(I0
tp729
g135
tp730
Rp731
(I1
(I2
I2
tp732
g59
I00
S'\x00\x00\x00\x00\x00\x00\x00\x00\x00\x00\x00\x00\x00\x00\x00\x00\x00\x00\x00\x00\x00\x00\xf0?\x00\x00\x00\x00\x00\x00\xf0?'
p733
tp734
bsg149
g132
(g133
(I0
tp735
g135
tp736
Rp737
(I1
(I2
I2
tp738
g59
I00
S'\x00\x00\x00\x00\x00\x00\x00\x00\x00\x00\x00\x00\x00\x00\x00\x00\x00\x00\x00\x00\x00\x00\xf0?\x00\x00\x00\x00\x00\x00\xf0?'
p739
tp740
bsg156
I01
sg51
g7
sbsg115
g673
sg149
Nsg52
(dp741
sg51
g7
sbssg51
g7
sbsI140029660989584
g0
(g176
g2
Ntp742
Rp743
(dp744
g49
I2
sg180
I2
sg181
g0
(cmatplotlib.transforms
BboxTransformFrom
p745
g2
Ntp746
Rp747
(dp748
g49
I2
sS'_boxin'
p749
g0
(g122
g2
Ntp750
Rp751
(dp752
g49
I2
sg126
g0
(g127
g2
Ntp753
Rp754
(dp755
g49
I2
sg131
g132
(g133
(I0
tp756
g135
tp757
Rp758
(I1
(I2
tp759
g59
I00
S'\x00\x00\x00\x00\x00\x00\xf0\x7f\x00\x00\x00\x00\x00\x00\xf0\x7f'
p760
tp761
bsg52
(dp762
I140029622490320
g751
ssg142
g132
(g133
(I0
tp763
g135
tp764
Rp765
(I1
(I2
I2
tp766
g59
I00
S'\x00\x00\x00\x00\x00\x00\x00\x00\x00\x00\x00\x00\x00\x00\x00\x00\x00\x00\x00\x00\x00\x00\xf0?\x00\x00\x00\x00\x00\x00\xf0?'
p767
tp768
bsg149
g132
(g133
(I0
tp769
g135
tp770
Rp771
(I1
(I2
I2
tp772
g59
I00
S'\x83\xa3\xfa\xb5M\x18\xe5\xbf\x00\x00\x00\x00\x00\x00\x00\x00bJCk0\xce)@\x00\x00\x00\x00\x00\x80O@'
p773
tp774
bsg156
I01
sg51
g7
sbsg115
g0
(cmatplotlib.transforms
TransformWrapper
p775
g2
Ntp776
Rp777
(dp778
Voutput_dims
p779
I2
sVparents
p780
(dp781
I140029622490320
g751
sI140029660989072
g0
(g176
g2
Ntp782
Rp783
(dp784
g49
I2
sg180
I2
sg181
g777
sg228
I2
sg229
g743
sg52
(dp785
I140029622249360
g184
sI140029622251408
g0
(g182
g2
Ntp786
Rp787
(dp788
g49
I2
sg75
g783
sg76
g187
sS'_affine'
p789
Nsg52
(dp790
I140029622796240
g0
(g176
g2
Ntp791
Rp792
(dp793
g49
I2
sg180
I2
sg181
g787
sg228
I2
sg229
g0
(g168
g2
Ntp794
Rp795
(dp796
g49
I1
sg120
Nsg172
g159
sg50
Nsg173
(F-0.04861111111111111
I0
tp797
sg51
g7
sg52
(dp798
I140029622796240
g792
ssbsg52
(dp799
sg51
g7
sbsI140029623998416
g0
(g176
g2
Ntp800
Rp801
(dp802
g49
I2
sg180
I2
sg181
g787
sg228
I2
sg229
g0
(g168
g2
Ntp803
Rp804
(dp805
g49
I1
sg120
Nsg172
g159
sg50
Nsg173
(F-0.04861111111111111
I0
tp806
sg51
g7
sg52
(dp807
I140029623998416
g801
ssbsg52
(dp808
sg51
g7
sbsI140029623998608
g0
(g176
g2
Ntp809
Rp810
(dp811
g49
I2
sg180
I2
sg181
g787
sg228
I2
sg229
g0
(g168
g2
Ntp812
Rp813
(dp814
g49
I1
sg120
Nsg172
g159
sg50
Nsg173
(F-0.04722222222222222
I0
tp815
sg51
g7
sg52
(dp816
I140029623998608
g810
ssbsg52
(dp817
sg51
g7
sbsI140029622793552
g0
(g176
g2
Ntp818
Rp819
(dp820
g49
I2
sg180
I2
sg181
g787
sg228
I2
sg229
g0
(g168
g2
Ntp821
Rp822
(dp823
g49
I1
sg120
Nsg172
g159
sg50
Nsg173
(F0.04861111111111111
I0
tp824
sg51
g7
sg52
(dp825
I140029622793552
g819
ssbsg52
(dp826
sg51
g7
sbsI140029623998992
g0
(g176
g2
Ntp827
Rp828
(dp829
g49
I2
sg180
I2
sg181
g787
sg228
I2
sg229
g0
(g168
g2
Ntp830
Rp831
(dp832
g49
I1
sg120
Nsg172
g159
sg50
Nsg173
(F0.04861111111111111
I0
tp833
sg51
g7
sg52
(dp834
I140029623998992
g828
ssbsg52
(dp835
sg51
g7
sbsI140029623998864
g0
(g176
g2
Ntp836
Rp837
(dp838
g49
I2
sg180
I2
sg181
g787
sg228
I2
sg229
g0
(g168
g2
Ntp839
Rp840
(dp841
g49
I1
sg120
Nsg172
g159
sg50
Nsg173
(F0.04722222222222222
I0
tp842
sg51
g7
sg52
(dp843
I140029623998864
g837
ssbsg52
(dp844
sg51
g7
sbsI140029624000016
g0
(g176
g2
Ntp845
Rp846
(dp847
g49
I2
sg180
I2
sg181
g787
sg228
I2
sg229
g0
(g168
g2
Ntp848
Rp849
(dp850
g49
I1
sg120
Nsg172
g159
sg50
Nsg173
(F-0.04722222222222222
I0
tp851
sg51
g7
sg52
(dp852
I140029624000016
g846
ssbsg52
(dp853
sg51
g7
sbsI140029623954192
g0
(g176
g2
Ntp854
Rp855
(dp856
g49
I2
sg180
I2
sg181
g787
sg228
I2
sg229
g0
(g168
g2
Ntp857
Rp858
(dp859
g49
I1
sg120
Nsg172
g159
sg50
Nsg173
(F0.04722222222222222
I0
tp860
sg51
g7
sg52
(dp861
I140029623954192
g855
ssbsg52
(dp862
sg51
g7
sbssg51
g7
sbssg51
g7
sbssVinput_dims
p863
I2
sVchild
p864
g0
(g216
g2
Ntp865
Rp866
(dp867
g49
I0
sg120
g132
(g133
(I0
tp868
g135
tp869
Rp870
(I1
(I3
I3
tp871
g59
I00
S'\x00\x00\x00\x00\x00\x00\xf0?\x00\x00\x00\x00\x00\x00\x00\x00\x00\x00\x00\x00\x00\x00\x00\x00\x00\x00\x00\x00\x00\x00\x00\x00\x00\x00\x00\x00\x00\x00\xf0?\x00\x00\x00\x00\x00\x00\x00\x00\x00\x00\x00\x00\x00\x00\x00\x00\x00\x00\x00\x00\x00\x00\x00\x00\x00\x00\x00\x00\x00\x00\xf0?'
p872
tp873
bsg75
g0
(g45
g2
Ntp874
Rp875
(dp876
g49
I1
sg50
Nsg51
g7
sg52
(dp877
I140029619088336
g866
ssbsg76
g0
(g45
g2
Ntp878
Rp879
(dp880
g49
I1
sg50
Nsg51
g7
sg52
(dp881
I140029619088336
g866
ssbsg50
Nsg51
g7
sg52
(dp882
I140029660989776
g777
ssbsbsg149
Nsg52
(dp883
I140029622491152
g747
ssg51
g7
sbsg120
Nsg50
Nsg51
g7
sg52
(dp884
I140029660989584
g743
ssbsg228
I2
sg229
g187
sg52
(dp885
I140029660989072
g783
ssg51
g7
sbsI140029619088016
g0
(g176
g2
Ntp886
Rp887
(dp888
g49
I2
sg180
I2
sg181
g0
(g176
g2
Ntp889
Rp890
(dp891
g49
I1
sg180
I2
sg181
g0
(g116
g2
Ntp892
Rp893
(dp894
g49
I1
sg120
Nsg50
Nsg121
g0
(g127
g2
Ntp895
Rp896
(dp897
g49
I1
sg131
g132
(g133
(I0
tp898
g135
tp899
Rp900
(I1
(I2
tp901
g59
I00
S'\x00\x00\x00\x00\x00\x00\xf0\x7f\x00\x00\x00\x00\x00\x00\xf0\x7f'
p902
tp903
bsg52
(dp904
I140029619089296
g893
ssg142
g132
(g133
(I0
tp905
g135
tp906
Rp907
(I1
(I2
I2
tp908
g59
I00
S'\x00\x00\x00\x00\x00\x00\x00\x00\x00\x00\x00\x00\x00\x00\x00\x00\x00\x00\x00\x00\x00\x00\xf0?\x00\x00\x00\x00\x00\x00\xf0?'
p909
tp910
bsg149
g132
(g133
(I0
tp911
g135
tp912
Rp913
(I1
(I2
I2
tp914
g59
I00
S'\x00\x00\x00\x00\x00\x00\x00\x00\x00\x00\x00\x00\x00\x00\x00\x00\x00\x00\x00\x00\x00\x00\xf0?\x00\x00\x00\x00\x00\x00\xf0?'
p915
tp916
bsg156
I01
sg51
g7
sbsg52
(dp917
I140029619086096
g890
ssg51
g7
sbsg228
I2
sg229
g0
(g157
g2
Ntp918
Rp919
(dp920
g49
I2
sg50
Nsg120
g132
(g133
(I0
tp921
g135
tp922
Rp923
(I1
(I3
I3
tp924
g59
I00
S'\x00\x00\x00\x00\x00\x00\xf0?\x00\x00\x00\x00\x00\x00\x00\x00\x00\x00\x00\x00\x00\x00\x00\x00\x00\x00\x00\x00\x00\x00\x00\x00\x00\x00\x00\x00\x00\x00\xf0?\x00\x00\x00\x00\x00\x00\x00\x00\x00\x00\x00\x00\x00\x00\x00\x00\x00\x00\x00\x00\x00\x00\x00\x00\x00\x00\x00\x00\x00\x00\xf0?'
p925
tp926
bsg51
g7
sg52
(dp927
I140029619086096
g890
ssbsg52
(dp928
I140029619088016
g887
ssg51
g7
sbsg228
I2
sg229
g187
sg52
(dp929
I140029619086672
g0
(g122
g2
Ntp930
Rp931
(dp932
g49
I2
sg126
g0
(g127
g2
Ntp933
Rp934
(dp935
g49
I1
sg131
g132
(g133
(I0
tp936
g135
tp937
Rp938
(I1
(I2
tp939
g59
I00
S'\x00\x00\x00\x00\x00\x00\xf0\x7f\x00\x00\x00\x00\x00\x00\xf0\x7f'
p940
tp941
bsg52
(dp942
I140029619086672
g931
ssg142
g132
(g133
(I0
tp943
g135
tp944
Rp945
(I1
(I2
I2
tp946
g59
I00
S'\x00\x00\x00\x00\x00\x00\x00\x00\x00\x00\x00\x00\x00\x00\x00\x00\x00\x00\x00\x00\x00\x00\xf0?\x00\x00\x00\x00\x00\x00\xf0?'
p947
tp948
bsg149
g132
(g133
(I0
tp949
g135
tp950
Rp951
(I1
(I2
I2
tp952
g59
I00
S'\x00\x00\x00\x00\x00\x00\x00\x00\x00\x00\x00\x00\x00\x00\x00\x00\x00\x00\x00\x00\x00\x00\xf0?\x00\x00\x00\x00\x00\x00\xf0?'
p953
tp954
bsg156
I01
sg51
g7
sbsg115
g887
sg149
Nsg52
(dp955
sg51
g7
sbssg51
g7
sbsI140029623872592
g0
(g176
g2
Ntp956
Rp957
(dp958
g49
I2
sg180
I2
sg181
g0
(g176
g2
Ntp959
Rp960
(dp961
g49
I1
sg180
I2
sg181
g0
(g116
g2
Ntp962
Rp963
(dp964
g49
I1
sg120
Nsg50
Nsg121
g0
(g127
g2
Ntp965
Rp966
(dp967
g49
I1
sg131
g132
(g133
(I0
tp968
g135
tp969
Rp970
(I1
(I2
tp971
g59
I00
S'\x00\x00\x00\x00\x00\x00\xf0\x7f\x00\x00\x00\x00\x00\x00\xf0\x7f'
p972
tp973
bsg52
(dp974
I140029620109072
g963
ssg142
g132
(g133
(I0
tp975
g135
tp976
Rp977
(I1
(I2
I2
tp978
g59
I00
S'\x00\x00\x00\x00\x00\x00\x00\x00\x00\x00\x00\x00\x00\x00\x00\x00\x00\x00\x00\x00\x00\x00\xf0?\x00\x00\x00\x00\x00\x00\xf0?'
p979
tp980
bsg149
g132
(g133
(I0
tp981
g135
tp982
Rp983
(I1
(I2
I2
tp984
g59
I00
S'\x00\x00\x00\x00\x00\x00\x00\x00\x00\x00\x00\x00\x00\x00\x00\x00\x00\x00\x00\x00\x00\x00\xf0?\x00\x00\x00\x00\x00\x00\xf0?'
p985
tp986
bsg156
I01
sg51
g7
sbsg52
(dp987
I140029620107792
g960
ssg51
g7
sbsg228
I2
sg229
g0
(g157
g2
Ntp988
Rp989
(dp990
g49
I2
sg50
Nsg120
g132
(g133
(I0
tp991
g135
tp992
Rp993
(I1
(I3
I3
tp994
g59
I00
S'\x00\x00\x00\x00\x00\x00\xf0?\x00\x00\x00\x00\x00\x00\x00\x00\x00\x00\x00\x00\x00\x00\x00\x00\x00\x00\x00\x00\x00\x00\x00\x00\x00\x00\x00\x00\x00\x00\xf0?\x00\x00\x00\x00\x00\x00\x00\x00\x00\x00\x00\x00\x00\x00\x00\x00\x00\x00\x00\x00\x00\x00\x00\x00\x00\x00\x00\x00\x00\x00\xf0?'
p995
tp996
bsg51
g7
sg52
(dp997
I140029620107792
g960
ssbsg52
(dp998
I140029623872592
g957
ssg51
g7
sbsg228
I2
sg229
g187
sg52
(dp999
I140029623870544
g0
(g122
g2
Ntp1000
Rp1001
(dp1002
g49
I2
sg126
g0
(g127
g2
Ntp1003
Rp1004
(dp1005
g49
I1
sg131
g132
(g133
(I0
tp1006
g135
tp1007
Rp1008
(I1
(I2
tp1009
g59
I00
S'\x00\x00\x00\x00\x00\x00\xf0\x7f\x00\x00\x00\x00\x00\x00\xf0\x7f'
p1010
tp1011
bsg52
(dp1012
I140029623870544
g1001
ssg142
g132
(g133
(I0
tp1013
g135
tp1014
Rp1015
(I1
(I2
I2
tp1016
g59
I00
S'\x00\x00\x00\x00\x00\x00\x00\x00\x00\x00\x00\x00\x00\x00\x00\x00\x00\x00\x00\x00\x00\x00\xf0?\x00\x00\x00\x00\x00\x00\xf0?'
p1017
tp1018
bsg149
g132
(g133
(I0
tp1019
g135
tp1020
Rp1021
(I1
(I2
I2
tp1022
g59
I00
S'\x00\x00\x00\x00\x00\x00\x00\x00\x00\x00\x00\x00\x00\x00\x00\x00\x00\x00\x00\x00\x00\x00\xf0?\x00\x00\x00\x00\x00\x00\xf0?'
p1023
tp1024
bsg156
I01
sg51
g7
sbsg115
g957
sg149
Nsg52
(dp1025
sg51
g7
sbssg51
g7
sbsI140029623797072
g0
(g176
g2
Ntp1026
Rp1027
(dp1028
g49
I2
sg180
I2
sg181
g0
(g176
g2
Ntp1029
Rp1030
(dp1031
g49
I1
sg180
I2
sg181
g0
(g116
g2
Ntp1032
Rp1033
(dp1034
g49
I1
sg120
Nsg50
Nsg121
g0
(g127
g2
Ntp1035
Rp1036
(dp1037
g49
I1
sg131
g132
(g133
(I0
tp1038
g135
tp1039
Rp1040
(I1
(I2
tp1041
g59
I00
S'\x00\x00\x00\x00\x00\x00\xf0\x7f\x00\x00\x00\x00\x00\x00\xf0\x7f'
p1042
tp1043
bsg52
(dp1044
I140029623799312
g1033
ssg142
g132
(g133
(I0
tp1045
g135
tp1046
Rp1047
(I1
(I2
I2
tp1048
g59
I00
S'\x00\x00\x00\x00\x00\x00\x00\x00\x00\x00\x00\x00\x00\x00\x00\x00\x00\x00\x00\x00\x00\x00\xf0?\x00\x00\x00\x00\x00\x00\xf0?'
p1049
tp1050
bsg149
g132
(g133
(I0
tp1051
g135
tp1052
Rp1053
(I1
(I2
I2
tp1054
g59
I00
S'\x00\x00\x00\x00\x00\x00\x00\x00\x00\x00\x00\x00\x00\x00\x00\x00\x00\x00\x00\x00\x00\x00\xf0?\x00\x00\x00\x00\x00\x00\xf0?'
p1055
tp1056
bsg156
I01
sg51
g7
sbsg52
(dp1057
I140029623797008
g1030
ssg51
g7
sbsg228
I2
sg229
g0
(g157
g2
Ntp1058
Rp1059
(dp1060
g49
I2
sg50
Nsg120
g132
(g133
(I0
tp1061
g135
tp1062
Rp1063
(I1
(I3
I3
tp1064
g59
I00
S'\x00\x00\x00\x00\x00\x00\xf0?\x00\x00\x00\x00\x00\x00\x00\x00\x00\x00\x00\x00\x00\x00\x00\x00\x00\x00\x00\x00\x00\x00\x00\x00\x00\x00\x00\x00\x00\x00\xf0?\x00\x00\x00\x00\x00\x00\x00\x00\x00\x00\x00\x00\x00\x00\x00\x00\x00\x00\x00\x00\x00\x00\x00\x00\x00\x00\x00\x00\x00\x00\xf0?'
p1065
tp1066
bsg51
g7
sg52
(dp1067
I140029623797008
g1030
ssbsg52
(dp1068
I140029623797072
g1027
ssg51
g7
sbsg228
I2
sg229
g187
sg52
(dp1069
I140029623796240
g0
(g122
g2
Ntp1070
Rp1071
(dp1072
g49
I2
sg126
g0
(g127
g2
Ntp1073
Rp1074
(dp1075
g49
I1
sg131
g132
(g133
(I0
tp1076
g135
tp1077
Rp1078
(I1
(I2
tp1079
g59
I00
S'\x00\x00\x00\x00\x00\x00\xf0\x7f\x00\x00\x00\x00\x00\x00\xf0\x7f'
p1080
tp1081
bsg52
(dp1082
I140029623796240
g1071
ssg142
g132
(g133
(I0
tp1083
g135
tp1084
Rp1085
(I1
(I2
I2
tp1086
g59
I00
S'\x00\x00\x00\x00\x00\x00\x00\x00\x00\x00\x00\x00\x00\x00\x00\x00\x00\x00\x00\x00\x00\x00\xf0?\x00\x00\x00\x00\x00\x00\xf0?'
p1087
tp1088
bsg149
g132
(g133
(I0
tp1089
g135
tp1090
Rp1091
(I1
(I2
I2
tp1092
g59
I00
S'\x00\x00\x00\x00\x00\x00\x00\x00\x00\x00\x00\x00\x00\x00\x00\x00\x00\x00\x00\x00\x00\x00\xf0?\x00\x00\x00\x00\x00\x00\xf0?'
p1093
tp1094
bsg156
I01
sg51
g7
sbsg115
g1027
sg149
Nsg52
(dp1095
sg51
g7
sbssg51
g7
sbsI140029623872976
g0
(g216
g2
Ntp1096
Rp1097
(dp1098
g49
I2
sg120
Nsg75
g187
sg76
g0
(g45
g2
Ntp1099
Rp1100
(dp1101
g49
I1
sg50
Nsg51
g7
sg52
(dp1102
I140029623872976
g1097
ssbsg50
Nsg51
g7
sg52
(dp1103
sbsI140029624061456
g0
(g176
g2
Ntp1104
Rp1105
(dp1106
g49
I2
sg180
I2
sg181
g0
(g176
g2
Ntp1107
Rp1108
(dp1109
g49
I1
sg180
I2
sg181
g0
(g116
g2
Ntp1110
Rp1111
(dp1112
g49
I1
sg120
Nsg50
Nsg121
g0
(g127
g2
Ntp1113
Rp1114
(dp1115
g49
I1
sg131
g132
(g133
(I0
tp1116
g135
tp1117
Rp1118
(I1
(I2
tp1119
g59
I00
S'\x00\x00\x00\x00\x00\x00\xf0\x7f\x00\x00\x00\x00\x00\x00\xf0\x7f'
p1120
tp1121
bsg52
(dp1122
I140029624059664
g1111
ssg142
g132
(g133
(I0
tp1123
g135
tp1124
Rp1125
(I1
(I2
I2
tp1126
g59
I00
S'\x00\x00\x00\x00\x00\x00\x00\x00\x00\x00\x00\x00\x00\x00\x00\x00\x00\x00\x00\x00\x00\x00\xf0?\x00\x00\x00\x00\x00\x00\xf0?'
p1127
tp1128
bsg149
g132
(g133
(I0
tp1129
g135
tp1130
Rp1131
(I1
(I2
I2
tp1132
g59
I00
S'\x00\x00\x00\x00\x00\x00\x00\x00\x00\x00\x00\x00\x00\x00\x00\x00\x00\x00\x00\x00\x00\x00\xf0?\x00\x00\x00\x00\x00\x00\xf0?'
p1133
tp1134
bsg156
I01
sg51
g7
sbsg52
(dp1135
I140029624060304
g1108
ssg51
g7
sbsg228
I2
sg229
g0
(g157
g2
Ntp1136
Rp1137
(dp1138
g49
I2
sg50
Nsg120
g132
(g133
(I0
tp1139
g135
tp1140
Rp1141
(I1
(I3
I3
tp1142
g59
I00
S'\x00\x00\x00\x00\x00\x00\xf0?\x00\x00\x00\x00\x00\x00\x00\x00\x00\x00\x00\x00\x00\x00\x00\x00\x00\x00\x00\x00\x00\x00\x00\x00\x00\x00\x00\x00\x00\x00\xf0?\x00\x00\x00\x00\x00\x00\x00\x00\x00\x00\x00\x00\x00\x00\x00\x00\x00\x00\x00\x00\x00\x00\x00\x00\x00\x00\x00\x00\x00\x00\xf0?'
p1143
tp1144
bsg51
g7
sg52
(dp1145
I140029624060304
g1108
ssbsg52
(dp1146
I140029624061456
g1105
ssg51
g7
sbsg228
I2
sg229
g187
sg52
(dp1147
I140029624059472
g0
(g122
g2
Ntp1148
Rp1149
(dp1150
g49
I2
sg126
g0
(g127
g2
Ntp1151
Rp1152
(dp1153
g49
I1
sg131
g132
(g133
(I0
tp1154
g135
tp1155
Rp1156
(I1
(I2
tp1157
g59
I00
S'\x00\x00\x00\x00\x00\x00\xf0\x7f\x00\x00\x00\x00\x00\x00\xf0\x7f'
p1158
tp1159
bsg52
(dp1160
I140029624059472
g1149
ssg142
g132
(g133
(I0
tp1161
g135
tp1162
Rp1163
(I1
(I2
I2
tp1164
g59
I00
S'\x00\x00\x00\x00\x00\x00\x00\x00\x00\x00\x00\x00\x00\x00\x00\x00\x00\x00\x00\x00\x00\x00\xf0?\x00\x00\x00\x00\x00\x00\xf0?'
p1165
tp1166
bsg149
g132
(g133
(I0
tp1167
g135
tp1168
Rp1169
(I1
(I2
I2
tp1170
g59
I00
S'\x00\x00\x00\x00\x00\x00\x00\x00\x00\x00\x00\x00\x00\x00\x00\x00\x00\x00\x00\x00\x00\x00\xf0?\x00\x00\x00\x00\x00\x00\xf0?'
p1171
tp1172
bsg156
I01
sg51
g7
sbsg115
g1105
sg149
Nsg52
(dp1173
sg51
g7
sbssg51
g7
sbsI140029623918224
g0
(g176
g2
Ntp1174
Rp1175
(dp1176
g49
I2
sg180
I2
sg181
g0
(g176
g2
Ntp1177
Rp1178
(dp1179
g49
I1
sg180
I2
sg181
g0
(g116
g2
Ntp1180
Rp1181
(dp1182
g49
I1
sg120
Nsg50
Nsg121
g0
(g127
g2
Ntp1183
Rp1184
(dp1185
g49
I1
sg131
g132
(g133
(I0
tp1186
g135
tp1187
Rp1188
(I1
(I2
tp1189
g59
I00
S'\x00\x00\x00\x00\x00\x00\xf0\x7f\x00\x00\x00\x00\x00\x00\xf0\x7f'
p1190
tp1191
bsg52
(dp1192
I140029619089168
g1181
ssg142
g132
(g133
(I0
tp1193
g135
tp1194
Rp1195
(I1
(I2
I2
tp1196
g59
I00
S'\x00\x00\x00\x00\x00\x00\x00\x00\x00\x00\x00\x00\x00\x00\x00\x00\x00\x00\x00\x00\x00\x00\xf0?\x00\x00\x00\x00\x00\x00\xf0?'
p1197
tp1198
bsg149
g132
(g133
(I0
tp1199
g135
tp1200
Rp1201
(I1
(I2
I2
tp1202
g59
I00
S'\x00\x00\x00\x00\x00\x00\x00\x00\x00\x00\x00\x00\x00\x00\x00\x00\x00\x00\x00\x00\x00\x00\xf0?\x00\x00\x00\x00\x00\x00\xf0?'
p1203
tp1204
bsg156
I01
sg51
g7
sbsg52
(dp1205
I140029623917648
g1178
ssg51
g7
sbsg228
I2
sg229
g0
(g157
g2
Ntp1206
Rp1207
(dp1208
g49
I2
sg50
Nsg120
g132
(g133
(I0
tp1209
g135
tp1210
Rp1211
(I1
(I3
I3
tp1212
g59
I00
S'\x00\x00\x00\x00\x00\x00\xf0?\x00\x00\x00\x00\x00\x00\x00\x00\x00\x00\x00\x00\x00\x00\x00\x00\x00\x00\x00\x00\x00\x00\x00\x00\x00\x00\x00\x00\x00\x00\xf0?\x00\x00\x00\x00\x00\x00\x00\x00\x00\x00\x00\x00\x00\x00\x00\x00\x00\x00\x00\x00\x00\x00\x00\x00\x00\x00\x00\x00\x00\x00\xf0?'
p1213
tp1214
bsg51
g7
sg52
(dp1215
I140029623917648
g1178
ssbsg52
(dp1216
I140029623918224
g1175
ssg51
g7
sbsg228
I2
sg229
g187
sg52
(dp1217
I140029623916048
g0
(g122
g2
Ntp1218
Rp1219
(dp1220
g49
I2
sg126
g0
(g127
g2
Ntp1221
Rp1222
(dp1223
g49
I1
sg131
g132
(g133
(I0
tp1224
g135
tp1225
Rp1226
(I1
(I2
tp1227
g59
I00
S'\x00\x00\x00\x00\x00\x00\xf0\x7f\x00\x00\x00\x00\x00\x00\xf0\x7f'
p1228
tp1229
bsg52
(dp1230
I140029623916048
g1219
ssg142
g132
(g133
(I0
tp1231
g135
tp1232
Rp1233
(I1
(I2
I2
tp1234
g59
I00
S'\x00\x00\x00\x00\x00\x00\x00\x00\x00\x00\x00\x00\x00\x00\x00\x00\x00\x00\x00\x00\x00\x00\xf0?\x00\x00\x00\x00\x00\x00\xf0?'
p1235
tp1236
bsg149
g132
(g133
(I0
tp1237
g135
tp1238
Rp1239
(I1
(I2
I2
tp1240
g59
I00
S'\x00\x00\x00\x00\x00\x00\x00\x00\x00\x00\x00\x00\x00\x00\x00\x00\x00\x00\x00\x00\x00\x00\xf0?\x00\x00\x00\x00\x00\x00\xf0?'
p1241
tp1242
bsg156
I01
sg51
g7
sbsg115
g1175
sg149
Nsg52
(dp1243
sg51
g7
sbssg51
g7
sbsI140029623869584
g0
(g216
g2
Ntp1244
Rp1245
(dp1246
g49
I2
sg120
Nsg75
g0
(g45
g2
Ntp1247
Rp1248
(dp1249
g49
I1
sg50
Nsg51
g7
sg52
(dp1250
I140029623869584
g1245
ssbsg76
g187
sg50
Nsg51
g7
sg52
(dp1251
sbsI140029624061712
g0
(g176
g2
Ntp1252
Rp1253
(dp1254
g49
I2
sg180
I2
sg181
g0
(g176
g2
Ntp1255
Rp1256
(dp1257
g49
I1
sg180
I2
sg181
g0
(g116
g2
Ntp1258
Rp1259
(dp1260
g49
I1
sg120
Nsg50
Nsg121
g0
(g127
g2
Ntp1261
Rp1262
(dp1263
g49
I1
sg131
g132
(g133
(I0
tp1264
g135
tp1265
Rp1266
(I1
(I2
tp1267
g59
I00
S'\x00\x00\x00\x00\x00\x00\xf0\x7f\x00\x00\x00\x00\x00\x00\xf0\x7f'
p1268
tp1269
bsg52
(dp1270
I140029623783952
g1259
ssg142
g132
(g133
(I0
tp1271
g135
tp1272
Rp1273
(I1
(I2
I2
tp1274
g59
I00
S'\x00\x00\x00\x00\x00\x00\x00\x00\x00\x00\x00\x00\x00\x00\x00\x00\x00\x00\x00\x00\x00\x00\xf0?\x00\x00\x00\x00\x00\x00\xf0?'
p1275
tp1276
bsg149
g132
(g133
(I0
tp1277
g135
tp1278
Rp1279
(I1
(I2
I2
tp1280
g59
I00
S'\x00\x00\x00\x00\x00\x00\x00\x00\x00\x00\x00\x00\x00\x00\x00\x00\x00\x00\x00\x00\x00\x00\xf0?\x00\x00\x00\x00\x00\x00\xf0?'
p1281
tp1282
bsg156
I01
sg51
g7
sbsg52
(dp1283
I140029623786704
g1256
ssg51
g7
sbsg228
I2
sg229
g0
(g157
g2
Ntp1284
Rp1285
(dp1286
g49
I2
sg50
Nsg120
g132
(g133
(I0
tp1287
g135
tp1288
Rp1289
(I1
(I3
I3
tp1290
g59
I00
S'\x00\x00\x00\x00\x00\x00\xf0?\x00\x00\x00\x00\x00\x00\x00\x00\x00\x00\x00\x00\x00\x00\x00\x00\x00\x00\x00\x00\x00\x00\x00\x00\x00\x00\x00\x00\x00\x00\xf0?\x00\x00\x00\x00\x00\x00\x00\x00\x00\x00\x00\x00\x00\x00\x00\x00\x00\x00\x00\x00\x00\x00\x00\x00\x00\x00\x00\x00\x00\x00\xf0?'
p1291
tp1292
bsg51
g7
sg52
(dp1293
I140029623786704
g1256
ssbsg52
(dp1294
I140029624061712
g1253
ssg51
g7
sbsg228
I2
sg229
g187
sg52
(dp1295
I140029624058960
g0
(g122
g2
Ntp1296
Rp1297
(dp1298
g49
I2
sg126
g0
(g127
g2
Ntp1299
Rp1300
(dp1301
g49
I1
sg131
g132
(g133
(I0
tp1302
g135
tp1303
Rp1304
(I1
(I2
tp1305
g59
I00
S'\x00\x00\x00\x00\x00\x00\xf0\x7f\x00\x00\x00\x00\x00\x00\xf0\x7f'
p1306
tp1307
bsg52
(dp1308
I140029624058960
g1297
ssg142
g132
(g133
(I0
tp1309
g135
tp1310
Rp1311
(I1
(I2
I2
tp1312
g59
I00
S'\x00\x00\x00\x00\x00\x00\x00\x00\x00\x00\x00\x00\x00\x00\x00\x00\x00\x00\x00\x00\x00\x00\xf0?\x00\x00\x00\x00\x00\x00\xf0?'
p1313
tp1314
bsg149
g132
(g133
(I0
tp1315
g135
tp1316
Rp1317
(I1
(I2
I2
tp1318
g59
I00
S'\x00\x00\x00\x00\x00\x00\x00\x00\x00\x00\x00\x00\x00\x00\x00\x00\x00\x00\x00\x00\x00\x00\xf0?\x00\x00\x00\x00\x00\x00\xf0?'
p1319
tp1320
bsg156
I01
sg51
g7
sbsg115
g1253
sg149
Nsg52
(dp1321
sg51
g7
sbssg51
g7
sbsI140029623918416
g0
(g176
g2
Ntp1322
Rp1323
(dp1324
g49
I2
sg180
I2
sg181
g0
(g176
g2
Ntp1325
Rp1326
(dp1327
g49
I1
sg180
I2
sg181
g0
(g116
g2
Ntp1328
Rp1329
(dp1330
g49
I1
sg120
Nsg50
Nsg121
g0
(g127
g2
Ntp1331
Rp1332
(dp1333
g49
I1
sg131
g132
(g133
(I0
tp1334
g135
tp1335
Rp1336
(I1
(I2
tp1337
g59
I00
S'\x00\x00\x00\x00\x00\x00\xf0\x7f\x00\x00\x00\x00\x00\x00\xf0\x7f'
p1338
tp1339
bsg52
(dp1340
I140029623916304
g1329
ssg142
g132
(g133
(I0
tp1341
g135
tp1342
Rp1343
(I1
(I2
I2
tp1344
g59
I00
S'\x00\x00\x00\x00\x00\x00\x00\x00\x00\x00\x00\x00\x00\x00\x00\x00\x00\x00\x00\x00\x00\x00\xf0?\x00\x00\x00\x00\x00\x00\xf0?'
p1345
tp1346
bsg149
g132
(g133
(I0
tp1347
g135
tp1348
Rp1349
(I1
(I2
I2
tp1350
g59
I00
S'\x00\x00\x00\x00\x00\x00\x00\x00\x00\x00\x00\x00\x00\x00\x00\x00\x00\x00\x00\x00\x00\x00\xf0?\x00\x00\x00\x00\x00\x00\xf0?'
p1351
tp1352
bsg156
I01
sg51
g7
sbsg52
(dp1353
I140029623916112
g1326
ssg51
g7
sbsg228
I2
sg229
g0
(g157
g2
Ntp1354
Rp1355
(dp1356
g49
I2
sg50
Nsg120
g132
(g133
(I0
tp1357
g135
tp1358
Rp1359
(I1
(I3
I3
tp1360
g59
I00
S'\x00\x00\x00\x00\x00\x00\xf0?\x00\x00\x00\x00\x00\x00\x00\x00\x00\x00\x00\x00\x00\x00\x00\x00\x00\x00\x00\x00\x00\x00\x00\x00\x00\x00\x00\x00\x00\x00\xf0?\x00\x00\x00\x00\x00\x00\x00\x00\x00\x00\x00\x00\x00\x00\x00\x00\x00\x00\x00\x00\x00\x00\x00\x00\x00\x00\x00\x00\x00\x00\xf0?'
p1361
tp1362
bsg51
g7
sg52
(dp1363
I140029623916112
g1326
ssbsg52
(dp1364
I140029623918416
g1323
ssg51
g7
sbsg228
I2
sg229
g187
sg52
(dp1365
I140029623915792
g0
(g122
g2
Ntp1366
Rp1367
(dp1368
g49
I2
sg126
g0
(g127
g2
Ntp1369
Rp1370
(dp1371
g49
I1
sg131
g132
(g133
(I0
tp1372
g135
tp1373
Rp1374
(I1
(I2
tp1375
g59
I00
S'\x00\x00\x00\x00\x00\x00\xf0\x7f\x00\x00\x00\x00\x00\x00\xf0\x7f'
p1376
tp1377
bsg52
(dp1378
I140029623915792
g1367
ssg142
g132
(g133
(I0
tp1379
g135
tp1380
Rp1381
(I1
(I2
I2
tp1382
g59
I00
S'\x00\x00\x00\x00\x00\x00\x00\x00\x00\x00\x00\x00\x00\x00\x00\x00\x00\x00\x00\x00\x00\x00\xf0?\x00\x00\x00\x00\x00\x00\xf0?'
p1383
tp1384
bsg149
g132
(g133
(I0
tp1385
g135
tp1386
Rp1387
(I1
(I2
I2
tp1388
g59
I00
S'\x00\x00\x00\x00\x00\x00\x00\x00\x00\x00\x00\x00\x00\x00\x00\x00\x00\x00\x00\x00\x00\x00\xf0?\x00\x00\x00\x00\x00\x00\xf0?'
p1389
tp1390
bsg156
I01
sg51
g7
sbsg115
g1323
sg149
Nsg52
(dp1391
sg51
g7
sbssg51
g7
sbsI140029623915408
g0
(g176
g2
Ntp1392
Rp1393
(dp1394
g49
I2
sg180
I2
sg181
g0
(g176
g2
Ntp1395
Rp1396
(dp1397
g49
I1
sg180
I2
sg181
g0
(g116
g2
Ntp1398
Rp1399
(dp1400
g49
I1
sg120
Nsg50
Nsg121
g0
(g127
g2
Ntp1401
Rp1402
(dp1403
g49
I1
sg131
g132
(g133
(I0
tp1404
g135
tp1405
Rp1406
(I1
(I2
tp1407
g59
I00
S'\x00\x00\x00\x00\x00\x00\xf0\x7f\x00\x00\x00\x00\x00\x00\xf0\x7f'
p1408
tp1409
bsg52
(dp1410
I140029623917584
g1399
ssg142
g132
(g133
(I0
tp1411
g135
tp1412
Rp1413
(I1
(I2
I2
tp1414
g59
I00
S'\x00\x00\x00\x00\x00\x00\x00\x00\x00\x00\x00\x00\x00\x00\x00\x00\x00\x00\x00\x00\x00\x00\xf0?\x00\x00\x00\x00\x00\x00\xf0?'
p1415
tp1416
bsg149
g132
(g133
(I0
tp1417
g135
tp1418
Rp1419
(I1
(I2
I2
tp1420
g59
I00
S'\x00\x00\x00\x00\x00\x00\x00\x00\x00\x00\x00\x00\x00\x00\x00\x00\x00\x00\x00\x00\x00\x00\xf0?\x00\x00\x00\x00\x00\x00\xf0?'
p1421
tp1422
bsg156
I01
sg51
g7
sbsg52
(dp1423
I140029623918032
g1396
ssg51
g7
sbsg228
I2
sg229
g0
(g157
g2
Ntp1424
Rp1425
(dp1426
g49
I2
sg50
Nsg120
g132
(g133
(I0
tp1427
g135
tp1428
Rp1429
(I1
(I3
I3
tp1430
g59
I00
S'\x00\x00\x00\x00\x00\x00\xf0?\x00\x00\x00\x00\x00\x00\x00\x00\x00\x00\x00\x00\x00\x00\x00\x00\x00\x00\x00\x00\x00\x00\x00\x00\x00\x00\x00\x00\x00\x00\xf0?\x00\x00\x00\x00\x00\x00\x00\x00\x00\x00\x00\x00\x00\x00\x00\x00\x00\x00\x00\x00\x00\x00\x00\x00\x00\x00\x00\x00\x00\x00\xf0?'
p1431
tp1432
bsg51
g7
sg52
(dp1433
I140029623918032
g1396
ssbsg52
(dp1434
I140029623915408
g1393
ssg51
g7
sbsg228
I2
sg229
g187
sg52
(dp1435
I140029623916240
g0
(g122
g2
Ntp1436
Rp1437
(dp1438
g49
I2
sg126
g0
(g127
g2
Ntp1439
Rp1440
(dp1441
g49
I1
sg131
g132
(g133
(I0
tp1442
g135
tp1443
Rp1444
(I1
(I2
tp1445
g59
I00
S'\x00\x00\x00\x00\x00\x00\xf0\x7f\x00\x00\x00\x00\x00\x00\xf0\x7f'
p1446
tp1447
bsg52
(dp1448
I140029623916240
g1437
ssg142
g132
(g133
(I0
tp1449
g135
tp1450
Rp1451
(I1
(I2
I2
tp1452
g59
I00
S'\x00\x00\x00\x00\x00\x00\x00\x00\x00\x00\x00\x00\x00\x00\x00\x00\x00\x00\x00\x00\x00\x00\xf0?\x00\x00\x00\x00\x00\x00\xf0?'
p1453
tp1454
bsg149
g132
(g133
(I0
tp1455
g135
tp1456
Rp1457
(I1
(I2
I2
tp1458
g59
I00
S'\x00\x00\x00\x00\x00\x00\x00\x00\x00\x00\x00\x00\x00\x00\x00\x00\x00\x00\x00\x00\x00\x00\xf0?\x00\x00\x00\x00\x00\x00\xf0?'
p1459
tp1460
bsg156
I01
sg51
g7
sbsg115
g1393
sg149
Nsg52
(dp1461
sg51
g7
sbssg51
g7
sbsI140029622251408
g787
sI140029662285136
g0
(g176
g2
Ntp1462
Rp1463
(dp1464
g49
I2
sg180
I2
sg181
g0
(g176
g2
Ntp1465
Rp1466
(dp1467
g49
I1
sg180
I2
sg181
g0
(g116
g2
Ntp1468
Rp1469
(dp1470
g49
I1
sg120
Nsg50
Nsg121
g0
(g127
g2
Ntp1471
Rp1472
(dp1473
g49
I1
sg131
g132
(g133
(I0
tp1474
g135
tp1475
Rp1476
(I1
(I2
tp1477
g59
I00
S'\x00\x00\x00\x00\x00\x00\xf0\x7f\x00\x00\x00\x00\x00\x00\xf0\x7f'
p1478
tp1479
bsg52
(dp1480
I140029624060688
g1469
ssg142
g132
(g133
(I0
tp1481
g135
tp1482
Rp1483
(I1
(I2
I2
tp1484
g59
I00
S'\x00\x00\x00\x00\x00\x00\x00\x00\x00\x00\x00\x00\x00\x00\x00\x00\x00\x00\x00\x00\x00\x00\xf0?\x00\x00\x00\x00\x00\x00\xf0?'
p1485
tp1486
bsg149
g132
(g133
(I0
tp1487
g135
tp1488
Rp1489
(I1
(I2
I2
tp1490
g59
I00
S'\x00\x00\x00\x00\x00\x00\x00\x00\x00\x00\x00\x00\x00\x00\x00\x00\x00\x00\x00\x00\x00\x00\xf0?\x00\x00\x00\x00\x00\x00\xf0?'
p1491
tp1492
bsg156
I01
sg51
g7
sbsg52
(dp1493
I140029662285264
g1466
ssg51
g7
sbsg228
I2
sg229
g0
(g157
g2
Ntp1494
Rp1495
(dp1496
g49
I2
sg50
Nsg120
g132
(g133
(I0
tp1497
g135
tp1498
Rp1499
(I1
(I3
I3
tp1500
g59
I00
S'\x00\x00\x00\x00\x00\x00\xf0?\x00\x00\x00\x00\x00\x00\x00\x00\x00\x00\x00\x00\x00\x00\x00\x00\x00\x00\x00\x00\x00\x00\x00\x00\x00\x00\x00\x00\x00\x00\xf0?\x00\x00\x00\x00\x00\x00\x00\x00\x00\x00\x00\x00\x00\x00\x00\x00\x00\x00\x00\x00\x00\x00\x00\x00\x00\x00\x00\x00\x00\x00\xf0?'
p1501
tp1502
bsg51
g7
sg52
(dp1503
I140029662285264
g1466
ssbsg52
(dp1504
I140029662285136
g1463
ssg51
g7
sbsg228
I2
sg229
g187
sg52
(dp1505
I140029662285712
g0
(g122
g2
Ntp1506
Rp1507
(dp1508
g49
I2
sg126
g0
(g127
g2
Ntp1509
Rp1510
(dp1511
g49
I1
sg131
g132
(g133
(I0
tp1512
g135
tp1513
Rp1514
(I1
(I2
tp1515
g59
I00
S'\x00\x00\x00\x00\x00\x00\xf0\x7f\x00\x00\x00\x00\x00\x00\xf0\x7f'
p1516
tp1517
bsg52
(dp1518
I140029662285712
g1507
ssg142
g132
(g133
(I0
tp1519
g135
tp1520
Rp1521
(I1
(I2
I2
tp1522
g59
I00
S'\x00\x00\x00\x00\x00\x00\x00\x00\x00\x00\x00\x00\x00\x00\x00\x00\x00\x00\x00\x00\x00\x00\xf0?\x00\x00\x00\x00\x00\x00\xf0?'
p1523
tp1524
bsg149
g132
(g133
(I0
tp1525
g135
tp1526
Rp1527
(I1
(I2
I2
tp1528
g59
I00
S'\x00\x00\x00\x00\x00\x00\x00\x00\x00\x00\x00\x00\x00\x00\x00\x00\x00\x00\x00\x00\x00\x00\xf0?\x00\x00\x00\x00\x00\x00\xf0?'
p1529
tp1530
bsg156
I01
sg51
g7
sbsg115
g1463
sg149
Nsg52
(dp1531
sg51
g7
sbssg51
g7
sbsI140029623787408
g0
(g176
g2
Ntp1532
Rp1533
(dp1534
g49
I2
sg180
I2
sg181
g0
(g176
g2
Ntp1535
Rp1536
(dp1537
g49
I1
sg180
I2
sg181
g0
(g116
g2
Ntp1538
Rp1539
(dp1540
g49
I1
sg120
Nsg50
Nsg121
g0
(g127
g2
Ntp1541
Rp1542
(dp1543
g49
I1
sg131
g132
(g133
(I0
tp1544
g135
tp1545
Rp1546
(I1
(I2
tp1547
g59
I00
S'\x00\x00\x00\x00\x00\x00\xf0\x7f\x00\x00\x00\x00\x00\x00\xf0\x7f'
p1548
tp1549
bsg52
(dp1550
I140029623786512
g1539
ssg142
g132
(g133
(I0
tp1551
g135
tp1552
Rp1553
(I1
(I2
I2
tp1554
g59
I00
S'\x00\x00\x00\x00\x00\x00\x00\x00\x00\x00\x00\x00\x00\x00\x00\x00\x00\x00\x00\x00\x00\x00\xf0?\x00\x00\x00\x00\x00\x00\xf0?'
p1555
tp1556
bsg149
g132
(g133
(I0
tp1557
g135
tp1558
Rp1559
(I1
(I2
I2
tp1560
g59
I00
S'\x00\x00\x00\x00\x00\x00\x00\x00\x00\x00\x00\x00\x00\x00\x00\x00\x00\x00\x00\x00\x00\x00\xf0?\x00\x00\x00\x00\x00\x00\xf0?'
p1561
tp1562
bsg156
I01
sg51
g7
sbsg52
(dp1563
I140029623786064
g1536
ssg51
g7
sbsg228
I2
sg229
g0
(g157
g2
Ntp1564
Rp1565
(dp1566
g49
I2
sg50
Nsg120
g132
(g133
(I0
tp1567
g135
tp1568
Rp1569
(I1
(I3
I3
tp1570
g59
I00
S'\x00\x00\x00\x00\x00\x00\xf0?\x00\x00\x00\x00\x00\x00\x00\x00\x00\x00\x00\x00\x00\x00\x00\x00\x00\x00\x00\x00\x00\x00\x00\x00\x00\x00\x00\x00\x00\x00\xf0?\x00\x00\x00\x00\x00\x00\x00\x00\x00\x00\x00\x00\x00\x00\x00\x00\x00\x00\x00\x00\x00\x00\x00\x00\x00\x00\x00\x00\x00\x00\xf0?'
p1571
tp1572
bsg51
g7
sg52
(dp1573
I140029623786064
g1536
ssbsg52
(dp1574
I140029623787408
g1533
ssg51
g7
sbsg228
I2
sg229
g187
sg52
(dp1575
I140029623786960
g0
(g122
g2
Ntp1576
Rp1577
(dp1578
g49
I2
sg126
g0
(g127
g2
Ntp1579
Rp1580
(dp1581
g49
I1
sg131
g132
(g133
(I0
tp1582
g135
tp1583
Rp1584
(I1
(I2
tp1585
g59
I00
S'\x00\x00\x00\x00\x00\x00\xf0\x7f\x00\x00\x00\x00\x00\x00\xf0\x7f'
p1586
tp1587
bsg52
(dp1588
I140029623786960
g1577
ssg142
g132
(g133
(I0
tp1589
g135
tp1590
Rp1591
(I1
(I2
I2
tp1592
g59
I00
S'\x00\x00\x00\x00\x00\x00\x00\x00\x00\x00\x00\x00\x00\x00\x00\x00\x00\x00\x00\x00\x00\x00\xf0?\x00\x00\x00\x00\x00\x00\xf0?'
p1593
tp1594
bsg149
g132
(g133
(I0
tp1595
g135
tp1596
Rp1597
(I1
(I2
I2
tp1598
g59
I00
S'\x00\x00\x00\x00\x00\x00\x00\x00\x00\x00\x00\x00\x00\x00\x00\x00\x00\x00\x00\x00\x00\x00\xf0?\x00\x00\x00\x00\x00\x00\xf0?'
p1599
tp1600
bsg156
I01
sg51
g7
sbsg115
g1533
sg149
Nsg52
(dp1601
sg51
g7
sbssg51
g7
sbsI140029624058064
g0
(g176
g2
Ntp1602
Rp1603
(dp1604
g49
I2
sg180
I2
sg181
g0
(g176
g2
Ntp1605
Rp1606
(dp1607
g49
I1
sg180
I2
sg181
g0
(g116
g2
Ntp1608
Rp1609
(dp1610
g49
I1
sg120
Nsg50
Nsg121
g0
(g127
g2
Ntp1611
Rp1612
(dp1613
g49
I1
sg131
g132
(g133
(I0
tp1614
g135
tp1615
Rp1616
(I1
(I2
tp1617
g59
I00
S'\x00\x00\x00\x00\x00\x00\xf0\x7f\x00\x00\x00\x00\x00\x00\xf0\x7f'
p1618
tp1619
bsg52
(dp1620
I140029624058192
g1609
ssg142
g132
(g133
(I0
tp1621
g135
tp1622
Rp1623
(I1
(I2
I2
tp1624
g59
I00
S'\x00\x00\x00\x00\x00\x00\x00\x00\x00\x00\x00\x00\x00\x00\x00\x00\x00\x00\x00\x00\x00\x00\xf0?\x00\x00\x00\x00\x00\x00\xf0?'
p1625
tp1626
bsg149
g132
(g133
(I0
tp1627
g135
tp1628
Rp1629
(I1
(I2
I2
tp1630
g59
I00
S'\x00\x00\x00\x00\x00\x00\x00\x00\x00\x00\x00\x00\x00\x00\x00\x00\x00\x00\x00\x00\x00\x00\xf0?\x00\x00\x00\x00\x00\x00\xf0?'
p1631
tp1632
bsg156
I01
sg51
g7
sbsg52
(dp1633
I140029624058000
g1606
ssg51
g7
sbsg228
I2
sg229
g0
(g157
g2
Ntp1634
Rp1635
(dp1636
g49
I2
sg50
Nsg120
g132
(g133
(I0
tp1637
g135
tp1638
Rp1639
(I1
(I3
I3
tp1640
g59
I00
S'\x00\x00\x00\x00\x00\x00\xf0?\x00\x00\x00\x00\x00\x00\x00\x00\x00\x00\x00\x00\x00\x00\x00\x00\x00\x00\x00\x00\x00\x00\x00\x00\x00\x00\x00\x00\x00\x00\xf0?\x00\x00\x00\x00\x00\x00\x00\x00\x00\x00\x00\x00\x00\x00\x00\x00\x00\x00\x00\x00\x00\x00\x00\x00\x00\x00\x00\x00\x00\x00\xf0?'
p1641
tp1642
bsg51
g7
sg52
(dp1643
I140029624058000
g1606
ssbsg52
(dp1644
I140029624058064
g1603
ssg51
g7
sbsg228
I2
sg229
g187
sg52
(dp1645
I140029624058256
g0
(g122
g2
Ntp1646
Rp1647
(dp1648
g49
I2
sg126
g0
(g127
g2
Ntp1649
Rp1650
(dp1651
g49
I1
sg131
g132
(g133
(I0
tp1652
g135
tp1653
Rp1654
(I1
(I2
tp1655
g59
I00
S'\x00\x00\x00\x00\x00\x00\xf0\x7f\x00\x00\x00\x00\x00\x00\xf0\x7f'
p1656
tp1657
bsg52
(dp1658
I140029624058256
g1647
ssg142
g132
(g133
(I0
tp1659
g135
tp1660
Rp1661
(I1
(I2
I2
tp1662
g59
I00
S'\x00\x00\x00\x00\x00\x00\x00\x00\x00\x00\x00\x00\x00\x00\x00\x00\x00\x00\x00\x00\x00\x00\xf0?\x00\x00\x00\x00\x00\x00\xf0?'
p1663
tp1664
bsg149
g132
(g133
(I0
tp1665
g135
tp1666
Rp1667
(I1
(I2
I2
tp1668
g59
I00
S'\x00\x00\x00\x00\x00\x00\x00\x00\x00\x00\x00\x00\x00\x00\x00\x00\x00\x00\x00\x00\x00\x00\xf0?\x00\x00\x00\x00\x00\x00\xf0?'
p1669
tp1670
bsg156
I01
sg51
g7
sbsg115
g1603
sg149
Nsg52
(dp1671
sg51
g7
sbssg51
g7
sbsI140029662282128
g0
(g176
g2
Ntp1672
Rp1673
(dp1674
g49
I2
sg180
I2
sg181
g0
(g176
g2
Ntp1675
Rp1676
(dp1677
g49
I1
sg180
I2
sg181
g0
(g116
g2
Ntp1678
Rp1679
(dp1680
g49
I1
sg120
Nsg50
Nsg121
g0
(g127
g2
Ntp1681
Rp1682
(dp1683
g49
I1
sg131
g132
(g133
(I0
tp1684
g135
tp1685
Rp1686
(I1
(I2
tp1687
g59
I00
S'\x00\x00\x00\x00\x00\x00\xf0\x7f\x00\x00\x00\x00\x00\x00\xf0\x7f'
p1688
tp1689
bsg52
(dp1690
I140029662284368
g1679
ssg142
g132
(g133
(I0
tp1691
g135
tp1692
Rp1693
(I1
(I2
I2
tp1694
g59
I00
S'\x00\x00\x00\x00\x00\x00\x00\x00\x00\x00\x00\x00\x00\x00\x00\x00\x00\x00\x00\x00\x00\x00\xf0?\x00\x00\x00\x00\x00\x00\xf0?'
p1695
tp1696
bsg149
g132
(g133
(I0
tp1697
g135
tp1698
Rp1699
(I1
(I2
I2
tp1700
g59
I00
S'\x00\x00\x00\x00\x00\x00\x00\x00\x00\x00\x00\x00\x00\x00\x00\x00\x00\x00\x00\x00\x00\x00\xf0?\x00\x00\x00\x00\x00\x00\xf0?'
p1701
tp1702
bsg156
I01
sg51
g7
sbsg52
(dp1703
I140029662282384
g1676
ssg51
g7
sbsg228
I2
sg229
g0
(g157
g2
Ntp1704
Rp1705
(dp1706
g49
I2
sg50
Nsg120
g132
(g133
(I0
tp1707
g135
tp1708
Rp1709
(I1
(I3
I3
tp1710
g59
I00
S'\x00\x00\x00\x00\x00\x00\xf0?\x00\x00\x00\x00\x00\x00\x00\x00\x00\x00\x00\x00\x00\x00\x00\x00\x00\x00\x00\x00\x00\x00\x00\x00\x00\x00\x00\x00\x00\x00\xf0?\x00\x00\x00\x00\x00\x00\x00\x00\x00\x00\x00\x00\x00\x00\x00\x00\x00\x00\x00\x00\x00\x00\x00\x00\x00\x00\x00\x00\x00\x00\xf0?'
p1711
tp1712
bsg51
g7
sg52
(dp1713
I140029662282384
g1676
ssbsg52
(dp1714
I140029662282128
g1673
ssg51
g7
sbsg228
I2
sg229
g187
sg52
(dp1715
I140029662282256
g0
(g122
g2
Ntp1716
Rp1717
(dp1718
g49
I2
sg126
g0
(g127
g2
Ntp1719
Rp1720
(dp1721
g49
I1
sg131
g132
(g133
(I0
tp1722
g135
tp1723
Rp1724
(I1
(I2
tp1725
g59
I00
S'\x00\x00\x00\x00\x00\x00\xf0\x7f\x00\x00\x00\x00\x00\x00\xf0\x7f'
p1726
tp1727
bsg52
(dp1728
I140029662282256
g1717
ssg142
g132
(g133
(I0
tp1729
g135
tp1730
Rp1731
(I1
(I2
I2
tp1732
g59
I00
S'\x00\x00\x00\x00\x00\x00\x00\x00\x00\x00\x00\x00\x00\x00\x00\x00\x00\x00\x00\x00\x00\x00\xf0?\x00\x00\x00\x00\x00\x00\xf0?'
p1733
tp1734
bsg149
g132
(g133
(I0
tp1735
g135
tp1736
Rp1737
(I1
(I2
I2
tp1738
g59
I00
S'\x00\x00\x00\x00\x00\x00\x00\x00\x00\x00\x00\x00\x00\x00\x00\x00\x00\x00\x00\x00\x00\x00\xf0?\x00\x00\x00\x00\x00\x00\xf0?'
p1739
tp1740
bsg156
I01
sg51
g7
sbsg115
g1673
sg149
Nsg52
(dp1741
sg51
g7
sbssg51
g7
sbsI140029623784144
g0
(g176
g2
Ntp1742
Rp1743
(dp1744
g49
I2
sg180
I2
sg181
g0
(g176
g2
Ntp1745
Rp1746
(dp1747
g49
I1
sg180
I2
sg181
g0
(g116
g2
Ntp1748
Rp1749
(dp1750
g49
I1
sg120
Nsg50
Nsg121
g0
(g127
g2
Ntp1751
Rp1752
(dp1753
g49
I1
sg131
g132
(g133
(I0
tp1754
g135
tp1755
Rp1756
(I1
(I2
tp1757
g59
I00
S'\x00\x00\x00\x00\x00\x00\xf0\x7f\x00\x00\x00\x00\x00\x00\xf0\x7f'
p1758
tp1759
bsg52
(dp1760
I140029623784272
g1749
ssg142
g132
(g133
(I0
tp1761
g135
tp1762
Rp1763
(I1
(I2
I2
tp1764
g59
I00
S'\x00\x00\x00\x00\x00\x00\x00\x00\x00\x00\x00\x00\x00\x00\x00\x00\x00\x00\x00\x00\x00\x00\xf0?\x00\x00\x00\x00\x00\x00\xf0?'
p1765
tp1766
bsg149
g132
(g133
(I0
tp1767
g135
tp1768
Rp1769
(I1
(I2
I2
tp1770
g59
I00
S'\x00\x00\x00\x00\x00\x00\x00\x00\x00\x00\x00\x00\x00\x00\x00\x00\x00\x00\x00\x00\x00\x00\xf0?\x00\x00\x00\x00\x00\x00\xf0?'
p1771
tp1772
bsg156
I01
sg51
g7
sbsg52
(dp1773
I140029623784336
g1746
ssg51
g7
sbsg228
I2
sg229
g0
(g157
g2
Ntp1774
Rp1775
(dp1776
g49
I2
sg50
Nsg120
g132
(g133
(I0
tp1777
g135
tp1778
Rp1779
(I1
(I3
I3
tp1780
g59
I00
S'\x00\x00\x00\x00\x00\x00\xf0?\x00\x00\x00\x00\x00\x00\x00\x00\x00\x00\x00\x00\x00\x00\x00\x00\x00\x00\x00\x00\x00\x00\x00\x00\x00\x00\x00\x00\x00\x00\xf0?\x00\x00\x00\x00\x00\x00\x00\x00\x00\x00\x00\x00\x00\x00\x00\x00\x00\x00\x00\x00\x00\x00\x00\x00\x00\x00\x00\x00\x00\x00\xf0?'
p1781
tp1782
bsg51
g7
sg52
(dp1783
I140029623784336
g1746
ssbsg52
(dp1784
I140029623784144
g1743
ssg51
g7
sbsg228
I2
sg229
g187
sg52
(dp1785
I140029623785808
g0
(g122
g2
Ntp1786
Rp1787
(dp1788
g49
I2
sg126
g0
(g127
g2
Ntp1789
Rp1790
(dp1791
g49
I1
sg131
g132
(g133
(I0
tp1792
g135
tp1793
Rp1794
(I1
(I2
tp1795
g59
I00
S'\x00\x00\x00\x00\x00\x00\xf0\x7f\x00\x00\x00\x00\x00\x00\xf0\x7f'
p1796
tp1797
bsg52
(dp1798
I140029623785808
g1787
ssg142
g132
(g133
(I0
tp1799
g135
tp1800
Rp1801
(I1
(I2
I2
tp1802
g59
I00
S'\x00\x00\x00\x00\x00\x00\x00\x00\x00\x00\x00\x00\x00\x00\x00\x00\x00\x00\x00\x00\x00\x00\xf0?\x00\x00\x00\x00\x00\x00\xf0?'
p1803
tp1804
bsg149
g132
(g133
(I0
tp1805
g135
tp1806
Rp1807
(I1
(I2
I2
tp1808
g59
I00
S'\x00\x00\x00\x00\x00\x00\x00\x00\x00\x00\x00\x00\x00\x00\x00\x00\x00\x00\x00\x00\x00\x00\xf0?\x00\x00\x00\x00\x00\x00\xf0?'
p1809
tp1810
bsg156
I01
sg51
g7
sbsg115
g1743
sg149
Nsg52
(dp1811
sg51
g7
sbssg51
g7
sbssg51
g7
sbsg76
g783
sg789
Nsg52
(dp1812
I140029622795408
g0
(g176
g2
Ntp1813
Rp1814
(dp1815
g49
I2
sg180
I2
sg181
g184
sg228
I2
sg229
g0
(g168
g2
Ntp1816
Rp1817
(dp1818
g49
I1
sg120
Nsg172
g159
sg50
Nsg173
(I0
F-0.04722222222222222
tp1819
sg51
g7
sg52
(dp1820
I140029622795408
g1814
ssbsg52
(dp1821
sg51
g7
sbsI140029620107280
g0
(g176
g2
Ntp1822
Rp1823
(dp1824
g49
I2
sg180
I2
sg181
g184
sg228
I2
sg229
g0
(g168
g2
Ntp1825
Rp1826
(dp1827
g49
I1
sg120
Nsg172
g159
sg50
Nsg173
(I0
F-0.04861111111111111
tp1828
sg51
g7
sg52
(dp1829
I140029620107280
g1823
ssbsg52
(dp1830
sg51
g7
sbsI140029623795792
g0
(g176
g2
Ntp1831
Rp1832
(dp1833
g49
I2
sg180
I2
sg181
g184
sg228
I2
sg229
g0
(g168
g2
Ntp1834
Rp1835
(dp1836
g49
I1
sg120
Nsg172
g159
sg50
Nsg173
(I0
F0.04722222222222222
tp1837
sg51
g7
sg52
(dp1838
I140029623795792
g1832
ssbsg52
(dp1839
sg51
g7
sbsI140029623796880
g0
(g176
g2
Ntp1840
Rp1841
(dp1842
g49
I2
sg180
I2
sg181
g184
sg228
I2
sg229
g0
(g168
g2
Ntp1843
Rp1844
(dp1845
g49
I1
sg120
Nsg172
g159
sg50
Nsg173
(I0
F-0.04861111111111111
tp1846
sg51
g7
sg52
(dp1847
I140029623796880
g1841
ssbsg52
(dp1848
sg51
g7
sbsI140029622994064
g0
(g176
g2
Ntp1849
Rp1850
(dp1851
g49
I2
sg180
I2
sg181
g184
sg228
I2
sg229
g0
(g168
g2
Ntp1852
Rp1853
(dp1854
g49
I1
sg120
Nsg172
g159
sg50
Nsg173
(I0
F0.04861111111111111
tp1855
sg51
g7
sg52
(dp1856
I140029622994064
g1850
ssbsg52
(dp1857
sg51
g7
sbsI140029622795984
g0
(g176
g2
Ntp1858
Rp1859
(dp1860
g49
I2
sg180
I2
sg181
g184
sg228
I2
sg229
g0
(g168
g2
Ntp1861
Rp1862
(dp1863
g49
I1
sg120
Nsg172
g159
sg50
Nsg173
(I0
F0.04722222222222222
tp1864
sg51
g7
sg52
(dp1865
I140029622795984
g1859
ssbsg52
(dp1866
sg51
g7
sbsI140029623797776
g0
(g176
g2
Ntp1867
Rp1868
(dp1869
g49
I2
sg180
I2
sg181
g184
sg228
I2
sg229
g0
(g168
g2
Ntp1870
Rp1871
(dp1872
g49
I1
sg120
Nsg172
g159
sg50
Nsg173
(I0
F-0.04722222222222222
tp1873
sg51
g7
sg52
(dp1874
I140029623797776
g1868
ssbsg52
(dp1875
sg51
g7
sbsI140029622794576
g178
ssg51
g7
sbsg228
I2
sg229
g170
sg52
(dp1876
sg51
g7
sbssbsI140029622793232
g795
sI140029622792976
g1817
sI140029623953360
g858
sI140029624000336
g831
sI140029620108432
g1826
sI140029624000464
g813
sI140029619088592
g231
sI140029623799056
g1844
sI140029623797136
g1835
sI140029622793616
g822
sI140029623798224
g1871
sI140029622795536
g1862
sI140029623999056
g840
sI140029622992976
g1853
sI140029661575376
g124
sI140029624000208
g804
sI140029624000272
g849
ssbsg149
Nsg52
(dp1877
I140029623799760
g118
ssg51
g7
sbsg52
(dp1878
I140029623869776
g190
ssg51
g7
sbsS'_us_dashes'
p1879
(NNtp1880
sS'_capstyle'
p1881
Vbutt
p1882
sS'_url'
p1883
Nsg25
NsS'_axes'
p1884
Nsg34
Nsbsg42
Nsg88
NsV_restore_to_pylab
p1885
I01
sS'images'
p1886
(lp1887
sS'_suptitle'
p1888
NsS'dpi_scale_trans'
p1889
g159
sS'number'
p1890
I1
sS'callbacks'
p1891
g0
(cmatplotlib.cbook
CallbackRegistry
p1892
g2
Ntp1893
Rp1894
I01
bsg96
NsS'_tight'
p1895
I00
sg86
I01
sS'bbox'
p1896
g124
sg103
g0
(g104
g105
((lp1897
(lp1898
tp1899
tp1900
Rp1901
sg111
I0
sS'patches'
p1902
(lp1903
sS'legends'
p1904
(lp1905
sS'suppressComposite'
p1906
Nsg112
I00
sg114
NsS'_axstack'
p1907
g0
(cmatplotlib.figure
AxesStack
p1908
g2
Ntp1909
Rp1910
(dp1911
S'_default'
p1912
NsS'_elements'
p1913
(lp1914
(((g0
(cmatplotlib.gridspec
SubplotSpec
p1915
g2
Ntp1916
Rp1917
(dp1918
S'num1'
p1919
I0
sS'num2'
p1920
I0
sS'_gridspec'
p1921
g0
(cmatplotlib.gridspec
GridSpec
p1922
g2
Ntp1923
Rp1924
(dp1925
S'_nrows'
p1926
I1
sS'right'
p1927
NsS'_col_width_ratios'
p1928
NsS'bottom'
p1929
NsS'top'
p1930
NsS'wspace'
p1931
NsS'_ncols'
p1932
I1
sS'hspace'
p1933
NsS'_row_height_ratios'
p1934
NsS'left'
p1935
Nsbsbtp1936
(ttp1937
(I1
g0
(cmatplotlib.axes._subplots
_PicklableSubplotClassConstructor
p1938
g2
Ntp1939
Rp1940
(cmatplotlib.axes._axes
Axes
p1941
tp1942
Rp1943
(dp1944
S'transLimits'
p1945
g747
sS'_get_patches_for_fill'
p1946
g0
(cmatplotlib.axes._base
_process_plot_var_args
p1947
g2
Ntp1948
Rp1949
(dp1950
Vaxes
p1951
g1943
sVcommand
p1952
Vfill
p1953
sbsS'_xcid'
p1954
I1
sg6
V
p1955
sS'legend_'
p1956
g0
(cmatplotlib.legend
Legend
p1957
g2
Ntp1958
Rp1959
(dp1960
g6
g7
sS'markerscale'
p1961
F1.0
sg9
g4
sS'legendHandles'
p1962
(lp1963
g0
(g36
g2
Ntp1964
Rp1965
(dp1966
g6
VControl
p1967
sg40
F20.0
sg41
I00
sg9
g4
sg8
I01
sg10
Nsg42
Nsg17
g18
sg43
Nsg20
I01
sg44
g0
(g45
g2
Ntp1968
Rp1969
(dp1970
g49
I1
sg50
Nsg51
g7
sg52
(dp1971
sbsg54
(g55
(g59
S'\x10\x10\x10\x10\x10\x10\xe0?'
p1972
tp1973
Rp1974
g55
(g59
S'\x10\x10\x10\x10\x10\x10\xe0?'
p1975
tp1976
Rp1977
g55
(g59
S'\x10\x10\x10\x10\x10\x10\xe0?'
p1978
tp1979
Rp1980
g55
(g59
S'\x00\x00\x00\x00\x00\x00\xf0?'
p1981
tp1982
Rp1983
tp1984
sg23
Nsg75
F-0.0
sg76
F-0.0
sg24
Nsg77
Nsg11
Nsg28
I00
sg29
I00
sg30
(dp1985
sg80
g0
(g45
g2
Ntp1986
Rp1987
(dp1988
g49
I1
sg50
Nsg51
g7
sg52
(dp1989
sbsg32
I00
sg85
Nsg86
I01
sg87
F1.0
sg88
Nsg89
F7.0
sg33
Nsg90
g1984
sg91
Nsg92
I01
sg93
Nsg94
Nsg96
Nsg97
(g55
(g59
S'\x10\x10\x10\x10\x10\x10\xe0?'
p1990
tp1991
Rp1992
g55
(g59
S'\x10\x10\x10\x10\x10\x10\xe0?'
p1993
tp1994
Rp1995
g55
(g59
S'\x10\x10\x10\x10\x10\x10\xe0?'
p1996
tp1997
Rp1998
I0
tp1999
sg99
g100
sg101
g102
sg103
g0
(g104
g105
((lp2000
(lp2001
I0
atp2002
tp2003
Rp2004
sg111
I0
sg112
I01
sg113
F0.0
sg114
Nsg115
g0
(cmatplotlib.transforms
CompositeAffine2D
p2005
g2
Ntp2006
Rp2007
(dp2008
g49
I1
sg180
I2
sg50
Nsg51
g7
sg120
Nsg52
(dp2009
sg228
I2
sg229
g0
(g157
g2
Ntp2010
Rp2011
(dp2012
g49
I2
sg50
Nsg120
g132
(g133
(I0
tp2013
g135
tp2014
Rp2015
(I1
(I3
I3
tp2016
g59
I00
S'\x00\x00\x00\x00\x00\x00\xf0?\x00\x00\x00\x00\x00\x00\x00\x00\x00\x00\x00\x00\x00\x00\x00\x00\x00\x00\x00\x00\x00\x00\x00\x00\x00\x00\x00\x00\x00\x00\xf0?\x00\x00\x00\x00\x00\x00\x00\x00\x00\x00\x00\x00\x00\x00\x00\x00\x00\x00\x00\x00\x00\x00\x00\x00\x00\x00\x00\x00\x00\x00\xf0?'
p2017
tp2018
bsg51
g7
sg52
(dp2019
I140029625355280
g2007
ssbsg181
g0
(g157
g2
Ntp2020
Rp2021
(dp2022
g49
I0
sg50
Nsg120
g132
(g133
(I0
tp2023
g135
tp2024
Rp2025
(I1
(I3
I3
tp2026
g59
I00
S'\x00\x00\x00\x00\x00\x00\xf0?\x00\x00\x00\x00\x00\x00\x00\x00\x00\x00\x00\x00\x00\x00\x00\x00\x00\x00\x00\x00\x00\x00\x00\x00\x00\x00\x00\x00\x00\x00\xf0?\x00\x00\x00\x00\x00\x00\x00\x00\x00\x00\x00\x00\x00\x00\x00\x00\x00\x00\x00\x00\x00\x00\x00\x00\x00\x00\x00\x00\x00\x00\xf0?'
p2027
tp2028
bsg51
g7
sg52
(dp2029
I140029625355280
g2007
ssbsbsg1879
(NNtp2030
sg1881
g1882
sg1883
Nsg25
Nsg1884
g1943
sg34
Nsbag0
(g36
g2
Ntp2031
Rp2032
(dp2033
g6
VGABAzine
p2034
sg40
F20.0
sg41
I00
sg9
g4
sg8
I01
sg10
Nsg42
Nsg17
g18
sg43
Nsg20
I01
sg44
g0
(g45
g2
Ntp2035
Rp2036
(dp2037
g49
I1
sg50
Nsg51
g7
sg52
(dp2038
sbsg54
(g55
(g59
S'\x00\x00\x00\x00\x00\x00\xf0?'
p2039
tp2040
Rp2041
g55
(g59
S'\x00\x00\x00\x00\x00\x00\x00\x00'
p2042
tp2043
Rp2044
g55
(g59
S'\x00\x00\x00\x00\x00\x00\x00\x00'
p2045
tp2046
Rp2047
g55
(g59
S'\x00\x00\x00\x00\x00\x00\xf0?'
p2048
tp2049
Rp2050
tp2051
sg23
Nsg75
F-0.0
sg76
F-0.0
sg24
Nsg77
Nsg11
Nsg28
I00
sg29
I00
sg30
(dp2052
sg80
g0
(g45
g2
Ntp2053
Rp2054
(dp2055
g49
I1
sg50
Nsg51
g7
sg52
(dp2056
sbsg32
I00
sg85
Nsg86
I01
sg87
F1.0
sg88
Nsg89
F7.0
sg33
Nsg90
g2051
sg91
Nsg92
I01
sg93
Nsg94
Nsg96
Nsg97
(g55
(g59
S'\x00\x00\x00\x00\x00\x00\xf0?'
p2057
tp2058
Rp2059
g55
(g59
S'\x00\x00\x00\x00\x00\x00\x00\x00'
p2060
tp2061
Rp2062
g55
(g59
S'\x00\x00\x00\x00\x00\x00\x00\x00'
p2063
tp2064
Rp2065
I0
tp2066
sg99
g100
sg101
g102
sg103
g0
(g104
g105
((lp2067
(lp2068
I0
atp2069
tp2070
Rp2071
sg111
I0
sg112
I01
sg113
F0.0
sg114
Nsg115
g0
(g2005
g2
Ntp2072
Rp2073
(dp2074
g49
I1
sg180
I2
sg50
Nsg51
g7
sg120
Nsg52
(dp2075
sg228
I2
sg229
g0
(g157
g2
Ntp2076
Rp2077
(dp2078
g49
I2
sg50
Nsg120
g132
(g133
(I0
tp2079
g135
tp2080
Rp2081
(I1
(I3
I3
tp2082
g59
I00
S'\x00\x00\x00\x00\x00\x00\xf0?\x00\x00\x00\x00\x00\x00\x00\x00\x00\x00\x00\x00\x00\x00\x00\x00\x00\x00\x00\x00\x00\x00\x00\x00\x00\x00\x00\x00\x00\x00\xf0?\x00\x00\x00\x00\x00\x00\x00\x00\x00\x00\x00\x00\x00\x00\x00\x00\x00\x00\x00\x00\x00\x00\x00\x00\x00\x00\x00\x00\x00\x00\xf0?'
p2083
tp2084
bsg51
g7
sg52
(dp2085
I140029625355344
g2073
ssbsg181
g0
(g157
g2
Ntp2086
Rp2087
(dp2088
g49
I0
sg50
Nsg120
g132
(g133
(I0
tp2089
g135
tp2090
Rp2091
(I1
(I3
I3
tp2092
g59
I00
S'\x00\x00\x00\x00\x00\x00\xf0?\x00\x00\x00\x00\x00\x00\x00\x00\x00\x00\x00\x00\x00\x00\x00\x00\x00\x00\x00\x00\x00\x00\x00\x00\x00\x00\x00\x00\x00\x00\xf0?\x00\x00\x00\x00\x00\x00\x00\x00\x00\x00\x00\x00\x00\x00\x00\x00\x00\x00\x00\x00\x00\x00\x00\x00\x00\x00\x00\x00\x00\x00\xf0?'
p2093
tp2094
bsg51
g7
sg52
(dp2095
I140029625355344
g2073
ssbsbsg1879
(NNtp2096
sg1881
g1882
sg1883
Nsg25
Nsg1884
g1943
sg34
NsbasS'_legend_title_box'
p2097
g0
(cmatplotlib.offsetbox
TextArea
p2098
g2
Ntp2099
Rp2100
(dp2101
g6
g7
sg8
I00
sg9
g4
sS'_children'
p2102
(lp2103
g0
(cmatplotlib.text
Text
p2104
g2
Ntp2105
Rp2106
(dp2107
g6
g7
sg8
I01
sg9
g4
sg10
NsS'_fontproperties'
p2108
g0
(cmatplotlib.font_manager
FontProperties
p2109
g2
Ntp2110
Rp2111
(dp2112
S'_family'
p2113
(lp2114
Vsans-serif
p2115
asS'_file'
p2116
NsS'_variant'
p2117
Vnormal
p2118
sS'_slant'
p2119
g2118
sS'_size'
p2120
F8.0
sS'_weight'
p2121
I400
sS'_stretch'
p2122
g2118
sbsg42
Nsg17
g18
sS'_multialignment'
p2123
Nsg20
I01
sg23
Nsg75
I0
sg76
I0
sg24
Nsg25
Nsg11
Nsg28
I00
sg29
I00
sg30
(dp2124
sS'_renderer'
p2125
Nsg32
I00
sg1884
Nsg88
Nsg1883
NsS'_rotation_mode'
p2126
Nsg33
Nsg96
Nsg86
I01
sS'_verticalalignment'
p2127
Vbaseline
p2128
sS'_text'
p2129
VNone
p2130
sS'_bbox_patch'
p2131
Nsg103
g0
(g104
g105
((lp2132
(lp2133
tp2134
tp2135
Rp2136
sg111
I0
sS'_rotation'
p2137
Nsg112
I01
sg114
NsS'_linespacing'
p2138
F1.2
sg115
g0
(g2005
g2
Ntp2139
Rp2140
(dp2141
g49
I1
sg180
I2
sg50
Nsg51
g7
sg120
Nsg52
(dp2142
sg228
I2
sg229
g0
(g157
g2
Ntp2143
Rp2144
(dp2145
g49
I0
sg50
Nsg120
g132
(g133
(I0
tp2146
g135
tp2147
Rp2148
(I1
(I3
I3
tp2149
g59
I00
S'\x00\x00\x00\x00\x00\x00\xf0?\x00\x00\x00\x00\x00\x00\x00\x00\x00\x00\x00\x00\x00\x00\x00\x00\x00\x00\x00\x00\x00\x00\x00\x00\x00\x00\x00\x00\x00\x00\xf0?\x00\x00\x00\x00\x00\x00\x00\x00\x00\x00\x00\x00\x00\x00\x00\x00\x00\x00\x00\x00\x00\x00\x00\x00\x00\x00\x00\x00\x00\x00\xf0?'
p2150
tp2151
bsg51
g7
sg52
(dp2152
I140029625353872
g2140
ssbsg181
g0
(g157
g2
Ntp2153
Rp2154
(dp2155
g49
I2
sg50
Nsg120
g132
(g133
(I0
tp2156
g135
tp2157
Rp2158
(I1
(I3
I3
tp2159
g59
I00
S'\x00\x00\x00\x00\x00\x00\xf0?\x00\x00\x00\x00\x00\x00\x00\x00\x00\x00\x00\x00\x00\x00\x00\x00\x00\x00\x00\x00\x00\x00\x00\x00\x00\x00\x00\x00\x00\x00\xf0?\x00\x00\x00\x00\x00\x00\x00\x00\x00\x00\x00\x00\x00\x00\x00\x00\x00\x00\x00\x00\x00\x00\x00\x00\x00\x00\x00\x00\x00\x00\xf0?'
p2160
tp2161
bsg51
g7
sg52
(dp2162
I140029625353872
g2140
ssbsbsS'_usetex'
p2163
I00
sS'_wrap'
p2164
I00
sg43
NsS'_color'
p2165
V0.
p2166
sS'_horizontalalignment'
p2167
Vleft
p2168
sg34
Nsbasg2129
g2106
sg10
Nsg42
NsS'_minimumdescent'
p2169
I01
sg17
g18
sg20
I00
sg23
Nsg24
Nsg25
Nsg11
Nsg28
I00
sg1884
Nsg30
(dp2170
sg32
I00
sg29
I00
sg88
Nsg33
Nsg96
Nsg86
I01
sS'_multilinebaseline'
p2171
Nsg103
g0
(g104
g105
((lp2172
(lp2173
tp2174
tp2175
Rp2176
sg111
I0
sS'offset_transform'
p2177
g2154
sg112
I00
sg114
NsS'_baseline_transform'
p2178
g2144
sg115
NsS'_offset'
p2179
(I0
I0
tp2180
sg43
Nsg1883
Nsg34
Nsbsg8
I01
sS'_fontsize'
p2181
F10.0
sg10
NsS'_draggable'
p2182
Nsg11
NsS'columnspacing'
p2183
F2.0
sg12
(lp2184
g0
(g2104
g2
Ntp2185
Rp2186
(dp2187
g6
g7
sg8
I01
sg9
g4
sg10
Nsg2108
g0
(g2109
g2
Ntp2188
Rp2189
(dp2190
g2113
(lp2191
g2115
asg2116
Nsg2117
g2118
sg2119
g2118
sg2120
F10.0
sg2121
I400
sg2122
g2118
sbsg42
Nsg17
g18
sg2123
Nsg20
I01
sg23
Nsg75
I0
sg76
I0
sg24
Nsg25
Nsg11
Nsg28
I00
sg29
I00
sg30
(dp2192
sg2125
Nsg32
I00
sg1884
Nsg88
Nsg1883
Nsg2126
Nsg33
Nsg96
Nsg86
I01
sg2127
g2128
sg2129
VControl
p2193
sg2131
Nsg103
g0
(g104
g105
((lp2194
(lp2195
tp2196
tp2197
Rp2198
sg111
I0
sg2137
Nsg112
I01
sg114
Nsg2138
F1.2
sg115
g0
(g2005
g2
Ntp2199
Rp2200
(dp2201
g49
I1
sg180
I2
sg50
Nsg51
g7
sg120
Nsg52
(dp2202
sg228
I2
sg229
g0
(g157
g2
Ntp2203
Rp2204
(dp2205
g49
I0
sg50
Nsg120
g132
(g133
(I0
tp2206
g135
tp2207
Rp2208
(I1
(I3
I3
tp2209
g59
I00
S'\x00\x00\x00\x00\x00\x00\xf0?\x00\x00\x00\x00\x00\x00\x00\x00\x00\x00\x00\x00\x00\x00\x00\x00\x00\x00\x00\x00\x00\x00\x00\x00\x00\x00\x00\x00\x00\x00\xf0?\x00\x00\x00\x00\x00\x00\x00\x00\x00\x00\x00\x00\x00\x00\x00\x00\x00\x00\x00\x00\x00\x00\x00\x00\x00\x00\x00\x00\x00\x00\xf0?'
p2210
tp2211
bsg51
g7
sg52
(dp2212
I140029625352976
g2200
ssbsg181
g0
(g157
g2
Ntp2213
Rp2214
(dp2215
g49
I2
sg50
Nsg120
g132
(g133
(I0
tp2216
g135
tp2217
Rp2218
(I1
(I3
I3
tp2219
g59
I00
S'\x00\x00\x00\x00\x00\x00\xf0?\x00\x00\x00\x00\x00\x00\x00\x00\x00\x00\x00\x00\x00\x00\x00\x00\x00\x00\x00\x00\x00\x00\x00\x00\x00\x00\x00\x00\x00\x00\xf0?\x00\x00\x00\x00\x00\x00\x00\x00\x00\x00\x00\x00\x00\x00\x00\x00\x00\x00\x00\x00\x00\x00\x00\x00\x00\x00\x00\x00\x00\x00\xf0?'
p2220
tp2221
bsg51
g7
sg52
(dp2222
I140029625352976
g2200
ssbsbsg2163
I00
sg2164
I00
sg43
Nsg2165
g2166
sg2167
Vleft
p2223
sg34
Nsbag0
(g2104
g2
Ntp2224
Rp2225
(dp2226
g6
g7
sg8
I01
sg9
g4
sg10
Nsg2108
g2189
sg42
Nsg17
g18
sg2123
Nsg20
I01
sg23
Nsg75
I0
sg76
I0
sg24
Nsg25
Nsg11
Nsg28
I00
sg29
I00
sg30
(dp2227
sg2125
Nsg32
I00
sg1884
Nsg88
Nsg1883
Nsg2126
Nsg33
Nsg96
Nsg86
I01
sg2127
g2128
sg2129
VGABAzine
p2228
sg2131
Nsg103
g0
(g104
g105
((lp2229
(lp2230
tp2231
tp2232
Rp2233
sg111
I0
sg2137
Nsg112
I01
sg114
Nsg2138
F1.2
sg115
g0
(g2005
g2
Ntp2234
Rp2235
(dp2236
g49
I1
sg180
I2
sg50
Nsg51
g7
sg120
Nsg52
(dp2237
sg228
I2
sg229
g0
(g157
g2
Ntp2238
Rp2239
(dp2240
g49
I0
sg50
Nsg120
g132
(g133
(I0
tp2241
g135
tp2242
Rp2243
(I1
(I3
I3
tp2244
g59
I00
S'\x00\x00\x00\x00\x00\x00\xf0?\x00\x00\x00\x00\x00\x00\x00\x00\x00\x00\x00\x00\x00\x00\x00\x00\x00\x00\x00\x00\x00\x00\x00\x00\x00\x00\x00\x00\x00\x00\xf0?\x00\x00\x00\x00\x00\x00\x00\x00\x00\x00\x00\x00\x00\x00\x00\x00\x00\x00\x00\x00\x00\x00\x00\x00\x00\x00\x00\x00\x00\x00\xf0?'
p2245
tp2246
bsg51
g7
sg52
(dp2247
I140029625354960
g2235
ssbsg181
g0
(g157
g2
Ntp2248
Rp2249
(dp2250
g49
I2
sg50
Nsg120
g132
(g133
(I0
tp2251
g135
tp2252
Rp2253
(I1
(I3
I3
tp2254
g59
I00
S'\x00\x00\x00\x00\x00\x00\xf0?\x00\x00\x00\x00\x00\x00\x00\x00\x00\x00\x00\x00\x00\x00\x00\x00\x00\x00\x00\x00\x00\x00\x00\x00\x00\x00\x00\x00\x00\x00\xf0?\x00\x00\x00\x00\x00\x00\x00\x00\x00\x00\x00\x00\x00\x00\x00\x00\x00\x00\x00\x00\x00\x00\x00\x00\x00\x00\x00\x00\x00\x00\xf0?'
p2255
tp2256
bsg51
g7
sg52
(dp2257
I140029625354960
g2235
ssbsbsg2163
I00
sg2164
I00
sg43
Nsg2165
g2166
sg2167
g2223
sg34
NsbasS'handletextpad'
p2258
F0.8
sS'borderaxespad'
p2259
F0.5
sg17
g18
sS'_legend_handle_box'
p2260
g0
(cmatplotlib.offsetbox
HPacker
p2261
g2
Ntp2262
Rp2263
(dp2264
g6
g7
sg8
I01
sg9
g4
sg2102
(lp2265
g0
(cmatplotlib.offsetbox
VPacker
p2266
g2
Ntp2267
Rp2268
(dp2269
g6
g7
sg8
I01
sg9
g4
sg2102
(lp2270
g0
(g2261
g2
Ntp2271
Rp2272
(dp2273
g6
g7
sg8
I01
sg9
g4
sg2102
(lp2274
g0
(cmatplotlib.offsetbox
DrawingArea
p2275
g2
Ntp2276
Rp2277
(dp2278
g6
g7
sg8
I01
sg9
g4
sg2102
(lp2279
g1965
asg10
NsS'height'
p2280
F7.0
sg42
Nsg17
g18
sg20
I00
sg23
Nsg24
Nsg25
NsS'dpi_transform'
p2281
g2021
sg11
NsS'_clip_children'
p2282
I00
sg28
I00
sS'width'
p2283
F20.0
sg29
I00
sg30
(dp2284
sg32
I00
sg1884
Nsg88
NsS'ydescent'
p2285
F0.0
sg33
Nsg96
Nsg86
I01
sg103
g0
(g104
g105
((lp2286
(lp2287
tp2288
tp2289
Rp2290
sg111
I0
sg2177
g2011
sg112
I00
sg114
Nsg115
Nsg2179
g2180
sS'xdescent'
p2291
F0.0
sg43
Nsg1883
Nsg34
Nsbag0
(g2098
g2
Ntp2292
Rp2293
(dp2294
g6
g7
sg8
I01
sg9
g4
sg2102
(lp2295
g2186
asg2129
g2186
sg10
Nsg42
Nsg2169
I01
sg17
g18
sg20
I00
sg23
Nsg24
Nsg25
Nsg11
Nsg28
I00
sg1884
Nsg30
(dp2296
sg32
I00
sg29
I00
sg88
Nsg33
Nsg96
Nsg86
I01
sg2171
I01
sg103
g0
(g104
g105
((lp2297
(lp2298
tp2299
tp2300
Rp2301
sg111
I0
sg2177
g2214
sg112
I00
sg114
Nsg2178
g2204
sg115
Nsg2179
g2180
sg43
Nsg1883
Nsg34
Nsbasg10
Nsg2280
Nsg42
Nsg17
g18
sg20
I00
sg23
Nsg24
Nsg25
NsS'sep'
p2302
F8.0
sg11
Nsg28
I00
sg2283
NsS'pad'
p2303
I0
sg29
I00
sg30
(dp2304
sg32
I00
sg1884
Nsg88
Nsg33
Nsg96
Nsg86
I01
sg103
g0
(g104
g105
((lp2305
(lp2306
tp2307
tp2308
Rp2309
sg111
I0
sg112
I00
sg114
NsS'align'
p2310
Vbaseline
p2311
sg115
Nsg2179
g2180
sg43
Nsg1883
NsS'mode'
p2312
Vfixed
p2313
sg34
Nsbag0
(g2261
g2
Ntp2314
Rp2315
(dp2316
g6
g7
sg8
I01
sg9
g4
sg2102
(lp2317
g0
(g2275
g2
Ntp2318
Rp2319
(dp2320
g6
g7
sg8
I01
sg9
g4
sg2102
(lp2321
g2032
asg10
Nsg2280
F7.0
sg42
Nsg17
g18
sg20
I00
sg23
Nsg24
Nsg25
Nsg2281
g2087
sg11
Nsg2282
I00
sg28
I00
sg2283
F20.0
sg29
I00
sg30
(dp2322
sg32
I00
sg1884
Nsg88
Nsg2285
F0.0
sg33
Nsg96
Nsg86
I01
sg103
g0
(g104
g105
((lp2323
(lp2324
tp2325
tp2326
Rp2327
sg111
I0
sg2177
g2077
sg112
I00
sg114
Nsg115
Nsg2179
g2180
sg2291
F0.0
sg43
Nsg1883
Nsg34
Nsbag0
(g2098
g2
Ntp2328
Rp2329
(dp2330
g6
g7
sg8
I01
sg9
g4
sg2102
(lp2331
g2225
asg2129
g2225
sg10
Nsg42
Nsg2169
I00
sg17
g18
sg20
I00
sg23
Nsg24
Nsg25
Nsg11
Nsg28
I00
sg1884
Nsg30
(dp2332
sg32
I00
sg29
I00
sg88
Nsg33
Nsg96
Nsg86
I01
sg2171
I01
sg103
g0
(g104
g105
((lp2333
(lp2334
tp2335
tp2336
Rp2337
sg111
I0
sg2177
g2249
sg112
I00
sg114
Nsg2178
g2239
sg115
Nsg2179
g2180
sg43
Nsg1883
Nsg34
Nsbasg10
Nsg2280
Nsg42
Nsg17
g18
sg20
I00
sg23
Nsg24
Nsg25
Nsg2302
F8.0
sg11
Nsg28
I00
sg2283
Nsg2303
I0
sg29
I00
sg30
(dp2338
sg32
I00
sg1884
Nsg88
Nsg33
Nsg96
Nsg86
I01
sg103
g0
(g104
g105
((lp2339
(lp2340
tp2341
tp2342
Rp2343
sg111
I0
sg112
I00
sg114
Nsg2310
g2311
sg115
Nsg2179
g2180
sg43
Nsg1883
Nsg2312
g2313
sg34
Nsbasg10
Nsg2280
Nsg42
Nsg17
g18
sg20
I00
sg23
Nsg24
Nsg25
Nsg2302
F5.0
sg11
Nsg28
I00
sg2283
Nsg2303
I0
sg29
I00
sg30
(dp2344
sg32
I00
sg1884
Nsg88
Nsg33
Nsg96
Nsg86
I01
sg103
g0
(g104
g105
((lp2345
(lp2346
tp2347
tp2348
Rp2349
sg111
I0
sg112
I00
sg114
Nsg2310
g2311
sg115
Nsg2179
g2180
sg43
Nsg1883
Nsg2312
Vfixed
p2350
sg34
Nsbasg10
Nsg2280
Nsg42
Nsg17
g18
sg20
I00
sg23
Nsg24
Nsg25
Nsg2302
F20.0
sg11
Nsg28
I00
sg2283
Nsg2303
I0
sg29
I00
sg30
(dp2351
sg32
I00
sg1884
Nsg88
Nsg33
Nsg96
Nsg86
I01
sg103
g0
(g104
g105
((lp2352
(lp2353
tp2354
tp2355
Rp2356
sg111
I0
sg112
I00
sg114
Nsg2310
g2311
sg115
Nsg2179
g2180
sg43
Nsg1883
Nsg2312
Vfixed
p2357
sg34
Nsbsg20
I01
sg28
I00
sg23
Nsg24
Nsg25
NsS'_mode'
p2358
NsS'numpoints'
p2359
I1
sS'_bbox_to_anchor'
p2360
NsS'prop'
p2361
g2189
sS'_scatteryoffsets'
p2362
g132
(g133
(I0
tp2363
g135
tp2364
Rp2365
(I1
(I1
tp2366
g59
I00
S'\x00\x00\x00\x00\x00\x00\xd8?'
p2367
tp2368
bsS'_custom_handler_map'
p2369
Nsg29
I00
sg30
(dp2370
sS'_drawFrame'
p2371
I00
sg32
I00
sS'handlelength'
p2372
F2.0
sg1884
g1943
sg42
Nsg88
NsS'parent'
p2373
g1943
sS'legendPatch'
p2374
g0
(cmatplotlib.patches
FancyBboxPatch
p2375
g2
Ntp2376
Rp2377
(dp2378
g6
g7
sg40
F1.0
sg41
I01
sg9
g4
sS'_mutation_aspect'
p2379
Nsg10
Nsg42
Nsg17
g18
sg101
g102
sg43
Nsg20
I01
sg44
g0
(g45
g2
Ntp2380
Rp2381
(dp2382
g49
I1
sg50
Nsg51
g7
sg52
(dp2383
sbsg54
(F0.8
F0.8
F0.8
F0.8
tp2384
sg23
Nsg75
F0.0
sg76
F0.0
sg24
Nsg77
V0.8
p2385
sg11
Nsg28
I00
sg29
I00
sg30
(dp2386
sg32
I00
sg85
Nsg86
I01
sg87
F1.0
sg88
Nsg89
F1.0
sg33
Nsg90
g2384
sg91
Nsg92
I01
sg93
Nsg94
Vwhite
p2387
sg96
I01
sg97
(F1.0
F1.0
F1.0
F0.8
tp2388
sg99
g100
sS'_bbox_transmuter'
p2389
g0
(cmatplotlib.cbook
_NestedClassGetter
p2390
g2
Ntp2391
Rp2392
(cmatplotlib.patches
BoxStyle
p2393
S'Round'
p2394
tp2395
Rp2396
(dp2397
S'rounding_size'
p2398
F0.2
sg2303
I0
sbsS'_mutation_scale'
p2399
F10.0
sg103
g0
(g104
g105
((lp2400
(lp2401
tp2402
tp2403
Rp2404
sg111
I0
sg112
I01
sg114
F0.8
sg115
g0
(g45
g2
Ntp2405
Rp2406
(dp2407
g49
I1
sg50
Nsg51
g7
sg52
(dp2408
sbsg8
I01
sg1879
(NNtp2409
sg1881
g1882
sg1883
Nsg25
Nsg1884
g1943
sg34
Nsbsg33
NsS'scatterpoints'
p2410
I1
sS'labelspacing'
p2411
F0.5
sg96
Nsg86
I01
sS'_legend_box'
p2412
g0
(g2266
g2
Ntp2413
Rp2414
(dp2415
g6
g7
sg8
I01
sg9
g4
sg2102
(lp2416
g2100
ag2263
asg10
Nsg2280
Nsg42
Nsg17
g18
sg20
I00
sg23
Nsg24
Nsg25
Nsg2302
F5.0
sg11
Nsg28
I00
sg2283
Nsg2303
F4.0
sg29
I00
sg30
(dp2417
sg32
I00
sg1884
Nsg88
Nsg33
Nsg96
Nsg86
I01
sg103
g0
(g104
g105
((lp2418
(lp2419
tp2420
tp2421
Rp2422
sg111
I0
sg112
I00
sg114
Nsg2310
Vcenter
p2423
sg115
Nsg2179
g0
(cmatplotlib.cbook
_InstanceMethodPickler
p2424
g2
Ntp2425
Rp2426
(dp2427
S'parent_obj'
p2428
g1959
sS'instancemethod_name'
p2429
S'_findoffset_best'
p2430
sbsg43
Nsg1883
Nsg2312
g2350
sg34
NsbsS'shadow'
p2431
I00
sg103
g0
(g104
g105
((lp2432
(lp2433
tp2434
tp2435
Rp2436
sg111
I0
sg114
NsS'isaxes'
p2437
I01
sS'handleheight'
p2438
F0.7
sg112
I00
sS'_last_fontsize_points'
p2439
F10.0
sS'borderpad'
p2440
F0.4
sS'_ncol'
p2441
I1
sg115
g2406
sS'_loc_real'
p2442
I0
sg43
Nsg1883
Nsg34
Nsbsg12
(lp2443
sS'_frameon'
p2444
I01
sS'_autoscaleYon'
p2445
I01
sg14
I01
sg15
(lp2446
sg20
I01
sS'tables'
p2447
(lp2448
sg1902
(lp2449
g0
(cmatplotlib.patches
Polygon
p2450
g2
Ntp2451
Rp2452
(dp2453
g6
g1967
sg8
I01
sg41
I00
sg9
g4
sS'_closed'
p2454
I00
sg10
Nsg42
Nsg17
g18
sg43
Nsg20
I01
sg44
g0
(g45
g2
Ntp2455
Rp2456
(dp2457
g49
I1
sg50
Nsg51
g7
sg52
(dp2458
sbsg54
g1984
sg23
Nsg24
Nsg77
g132
(g133
(I0
tp2459
g135
tp2460
Rp2461
(I1
(I4
tp2462
g59
I00
S'\x10\x10\x10\x10\x10\x10\xe0?\x10\x10\x10\x10\x10\x10\xe0?\x10\x10\x10\x10\x10\x10\xe0?\x00\x00\x00\x00\x00\x00\xf0?'
p2463
tp2464
bsg11
Nsg28
I00
sg29
I00
sg30
(dp2465
sg32
I00
sg85
Nsg86
I01
sg87
F1.0
sg88
g1717
sg33
Nsg90
g1984
sg91
Nsg92
I01
sg93
Nsg94
g2461
sg96
Nsg97
g1999
sg99
g100
sg101
g102
sg103
g0
(g104
g105
((lp2466
(lp2467
I0
atp2468
tp2469
Rp2470
sg111
I0
sg112
I01
sg114
Nsg115
g783
sg1879
g2030
sg1881
g1882
sg1883
Nsg25
Nsg1884
g1943
sg34
NsS'_path'
p2471
g0
(cmatplotlib.path
Path
p2472
g2
Ntp2473
Rp2474
(dp2475
S'_should_simplify'
p2476
I00
sS'_codes'
p2477
NsS'_vertices'
p2478
g132
(g133
(I0
tp2479
g135
tp2480
Rp2481
(I1
(I60
I2
tp2482
g59
I00
S'\xad_\xb6)X\xe5\xa5\xbf\x00\x00\x00\x00\x00\x00\x00\x00\xad_\xb6)X\xe5\xa5\xbf\x00\x00\x00\x00\x00\x003@\xf2S\xbf\xa2\xcex\xd8?\x00\x00\x00\x00\x00\x003@\xf2S\xbf\xa2\xcex\xd8?\x00\x00\x00\x00\x00\x80L@\xed\xb9Z%$\xd7\xe9?\x00\x00\x00\x00\x00\x80L@\xed\xb9Z%$\xd7\xe9?\x00\x00\x00\x00\x00\x00G@\xf1\xe4\xaa|\xf0\xb8\xf3?\x00\x00\x00\x00\x00\x00G@\xf1\xe4\xaa|\xf0\xb8\xf3?\x00\x00\x00\x00\x00\x80E@\xebl\xa8\xe6N\x86\xfa?\x00\x00\x00\x00\x00\x80E@\xebl\xa8\xe6N\x86\xfa?\x00\x00\x00\x00\x00\x00J@r\xfaR\xa8\xd6\xa9\x00@\x00\x00\x00\x00\x00\x00J@r\xfaR\xa8\xd6\xa9\x00@\x00\x00\x00\x00\x00\x00N@o\xbeQ\xdd\x85\x10\x04@\x00\x00\x00\x00\x00\x00N@o\xbeQ\xdd\x85\x10\x04@\x00\x00\x00\x00\x00\x80C@l\x82P\x125w\x07@\x00\x00\x00\x00\x00\x80C@l\x82P\x125w\x07@\x00\x00\x00\x00\x00\x006@iFOG\xe4\xdd\n@\x00\x00\x00\x00\x00\x006@iFOG\xe4\xdd\n@\x00\x00\x00\x00\x00\x00;@f\nN|\x93D\x0e@\x00\x00\x00\x00\x00\x00;@f\nN|\x93D\x0e@\x00\x00\x00\x00\x00\x004@2g\xa6X\xa1\xd5\x10@\x00\x00\x00\x00\x00\x004@2g\xa6X\xa1\xd5\x10@\x00\x00\x00\x00\x00\x00.@1\xc9%\xf3\xf8\x88\x12@\x00\x00\x00\x00\x00\x00.@1\xc9%\xf3\xf8\x88\x12@\x00\x00\x00\x00\x00\x00,@/+\xa5\x8dP<\x14@\x00\x00\x00\x00\x00\x00,@/+\xa5\x8dP<\x14@\x00\x00\x00\x00\x00\x00 @-\x8d$(\xa8\xef\x15@\x00\x00\x00\x00\x00\x00 @-\x8d$(\xa8\xef\x15@\x00\x00\x00\x00\x00\x00\x10@,\xef\xa3\xc2\xff\xa2\x17@\x00\x00\x00\x00\x00\x00\x10@,\xef\xa3\xc2\xff\xa2\x17@\x00\x00\x00\x00\x00\x00\x1c@+Q#]WV\x19@\x00\x00\x00\x00\x00\x00\x1c@+Q#]WV\x19@\x00\x00\x00\x00\x00\x00\x08@)\xb3\xa2\xf7\xae\t\x1b@\x00\x00\x00\x00\x00\x00\x08@)\xb3\xa2\xf7\xae\t\x1b@\x00\x00\x00\x00\x00\x00\x08@\'\x15"\x92\x06\xbd\x1c@\x00\x00\x00\x00\x00\x00\x08@\'\x15"\x92\x06\xbd\x1c@\x00\x00\x00\x00\x00\x00\x00\x00&w\xa1,^p\x1e@\x00\x00\x00\x00\x00\x00\x00\x00&w\xa1,^p\x1e@\x00\x00\x00\x00\x00\x00\x00\x00\x92l\x90\xe3\xda\x11 @\x00\x00\x00\x00\x00\x00\x00\x00\x92l\x90\xe3\xda\x11 @\x00\x00\x00\x00\x00\x00\x00\x00\x91\x1d\xd0\xb0\x86\xeb @\x00\x00\x00\x00\x00\x00\x00\x00\x91\x1d\xd0\xb0\x86\xeb @\x00\x00\x00\x00\x00\x00\xf0?\x90\xce\x0f~2\xc5!@\x00\x00\x00\x00\x00\x00\xf0?\x90\xce\x0f~2\xc5!@\x00\x00\x00\x00\x00\x00\x00\x00\x90\x7fOK\xde\x9e"@\x00\x00\x00\x00\x00\x00\x00\x00\x90\x7fOK\xde\x9e"@\x00\x00\x00\x00\x00\x00\x00\x00\x8f0\x8f\x18\x8ax#@\x00\x00\x00\x00\x00\x00\x00\x00\x8f0\x8f\x18\x8ax#@\x00\x00\x00\x00\x00\x00\x00\x00\x8e\xe1\xce\xe55R$@\x00\x00\x00\x00\x00\x00\x00\x00\x8e\xe1\xce\xe55R$@\x00\x00\x00\x00\x00\x00\x00\x00\x8d\x92\x0e\xb3\xe1+%@\x00\x00\x00\x00\x00\x00\x00\x00\x8d\x92\x0e\xb3\xe1+%@\x00\x00\x00\x00\x00\x00\x00\x00\x8cCN\x80\x8d\x05&@\x00\x00\x00\x00\x00\x00\x00\x00\x8cCN\x80\x8d\x05&@\x00\x00\x00\x00\x00\x00\x00\x00\x8c\xf4\x8dM9\xdf&@\x00\x00\x00\x00\x00\x00\x00\x00\x8c\xf4\x8dM9\xdf&@\x00\x00\x00\x00\x00\x00\x00\x00\x8b\xa5\xcd\x1a\xe5\xb8\'@\x00\x00\x00\x00\x00\x00\x00\x00\x8b\xa5\xcd\x1a\xe5\xb8\'@\x00\x00\x00\x00\x00\x00\x00\x00\x8aV\r\xe8\x90\x92(@\x00\x00\x00\x00\x00\x00\x00\x00\x8aV\r\xe8\x90\x92(@\x00\x00\x00\x00\x00\x00\x00\x00'
p2483
tp2484
bsS'_readonly'
p2485
I00
sS'_simplify_threshold'
p2486
F0.1111111111111111
sS'_interpolation_steps'
p2487
I1
sS'_has_nonfinite'
p2488
I00
sbsbag0
(g2450
g2
Ntp2489
Rp2490
(dp2491
g6
g2034
sg8
I01
sg41
I00
sg9
g4
sg2454
I00
sg10
Nsg42
Nsg17
g18
sg43
Nsg20
I01
sg44
g0
(g45
g2
Ntp2492
Rp2493
(dp2494
g49
I1
sg50
Nsg51
g7
sg52
(dp2495
sbsg54
g2051
sg23
Nsg24
Nsg77
g132
(g133
(I0
tp2496
g135
tp2497
Rp2498
(I1
(I4
tp2499
g59
I00
S'\x00\x00\x00\x00\x00\x00\xf0?\x00\x00\x00\x00\x00\x00\x00\x00\x00\x00\x00\x00\x00\x00\x00\x00\x00\x00\x00\x00\x00\x00\xf0?'
p2500
tp2501
bsg11
Nsg28
I00
sg29
I00
sg30
(dp2502
sg32
I00
sg85
Nsg86
I01
sg87
F1.0
sg88
g647
sg33
Nsg90
g2051
sg91
Nsg92
I01
sg93
Nsg94
g2498
sg96
Nsg97
g2066
sg99
g100
sg101
g102
sg103
g0
(g104
g105
((lp2503
(lp2504
I0
atp2505
tp2506
Rp2507
sg111
I0
sg112
I01
sg114
Nsg115
g783
sg1879
g2096
sg1881
g1882
sg1883
Nsg25
Nsg1884
g1943
sg34
Nsg2471
g0
(g2472
g2
Ntp2508
Rp2509
(dp2510
g2476
I00
sg2477
Nsg2478
g132
(g133
(I0
tp2511
g135
tp2512
Rp2513
(I1
(I60
I2
tp2514
g59
I00
S'\xad_\xb6)X\xe5\xa5\xbf\x00\x00\x00\x00\x00\x00\x00\x00\xad_\xb6)X\xe5\xa5\xbf\x00\x00\x00\x00\x00\x00\x14@\xf2S\xbf\xa2\xcex\xd8?\x00\x00\x00\x00\x00\x00\x14@\xf2S\xbf\xa2\xcex\xd8?\x00\x00\x00\x00\x00\x00,@\xed\xb9Z%$\xd7\xe9?\x00\x00\x00\x00\x00\x00,@\xed\xb9Z%$\xd7\xe9?\x00\x00\x00\x00\x00\x80D@\xf1\xe4\xaa|\xf0\xb8\xf3?\x00\x00\x00\x00\x00\x80D@\xf1\xe4\xaa|\xf0\xb8\xf3?\x00\x00\x00\x00\x00\x00B@\xebl\xa8\xe6N\x86\xfa?\x00\x00\x00\x00\x00\x00B@\xebl\xa8\xe6N\x86\xfa?\x00\x00\x00\x00\x00\x00A@r\xfaR\xa8\xd6\xa9\x00@\x00\x00\x00\x00\x00\x00A@r\xfaR\xa8\xd6\xa9\x00@\x00\x00\x00\x00\x00\x00B@o\xbeQ\xdd\x85\x10\x04@\x00\x00\x00\x00\x00\x00B@o\xbeQ\xdd\x85\x10\x04@\x00\x00\x00\x00\x00\x00B@l\x82P\x125w\x07@\x00\x00\x00\x00\x00\x00B@l\x82P\x125w\x07@\x00\x00\x00\x00\x00\x80F@iFOG\xe4\xdd\n@\x00\x00\x00\x00\x00\x80F@iFOG\xe4\xdd\n@\x00\x00\x00\x00\x00\x00<@f\nN|\x93D\x0e@\x00\x00\x00\x00\x00\x00<@f\nN|\x93D\x0e@\x00\x00\x00\x00\x00\x007@2g\xa6X\xa1\xd5\x10@\x00\x00\x00\x00\x00\x007@2g\xa6X\xa1\xd5\x10@\x00\x00\x00\x00\x00\x00,@1\xc9%\xf3\xf8\x88\x12@\x00\x00\x00\x00\x00\x00,@1\xc9%\xf3\xf8\x88\x12@\x00\x00\x00\x00\x00\x00\x18@/+\xa5\x8dP<\x14@\x00\x00\x00\x00\x00\x00\x18@/+\xa5\x8dP<\x14@\x00\x00\x00\x00\x00\x00"@-\x8d$(\xa8\xef\x15@\x00\x00\x00\x00\x00\x00"@-\x8d$(\xa8\xef\x15@\x00\x00\x00\x00\x00\x000@,\xef\xa3\xc2\xff\xa2\x17@\x00\x00\x00\x00\x00\x000@,\xef\xa3\xc2\xff\xa2\x17@\x00\x00\x00\x00\x00\x00\x10@+Q#]WV\x19@\x00\x00\x00\x00\x00\x00\x10@+Q#]WV\x19@\x00\x00\x00\x00\x00\x00\x18@)\xb3\xa2\xf7\xae\t\x1b@\x00\x00\x00\x00\x00\x00\x18@)\xb3\xa2\xf7\xae\t\x1b@\x00\x00\x00\x00\x00\x00\x14@\'\x15"\x92\x06\xbd\x1c@\x00\x00\x00\x00\x00\x00\x14@\'\x15"\x92\x06\xbd\x1c@\x00\x00\x00\x00\x00\x00\x1c@&w\xa1,^p\x1e@\x00\x00\x00\x00\x00\x00\x1c@&w\xa1,^p\x1e@\x00\x00\x00\x00\x00\x00\x18@\x92l\x90\xe3\xda\x11 @\x00\x00\x00\x00\x00\x00\x18@\x92l\x90\xe3\xda\x11 @\x00\x00\x00\x00\x00\x00\x00@\x91\x1d\xd0\xb0\x86\xeb @\x00\x00\x00\x00\x00\x00\x00@\x91\x1d\xd0\xb0\x86\xeb @\x00\x00\x00\x00\x00\x00\x10@\x90\xce\x0f~2\xc5!@\x00\x00\x00\x00\x00\x00\x10@\x90\xce\x0f~2\xc5!@\x00\x00\x00\x00\x00\x00\x1c@\x90\x7fOK\xde\x9e"@\x00\x00\x00\x00\x00\x00\x1c@\x90\x7fOK\xde\x9e"@\x00\x00\x00\x00\x00\x00\x14@\x8f0\x8f\x18\x8ax#@\x00\x00\x00\x00\x00\x00\x14@\x8f0\x8f\x18\x8ax#@\x00\x00\x00\x00\x00\x00\x00@\x8e\xe1\xce\xe55R$@\x00\x00\x00\x00\x00\x00\x00@\x8e\xe1\xce\xe55R$@\x00\x00\x00\x00\x00\x00\x00@\x8d\x92\x0e\xb3\xe1+%@\x00\x00\x00\x00\x00\x00\x00@\x8d\x92\x0e\xb3\xe1+%@\x00\x00\x00\x00\x00\x00\xf0?\x8cCN\x80\x8d\x05&@\x00\x00\x00\x00\x00\x00\xf0?\x8cCN\x80\x8d\x05&@\x00\x00\x00\x00\x00\x00\x00\x00\x8c\xf4\x8dM9\xdf&@\x00\x00\x00\x00\x00\x00\x00\x00\x8c\xf4\x8dM9\xdf&@\x00\x00\x00\x00\x00\x00\x00\x00\x8b\xa5\xcd\x1a\xe5\xb8\'@\x00\x00\x00\x00\x00\x00\x00\x00\x8b\xa5\xcd\x1a\xe5\xb8\'@\x00\x00\x00\x00\x00\x00\x08@\x8aV\r\xe8\x90\x92(@\x00\x00\x00\x00\x00\x00\x08@\x8aV\r\xe8\x90\x92(@\x00\x00\x00\x00\x00\x00\x00\x00'
p2515
tp2516
bsg2485
I00
sg2486
F0.1111111111111111
sg2487
I1
sg2488
I00
sbsbasS'title'
p2517
g0
(g2104
g2
Ntp2518
Rp2519
(dp2520
g6
g7
sg8
I01
sg9
g4
sg10
Nsg2108
g0
(g2109
g2
Ntp2521
Rp2522
(dp2523
g2113
(lp2524
g2115
asg2116
Nsg2117
g2118
sg2119
g2118
sg2120
F9.6
sg2121
I400
sg2122
g2118
sbsg42
Nsg17
g18
sg2123
Nsg20
I01
sg23
Nsg75
F1.0
sg76
F0.5
sg24
Nsg25
Nsg11
Nsg28
I00
sg29
I00
sg30
(dp2525
sg2125
Nsg32
I00
sg1884
g1943
sg88
Nsg1883
Nsg2126
Nsg33
Nsg96
Nsg86
I01
sg2127
Vbaseline
p2526
sg2129
V
p2527
sg2131
Nsg103
g0
(g104
g105
((lp2528
(lp2529
tp2530
tp2531
Rp2532
sg111
I0
sg2137
Nsg112
I01
sg114
Nsg2138
F1.2
sg115
g236
sg2163
I00
sg2164
I00
sg43
Nsg2165
g2166
sg2167
Vcenter
p2533
sg34
NsbsS'_current_image'
p2534
NsS'mouseover_set'
p2535
c__builtin__
set
p2536
((lp2537
tp2538
Rp2539
sg11
NsS'_cursorProps'
p2540
(I1
(g55
(g59
S'\x00\x00\x00\x00\x00\x00\x00\x00'
p2541
tp2542
Rp2543
g55
(g59
S'\x00\x00\x00\x00\x00\x00\x00\x00'
p2544
tp2545
Rp2546
g55
(g59
S'\x00\x00\x00\x00\x00\x00\x00\x00'
p2547
tp2548
Rp2549
I1
tp2550
tp2551
sS'numRows'
p2552
I1
sS'collections'
p2553
(lp2554
sg1884
g1943
sg30
(dp2555
sg32
I00
sS'containers'
p2556
(lp2557
sg29
I00
sg88
NsS'_get_lines'
p2558
g0
(g1947
g2
Ntp2559
Rp2560
(dp2561
g1951
g1943
sg1952
Vplot
p2562
sbsS'_aspect'
p2563
Vauto
p2564
sS'fmt_xdata'
p2565
Nsg1891
g0
(g1892
g2
Ntp2566
Rp2567
I01
bsg96
Nsg97
g2387
sg86
I01
sg1896
g190
sS'ignore_existing_data_limits'
p2568
I00
sg24
Nsg111
I0
sg112
I00
sS'_left_title'
p2569
g0
(g2104
g2
Ntp2570
Rp2571
(dp2572
g6
g7
sg8
I01
sg9
g4
sg10
Nsg2108
g0
(g2109
g2
Ntp2573
Rp2574
(dp2575
g2113
g2524
sg2116
Nsg2117
g2118
sg2119
g2118
sg2120
F9.6
sg2121
I400
sg2122
g2118
sbsg42
Nsg17
g18
sg2123
Nsg20
I01
sg23
Nsg75
F1.0
sg76
F0.0
sg24
Nsg25
Nsg11
Nsg28
I00
sg29
I00
sg30
(dp2576
sg2125
Nsg32
I00
sg1884
g1943
sg88
Nsg1883
Nsg2126
Nsg33
Nsg96
Nsg86
I01
sg2127
Vbaseline
p2577
sg2129
V
p2578
sg2131
Nsg103
g0
(g104
g105
((lp2579
(lp2580
tp2581
tp2582
Rp2583
sg111
I0
sg2137
Nsg112
I01
sg114
Nsg2138
F1.2
sg115
g226
sg2163
I00
sg2164
I00
sg43
Nsg2165
g2166
sg2167
Vleft
p2584
sg34
NsbsS'_right_title'
p2585
g0
(g2104
g2
Ntp2586
Rp2587
(dp2588
g6
g7
sg8
I01
sg9
g4
sg10
Nsg2108
g0
(g2109
g2
Ntp2589
Rp2590
(dp2591
g2113
g2524
sg2116
Nsg2117
g2118
sg2119
g2118
sg2120
F9.6
sg2121
I400
sg2122
g2118
sbsg42
Nsg17
g18
sg2123
Nsg20
I01
sg23
Nsg75
F1.0
sg76
F1.0
sg24
Nsg25
Nsg11
Nsg28
I00
sg29
I00
sg30
(dp2592
sg2125
Nsg32
I00
sg1884
g1943
sg88
Nsg1883
Nsg2126
Nsg33
Nsg96
Nsg86
I01
sg2127
g2577
sg2129
V
p2593
sg2131
Nsg103
g0
(g104
g105
((lp2594
(lp2595
tp2596
tp2597
Rp2598
sg111
I0
sg2137
Nsg112
I01
sg114
Nsg2138
F1.2
sg115
g240
sg2163
I00
sg2164
I00
sg43
Nsg2165
g2166
sg2167
Vright
p2599
sg34
NsbsS'transScale'
p2600
g777
sg115
NsS'axison'
p2601
I01
sS'patch'
p2602
g0
(g36
g2
Ntp2603
Rp2604
(dp2605
g6
g7
sg40
F1.0
sg41
I01
sg9
g4
sg8
I01
sg10
Nsg42
Nsg17
g18
sg43
Nsg20
I01
sg44
g0
(g45
g2
Ntp2606
Rp2607
(dp2608
g49
I1
sg50
Nsg51
g7
sg52
(dp2609
sbsg54
(F0.0
F0.0
F0.0
F0.0
tp2610
sg23
Nsg75
F0.0
sg76
F0.0
sg24
Nsg77
VNone
p2611
sg11
Nsg28
I00
sg29
I00
sg30
(dp2612
sg80
g606
sg32
I00
sg85
Nsg86
I01
sg87
F0.0
sg88
Nsg89
F1.0
sg33
Nsg90
g2610
sg91
Nsg92
I01
sg93
Nsg94
g2387
sg96
Nsg97
g98
sg99
g100
sg101
g102
sg103
g0
(g104
g105
((lp2613
(lp2614
tp2615
tp2616
Rp2617
sg111
I0
sg112
I01
sg113
F0.0
sg114
Nsg115
g187
sg1879
(NNtp2618
sg1881
g1882
sg1883
Nsg25
Nsg1884
Nsg34
NsbsS'viewLim'
p2619
g754
sg17
g18
sS'_subplotspec'
p2620
g1917
sS'_adjustable'
p2621
Vbox
p2622
sg9
g4
sS'titleOffsetTrans'
p2623
g231
sS'_yaxis_transform'
p2624
g787
sS'_gridOn'
p2625
I00
sg10
NsS'colNum'
p2626
I0
sg42
Nsg1886
(lp2627
sS'_autoscaleXon'
p2628
I01
sS'_xmargin'
p2629
F0.05
sS'rowNum'
p2630
I0
sS'_position'
p2631
g193
sS'_rasterization_zorder'
p2632
NsS'_cachedRenderer'
p2633
NsS'_navigate'
p2634
I01
sg23
NsS'_originalPosition'
p2635
g0
(g127
g2
Ntp2636
Rp2637
(dp2638
g49
I1
sg131
g132
(g133
(I0
tp2639
g135
tp2640
Rp2641
(I1
(I2
tp2642
g59
I00
S'\x00\x00\x00\x00\x00\x00\xf0\x7f\x00\x00\x00\x00\x00\x00\xf0\x7f'
p2643
tp2644
bsg52
(dp2645
sg142
g132
(g133
(I0
tp2646
g135
tp2647
Rp2648
(I1
(I2
I2
tp2649
g59
I00
S'\x00\x00\x00\x00\x00\x00\xc0?\x00\x00\x00\x00\x00\x00\xc0?\xcd\xcc\xcc\xcc\xcc\xcc\xec?)\\\x8f\xc2\xf5(\xec?'
p2650
tp2651
bsg149
g132
(g133
(I0
tp2652
g135
tp2653
Rp2654
(I1
(I2
I2
tp2655
g59
I00
S'\x00\x00\x00\x00\x00\x00\xc0?\x00\x00\x00\x00\x00\x00\xc0?\xcd\xcc\xcc\xcc\xcc\xcc\xec?)\\\x8f\xc2\xf5(\xec?'
p2656
tp2657
bsg156
I01
sg51
g7
sbsg25
NsS'_xaxis_transform'
p2658
g184
sg28
I00
sS'figbox'
p2659
g193
sS'xaxis'
p2660
g0
(cmatplotlib.axis
XAxis
p2661
g2
Ntp2662
Rp2663
(dp2664
g6
g7
sS'major'
p2665
g0
(cmatplotlib.axis
Ticker
p2666
g2
Ntp2667
Rp2668
(dp2669
S'locator'
p2670
g0
(cmatplotlib.ticker
AutoLocator
p2671
g2
Ntp2672
Rp2673
(dp2674
S'_min_n_ticks'
p2675
I2
sS'_symmetric'
p2676
I00
sS'_nbins'
p2677
Vauto
p2678
sS'_steps'
p2679
g132
(g133
(I0
tp2680
g135
tp2681
Rp2682
(I1
(I5
tp2683
g59
I00
S'\x00\x00\x00\x00\x00\x00\xf0?\x00\x00\x00\x00\x00\x00\x00@\x00\x00\x00\x00\x00\x00\x04@\x00\x00\x00\x00\x00\x00\x14@\x00\x00\x00\x00\x00\x00$@'
p2684
tp2685
bsS'_prune'
p2686
NsS'_extended_steps'
p2687
g132
(g133
(I0
tp2688
g135
tp2689
Rp2690
(I1
(I10
tp2691
g59
I00
S'\x9a\x99\x99\x99\x99\x99\xb9?\x9a\x99\x99\x99\x99\x99\xc9?\x00\x00\x00\x00\x00\x00\xd0?\x00\x00\x00\x00\x00\x00\xe0?\x00\x00\x00\x00\x00\x00\xf0?\x00\x00\x00\x00\x00\x00\x00@\x00\x00\x00\x00\x00\x00\x04@\x00\x00\x00\x00\x00\x00\x14@\x00\x00\x00\x00\x00\x00$@\x00\x00\x00\x00\x00\x004@'
p2692
tp2693
bsS'_integer'
p2694
I00
sS'axis'
p2695
g2663
sbsS'formatter'
p2696
g0
(cmatplotlib.ticker
ScalarFormatter
p2697
g2
Ntp2698
Rp2699
(dp2700
S'_powerlimits'
p2701
(lp2702
I-7
aI7
asS'orderOfMagnitude'
p2703
I0
sS'_useOffset'
p2704
I01
sS'_useLocale'
p2705
I00
sS'format'
p2706
g7
sS'_useMathText'
p2707
I00
sS'_offset_threshold'
p2708
I4
sS'offset'
p2709
I0
sg2163
I00
sS'_scientific'
p2710
I01
sg2695
g2663
sbsbsS'isDefault_label'
p2711
I00
sS'_scale'
p2712
g0
(cmatplotlib.scale
LinearScale
p2713
g2
Ntp2714
Rp2715
sg9
g4
sg8
I01
sS'_gridOnMinor'
p2716
I00
sg10
Nsg42
NsS'_smart_bounds'
p2717
I00
sg17
g18
sg20
I01
sg23
NsS'offsetText'
p2718
g0
(g2104
g2
Ntp2719
Rp2720
(dp2721
g6
g7
sg8
I01
sg9
g4
sg10
Nsg2108
g0
(g2109
g2
Ntp2722
Rp2723
(dp2724
g2113
(lp2725
g2115
asg2116
Nsg2117
g2118
sg2119
g2118
sg2120
F8.0
sg2121
I400
sg2122
g2118
sbsg42
Nsg17
g18
sg2123
Nsg20
I01
sg23
Nsg75
I0
sg76
I1
sg24
Nsg25
Nsg11
Nsg28
I00
sg29
I00
sg30
(dp2726
sg2125
Nsg32
I00
sg1884
Nsg88
Nsg1883
Nsg2126
Nsg33
Nsg96
Nsg86
I01
sg2127
Vtop
p2727
sg2129
V
p2728
sg2131
Nsg103
g0
(g104
g105
((lp2729
(lp2730
tp2731
tp2732
Rp2733
sg111
I0
sg2137
Nsg112
I01
sg114
Nsg2138
F1.2
sg115
g218
sg2163
I00
sg2164
I00
sg43
Nsg2165
V0.
p2734
sg2167
Vright
p2735
sg34
Nsbsg24
Nsg25
Nsg11
NsS'label'
p2736
g0
(g2104
g2
Ntp2737
Rp2738
(dp2739
g6
g7
sg8
I01
sg9
g4
sg10
Nsg2108
g0
(g2109
g2
Ntp2740
Rp2741
(dp2742
g2113
(lp2743
g2115
asg2116
Nsg2117
g2118
sg2119
g2118
sg2120
F10.0
sg2121
I400
sg2122
g2118
sbsg42
Nsg17
g18
sg2123
Nsg20
I01
sg23
Nsg75
I0
sg76
F0.5
sg24
Nsg25
Nsg11
Nsg28
I00
sg29
I00
sg30
(dp2744
sg2125
Nsg32
I00
sg1884
Nsg88
Nsg1883
Nsg2126
Nsg33
Nsg96
Nsg86
I01
sg2127
Vtop
p2745
sg2129
VPSP Amplitude (mV)
p2746
sg2131
Nsg103
g0
(g104
g105
((lp2747
(lp2748
tp2749
tp2750
Rp2751
sg111
I0
sg2137
Nsg112
I01
sg114
Nsg2138
F1.2
sg115
g455
sg2163
I00
sg2164
I00
sg43
Nsg2165
V0.
p2752
sg2167
Vcenter
p2753
sg34
Nsbsg28
I00
sS'isDefault_majfmt'
p2754
I01
sg29
I00
sg30
(dp2755
sS'units'
p2756
Nsg32
I00
sS'minor'
p2757
g0
(g2666
g2
Ntp2758
Rp2759
(dp2760
g2670
g0
(cmatplotlib.ticker
NullLocator
p2761
g2
Ntp2762
Rp2763
(dp2764
g2695
g2663
sbsg2696
g0
(cmatplotlib.ticker
NullFormatter
p2765
g2
Ntp2766
Rp2767
(dp2768
g2695
g2663
sbsbsg1884
g1943
sS'_major_tick_kw'
p2769
(dp2770
Vlabel1On
p2771
I01
sVgridOn
p2772
I00
sVlabel2On
p2773
I00
sVtick1On
p2774
I01
sVtick2On
p2775
I00
ssS'isDefault_minloc'
p2776
I01
sg88
g717
sg33
NsS'_gridOnMajor'
p2777
I00
sS'_lastNumMinorTicks'
p2778
I1
sS'labelpad'
p2779
F4.0
sS'majorTicks'
p2780
(lp2781
g0
(cmatplotlib.axis
XTick
p2782
g2
Ntp2783
Rp2784
(dp2785
g6
g7
sg40
F0.8
sg9
g4
sS'tick1On'
p2786
I01
sg8
I01
sg10
Nsg111
I0
sg42
NsS'_pad'
p2787
F3.5
sS'_labelcolor'
p2788
g2734
sS'gridOn'
p2789
I00
sg2120
F0.0
sg17
g18
sS'_tickdir'
p2790
Vout
p2791
sg2736
g0
(g2104
g2
Ntp2792
Rp2793
(dp2794
g6
g7
sg8
I01
sg9
g4
sg10
Nsg2108
g0
(g2109
g2
Ntp2795
Rp2796
(dp2797
g2113
(lp2798
g2115
asg2116
Nsg2117
g2118
sg2119
g2118
sg2120
F8.0
sg2121
I400
sg2122
g2118
sbsg42
Nsg17
g18
sg2123
Nsg20
I01
sg23
Nsg75
I0
sg76
I0
sg24
Nsg25
Nsg11
Nsg28
I00
sg29
I00
sg30
(dp2799
sg2125
Nsg32
I00
sg1884
Nsg88
Nsg1883
Nsg2126
Nsg33
Nsg96
Nsg86
I01
sg2127
Vtop
p2800
sg2129
V
p2801
sg2131
Nsg103
g0
(g104
g105
((lp2802
(lp2803
tp2804
tp2805
Rp2806
sg111
I0
sg2137
Nsg112
I01
sg114
Nsg2138
F1.2
sg115
g1823
sg2163
I00
sg2164
I00
sg43
Nsg2165
g2734
sg2167
Vcenter
p2807
sg34
Nsbsg20
I01
sg23
NsS'label2On'
p2808
I00
sg24
Nsg25
Nsg11
NsS'tick2On'
p2809
I00
sg28
I00
sg29
I00
sg30
(dp2810
sS'_tickmarkers'
p2811
(I3
I2
tp2812
sg32
I00
sS'_zorder'
p2813
F2.01
sg1884
g1943
sS'label1On'
p2814
I01
sg88
g931
sg1883
NsS'label1'
p2815
g2793
sS'label2'
p2816
g0
(g2104
g2
Ntp2817
Rp2818
(dp2819
g6
g7
sg8
I01
sg9
g4
sg10
Nsg2108
g0
(g2109
g2
Ntp2820
Rp2821
(dp2822
g2113
(lp2823
g2115
asg2116
Nsg2117
g2118
sg2119
g2118
sg2120
F8.0
sg2121
I400
sg2122
g2118
sbsg42
Nsg17
g18
sg2123
Nsg20
I01
sg23
Nsg75
I1
sg76
I0
sg24
Nsg25
Nsg11
Nsg28
I00
sg29
I00
sg30
(dp2824
sg2125
Nsg32
I00
sg1884
Nsg88
Nsg1883
Nsg2126
Nsg33
Nsg96
Nsg86
I01
sg2127
Vbottom
p2825
sg2129
V
p2826
sg2131
Nsg103
g0
(g104
g105
((lp2827
(lp2828
tp2829
tp2830
Rp2831
sg111
I0
sg2137
Nsg112
I01
sg114
Nsg2138
F1.2
sg115
g1850
sg2163
I00
sg2164
I00
sg43
Nsg2165
g2734
sg2167
g2807
sg34
Nsbsg96
NsS'_loc'
p2832
I0
sg86
I01
sg103
g0
(g104
g105
((lp2833
(lp2834
tp2835
tp2836
Rp2837
sS'_base_pad'
p2838
F3.5
sS'tick1line'
p2839
g0
(cmatplotlib.lines
Line2D
p2840
g2
Ntp2841
Rp2842
(dp2843
g6
g7
sS'_dashcapstyle'
p2844
Vbutt
p2845
sS'_linestyles'
p2846
Nsg20
I01
sS'_x_filled'
p2847
NsS'ind_offset'
p2848
I0
sg75
Nsg76
Nsg24
Nsg11
Nsg29
I00
sg30
(dp2849
sg32
I00
sg1884
NsS'_markeredgewidth'
p2850
F0.8
sS'_dashSeq'
p2851
NsS'_markerfacecoloralt'
p2852
Vnone
p2853
sS'_markeredgecolor'
p2854
Vauto
p2855
sg96
Nsg86
I01
sS'_xorig'
p2856
(I0
tp2857
sg111
I0
sg112
I01
sS'_invalidy'
p2858
I01
sS'_invalidx'
p2859
I01
sg115
g184
sS'_us_dashSeq'
p2860
NsS'zorder'
p2861
F2.01
sg2165
g2734
sS'pickradius'
p2862
I5
sg9
g4
sS'verticalOffset'
p2863
Nsg10
Nsg42
Nsg17
g18
sS'_solidjoinstyle'
p2864
Vround
p2865
sg23
Nsg25
Nsg28
I00
sS'_markevery'
p2866
Nsg34
NsS'_transformed_path'
p2867
NsS'_marker'
p2868
g0
(cmatplotlib.markers
MarkerStyle
p2869
g2
Ntp2870
Rp2871
(dp2872
g2868
I3
sS'_alt_path'
p2873
NsS'_snap_threshold'
p2874
F1.0
sg115
g0
(g157
g2
Ntp2875
Rp2876
(dp2877
g49
I2
sg50
Nsg120
g132
(g133
(I0
tp2878
g135
tp2879
Rp2880
(I1
(I3
I3
tp2881
g59
I00
S'\x00\x00\x00\x00\x00\x00\xf0?\x00\x00\x00\x00\x00\x00\x00\x00\x00\x00\x00\x00\x00\x00\x00\x00\x00\x00\x00\x00\x00\x00\x00\x00\x00\x00\x00\x00\x00\x00\xf0\xbf\x00\x00\x00\x00\x00\x00\x00\x00\x00\x00\x00\x00\x00\x00\x00\x00\x00\x00\x00\x00\x00\x00\x00\x00\x00\x00\x00\x00\x00\x00\xf0?'
p2882
tp2883
bsg51
g7
sg52
(dp2884
sbsS'_filled'
p2885
I00
sS'_fillstyle'
p2886
Vfull
p2887
sS'_alt_transform'
p2888
Nsg1881
Vbutt
p2889
sg99
Vround
p2890
sg2471
g0
(g2472
g2
Ntp2891
Rp2892
(dp2893
g2476
I00
sg2477
Nsg2478
g132
(g133
(I0
tp2894
g135
tp2895
Rp2896
(I1
(I2
I2
tp2897
g59
I00
S'\x00\x00\x00\x00\x00\x00\x00\x80\x00\x00\x00\x00\x00\x00\x00\x00\x00\x00\x00\x00\x00\x00\x00\x80\x00\x00\x00\x00\x00\x00\xf0?'
p2898
tp2899
bsg2485
I00
sg2486
F0.1111111111111111
sg2487
I1
sg2488
I00
sbsbsS'_markerfacecolor'
p2900
Vauto
p2901
sg88
Nsg33
Nsg92
I01
sS'_xy'
p2902
Nsg101
VNone
p2903
sg103
g0
(g104
g105
((lp2904
(lp2905
tp2906
tp2907
Rp2908
sS'_subslice'
p2909
I00
sS'_drawstyle'
p2910
Vdefault
p2911
sS'_solidcapstyle'
p2912
g2865
sS'_us_dashOffset'
p2913
Nsg114
NsS'_dashjoinstyle'
p2914
g2865
sS'_markersize'
p2915
F0.0
sg8
I01
sS'_dashOffset'
p2916
Nsg43
Nsg1883
NsS'_yorig'
p2917
(I0
tp2918
sg87
F0.5
sg2471
Nsbsg112
I00
sS'gridline'
p2919
g0
(g2840
g2
Ntp2920
Rp2921
(dp2922
g6
g7
sg8
I01
sg2912
g2865
sg9
g4
sg2844
g2845
sg2846
Nsg10
Nsg42
Nsg17
g18
sg2864
g2865
sg20
I01
sg2847
Nsg23
Nsg75
g132
(g133
(I0
tp2923
g135
tp2924
Rp2925
(I1
(I2
tp2926
g59
I00
S'\x00\x00\x00\x00\x00\x00\x00\x00\x00\x00\x00\x00\x00\x00\xf0?'
p2927
tp2928
bsg76
g132
(g133
(I0
tp2929
g135
tp2930
Rp2931
(I1
(I2
tp2932
g59
I00
S'\x00\x00\x00\x00\x00\x00\x00\x00\x00\x00\x00\x00\x00\x00\x00\x00'
p2933
tp2934
bsg24
Nsg25
Nsg11
Nsg2856
(F0.0
F0.0
tp2935
sg28
I00
sg2866
Nsg29
I00
sg30
(dp2936
sg2863
Nsg32
I00
sg2909
I00
sg1884
Nsg2867
Nsg2850
F1.0
sg2900
g2901
sg2851
Nsg2165
V.8
p2937
sg2868
g0
(g2869
g2
Ntp2938
Rp2939
(dp2940
g2868
VNone
p2941
sg2873
Nsg2874
Nsg115
g0
(g45
g2
Ntp2942
Rp2943
(dp2944
g49
I1
sg50
Nsg51
g7
sg52
(dp2945
sbsg2885
I00
sg2886
g2887
sg2888
Nsg1881
g2889
sg99
g2890
sg2471
g0
(g2472
g2
Ntp2946
Rp2947
(dp2948
g2476
I00
sg2477
Nsg2478
g132
(g133
(I0
tp2949
g135
tp2950
Rp2951
(I1
(I0
I2
tp2952
g59
I00
S''
p2953
tp2954
bsg2485
I00
sg2486
F0.1111111111111111
sg2487
I1
sg2488
I00
sbsbsg33
Nsg2852
g2853
sg92
I01
sg2854
g2855
sg96
Nsg2915
F0.0
sg86
I01
sg2902
g132
(g133
(I0
tp2955
g135
tp2956
Rp2957
(I1
(I2
I2
tp2958
g59
I00
S'\x00\x00\x00\x00\x00\x00\x00\x00\x00\x00\x00\x00\x00\x00\x00\x00\x00\x00\x00\x00\x00\x00\x00\x00\x00\x00\x00\x00\x00\x00\xf0?'
p2959
tp2960
bsg101
V-
p2961
sg103
g0
(g104
g105
((lp2962
(lp2963
tp2964
tp2965
Rp2966
sg111
I0
sg2910
g2911
sg2848
I0
sg2913
Nsg2862
I5
sg112
I01
sg114
F1.0
sg2914
g2865
sg2859
I00
sg115
g184
sg2916
Nsg2860
Nsg2858
I00
sg43
Nsg1883
Nsg2917
(I0
F1.0
tp2967
sg88
g1071
sg87
F0.8
sg34
Nsg2471
g0
(g2472
g2
Ntp2968
Rp2969
(dp2970
g2476
I00
sg2477
Nsg2478
g2957
sg2485
I00
sg2486
F0.1111111111111111
sg2487
I180
sg2488
I00
sbsbsg114
Nsg33
NsS'tick2line'
p2971
g0
(g2840
g2
Ntp2972
Rp2973
(dp2974
g6
g7
sg2844
g2845
sg2846
Nsg20
I01
sg2847
Nsg2848
I0
sg75
Nsg76
Nsg24
Nsg11
Nsg29
I00
sg30
(dp2975
sg32
I00
sg1884
Nsg2850
F0.8
sg2851
Nsg2852
g2853
sg2854
g2855
sg96
Nsg86
I01
sg2856
(I0
tp2976
sg111
I0
sg112
I01
sg2858
I01
sg2859
I01
sg115
g184
sg2860
Nsg2861
F2.01
sg2165
g2734
sg2862
I5
sg9
g4
sg2863
Nsg10
Nsg42
Nsg17
g18
sg2864
g2865
sg23
Nsg25
Nsg28
I00
sg2866
Nsg34
Nsg2867
Nsg2868
g0
(g2869
g2
Ntp2977
Rp2978
(dp2979
g2868
I2
sg2873
Nsg2874
F1.0
sg115
g0
(g157
g2
Ntp2980
Rp2981
(dp2982
g49
I2
sg50
Nsg120
g132
(g133
(I0
tp2983
g135
tp2984
Rp2985
(I1
(I3
I3
tp2986
g59
I00
S'\x00\x00\x00\x00\x00\x00\xf0?\x00\x00\x00\x00\x00\x00\x00\x00\x00\x00\x00\x00\x00\x00\x00\x00\x00\x00\x00\x00\x00\x00\x00\x00\x00\x00\x00\x00\x00\x00\xf0?\x00\x00\x00\x00\x00\x00\x00\x00\x00\x00\x00\x00\x00\x00\x00\x00\x00\x00\x00\x00\x00\x00\x00\x00\x00\x00\x00\x00\x00\x00\xf0?'
p2987
tp2988
bsg51
g7
sg52
(dp2989
sbsg2885
I00
sg2886
g2887
sg2888
Nsg1881
g2889
sg99
g2890
sg2471
g2892
sbsg2900
g2901
sg88
Nsg33
Nsg92
I01
sg2902
Nsg101
VNone
p2990
sg103
g0
(g104
g105
((lp2991
(lp2992
tp2993
tp2994
Rp2995
sg2909
I00
sg2910
g2911
sg2912
g2865
sg2913
Nsg114
Nsg2914
g2865
sg2915
F0.0
sg8
I01
sg2916
Nsg43
Nsg1883
Nsg2917
(I1
tp2996
sg87
F0.5
sg2471
Nsbsg115
NsS'_labelsize'
p2997
F8.0
sS'_name'
p2998
Vxtick
p2999
sg43
Nsg2165
g2734
sg34
Nsbag0
(g2782
g2
Ntp3000
Rp3001
(dp3002
g6
g7
sg40
F0.8
sg9
g4
sg2786
I01
sg8
I01
sg10
Nsg111
I0
sg42
Nsg2787
F3.5
sg2788
g2734
sg2789
I00
sg2120
F0.0
sg17
g18
sg2790
g2791
sg2736
g0
(g2104
g2
Ntp3003
Rp3004
(dp3005
g6
g7
sg8
I01
sg9
g4
sg10
Nsg2108
g0
(g2109
g2
Ntp3006
Rp3007
(dp3008
g2113
(lp3009
g2115
asg2116
Nsg2117
g2118
sg2119
g2118
sg2120
F8.0
sg2121
I400
sg2122
g2118
sbsg42
Nsg17
g18
sg2123
Nsg20
I01
sg23
Nsg75
I0
sg76
I0
sg24
Nsg25
Nsg11
Nsg28
I00
sg29
I00
sg30
(dp3010
sg2125
Nsg32
I00
sg1884
Nsg88
Nsg1883
Nsg2126
Nsg33
Nsg96
Nsg86
I01
sg2127
g2800
sg2129
V
p3011
sg2131
Nsg103
g0
(g104
g105
((lp3012
(lp3013
tp3014
tp3015
Rp3016
sg111
I0
sg2137
Nsg112
I01
sg114
Nsg2138
F1.2
sg115
g1841
sg2163
I00
sg2164
I00
sg43
Nsg2165
g2734
sg2167
g2807
sg34
Nsbsg20
I01
sg23
Nsg2808
I00
sg24
Nsg25
Nsg11
Nsg2809
I00
sg28
I00
sg29
I00
sg30
(dp3017
sg2811
(I3
I2
tp3018
sg32
I00
sg2813
F2.01
sg1884
g1943
sg2814
I01
sg88
g507
sg1883
Nsg2815
g3004
sg2816
g0
(g2104
g2
Ntp3019
Rp3020
(dp3021
g6
g7
sg8
I01
sg9
g4
sg10
Nsg2108
g0
(g2109
g2
Ntp3022
Rp3023
(dp3024
g2113
(lp3025
g2115
asg2116
Nsg2117
g2118
sg2119
g2118
sg2120
F8.0
sg2121
I400
sg2122
g2118
sbsg42
Nsg17
g18
sg2123
Nsg20
I01
sg23
Nsg75
I1
sg76
I0
sg24
Nsg25
Nsg11
Nsg28
I00
sg29
I00
sg30
(dp3026
sg2125
Nsg32
I00
sg1884
Nsg88
Nsg1883
Nsg2126
Nsg33
Nsg96
Nsg86
I01
sg2127
g2825
sg2129
V
p3027
sg2131
Nsg103
g0
(g104
g105
((lp3028
(lp3029
tp3030
tp3031
Rp3032
sg111
I0
sg2137
Nsg112
I01
sg114
Nsg2138
F1.2
sg115
g178
sg2163
I00
sg2164
I00
sg43
Nsg2165
g2734
sg2167
g2807
sg34
Nsbsg96
Nsg2832
I0
sg86
I01
sg103
g0
(g104
g105
((lp3033
(lp3034
tp3035
tp3036
Rp3037
sg2838
F3.5
sg2839
g0
(g2840
g2
Ntp3038
Rp3039
(dp3040
g6
g7
sg2844
g2845
sg2846
Nsg20
I01
sg2847
Nsg2848
I0
sg75
Nsg76
Nsg24
Nsg11
Nsg29
I00
sg30
(dp3041
sg32
I00
sg1884
Nsg2850
F0.8
sg2851
Nsg2852
g2853
sg2854
g2855
sg96
Nsg86
I01
sg2856
(I0
tp3042
sg111
I0
sg112
I01
sg2858
I01
sg2859
I01
sg115
g184
sg2860
Nsg2861
F2.01
sg2165
g2734
sg2862
I5
sg9
g4
sg2863
Nsg10
Nsg42
Nsg17
g18
sg2864
g2865
sg23
Nsg25
Nsg28
I00
sg2866
Nsg34
Nsg2867
Nsg2868
g0
(g2869
g2
Ntp3043
Rp3044
(dp3045
g2868
I3
sg2873
Nsg2874
F1.0
sg115
g0
(g157
g2
Ntp3046
Rp3047
(dp3048
g49
I2
sg50
Nsg120
g132
(g133
(I0
tp3049
g135
tp3050
Rp3051
(I1
(I3
I3
tp3052
g59
I00
S'\x00\x00\x00\x00\x00\x00\xf0?\x00\x00\x00\x00\x00\x00\x00\x00\x00\x00\x00\x00\x00\x00\x00\x00\x00\x00\x00\x00\x00\x00\x00\x00\x00\x00\x00\x00\x00\x00\xf0\xbf\x00\x00\x00\x00\x00\x00\x00\x00\x00\x00\x00\x00\x00\x00\x00\x00\x00\x00\x00\x00\x00\x00\x00\x00\x00\x00\x00\x00\x00\x00\xf0?'
p3053
tp3054
bsg51
g7
sg52
(dp3055
sbsg2885
I00
sg2886
g2887
sg2888
Nsg1881
g2889
sg99
g2890
sg2471
g2892
sbsg2900
g2901
sg88
Nsg33
Nsg92
I01
sg2902
Nsg101
g2903
sg103
g0
(g104
g105
((lp3056
(lp3057
tp3058
tp3059
Rp3060
sg2909
I00
sg2910
g2911
sg2912
g2865
sg2913
Nsg114
Nsg2914
g2865
sg2915
F0.0
sg8
I01
sg2916
Nsg43
Nsg1883
Nsg2917
g2918
sg87
F0.5
sg2471
Nsbsg112
I00
sg2919
g0
(g2840
g2
Ntp3061
Rp3062
(dp3063
g6
g7
sg8
I01
sg2912
g2865
sg9
g4
sg2844
g2845
sg2846
Nsg10
Nsg42
Nsg17
g18
sg2864
g2865
sg20
I01
sg2847
Nsg23
Nsg75
g132
(g133
(I0
tp3064
g135
tp3065
Rp3066
(I1
(I2
tp3067
g59
I00
S'\x00\x00\x00\x00\x00\x00\x00\x00\x00\x00\x00\x00\x00\x00\xf0?'
p3068
tp3069
bsg76
g132
(g133
(I0
tp3070
g135
tp3071
Rp3072
(I1
(I2
tp3073
g59
I00
S'\x00\x00\x00\x00\x00\x00\x00\x00\x00\x00\x00\x00\x00\x00\x00\x00'
p3074
tp3075
bsg24
Nsg25
Nsg11
Nsg2856
g2935
sg28
I00
sg2866
Nsg29
I00
sg30
(dp3076
sg2863
Nsg32
I00
sg2909
I00
sg1884
Nsg2867
Nsg2850
F1.0
sg2900
g2901
sg2851
Nsg2165
g2937
sg2868
g0
(g2869
g2
Ntp3077
Rp3078
(dp3079
g2868
g2941
sg2873
Nsg2874
Nsg115
g0
(g45
g2
Ntp3080
Rp3081
(dp3082
g49
I1
sg50
Nsg51
g7
sg52
(dp3083
sbsg2885
I00
sg2886
g2887
sg2888
Nsg1881
g2889
sg99
g2890
sg2471
g0
(g2472
g2
Ntp3084
Rp3085
(dp3086
g2476
I00
sg2477
Nsg2478
g132
(g133
(I0
tp3087
g135
tp3088
Rp3089
(I1
(I0
I2
tp3090
g59
I00
g2953
tp3091
bsg2485
I00
sg2486
F0.1111111111111111
sg2487
I1
sg2488
I00
sbsbsg33
Nsg2852
g2853
sg92
I01
sg2854
g2855
sg96
Nsg2915
F0.0
sg86
I01
sg2902
g132
(g133
(I0
tp3092
g135
tp3093
Rp3094
(I1
(I2
I2
tp3095
g59
I00
S'\x00\x00\x00\x00\x00\x00\x00\x00\x00\x00\x00\x00\x00\x00\x00\x00\x00\x00\x00\x00\x00\x00\x00\x00\x00\x00\x00\x00\x00\x00\xf0?'
p3096
tp3097
bsg101
g2961
sg103
g0
(g104
g105
((lp3098
(lp3099
tp3100
tp3101
Rp3102
sg111
I0
sg2910
g2911
sg2848
I0
sg2913
Nsg2862
I5
sg112
I01
sg114
F1.0
sg2914
g2865
sg2859
I00
sg115
g184
sg2916
Nsg2860
Nsg2858
I00
sg43
Nsg1883
Nsg2917
g2967
sg88
g1001
sg87
F0.8
sg34
Nsg2471
g0
(g2472
g2
Ntp3103
Rp3104
(dp3105
g2476
I00
sg2477
Nsg2478
g3094
sg2485
I00
sg2486
F0.1111111111111111
sg2487
I180
sg2488
I00
sbsbsg114
Nsg33
Nsg2971
g0
(g2840
g2
Ntp3106
Rp3107
(dp3108
g6
g7
sg2844
g2845
sg2846
Nsg20
I01
sg2847
Nsg2848
I0
sg75
Nsg76
Nsg24
Nsg11
Nsg29
I00
sg30
(dp3109
sg32
I00
sg1884
Nsg2850
F0.8
sg2851
Nsg2852
g2853
sg2854
g2855
sg96
Nsg86
I01
sg2856
(I0
tp3110
sg111
I0
sg112
I01
sg2858
I01
sg2859
I01
sg115
g184
sg2860
Nsg2861
F2.01
sg2165
g2734
sg2862
I5
sg9
g4
sg2863
Nsg10
Nsg42
Nsg17
g18
sg2864
g2865
sg23
Nsg25
Nsg28
I00
sg2866
Nsg34
Nsg2867
Nsg2868
g0
(g2869
g2
Ntp3111
Rp3112
(dp3113
g2868
I2
sg2873
Nsg2874
F1.0
sg115
g0
(g157
g2
Ntp3114
Rp3115
(dp3116
g49
I2
sg50
Nsg120
g132
(g133
(I0
tp3117
g135
tp3118
Rp3119
(I1
(I3
I3
tp3120
g59
I00
S'\x00\x00\x00\x00\x00\x00\xf0?\x00\x00\x00\x00\x00\x00\x00\x00\x00\x00\x00\x00\x00\x00\x00\x00\x00\x00\x00\x00\x00\x00\x00\x00\x00\x00\x00\x00\x00\x00\xf0?\x00\x00\x00\x00\x00\x00\x00\x00\x00\x00\x00\x00\x00\x00\x00\x00\x00\x00\x00\x00\x00\x00\x00\x00\x00\x00\x00\x00\x00\x00\xf0?'
p3121
tp3122
bsg51
g7
sg52
(dp3123
sbsg2885
I00
sg2886
g2887
sg2888
Nsg1881
g2889
sg99
g2890
sg2471
g2892
sbsg2900
g2901
sg88
Nsg33
Nsg92
I01
sg2902
Nsg101
g2990
sg103
g0
(g104
g105
((lp3124
(lp3125
tp3126
tp3127
Rp3128
sg2909
I00
sg2910
g2911
sg2912
g2865
sg2913
Nsg114
Nsg2914
g2865
sg2915
F0.0
sg8
I01
sg2916
Nsg43
Nsg1883
Nsg2917
g2996
sg87
F0.5
sg2471
Nsbsg115
Nsg2997
F8.0
sg2998
g2999
sg43
Nsg2165
g2734
sg34
NsbasS'isDefault_majloc'
p3129
I01
sg1891
g0
(g1892
g2
Ntp3130
Rp3131
I01
bsg96
Nsg86
I01
sS'_autolabelpos'
p3132
I01
sg103
g0
(g104
g105
((lp3133
(lp3134
tp3135
tp3136
Rp3137
sg111
I0
sS'_lastNumMajorTicks'
p3138
I1
sS'converter'
p3139
Nsg112
I00
sg114
NsS'offset_text_position'
p3140
Vbottom
p3141
sg115
NsS'label_position'
p3142
Vbottom
p3143
sg43
Nsg1883
Nsg2862
I15
sS'minorTicks'
p3144
(lp3145
g0
(g2782
g2
Ntp3146
Rp3147
(dp3148
g6
g7
sg40
F0.6
sg9
g4
sg2786
I01
sg8
I01
sg10
Nsg111
I0
sg42
Nsg2787
F3.4
sg2788
g2734
sg2789
I00
sg2120
F0.0
sg17
g18
sg2790
g2791
sg2736
g0
(g2104
g2
Ntp3149
Rp3150
(dp3151
g6
g7
sg8
I01
sg9
g4
sg10
Nsg2108
g0
(g2109
g2
Ntp3152
Rp3153
(dp3154
g2113
(lp3155
g2115
asg2116
Nsg2117
g2118
sg2119
g2118
sg2120
F8.0
sg2121
I400
sg2122
g2118
sbsg42
Nsg17
g18
sg2123
Nsg20
I01
sg23
Nsg75
I0
sg76
I0
sg24
Nsg25
Nsg11
Nsg28
I00
sg29
I00
sg30
(dp3156
sg2125
Nsg32
I00
sg1884
Nsg88
Nsg1883
Nsg2126
Nsg33
Nsg96
Nsg86
I01
sg2127
g2800
sg2129
V
p3157
sg2131
Nsg103
g0
(g104
g105
((lp3158
(lp3159
tp3160
tp3161
Rp3162
sg111
I0
sg2137
Nsg112
I01
sg114
Nsg2138
F1.2
sg115
g1868
sg2163
I00
sg2164
I00
sg43
Nsg2165
g2734
sg2167
g2807
sg34
Nsbsg20
I01
sg23
Nsg2808
I00
sg24
Nsg25
Nsg11
Nsg2809
I00
sg28
I00
sg29
I00
sg30
(dp3163
sg2811
(I3
I2
tp3164
sg32
I00
sg2813
I2
sg1884
g1943
sg2814
I01
sg88
g1219
sg1883
Nsg2815
g3150
sg2816
g0
(g2104
g2
Ntp3165
Rp3166
(dp3167
g6
g7
sg8
I01
sg9
g4
sg10
Nsg2108
g0
(g2109
g2
Ntp3168
Rp3169
(dp3170
g2113
(lp3171
g2115
asg2116
Nsg2117
g2118
sg2119
g2118
sg2120
F8.0
sg2121
I400
sg2122
g2118
sbsg42
Nsg17
g18
sg2123
Nsg20
I01
sg23
Nsg75
I1
sg76
I0
sg24
Nsg25
Nsg11
Nsg28
I00
sg29
I00
sg30
(dp3172
sg2125
Nsg32
I00
sg1884
Nsg88
Nsg1883
Nsg2126
Nsg33
Nsg96
Nsg86
I01
sg2127
g2825
sg2129
V
p3173
sg2131
Nsg103
g0
(g104
g105
((lp3174
(lp3175
tp3176
tp3177
Rp3178
sg111
I0
sg2137
Nsg112
I01
sg114
Nsg2138
F1.2
sg115
g1832
sg2163
I00
sg2164
I00
sg43
Nsg2165
g2734
sg2167
g2807
sg34
Nsbsg96
Nsg2832
I0
sg86
I01
sg103
g0
(g104
g105
((lp3179
(lp3180
tp3181
tp3182
Rp3183
sg2838
F3.4
sg2839
g0
(g2840
g2
Ntp3184
Rp3185
(dp3186
g6
g7
sg2844
g2845
sg2846
Nsg20
I01
sg2847
Nsg2848
I0
sg75
Nsg76
Nsg24
Nsg11
Nsg29
I00
sg30
(dp3187
sg32
I00
sg1884
Nsg2850
F0.6
sg2851
Nsg2852
g2853
sg2854
g2855
sg96
Nsg86
I01
sg2856
(I0
tp3188
sg111
I0
sg112
I01
sg2858
I01
sg2859
I01
sg115
g184
sg2860
Nsg2861
I2
sg2165
g2734
sg2862
I5
sg9
g4
sg2863
Nsg10
Nsg42
Nsg17
g18
sg2864
g2865
sg23
Nsg25
Nsg28
I00
sg2866
Nsg34
Nsg2867
Nsg2868
g0
(g2869
g2
Ntp3189
Rp3190
(dp3191
g2868
I3
sg2873
Nsg2874
F1.0
sg115
g0
(g157
g2
Ntp3192
Rp3193
(dp3194
g49
I2
sg50
Nsg120
g132
(g133
(I0
tp3195
g135
tp3196
Rp3197
(I1
(I3
I3
tp3198
g59
I00
S'\x00\x00\x00\x00\x00\x00\xf0?\x00\x00\x00\x00\x00\x00\x00\x00\x00\x00\x00\x00\x00\x00\x00\x00\x00\x00\x00\x00\x00\x00\x00\x00\x00\x00\x00\x00\x00\x00\xf0\xbf\x00\x00\x00\x00\x00\x00\x00\x00\x00\x00\x00\x00\x00\x00\x00\x00\x00\x00\x00\x00\x00\x00\x00\x00\x00\x00\x00\x00\x00\x00\xf0?'
p3199
tp3200
bsg51
g7
sg52
(dp3201
sbsg2885
I00
sg2886
g2887
sg2888
Nsg1881
g2889
sg99
g2890
sg2471
g2892
sbsg2900
g2901
sg88
Nsg33
Nsg92
I01
sg2902
Nsg101
g2903
sg103
g0
(g104
g105
((lp3202
(lp3203
tp3204
tp3205
Rp3206
sg2909
I00
sg2910
g2911
sg2912
g2865
sg2913
Nsg114
Nsg2914
g2865
sg2915
F0.0
sg8
I01
sg2916
Nsg43
Nsg1883
Nsg2917
g2918
sg87
F0.5
sg2471
Nsbsg112
I00
sg2919
g0
(g2840
g2
Ntp3207
Rp3208
(dp3209
g6
g7
sg8
I01
sg2912
g2865
sg9
g4
sg2844
g2845
sg2846
Nsg10
Nsg42
Nsg17
g18
sg2864
g2865
sg20
I01
sg2847
Nsg23
Nsg75
g132
(g133
(I0
tp3210
g135
tp3211
Rp3212
(I1
(I2
tp3213
g59
I00
S'\x00\x00\x00\x00\x00\x00\x00\x00\x00\x00\x00\x00\x00\x00\xf0?'
p3214
tp3215
bsg76
g132
(g133
(I0
tp3216
g135
tp3217
Rp3218
(I1
(I2
tp3219
g59
I00
S'\x00\x00\x00\x00\x00\x00\x00\x00\x00\x00\x00\x00\x00\x00\x00\x00'
p3220
tp3221
bsg24
Nsg25
Nsg11
Nsg2856
g2935
sg28
I00
sg2866
Nsg29
I00
sg30
(dp3222
sg2863
Nsg32
I00
sg2909
I00
sg1884
Nsg2867
Nsg2850
F1.0
sg2900
g2901
sg2851
Nsg2165
g2937
sg2868
g0
(g2869
g2
Ntp3223
Rp3224
(dp3225
g2868
g2941
sg2873
Nsg2874
Nsg115
g0
(g45
g2
Ntp3226
Rp3227
(dp3228
g49
I1
sg50
Nsg51
g7
sg52
(dp3229
sbsg2885
I00
sg2886
g2887
sg2888
Nsg1881
g2889
sg99
g2890
sg2471
g0
(g2472
g2
Ntp3230
Rp3231
(dp3232
g2476
I00
sg2477
Nsg2478
g132
(g133
(I0
tp3233
g135
tp3234
Rp3235
(I1
(I0
I2
tp3236
g59
I00
g2953
tp3237
bsg2485
I00
sg2486
F0.1111111111111111
sg2487
I1
sg2488
I00
sbsbsg33
Nsg2852
g2853
sg92
I01
sg2854
g2855
sg96
Nsg2915
F0.0
sg86
I01
sg2902
g132
(g133
(I0
tp3238
g135
tp3239
Rp3240
(I1
(I2
I2
tp3241
g59
I00
S'\x00\x00\x00\x00\x00\x00\x00\x00\x00\x00\x00\x00\x00\x00\x00\x00\x00\x00\x00\x00\x00\x00\x00\x00\x00\x00\x00\x00\x00\x00\xf0?'
p3242
tp3243
bsg101
g2961
sg103
g0
(g104
g105
((lp3244
(lp3245
tp3246
tp3247
Rp3248
sg111
I0
sg2910
g2911
sg2848
I0
sg2913
Nsg2862
I5
sg112
I01
sg114
F1.0
sg2914
g2865
sg2859
I00
sg115
g184
sg2916
Nsg2860
Nsg2858
I00
sg43
Nsg1883
Nsg2917
g2967
sg88
g1367
sg87
F0.8
sg34
Nsg2471
g0
(g2472
g2
Ntp3249
Rp3250
(dp3251
g2476
I00
sg2477
Nsg2478
g3240
sg2485
I00
sg2486
F0.1111111111111111
sg2487
I180
sg2488
I00
sbsbsg114
Nsg33
Nsg2971
g0
(g2840
g2
Ntp3252
Rp3253
(dp3254
g6
g7
sg2844
g2845
sg2846
Nsg20
I01
sg2847
Nsg2848
I0
sg75
Nsg76
Nsg24
Nsg11
Nsg29
I00
sg30
(dp3255
sg32
I00
sg1884
Nsg2850
F0.6
sg2851
Nsg2852
g2853
sg2854
g2855
sg96
Nsg86
I01
sg2856
(I0
tp3256
sg111
I0
sg112
I01
sg2858
I01
sg2859
I01
sg115
g184
sg2860
Nsg2861
I2
sg2165
g2734
sg2862
I5
sg9
g4
sg2863
Nsg10
Nsg42
Nsg17
g18
sg2864
g2865
sg23
Nsg25
Nsg28
I00
sg2866
Nsg34
Nsg2867
Nsg2868
g0
(g2869
g2
Ntp3257
Rp3258
(dp3259
g2868
I2
sg2873
Nsg2874
F1.0
sg115
g0
(g157
g2
Ntp3260
Rp3261
(dp3262
g49
I2
sg50
Nsg120
g132
(g133
(I0
tp3263
g135
tp3264
Rp3265
(I1
(I3
I3
tp3266
g59
I00
S'\x00\x00\x00\x00\x00\x00\xf0?\x00\x00\x00\x00\x00\x00\x00\x00\x00\x00\x00\x00\x00\x00\x00\x00\x00\x00\x00\x00\x00\x00\x00\x00\x00\x00\x00\x00\x00\x00\xf0?\x00\x00\x00\x00\x00\x00\x00\x00\x00\x00\x00\x00\x00\x00\x00\x00\x00\x00\x00\x00\x00\x00\x00\x00\x00\x00\x00\x00\x00\x00\xf0?'
p3267
tp3268
bsg51
g7
sg52
(dp3269
sbsg2885
I00
sg2886
g2887
sg2888
Nsg1881
g2889
sg99
g2890
sg2471
g2892
sbsg2900
g2901
sg88
Nsg33
Nsg92
I01
sg2902
Nsg101
g2990
sg103
g0
(g104
g105
((lp3270
(lp3271
tp3272
tp3273
Rp3274
sg2909
I00
sg2910
g2911
sg2912
g2865
sg2913
Nsg114
Nsg2914
g2865
sg2915
F0.0
sg8
I01
sg2916
Nsg43
Nsg1883
Nsg2917
g2996
sg87
F0.5
sg2471
Nsbsg115
Nsg2997
F8.0
sg2998
g2999
sg43
Nsg2165
g2734
sg34
Nsbag0
(g2782
g2
Ntp3275
Rp3276
(dp3277
g6
g7
sg40
F0.6
sg9
g4
sg2786
I01
sg8
I01
sg10
Nsg111
I0
sg42
Nsg2787
F3.4
sg2788
g2734
sg2789
I00
sg2120
F0.0
sg17
g18
sg2790
g2791
sg2736
g0
(g2104
g2
Ntp3278
Rp3279
(dp3280
g6
g7
sg8
I01
sg9
g4
sg10
Nsg2108
g0
(g2109
g2
Ntp3281
Rp3282
(dp3283
g2113
(lp3284
g2115
asg2116
Nsg2117
g2118
sg2119
g2118
sg2120
F8.0
sg2121
I400
sg2122
g2118
sbsg42
Nsg17
g18
sg2123
Nsg20
I01
sg23
Nsg75
I0
sg76
I0
sg24
Nsg25
Nsg11
Nsg28
I00
sg29
I00
sg30
(dp3285
sg2125
Nsg32
I00
sg1884
Nsg88
Nsg1883
Nsg2126
Nsg33
Nsg96
Nsg86
I01
sg2127
g2800
sg2129
V
p3286
sg2131
Nsg103
g0
(g104
g105
((lp3287
(lp3288
tp3289
tp3290
Rp3291
sg111
I0
sg2137
Nsg112
I01
sg114
Nsg2138
F1.2
sg115
g1814
sg2163
I00
sg2164
I00
sg43
Nsg2165
g2734
sg2167
g2807
sg34
Nsbsg20
I01
sg23
Nsg2808
I00
sg24
Nsg25
Nsg11
Nsg2809
I00
sg28
I00
sg29
I00
sg30
(dp3292
sg2811
(I3
I2
tp3293
sg32
I00
sg2813
I2
sg1884
g1943
sg2814
I01
sg88
g359
sg1883
Nsg2815
g3279
sg2816
g0
(g2104
g2
Ntp3294
Rp3295
(dp3296
g6
g7
sg8
I01
sg9
g4
sg10
Nsg2108
g0
(g2109
g2
Ntp3297
Rp3298
(dp3299
g2113
(lp3300
g2115
asg2116
Nsg2117
g2118
sg2119
g2118
sg2120
F8.0
sg2121
I400
sg2122
g2118
sbsg42
Nsg17
g18
sg2123
Nsg20
I01
sg23
Nsg75
I1
sg76
I0
sg24
Nsg25
Nsg11
Nsg28
I00
sg29
I00
sg30
(dp3301
sg2125
Nsg32
I00
sg1884
Nsg88
Nsg1883
Nsg2126
Nsg33
Nsg96
Nsg86
I01
sg2127
g2825
sg2129
V
p3302
sg2131
Nsg103
g0
(g104
g105
((lp3303
(lp3304
tp3305
tp3306
Rp3307
sg111
I0
sg2137
Nsg112
I01
sg114
Nsg2138
F1.2
sg115
g1859
sg2163
I00
sg2164
I00
sg43
Nsg2165
g2734
sg2167
g2807
sg34
Nsbsg96
Nsg2832
I0
sg86
I01
sg103
g0
(g104
g105
((lp3308
(lp3309
tp3310
tp3311
Rp3312
sg2838
F3.4
sg2839
g0
(g2840
g2
Ntp3313
Rp3314
(dp3315
g6
g7
sg2844
g2845
sg2846
Nsg20
I01
sg2847
Nsg2848
I0
sg75
Nsg76
Nsg24
Nsg11
Nsg29
I00
sg30
(dp3316
sg32
I00
sg1884
Nsg2850
F0.6
sg2851
Nsg2852
g2853
sg2854
g2855
sg96
Nsg86
I01
sg2856
(I0
tp3317
sg111
I0
sg112
I01
sg2858
I01
sg2859
I01
sg115
g184
sg2860
Nsg2861
I2
sg2165
g2734
sg2862
I5
sg9
g4
sg2863
Nsg10
Nsg42
Nsg17
g18
sg2864
g2865
sg23
Nsg25
Nsg28
I00
sg2866
Nsg34
Nsg2867
Nsg2868
g0
(g2869
g2
Ntp3318
Rp3319
(dp3320
g2868
I3
sg2873
Nsg2874
F1.0
sg115
g0
(g157
g2
Ntp3321
Rp3322
(dp3323
g49
I2
sg50
Nsg120
g132
(g133
(I0
tp3324
g135
tp3325
Rp3326
(I1
(I3
I3
tp3327
g59
I00
S'\x00\x00\x00\x00\x00\x00\xf0?\x00\x00\x00\x00\x00\x00\x00\x00\x00\x00\x00\x00\x00\x00\x00\x00\x00\x00\x00\x00\x00\x00\x00\x00\x00\x00\x00\x00\x00\x00\xf0\xbf\x00\x00\x00\x00\x00\x00\x00\x00\x00\x00\x00\x00\x00\x00\x00\x00\x00\x00\x00\x00\x00\x00\x00\x00\x00\x00\x00\x00\x00\x00\xf0?'
p3328
tp3329
bsg51
g7
sg52
(dp3330
sbsg2885
I00
sg2886
g2887
sg2888
Nsg1881
g2889
sg99
g2890
sg2471
g2892
sbsg2900
g2901
sg88
Nsg33
Nsg92
I01
sg2902
Nsg101
g2903
sg103
g0
(g104
g105
((lp3331
(lp3332
tp3333
tp3334
Rp3335
sg2909
I00
sg2910
g2911
sg2912
g2865
sg2913
Nsg114
Nsg2914
g2865
sg2915
F0.0
sg8
I01
sg2916
Nsg43
Nsg1883
Nsg2917
g2918
sg87
F0.5
sg2471
Nsbsg112
I00
sg2919
g0
(g2840
g2
Ntp3336
Rp3337
(dp3338
g6
g7
sg8
I01
sg2912
g2865
sg9
g4
sg2844
g2845
sg2846
Nsg10
Nsg42
Nsg17
g18
sg2864
g2865
sg20
I01
sg2847
Nsg23
Nsg75
g132
(g133
(I0
tp3339
g135
tp3340
Rp3341
(I1
(I2
tp3342
g59
I00
S'\x00\x00\x00\x00\x00\x00\x00\x00\x00\x00\x00\x00\x00\x00\xf0?'
p3343
tp3344
bsg76
g132
(g133
(I0
tp3345
g135
tp3346
Rp3347
(I1
(I2
tp3348
g59
I00
S'\x00\x00\x00\x00\x00\x00\x00\x00\x00\x00\x00\x00\x00\x00\x00\x00'
p3349
tp3350
bsg24
Nsg25
Nsg11
Nsg2856
g2935
sg28
I00
sg2866
Nsg29
I00
sg30
(dp3351
sg2863
Nsg32
I00
sg2909
I00
sg1884
Nsg2867
Nsg2850
F1.0
sg2900
g2901
sg2851
Nsg2165
g2937
sg2868
g0
(g2869
g2
Ntp3352
Rp3353
(dp3354
g2868
g2941
sg2873
Nsg2874
Nsg115
g0
(g45
g2
Ntp3355
Rp3356
(dp3357
g49
I1
sg50
Nsg51
g7
sg52
(dp3358
sbsg2885
I00
sg2886
g2887
sg2888
Nsg1881
g2889
sg99
g2890
sg2471
g0
(g2472
g2
Ntp3359
Rp3360
(dp3361
g2476
I00
sg2477
Nsg2478
g132
(g133
(I0
tp3362
g135
tp3363
Rp3364
(I1
(I0
I2
tp3365
g59
I00
g2953
tp3366
bsg2485
I00
sg2486
F0.1111111111111111
sg2487
I1
sg2488
I00
sbsbsg33
Nsg2852
g2853
sg92
I01
sg2854
g2855
sg96
Nsg2915
F0.0
sg86
I01
sg2902
g132
(g133
(I0
tp3367
g135
tp3368
Rp3369
(I1
(I2
I2
tp3370
g59
I00
S'\x00\x00\x00\x00\x00\x00\x00\x00\x00\x00\x00\x00\x00\x00\x00\x00\x00\x00\x00\x00\x00\x00\x00\x00\x00\x00\x00\x00\x00\x00\xf0?'
p3371
tp3372
bsg101
g2961
sg103
g0
(g104
g105
((lp3373
(lp3374
tp3375
tp3376
Rp3377
sg111
I0
sg2910
g2911
sg2848
I0
sg2913
Nsg2862
I5
sg112
I01
sg114
F1.0
sg2914
g2865
sg2859
I00
sg115
g184
sg2916
Nsg2860
Nsg2858
I00
sg43
Nsg1883
Nsg2917
g2967
sg88
g1437
sg87
F0.8
sg34
Nsg2471
g0
(g2472
g2
Ntp3378
Rp3379
(dp3380
g2476
I00
sg2477
Nsg2478
g3369
sg2485
I00
sg2486
F0.1111111111111111
sg2487
I180
sg2488
I00
sbsbsg114
Nsg33
Nsg2971
g0
(g2840
g2
Ntp3381
Rp3382
(dp3383
g6
g7
sg2844
g2845
sg2846
Nsg20
I01
sg2847
Nsg2848
I0
sg75
Nsg76
Nsg24
Nsg11
Nsg29
I00
sg30
(dp3384
sg32
I00
sg1884
Nsg2850
F0.6
sg2851
Nsg2852
g2853
sg2854
g2855
sg96
Nsg86
I01
sg2856
(I0
tp3385
sg111
I0
sg112
I01
sg2858
I01
sg2859
I01
sg115
g184
sg2860
Nsg2861
I2
sg2165
g2734
sg2862
I5
sg9
g4
sg2863
Nsg10
Nsg42
Nsg17
g18
sg2864
g2865
sg23
Nsg25
Nsg28
I00
sg2866
Nsg34
Nsg2867
Nsg2868
g0
(g2869
g2
Ntp3386
Rp3387
(dp3388
g2868
I2
sg2873
Nsg2874
F1.0
sg115
g0
(g157
g2
Ntp3389
Rp3390
(dp3391
g49
I2
sg50
Nsg120
g132
(g133
(I0
tp3392
g135
tp3393
Rp3394
(I1
(I3
I3
tp3395
g59
I00
S'\x00\x00\x00\x00\x00\x00\xf0?\x00\x00\x00\x00\x00\x00\x00\x00\x00\x00\x00\x00\x00\x00\x00\x00\x00\x00\x00\x00\x00\x00\x00\x00\x00\x00\x00\x00\x00\x00\xf0?\x00\x00\x00\x00\x00\x00\x00\x00\x00\x00\x00\x00\x00\x00\x00\x00\x00\x00\x00\x00\x00\x00\x00\x00\x00\x00\x00\x00\x00\x00\xf0?'
p3396
tp3397
bsg51
g7
sg52
(dp3398
sbsg2885
I00
sg2886
g2887
sg2888
Nsg1881
g2889
sg99
g2890
sg2471
g2892
sbsg2900
g2901
sg88
Nsg33
Nsg92
I01
sg2902
Nsg101
g2990
sg103
g0
(g104
g105
((lp3399
(lp3400
tp3401
tp3402
Rp3403
sg2909
I00
sg2910
g2911
sg2912
g2865
sg2913
Nsg114
Nsg2914
g2865
sg2915
F0.0
sg8
I01
sg2916
Nsg43
Nsg1883
Nsg2917
g2996
sg87
F0.5
sg2471
Nsbsg115
Nsg2997
F8.0
sg2998
g2999
sg43
Nsg2165
g2734
sg34
Nsbasg34
NsS'_minor_tick_kw'
p3404
(dp3405
g2771
I01
sg2773
I00
sg2774
I01
sg2775
I00
ssS'isDefault_minfmt'
p3406
I01
sbsS'_navigate_mode'
p3407
Nsg34
NsS'transAxes'
p3408
g187
sS'_connected'
p3409
(dp3410
sS'fmt_ydata'
p3411
NsS'dataLim'
p3412
g0
(g127
g2
Ntp3413
Rp3414
(dp3415
g49
I0
sg131
g132
(g133
(I0
tp3416
g135
tp3417
Rp3418
(I1
(I2
tp3419
g59
I00
S'\xf2S\xbf\xa2\xcex\xd8?\x00\x00\x00\x00\x00\x00\xf0?'
p3420
tp3421
bsg52
(dp3422
sg142
g132
(g133
(I0
tp3423
g135
tp3424
Rp3425
(I1
(I2
I2
tp3426
g59
I00
S'\x00\x00\x00\x00\x00\x00\xf0\x7f\x00\x00\x00\x00\x00\x00\xf0\x7f\x00\x00\x00\x00\x00\x00\xf0\xff\x00\x00\x00\x00\x00\x00\xf0\xff'
p3427
tp3428
bsg149
g132
(g133
(I0
tp3429
g135
tp3430
Rp3431
(I1
(I2
I2
tp3432
g59
I00
S'\xad_\xb6)X\xe5\xa5\xbf\x00\x00\x00\x00\x00\x00\x00\x00\x8aV\r\xe8\x90\x92(@\x00\x00\x00\x00\x00\x00N@'
p3433
tp3434
bsg156
I01
sg51
g7
sbsS'transData'
p3435
g783
sg33
NsS'_sharey'
p3436
NsS'_sharex'
p3437
NsS'axesPatch'
p3438
g2604
sS'_ymargin'
p3439
F0.05
sS'_axes_locator'
p3440
Nsg103
g0
(g104
g105
((lp3441
(lp3442
tp3443
tp3444
Rp3445
sS'numCols'
p3446
I1
sg114
Nsg1895
NsS'yaxis'
p3447
g0
(cmatplotlib.axis
YAxis
p3448
g2
Ntp3449
Rp3450
(dp3451
g6
g7
sg2665
g0
(g2666
g2
Ntp3452
Rp3453
(dp3454
g2670
g0
(g2671
g2
Ntp3455
Rp3456
(dp3457
g2675
I2
sg2676
I00
sg2677
g2678
sg2679
g132
(g133
(I0
tp3458
g135
tp3459
Rp3460
(I1
(I5
tp3461
g59
I00
S'\x00\x00\x00\x00\x00\x00\xf0?\x00\x00\x00\x00\x00\x00\x00@\x00\x00\x00\x00\x00\x00\x04@\x00\x00\x00\x00\x00\x00\x14@\x00\x00\x00\x00\x00\x00$@'
p3462
tp3463
bsg2686
Nsg2687
g132
(g133
(I0
tp3464
g135
tp3465
Rp3466
(I1
(I10
tp3467
g59
I00
S'\x9a\x99\x99\x99\x99\x99\xb9?\x9a\x99\x99\x99\x99\x99\xc9?\x00\x00\x00\x00\x00\x00\xd0?\x00\x00\x00\x00\x00\x00\xe0?\x00\x00\x00\x00\x00\x00\xf0?\x00\x00\x00\x00\x00\x00\x00@\x00\x00\x00\x00\x00\x00\x04@\x00\x00\x00\x00\x00\x00\x14@\x00\x00\x00\x00\x00\x00$@\x00\x00\x00\x00\x00\x004@'
p3468
tp3469
bsg2694
I00
sg2695
g3450
sbsg2696
g0
(g2697
g2
Ntp3470
Rp3471
(dp3472
g2701
g2702
sg2703
I0
sg2704
I01
sg2705
I00
sg2706
g7
sg2707
I00
sg2708
I4
sg2709
I0
sg2163
I00
sg2710
I01
sg2695
g3450
sbsbsg2711
I00
sg2712
g0
(g2713
g2
Ntp3473
Rp3474
sg9
g4
sg8
I01
sg2716
I00
sg10
Nsg42
Nsg2717
I00
sg17
g18
sg20
I01
sg23
Nsg2718
g0
(g2104
g2
Ntp3475
Rp3476
(dp3477
g6
g7
sg8
I01
sg9
g4
sg10
Nsg2108
g0
(g2109
g2
Ntp3478
Rp3479
(dp3480
g2113
(lp3481
g2115
asg2116
Nsg2117
g2118
sg2119
g2118
sg2120
F8.0
sg2121
I400
sg2122
g2118
sbsg42
Nsg17
g18
sg2123
Nsg20
I01
sg23
Nsg75
F0.5
sg76
I0
sg24
Nsg25
Nsg11
Nsg28
I00
sg29
I00
sg30
(dp3482
sg2125
Nsg32
I00
sg1884
Nsg88
Nsg1883
Nsg2126
Nsg33
Nsg96
Nsg86
I01
sg2127
Vbaseline
p3483
sg2129
V
p3484
sg2131
Nsg103
g0
(g104
g105
((lp3485
(lp3486
tp3487
tp3488
Rp3489
sg111
I0
sg2137
Nsg112
I01
sg114
Nsg2138
F1.2
sg115
g1245
sg2163
I00
sg2164
I00
sg43
Nsg2165
V0.
p3490
sg2167
Vleft
p3491
sg34
Nsbsg24
Nsg25
Nsg11
Nsg2736
g0
(g2104
g2
Ntp3492
Rp3493
(dp3494
g6
g7
sg8
I01
sg9
g4
sg10
Nsg2108
g0
(g2109
g2
Ntp3495
Rp3496
(dp3497
g2113
(lp3498
g2115
asg2116
Nsg2117
g2118
sg2119
g2118
sg2120
F10.0
sg2121
I400
sg2122
g2118
sbsg42
Nsg17
g18
sg2123
Nsg20
I01
sg23
Nsg75
F0.5
sg76
I0
sg24
Nsg25
Nsg11
Nsg28
I00
sg29
I00
sg30
(dp3499
sg2125
Nsg32
I00
sg1884
Nsg88
Nsg1883
Nsg2126
Vanchor
p3500
sg33
Nsg96
Nsg86
I01
sg2127
Vbottom
p3501
sg2129
V# recorded PSPs
p3502
sg2131
Nsg103
g0
(g104
g105
((lp3503
(lp3504
tp3505
tp3506
Rp3507
sg111
I0
sg2137
Vvertical
p3508
sg112
I01
sg114
Nsg2138
F1.2
sg115
g1097
sg2163
I00
sg2164
I00
sg43
Nsg2165
g2752
sg2167
Vcenter
p3509
sg34
Nsbsg28
I00
sg2754
I01
sg29
I00
sg30
(dp3510
sg2756
Nsg32
I00
sg2757
g0
(g2666
g2
Ntp3511
Rp3512
(dp3513
g2670
g0
(g2761
g2
Ntp3514
Rp3515
(dp3516
g2695
g3450
sbsg2696
g0
(g2765
g2
Ntp3517
Rp3518
(dp3519
g2695
g3450
sbsbsg1884
g1943
sg2769
(dp3520
g2771
I01
sg2772
I00
sg2773
I00
sg2774
I01
sg2775
I00
ssg2776
I01
sg88
g289
sg33
Nsg2777
I00
sg2778
I1
sg2779
F4.0
sg2780
(lp3521
g0
(cmatplotlib.axis
YTick
p3522
g2
Ntp3523
Rp3524
(dp3525
g6
g7
sg40
F0.8
sg9
g4
sg2786
I01
sg8
I01
sg10
Nsg111
I0
sg42
Nsg2787
F3.5
sg2788
g3490
sg2789
I00
sg2120
F0.0
sg17
g18
sg2790
Vout
p3526
sg2736
g0
(g2104
g2
Ntp3527
Rp3528
(dp3529
g6
g7
sg8
I01
sg9
g4
sg10
Nsg2108
g0
(g2109
g2
Ntp3530
Rp3531
(dp3532
g2113
(lp3533
g2115
asg2116
Nsg2117
g2118
sg2119
g2118
sg2120
F8.0
sg2121
I400
sg2122
g2118
sbsg42
Nsg17
g18
sg2123
Nsg20
I01
sg23
Nsg75
I0
sg76
I0
sg24
Nsg25
Nsg11
Nsg28
I00
sg29
I00
sg30
(dp3534
sg2125
Nsg32
I00
sg1884
Nsg88
Nsg1883
Nsg2126
Nsg33
Nsg96
Nsg86
I01
sg2127
Vcenter_baseline
p3535
sg2129
V
p3536
sg2131
Nsg103
g0
(g104
g105
((lp3537
(lp3538
tp3539
tp3540
Rp3541
sg111
I0
sg2137
Nsg112
I01
sg114
Nsg2138
F1.2
sg115
g801
sg2163
I00
sg2164
I00
sg43
Nsg2165
g3490
sg2167
Vright
p3542
sg34
Nsbsg20
I01
sg23
Nsg2808
I00
sg24
Nsg25
Nsg11
Nsg2809
I00
sg28
I00
sg29
I00
sg30
(dp3543
sg2811
(I0
I1
tp3544
sg32
I00
sg2813
F2.01
sg1884
g1943
sg2814
I01
sg88
g1787
sg1883
Nsg2815
g3528
sg2816
g0
(g2104
g2
Ntp3545
Rp3546
(dp3547
g6
g7
sg8
I01
sg9
g4
sg10
Nsg2108
g0
(g2109
g2
Ntp3548
Rp3549
(dp3550
g2113
(lp3551
g2115
asg2116
Nsg2117
g2118
sg2119
g2118
sg2120
F8.0
sg2121
I400
sg2122
g2118
sbsg42
Nsg17
g18
sg2123
Nsg20
I01
sg23
Nsg75
I0
sg76
I1
sg24
Nsg25
Nsg11
Nsg28
I00
sg29
I00
sg30
(dp3552
sg2125
Nsg32
I00
sg1884
Nsg88
Nsg1883
Nsg2126
Nsg33
Nsg96
Nsg86
I01
sg2127
g3535
sg2129
V
p3553
sg2131
Nsg103
g0
(g104
g105
((lp3554
(lp3555
tp3556
tp3557
Rp3558
sg111
I0
sg2137
Nsg112
I01
sg114
Nsg2138
F1.2
sg115
g828
sg2163
I00
sg2164
I00
sg43
Nsg2165
g3490
sg2167
Vleft
p3559
sg34
Nsbsg96
Nsg2832
I0
sg86
I01
sg103
g0
(g104
g105
((lp3560
(lp3561
tp3562
tp3563
Rp3564
sg2838
F3.5
sg2839
g0
(g2840
g2
Ntp3565
Rp3566
(dp3567
g6
g7
sg2844
g2845
sg2846
Nsg20
I01
sg2847
Nsg2848
I0
sg75
Nsg76
Nsg24
Nsg11
Nsg29
I00
sg30
(dp3568
sg32
I00
sg1884
Nsg2850
F0.8
sg2851
Nsg2852
g2853
sg2854
g2855
sg96
Nsg86
I01
sg2856
(I0
tp3569
sg111
I0
sg112
I01
sg2858
I01
sg2859
I01
sg115
g787
sg2860
Nsg2861
F2.01
sg2165
g3490
sg2862
I5
sg9
g4
sg2863
Nsg10
Nsg42
Nsg17
g18
sg2864
g2865
sg23
Nsg25
Nsg28
I00
sg2866
Nsg34
Nsg2867
Nsg2868
g0
(g2869
g2
Ntp3570
Rp3571
(dp3572
g2868
I0
sg2873
Nsg2874
F1.0
sg115
g0
(g157
g2
Ntp3573
Rp3574
(dp3575
g49
I2
sg50
Nsg120
g132
(g133
(I0
tp3576
g135
tp3577
Rp3578
(I1
(I3
I3
tp3579
g59
I00
S'\x00\x00\x00\x00\x00\x00\xf0\xbf\x00\x00\x00\x00\x00\x00\x00\x00\x00\x00\x00\x00\x00\x00\x00\x00\x00\x00\x00\x00\x00\x00\x00\x00\x00\x00\x00\x00\x00\x00\xf0?\x00\x00\x00\x00\x00\x00\x00\x00\x00\x00\x00\x00\x00\x00\x00\x00\x00\x00\x00\x00\x00\x00\x00\x00\x00\x00\x00\x00\x00\x00\xf0?'
p3580
tp3581
bsg51
g7
sg52
(dp3582
sbsg2885
I00
sg2886
g2887
sg2888
Nsg1881
g2889
sg99
g2890
sg2471
g0
(g2472
g2
Ntp3583
Rp3584
(dp3585
g2476
I00
sg2477
Nsg2478
g132
(g133
(I0
tp3586
g135
tp3587
Rp3588
(I1
(I2
I2
tp3589
g59
I00
S'\x00\x00\x00\x00\x00\x00\x00\x00\x00\x00\x00\x00\x00\x00\x00\x00\x00\x00\x00\x00\x00\x00\xf0?\x00\x00\x00\x00\x00\x00\x00\x00'
p3590
tp3591
bsg2485
I00
sg2486
F0.1111111111111111
sg2487
I1
sg2488
I00
sbsbsg2900
g2901
sg88
Nsg33
Nsg92
I01
sg2902
Nsg101
VNone
p3592
sg103
g0
(g104
g105
((lp3593
(lp3594
tp3595
tp3596
Rp3597
sg2909
I00
sg2910
g2911
sg2912
g2865
sg2913
Nsg114
Nsg2914
g2865
sg2915
F0.0
sg8
I01
sg2916
Nsg43
Nsg1883
Nsg2917
(I0
tp3598
sg87
F0.5
sg2471
Nsbsg112
I00
sg2919
g0
(g2840
g2
Ntp3599
Rp3600
(dp3601
g6
g7
sg8
I01
sg2912
g2865
sg9
g4
sg2844
g2845
sg2846
Nsg10
Nsg42
Nsg17
g18
sg2864
g2865
sg20
I01
sg2847
Nsg23
Nsg75
g132
(g133
(I0
tp3602
g135
tp3603
Rp3604
(I1
(I2
tp3605
g59
I00
S'\x00\x00\x00\x00\x00\x00\x00\x00\x00\x00\x00\x00\x00\x00\x00\x00'
p3606
tp3607
bsg76
g132
(g133
(I0
tp3608
g135
tp3609
Rp3610
(I1
(I2
tp3611
g59
I00
S'\x00\x00\x00\x00\x00\x00\x00\x00\x00\x00\x00\x00\x00\x00\xf0?'
p3612
tp3613
bsg24
Nsg25
Nsg11
Nsg2856
(I0
I1
tp3614
sg28
I00
sg2866
Nsg29
I00
sg30
(dp3615
sg2863
Nsg32
I00
sg2909
I00
sg1884
Nsg2867
Nsg2850
F1.0
sg2900
g2901
sg2851
Nsg2165
g2937
sg2868
g0
(g2869
g2
Ntp3616
Rp3617
(dp3618
g2868
g2941
sg2873
Nsg2874
Nsg115
g0
(g45
g2
Ntp3619
Rp3620
(dp3621
g49
I1
sg50
Nsg51
g7
sg52
(dp3622
sbsg2885
I00
sg2886
g2887
sg2888
Nsg1881
g2889
sg99
g2890
sg2471
g0
(g2472
g2
Ntp3623
Rp3624
(dp3625
g2476
I00
sg2477
Nsg2478
g132
(g133
(I0
tp3626
g135
tp3627
Rp3628
(I1
(I0
I2
tp3629
g59
I00
g2953
tp3630
bsg2485
I00
sg2486
F0.1111111111111111
sg2487
I1
sg2488
I00
sbsbsg33
Nsg2852
g2853
sg92
I01
sg2854
g2855
sg96
Nsg2915
F0.0
sg86
I01
sg2902
g132
(g133
(I0
tp3631
g135
tp3632
Rp3633
(I1
(I2
I2
tp3634
g59
I00
S'\x00\x00\x00\x00\x00\x00\x00\x00\x00\x00\x00\x00\x00\x00\x00\x00\x00\x00\x00\x00\x00\x00\xf0?\x00\x00\x00\x00\x00\x00\x00\x00'
p3635
tp3636
bsg101
g2961
sg103
g0
(g104
g105
((lp3637
(lp3638
tp3639
tp3640
Rp3641
sg111
I0
sg2910
g2911
sg2848
I0
sg2913
Nsg2862
I5
sg112
I01
sg114
F1.0
sg2914
g2865
sg2859
I00
sg115
g787
sg2916
Nsg2860
Nsg2858
I00
sg43
Nsg1883
Nsg2917
(I0
I0
tp3642
sg88
g577
sg87
F0.8
sg34
Nsg2471
g0
(g2472
g2
Ntp3643
Rp3644
(dp3645
g2476
I00
sg2477
Nsg2478
g3633
sg2485
I00
sg2486
F0.1111111111111111
sg2487
I180
sg2488
I00
sbsbsg114
Nsg33
Nsg2971
g0
(g2840
g2
Ntp3646
Rp3647
(dp3648
g6
g7
sg2844
g2845
sg2846
Nsg20
I01
sg2847
Nsg2848
I0
sg75
Nsg76
Nsg24
Nsg11
Nsg29
I00
sg30
(dp3649
sg32
I00
sg1884
Nsg2850
F0.8
sg2851
Nsg2852
g2853
sg2854
g2855
sg96
Nsg86
I01
sg2856
(I1
tp3650
sg111
I0
sg112
I01
sg2858
I01
sg2859
I01
sg115
g787
sg2860
Nsg2861
F2.01
sg2165
g3490
sg2862
I5
sg9
g4
sg2863
Nsg10
Nsg42
Nsg17
g18
sg2864
g2865
sg23
Nsg25
Nsg28
I00
sg2866
Nsg34
Nsg2867
Nsg2868
g0
(g2869
g2
Ntp3651
Rp3652
(dp3653
g2868
I1
sg2873
Nsg2874
F1.0
sg115
g0
(g157
g2
Ntp3654
Rp3655
(dp3656
g49
I2
sg50
Nsg120
g132
(g133
(I0
tp3657
g135
tp3658
Rp3659
(I1
(I3
I3
tp3660
g59
I00
S'\x00\x00\x00\x00\x00\x00\xf0?\x00\x00\x00\x00\x00\x00\x00\x00\x00\x00\x00\x00\x00\x00\x00\x00\x00\x00\x00\x00\x00\x00\x00\x00\x00\x00\x00\x00\x00\x00\xf0?\x00\x00\x00\x00\x00\x00\x00\x00\x00\x00\x00\x00\x00\x00\x00\x00\x00\x00\x00\x00\x00\x00\x00\x00\x00\x00\x00\x00\x00\x00\xf0?'
p3661
tp3662
bsg51
g7
sg52
(dp3663
sbsg2885
I00
sg2886
g2887
sg2888
Nsg1881
g2889
sg99
g2890
sg2471
g3584
sbsg2900
g2901
sg88
Nsg33
Nsg92
I01
sg2902
Nsg101
VNone
p3664
sg103
g0
(g104
g105
((lp3665
(lp3666
tp3667
tp3668
Rp3669
sg2909
I00
sg2910
g2911
sg2912
g2865
sg2913
Nsg114
Nsg2914
g2865
sg2915
F0.0
sg8
I01
sg2916
Nsg43
Nsg1883
Nsg2917
(I0
tp3670
sg87
F0.5
sg2471
Nsbsg115
Nsg2997
F8.0
sg2998
Vytick
p3671
sg43
Nsg2165
g3490
sg34
Nsbag0
(g3522
g2
Ntp3672
Rp3673
(dp3674
g6
g7
sg40
F0.8
sg9
g4
sg2786
I01
sg8
I01
sg10
Nsg111
I0
sg42
Nsg2787
F3.5
sg2788
g3490
sg2789
I00
sg2120
F0.0
sg17
g18
sg2790
g3526
sg2736
g0
(g2104
g2
Ntp3675
Rp3676
(dp3677
g6
g7
sg8
I01
sg9
g4
sg10
Nsg2108
g0
(g2109
g2
Ntp3678
Rp3679
(dp3680
g2113
(lp3681
g2115
asg2116
Nsg2117
g2118
sg2119
g2118
sg2120
F8.0
sg2121
I400
sg2122
g2118
sbsg42
Nsg17
g18
sg2123
Nsg20
I01
sg23
Nsg75
I0
sg76
I0
sg24
Nsg25
Nsg11
Nsg28
I00
sg29
I00
sg30
(dp3682
sg2125
Nsg32
I00
sg1884
Nsg88
Nsg1883
Nsg2126
Nsg33
Nsg96
Nsg86
I01
sg2127
g3535
sg2129
V
p3683
sg2131
Nsg103
g0
(g104
g105
((lp3684
(lp3685
tp3686
tp3687
Rp3688
sg111
I0
sg2137
Nsg112
I01
sg114
Nsg2138
F1.2
sg115
g792
sg2163
I00
sg2164
I00
sg43
Nsg2165
g3490
sg2167
g3542
sg34
Nsbsg20
I01
sg23
Nsg2808
I00
sg24
Nsg25
Nsg11
Nsg2809
I00
sg28
I00
sg29
I00
sg30
(dp3689
sg2811
(I0
I1
tp3690
sg32
I00
sg2813
F2.01
sg1884
g1943
sg2814
I01
sg88
g1577
sg1883
Nsg2815
g3676
sg2816
g0
(g2104
g2
Ntp3691
Rp3692
(dp3693
g6
g7
sg8
I01
sg9
g4
sg10
Nsg2108
g0
(g2109
g2
Ntp3694
Rp3695
(dp3696
g2113
(lp3697
g2115
asg2116
Nsg2117
g2118
sg2119
g2118
sg2120
F8.0
sg2121
I400
sg2122
g2118
sbsg42
Nsg17
g18
sg2123
Nsg20
I01
sg23
Nsg75
I0
sg76
I1
sg24
Nsg25
Nsg11
Nsg28
I00
sg29
I00
sg30
(dp3698
sg2125
Nsg32
I00
sg1884
Nsg88
Nsg1883
Nsg2126
Nsg33
Nsg96
Nsg86
I01
sg2127
g3535
sg2129
V
p3699
sg2131
Nsg103
g0
(g104
g105
((lp3700
(lp3701
tp3702
tp3703
Rp3704
sg111
I0
sg2137
Nsg112
I01
sg114
Nsg2138
F1.2
sg115
g819
sg2163
I00
sg2164
I00
sg43
Nsg2165
g3490
sg2167
g3559
sg34
Nsbsg96
Nsg2832
I0
sg86
I01
sg103
g0
(g104
g105
((lp3705
(lp3706
tp3707
tp3708
Rp3709
sg2838
F3.5
sg2839
g0
(g2840
g2
Ntp3710
Rp3711
(dp3712
g6
g7
sg2844
g2845
sg2846
Nsg20
I01
sg2847
Nsg2848
I0
sg75
Nsg76
Nsg24
Nsg11
Nsg29
I00
sg30
(dp3713
sg32
I00
sg1884
Nsg2850
F0.8
sg2851
Nsg2852
g2853
sg2854
g2855
sg96
Nsg86
I01
sg2856
g3569
sg111
I0
sg112
I01
sg2858
I01
sg2859
I01
sg115
g787
sg2860
Nsg2861
F2.01
sg2165
g3490
sg2862
I5
sg9
g4
sg2863
Nsg10
Nsg42
Nsg17
g18
sg2864
g2865
sg23
Nsg25
Nsg28
I00
sg2866
Nsg34
Nsg2867
Nsg2868
g0
(g2869
g2
Ntp3714
Rp3715
(dp3716
g2868
I0
sg2873
Nsg2874
F1.0
sg115
g0
(g157
g2
Ntp3717
Rp3718
(dp3719
g49
I2
sg50
Nsg120
g132
(g133
(I0
tp3720
g135
tp3721
Rp3722
(I1
(I3
I3
tp3723
g59
I00
S'\x00\x00\x00\x00\x00\x00\xf0\xbf\x00\x00\x00\x00\x00\x00\x00\x00\x00\x00\x00\x00\x00\x00\x00\x00\x00\x00\x00\x00\x00\x00\x00\x00\x00\x00\x00\x00\x00\x00\xf0?\x00\x00\x00\x00\x00\x00\x00\x00\x00\x00\x00\x00\x00\x00\x00\x00\x00\x00\x00\x00\x00\x00\x00\x00\x00\x00\x00\x00\x00\x00\xf0?'
p3724
tp3725
bsg51
g7
sg52
(dp3726
sbsg2885
I00
sg2886
g2887
sg2888
Nsg1881
g2889
sg99
g2890
sg2471
g3584
sbsg2900
g2901
sg88
Nsg33
Nsg92
I01
sg2902
Nsg101
g3592
sg103
g0
(g104
g105
((lp3727
(lp3728
tp3729
tp3730
Rp3731
sg2909
I00
sg2910
g2911
sg2912
g2865
sg2913
Nsg114
Nsg2914
g2865
sg2915
F0.0
sg8
I01
sg2916
Nsg43
Nsg1883
Nsg2917
(I0
tp3732
sg87
F0.5
sg2471
Nsbsg112
I00
sg2919
g0
(g2840
g2
Ntp3733
Rp3734
(dp3735
g6
g7
sg8
I01
sg2912
g2865
sg9
g4
sg2844
g2845
sg2846
Nsg10
Nsg42
Nsg17
g18
sg2864
g2865
sg20
I01
sg2847
Nsg23
Nsg75
g132
(g133
(I0
tp3736
g135
tp3737
Rp3738
(I1
(I2
tp3739
g59
I00
S'\x00\x00\x00\x00\x00\x00\x00\x00\x00\x00\x00\x00\x00\x00\x00\x00'
p3740
tp3741
bsg76
g132
(g133
(I0
tp3742
g135
tp3743
Rp3744
(I1
(I2
tp3745
g59
I00
S'\x00\x00\x00\x00\x00\x00\x00\x00\x00\x00\x00\x00\x00\x00\xf0?'
p3746
tp3747
bsg24
Nsg25
Nsg11
Nsg2856
g3614
sg28
I00
sg2866
Nsg29
I00
sg30
(dp3748
sg2863
Nsg32
I00
sg2909
I00
sg1884
Nsg2867
Nsg2850
F1.0
sg2900
g2901
sg2851
Nsg2165
g2937
sg2868
g0
(g2869
g2
Ntp3749
Rp3750
(dp3751
g2868
g2941
sg2873
Nsg2874
Nsg115
g0
(g45
g2
Ntp3752
Rp3753
(dp3754
g49
I1
sg50
Nsg51
g7
sg52
(dp3755
sbsg2885
I00
sg2886
g2887
sg2888
Nsg1881
g2889
sg99
g2890
sg2471
g0
(g2472
g2
Ntp3756
Rp3757
(dp3758
g2476
I00
sg2477
Nsg2478
g132
(g133
(I0
tp3759
g135
tp3760
Rp3761
(I1
(I0
I2
tp3762
g59
I00
g2953
tp3763
bsg2485
I00
sg2486
F0.1111111111111111
sg2487
I1
sg2488
I00
sbsbsg33
Nsg2852
g2853
sg92
I01
sg2854
g2855
sg96
Nsg2915
F0.0
sg86
I01
sg2902
g132
(g133
(I0
tp3764
g135
tp3765
Rp3766
(I1
(I2
I2
tp3767
g59
I00
S'\x00\x00\x00\x00\x00\x00\x00\x00\x00\x00\x00\x00\x00\x00\x00\x00\x00\x00\x00\x00\x00\x00\xf0?\x00\x00\x00\x00\x00\x00\x00\x00'
p3768
tp3769
bsg101
g2961
sg103
g0
(g104
g105
((lp3770
(lp3771
tp3772
tp3773
Rp3774
sg111
I0
sg2910
g2911
sg2848
I0
sg2913
Nsg2862
I5
sg112
I01
sg114
F1.0
sg2914
g2865
sg2859
I00
sg115
g787
sg2916
Nsg2860
Nsg2858
I00
sg43
Nsg1883
Nsg2917
g3642
sg88
g1297
sg87
F0.8
sg34
Nsg2471
g0
(g2472
g2
Ntp3775
Rp3776
(dp3777
g2476
I00
sg2477
Nsg2478
g3766
sg2485
I00
sg2486
F0.1111111111111111
sg2487
I180
sg2488
I00
sbsbsg114
Nsg33
Nsg2971
g0
(g2840
g2
Ntp3778
Rp3779
(dp3780
g6
g7
sg2844
g2845
sg2846
Nsg20
I01
sg2847
Nsg2848
I0
sg75
Nsg76
Nsg24
Nsg11
Nsg29
I00
sg30
(dp3781
sg32
I00
sg1884
Nsg2850
F0.8
sg2851
Nsg2852
g2853
sg2854
g2855
sg96
Nsg86
I01
sg2856
g3650
sg111
I0
sg112
I01
sg2858
I01
sg2859
I01
sg115
g787
sg2860
Nsg2861
F2.01
sg2165
g3490
sg2862
I5
sg9
g4
sg2863
Nsg10
Nsg42
Nsg17
g18
sg2864
g2865
sg23
Nsg25
Nsg28
I00
sg2866
Nsg34
Nsg2867
Nsg2868
g0
(g2869
g2
Ntp3782
Rp3783
(dp3784
g2868
I1
sg2873
Nsg2874
F1.0
sg115
g0
(g157
g2
Ntp3785
Rp3786
(dp3787
g49
I2
sg50
Nsg120
g132
(g133
(I0
tp3788
g135
tp3789
Rp3790
(I1
(I3
I3
tp3791
g59
I00
S'\x00\x00\x00\x00\x00\x00\xf0?\x00\x00\x00\x00\x00\x00\x00\x00\x00\x00\x00\x00\x00\x00\x00\x00\x00\x00\x00\x00\x00\x00\x00\x00\x00\x00\x00\x00\x00\x00\xf0?\x00\x00\x00\x00\x00\x00\x00\x00\x00\x00\x00\x00\x00\x00\x00\x00\x00\x00\x00\x00\x00\x00\x00\x00\x00\x00\x00\x00\x00\x00\xf0?'
p3792
tp3793
bsg51
g7
sg52
(dp3794
sbsg2885
I00
sg2886
g2887
sg2888
Nsg1881
g2889
sg99
g2890
sg2471
g3584
sbsg2900
g2901
sg88
Nsg33
Nsg92
I01
sg2902
Nsg101
g3664
sg103
g0
(g104
g105
((lp3795
(lp3796
tp3797
tp3798
Rp3799
sg2909
I00
sg2910
g2911
sg2912
g2865
sg2913
Nsg114
Nsg2914
g2865
sg2915
F0.0
sg8
I01
sg2916
Nsg43
Nsg1883
Nsg2917
(I0
tp3800
sg87
F0.5
sg2471
Nsbsg115
Nsg2997
F8.0
sg2998
g3671
sg43
Nsg2165
g3490
sg34
Nsbasg3129
I01
sg1891
g0
(g1892
g2
Ntp3801
Rp3802
I01
bsg96
Nsg86
I01
sg3132
I01
sg103
g0
(g104
g105
((lp3803
(lp3804
tp3805
tp3806
Rp3807
sg111
I0
sg3138
I1
sg3139
Nsg112
I00
sg114
Nsg3140
Vleft
p3808
sg115
Nsg3142
Vleft
p3809
sg43
Nsg1883
Nsg2862
I15
sg3144
(lp3810
g0
(g3522
g2
Ntp3811
Rp3812
(dp3813
g6
g7
sg40
F0.6
sg9
g4
sg2786
I01
sg8
I01
sg10
Nsg111
I0
sg42
Nsg2787
F3.4
sg2788
g3490
sg2789
I00
sg2120
F0.0
sg17
g18
sg2790
g3526
sg2736
g0
(g2104
g2
Ntp3814
Rp3815
(dp3816
g6
g7
sg8
I01
sg9
g4
sg10
Nsg2108
g0
(g2109
g2
Ntp3817
Rp3818
(dp3819
g2113
(lp3820
g2115
asg2116
Nsg2117
g2118
sg2119
g2118
sg2120
F8.0
sg2121
I400
sg2122
g2118
sbsg42
Nsg17
g18
sg2123
Nsg20
I01
sg23
Nsg75
I0
sg76
I0
sg24
Nsg25
Nsg11
Nsg28
I00
sg29
I00
sg30
(dp3821
sg2125
Nsg32
I00
sg1884
Nsg88
Nsg1883
Nsg2126
Nsg33
Nsg96
Nsg86
I01
sg2127
g3535
sg2129
V
p3822
sg2131
Nsg103
g0
(g104
g105
((lp3823
(lp3824
tp3825
tp3826
Rp3827
sg111
I0
sg2137
Nsg112
I01
sg114
Nsg2138
F1.2
sg115
g846
sg2163
I00
sg2164
I00
sg43
Nsg2165
g3490
sg2167
g3542
sg34
Nsbsg20
I01
sg23
Nsg2808
I00
sg24
Nsg25
Nsg11
Nsg2809
I00
sg28
I00
sg29
I00
sg30
(dp3828
sg2811
(I0
I1
tp3829
sg32
I00
sg2813
I2
sg1884
g1943
sg2814
I01
sg88
g429
sg1883
Nsg2815
g3815
sg2816
g0
(g2104
g2
Ntp3830
Rp3831
(dp3832
g6
g7
sg8
I01
sg9
g4
sg10
Nsg2108
g0
(g2109
g2
Ntp3833
Rp3834
(dp3835
g2113
(lp3836
g2115
asg2116
Nsg2117
g2118
sg2119
g2118
sg2120
F8.0
sg2121
I400
sg2122
g2118
sbsg42
Nsg17
g18
sg2123
Nsg20
I01
sg23
Nsg75
I0
sg76
I1
sg24
Nsg25
Nsg11
Nsg28
I00
sg29
I00
sg30
(dp3837
sg2125
Nsg32
I00
sg1884
Nsg88
Nsg1883
Nsg2126
Nsg33
Nsg96
Nsg86
I01
sg2127
g3535
sg2129
V
p3838
sg2131
Nsg103
g0
(g104
g105
((lp3839
(lp3840
tp3841
tp3842
Rp3843
sg111
I0
sg2137
Nsg112
I01
sg114
Nsg2138
F1.2
sg115
g837
sg2163
I00
sg2164
I00
sg43
Nsg2165
g3490
sg2167
g3559
sg34
Nsbsg96
Nsg2832
I0
sg86
I01
sg103
g0
(g104
g105
((lp3844
(lp3845
tp3846
tp3847
Rp3848
sg2838
F3.4
sg2839
g0
(g2840
g2
Ntp3849
Rp3850
(dp3851
g6
g7
sg2844
g2845
sg2846
Nsg20
I01
sg2847
Nsg2848
I0
sg75
Nsg76
Nsg24
Nsg11
Nsg29
I00
sg30
(dp3852
sg32
I00
sg1884
Nsg2850
F0.6
sg2851
Nsg2852
g2853
sg2854
g2855
sg96
Nsg86
I01
sg2856
g3569
sg111
I0
sg112
I01
sg2858
I01
sg2859
I01
sg115
g787
sg2860
Nsg2861
I2
sg2165
g3490
sg2862
I5
sg9
g4
sg2863
Nsg10
Nsg42
Nsg17
g18
sg2864
g2865
sg23
Nsg25
Nsg28
I00
sg2866
Nsg34
Nsg2867
Nsg2868
g0
(g2869
g2
Ntp3853
Rp3854
(dp3855
g2868
I0
sg2873
Nsg2874
F1.0
sg115
g0
(g157
g2
Ntp3856
Rp3857
(dp3858
g49
I2
sg50
Nsg120
g132
(g133
(I0
tp3859
g135
tp3860
Rp3861
(I1
(I3
I3
tp3862
g59
I00
S'\x00\x00\x00\x00\x00\x00\xf0\xbf\x00\x00\x00\x00\x00\x00\x00\x00\x00\x00\x00\x00\x00\x00\x00\x00\x00\x00\x00\x00\x00\x00\x00\x00\x00\x00\x00\x00\x00\x00\xf0?\x00\x00\x00\x00\x00\x00\x00\x00\x00\x00\x00\x00\x00\x00\x00\x00\x00\x00\x00\x00\x00\x00\x00\x00\x00\x00\x00\x00\x00\x00\xf0?'
p3863
tp3864
bsg51
g7
sg52
(dp3865
sbsg2885
I00
sg2886
g2887
sg2888
Nsg1881
g2889
sg99
g2890
sg2471
g3584
sbsg2900
g2901
sg88
Nsg33
Nsg92
I01
sg2902
Nsg101
g3592
sg103
g0
(g104
g105
((lp3866
(lp3867
tp3868
tp3869
Rp3870
sg2909
I00
sg2910
g2911
sg2912
g2865
sg2913
Nsg114
Nsg2914
g2865
sg2915
F0.0
sg8
I01
sg2916
Nsg43
Nsg1883
Nsg2917
(I0
tp3871
sg87
F0.5
sg2471
Nsbsg112
I00
sg2919
g0
(g2840
g2
Ntp3872
Rp3873
(dp3874
g6
g7
sg8
I01
sg2912
g2865
sg9
g4
sg2844
g2845
sg2846
Nsg10
Nsg42
Nsg17
g18
sg2864
g2865
sg20
I01
sg2847
Nsg23
Nsg75
g132
(g133
(I0
tp3875
g135
tp3876
Rp3877
(I1
(I2
tp3878
g59
I00
S'\x00\x00\x00\x00\x00\x00\x00\x00\x00\x00\x00\x00\x00\x00\x00\x00'
p3879
tp3880
bsg76
g132
(g133
(I0
tp3881
g135
tp3882
Rp3883
(I1
(I2
tp3884
g59
I00
S'\x00\x00\x00\x00\x00\x00\x00\x00\x00\x00\x00\x00\x00\x00\xf0?'
p3885
tp3886
bsg24
Nsg25
Nsg11
Nsg2856
g3614
sg28
I00
sg2866
Nsg29
I00
sg30
(dp3887
sg2863
Nsg32
I00
sg2909
I00
sg1884
Nsg2867
Nsg2850
F1.0
sg2900
g2901
sg2851
Nsg2165
g2937
sg2868
g0
(g2869
g2
Ntp3888
Rp3889
(dp3890
g2868
g2941
sg2873
Nsg2874
Nsg115
g0
(g45
g2
Ntp3891
Rp3892
(dp3893
g49
I1
sg50
Nsg51
g7
sg52
(dp3894
sbsg2885
I00
sg2886
g2887
sg2888
Nsg1881
g2889
sg99
g2890
sg2471
g0
(g2472
g2
Ntp3895
Rp3896
(dp3897
g2476
I00
sg2477
Nsg2478
g132
(g133
(I0
tp3898
g135
tp3899
Rp3900
(I1
(I0
I2
tp3901
g59
I00
g2953
tp3902
bsg2485
I00
sg2486
F0.1111111111111111
sg2487
I1
sg2488
I00
sbsbsg33
Nsg2852
g2853
sg92
I01
sg2854
g2855
sg96
Nsg2915
F0.0
sg86
I01
sg2902
g132
(g133
(I0
tp3903
g135
tp3904
Rp3905
(I1
(I2
I2
tp3906
g59
I00
S'\x00\x00\x00\x00\x00\x00\x00\x00\x00\x00\x00\x00\x00\x00\x00\x00\x00\x00\x00\x00\x00\x00\xf0?\x00\x00\x00\x00\x00\x00\x00\x00'
p3907
tp3908
bsg101
g2961
sg103
g0
(g104
g105
((lp3909
(lp3910
tp3911
tp3912
Rp3913
sg111
I0
sg2910
g2911
sg2848
I0
sg2913
Nsg2862
I5
sg112
I01
sg114
F1.0
sg2914
g2865
sg2859
I00
sg115
g787
sg2916
Nsg2860
Nsg2858
I00
sg43
Nsg1883
Nsg2917
g3642
sg88
g1149
sg87
F0.8
sg34
Nsg2471
g0
(g2472
g2
Ntp3914
Rp3915
(dp3916
g2476
I00
sg2477
Nsg2478
g3905
sg2485
I00
sg2486
F0.1111111111111111
sg2487
I180
sg2488
I00
sbsbsg114
Nsg33
Nsg2971
g0
(g2840
g2
Ntp3917
Rp3918
(dp3919
g6
g7
sg2844
g2845
sg2846
Nsg20
I01
sg2847
Nsg2848
I0
sg75
Nsg76
Nsg24
Nsg11
Nsg29
I00
sg30
(dp3920
sg32
I00
sg1884
Nsg2850
F0.6
sg2851
Nsg2852
g2853
sg2854
g2855
sg96
Nsg86
I01
sg2856
g3650
sg111
I0
sg112
I01
sg2858
I01
sg2859
I01
sg115
g787
sg2860
Nsg2861
I2
sg2165
g3490
sg2862
I5
sg9
g4
sg2863
Nsg10
Nsg42
Nsg17
g18
sg2864
g2865
sg23
Nsg25
Nsg28
I00
sg2866
Nsg34
Nsg2867
Nsg2868
g0
(g2869
g2
Ntp3921
Rp3922
(dp3923
g2868
I1
sg2873
Nsg2874
F1.0
sg115
g0
(g157
g2
Ntp3924
Rp3925
(dp3926
g49
I2
sg50
Nsg120
g132
(g133
(I0
tp3927
g135
tp3928
Rp3929
(I1
(I3
I3
tp3930
g59
I00
S'\x00\x00\x00\x00\x00\x00\xf0?\x00\x00\x00\x00\x00\x00\x00\x00\x00\x00\x00\x00\x00\x00\x00\x00\x00\x00\x00\x00\x00\x00\x00\x00\x00\x00\x00\x00\x00\x00\xf0?\x00\x00\x00\x00\x00\x00\x00\x00\x00\x00\x00\x00\x00\x00\x00\x00\x00\x00\x00\x00\x00\x00\x00\x00\x00\x00\x00\x00\x00\x00\xf0?'
p3931
tp3932
bsg51
g7
sg52
(dp3933
sbsg2885
I00
sg2886
g2887
sg2888
Nsg1881
g2889
sg99
g2890
sg2471
g3584
sbsg2900
g2901
sg88
Nsg33
Nsg92
I01
sg2902
Nsg101
g3664
sg103
g0
(g104
g105
((lp3934
(lp3935
tp3936
tp3937
Rp3938
sg2909
I00
sg2910
g2911
sg2912
g2865
sg2913
Nsg114
Nsg2914
g2865
sg2915
F0.0
sg8
I01
sg2916
Nsg43
Nsg1883
Nsg2917
(I0
tp3939
sg87
F0.5
sg2471
Nsbsg115
Nsg2997
F8.0
sg2998
g3671
sg43
Nsg2165
g3490
sg34
Nsbag0
(g3522
g2
Ntp3940
Rp3941
(dp3942
g6
g7
sg40
F0.6
sg9
g4
sg2786
I01
sg8
I01
sg10
Nsg111
I0
sg42
Nsg2787
F3.4
sg2788
g3490
sg2789
I00
sg2120
F0.0
sg17
g18
sg2790
g3526
sg2736
g0
(g2104
g2
Ntp3943
Rp3944
(dp3945
g6
g7
sg8
I01
sg9
g4
sg10
Nsg2108
g0
(g2109
g2
Ntp3946
Rp3947
(dp3948
g2113
(lp3949
g2115
asg2116
Nsg2117
g2118
sg2119
g2118
sg2120
F8.0
sg2121
I400
sg2122
g2118
sbsg42
Nsg17
g18
sg2123
Nsg20
I01
sg23
Nsg75
I0
sg76
I0
sg24
Nsg25
Nsg11
Nsg28
I00
sg29
I00
sg30
(dp3950
sg2125
Nsg32
I00
sg1884
Nsg88
Nsg1883
Nsg2126
Nsg33
Nsg96
Nsg86
I01
sg2127
g3535
sg2129
V
p3951
sg2131
Nsg103
g0
(g104
g105
((lp3952
(lp3953
tp3954
tp3955
Rp3956
sg111
I0
sg2137
Nsg112
I01
sg114
Nsg2138
F1.2
sg115
g810
sg2163
I00
sg2164
I00
sg43
Nsg2165
g3490
sg2167
g3542
sg34
Nsbsg20
I01
sg23
Nsg2808
I00
sg24
Nsg25
Nsg11
Nsg2809
I00
sg28
I00
sg29
I00
sg30
(dp3957
sg2811
(I0
I1
tp3958
sg32
I00
sg2813
I2
sg1884
g1943
sg2814
I01
sg88
g1647
sg1883
Nsg2815
g3944
sg2816
g0
(g2104
g2
Ntp3959
Rp3960
(dp3961
g6
g7
sg8
I01
sg9
g4
sg10
Nsg2108
g0
(g2109
g2
Ntp3962
Rp3963
(dp3964
g2113
(lp3965
g2115
asg2116
Nsg2117
g2118
sg2119
g2118
sg2120
F8.0
sg2121
I400
sg2122
g2118
sbsg42
Nsg17
g18
sg2123
Nsg20
I01
sg23
Nsg75
I0
sg76
I1
sg24
Nsg25
Nsg11
Nsg28
I00
sg29
I00
sg30
(dp3966
sg2125
Nsg32
I00
sg1884
Nsg88
Nsg1883
Nsg2126
Nsg33
Nsg96
Nsg86
I01
sg2127
g3535
sg2129
V
p3967
sg2131
Nsg103
g0
(g104
g105
((lp3968
(lp3969
tp3970
tp3971
Rp3972
sg111
I0
sg2137
Nsg112
I01
sg114
Nsg2138
F1.2
sg115
g855
sg2163
I00
sg2164
I00
sg43
Nsg2165
g3490
sg2167
g3559
sg34
Nsbsg96
Nsg2832
I0
sg86
I01
sg103
g0
(g104
g105
((lp3973
(lp3974
tp3975
tp3976
Rp3977
sg2838
F3.4
sg2839
g0
(g2840
g2
Ntp3978
Rp3979
(dp3980
g6
g7
sg2844
g2845
sg2846
Nsg20
I01
sg2847
Nsg2848
I0
sg75
Nsg76
Nsg24
Nsg11
Nsg29
I00
sg30
(dp3981
sg32
I00
sg1884
Nsg2850
F0.6
sg2851
Nsg2852
g2853
sg2854
g2855
sg96
Nsg86
I01
sg2856
g3569
sg111
I0
sg112
I01
sg2858
I01
sg2859
I01
sg115
g787
sg2860
Nsg2861
I2
sg2165
g3490
sg2862
I5
sg9
g4
sg2863
Nsg10
Nsg42
Nsg17
g18
sg2864
g2865
sg23
Nsg25
Nsg28
I00
sg2866
Nsg34
Nsg2867
Nsg2868
g0
(g2869
g2
Ntp3982
Rp3983
(dp3984
g2868
I0
sg2873
Nsg2874
F1.0
sg115
g0
(g157
g2
Ntp3985
Rp3986
(dp3987
g49
I2
sg50
Nsg120
g132
(g133
(I0
tp3988
g135
tp3989
Rp3990
(I1
(I3
I3
tp3991
g59
I00
S'\x00\x00\x00\x00\x00\x00\xf0\xbf\x00\x00\x00\x00\x00\x00\x00\x00\x00\x00\x00\x00\x00\x00\x00\x00\x00\x00\x00\x00\x00\x00\x00\x00\x00\x00\x00\x00\x00\x00\xf0?\x00\x00\x00\x00\x00\x00\x00\x00\x00\x00\x00\x00\x00\x00\x00\x00\x00\x00\x00\x00\x00\x00\x00\x00\x00\x00\x00\x00\x00\x00\xf0?'
p3992
tp3993
bsg51
g7
sg52
(dp3994
sbsg2885
I00
sg2886
g2887
sg2888
Nsg1881
g2889
sg99
g2890
sg2471
g3584
sbsg2900
g2901
sg88
Nsg33
Nsg92
I01
sg2902
Nsg101
g3592
sg103
g0
(g104
g105
((lp3995
(lp3996
tp3997
tp3998
Rp3999
sg2909
I00
sg2910
g2911
sg2912
g2865
sg2913
Nsg114
Nsg2914
g2865
sg2915
F0.0
sg8
I01
sg2916
Nsg43
Nsg1883
Nsg2917
(I0
tp4000
sg87
F0.5
sg2471
Nsbsg112
I00
sg2919
g0
(g2840
g2
Ntp4001
Rp4002
(dp4003
g6
g7
sg8
I01
sg2912
g2865
sg9
g4
sg2844
g2845
sg2846
Nsg10
Nsg42
Nsg17
g18
sg2864
g2865
sg20
I01
sg2847
Nsg23
Nsg75
g132
(g133
(I0
tp4004
g135
tp4005
Rp4006
(I1
(I2
tp4007
g59
I00
S'\x00\x00\x00\x00\x00\x00\x00\x00\x00\x00\x00\x00\x00\x00\x00\x00'
p4008
tp4009
bsg76
g132
(g133
(I0
tp4010
g135
tp4011
Rp4012
(I1
(I2
tp4013
g59
I00
S'\x00\x00\x00\x00\x00\x00\x00\x00\x00\x00\x00\x00\x00\x00\xf0?'
p4014
tp4015
bsg24
Nsg25
Nsg11
Nsg2856
g3614
sg28
I00
sg2866
Nsg29
I00
sg30
(dp4016
sg2863
Nsg32
I00
sg2909
I00
sg1884
Nsg2867
Nsg2850
F1.0
sg2900
g2901
sg2851
Nsg2165
g2937
sg2868
g0
(g2869
g2
Ntp4017
Rp4018
(dp4019
g2868
g2941
sg2873
Nsg2874
Nsg115
g0
(g45
g2
Ntp4020
Rp4021
(dp4022
g49
I1
sg50
Nsg51
g7
sg52
(dp4023
sbsg2885
I00
sg2886
g2887
sg2888
Nsg1881
g2889
sg99
g2890
sg2471
g0
(g2472
g2
Ntp4024
Rp4025
(dp4026
g2476
I00
sg2477
Nsg2478
g132
(g133
(I0
tp4027
g135
tp4028
Rp4029
(I1
(I0
I2
tp4030
g59
I00
g2953
tp4031
bsg2485
I00
sg2486
F0.1111111111111111
sg2487
I1
sg2488
I00
sbsbsg33
Nsg2852
g2853
sg92
I01
sg2854
g2855
sg96
Nsg2915
F0.0
sg86
I01
sg2902
g132
(g133
(I0
tp4032
g135
tp4033
Rp4034
(I1
(I2
I2
tp4035
g59
I00
S'\x00\x00\x00\x00\x00\x00\x00\x00\x00\x00\x00\x00\x00\x00\x00\x00\x00\x00\x00\x00\x00\x00\xf0?\x00\x00\x00\x00\x00\x00\x00\x00'
p4036
tp4037
bsg101
g2961
sg103
g0
(g104
g105
((lp4038
(lp4039
tp4040
tp4041
Rp4042
sg111
I0
sg2910
g2911
sg2848
I0
sg2913
Nsg2862
I5
sg112
I01
sg114
F1.0
sg2914
g2865
sg2859
I00
sg115
g787
sg2916
Nsg2860
Nsg2858
I00
sg43
Nsg1883
Nsg2917
g3642
sg88
g1507
sg87
F0.8
sg34
Nsg2471
g0
(g2472
g2
Ntp4043
Rp4044
(dp4045
g2476
I00
sg2477
Nsg2478
g4034
sg2485
I00
sg2486
F0.1111111111111111
sg2487
I180
sg2488
I00
sbsbsg114
Nsg33
Nsg2971
g0
(g2840
g2
Ntp4046
Rp4047
(dp4048
g6
g7
sg2844
g2845
sg2846
Nsg20
I01
sg2847
Nsg2848
I0
sg75
Nsg76
Nsg24
Nsg11
Nsg29
I00
sg30
(dp4049
sg32
I00
sg1884
Nsg2850
F0.6
sg2851
Nsg2852
g2853
sg2854
g2855
sg96
Nsg86
I01
sg2856
g3650
sg111
I0
sg112
I01
sg2858
I01
sg2859
I01
sg115
g787
sg2860
Nsg2861
I2
sg2165
g3490
sg2862
I5
sg9
g4
sg2863
Nsg10
Nsg42
Nsg17
g18
sg2864
g2865
sg23
Nsg25
Nsg28
I00
sg2866
Nsg34
Nsg2867
Nsg2868
g0
(g2869
g2
Ntp4050
Rp4051
(dp4052
g2868
I1
sg2873
Nsg2874
F1.0
sg115
g0
(g157
g2
Ntp4053
Rp4054
(dp4055
g49
I2
sg50
Nsg120
g132
(g133
(I0
tp4056
g135
tp4057
Rp4058
(I1
(I3
I3
tp4059
g59
I00
S'\x00\x00\x00\x00\x00\x00\xf0?\x00\x00\x00\x00\x00\x00\x00\x00\x00\x00\x00\x00\x00\x00\x00\x00\x00\x00\x00\x00\x00\x00\x00\x00\x00\x00\x00\x00\x00\x00\xf0?\x00\x00\x00\x00\x00\x00\x00\x00\x00\x00\x00\x00\x00\x00\x00\x00\x00\x00\x00\x00\x00\x00\x00\x00\x00\x00\x00\x00\x00\x00\xf0?'
p4060
tp4061
bsg51
g7
sg52
(dp4062
sbsg2885
I00
sg2886
g2887
sg2888
Nsg1881
g2889
sg99
g2890
sg2471
g3584
sbsg2900
g2901
sg88
Nsg33
Nsg92
I01
sg2902
Nsg101
g3664
sg103
g0
(g104
g105
((lp4063
(lp4064
tp4065
tp4066
Rp4067
sg2909
I00
sg2910
g2911
sg2912
g2865
sg2913
Nsg114
Nsg2914
g2865
sg2915
F0.0
sg8
I01
sg2916
Nsg43
Nsg1883
Nsg2917
(I0
tp4068
sg87
F0.5
sg2471
Nsbsg115
Nsg2997
F8.0
sg2998
g3671
sg43
Nsg2165
g3490
sg34
Nsbasg34
Nsg3404
(dp4069
g2771
I01
sg2773
I00
sg2774
I01
sg2775
I00
ssg3406
I01
sbsS'_axisbelow'
p4070
I00
sg8
I01
sS'lines'
p4071
(lp4072
sS'_ycid'
p4073
I1
sS'spines'
p4074
ccollections
OrderedDict
p4075
((lp4076
(lp4077
Vleft
p4078
ag0
(cmatplotlib.spines
Spine
p4079
g2
Ntp4080
Rp4081
(dp4082
g6
g7
sg2717
I00
sg41
I01
sg9
g4
sS'_bounds'
p4083
Nsg8
I01
sg10
Nsg42
Nsg17
g18
sg43
Nsg20
I01
sg2695
g3450
sg44
g0
(g45
g2
Ntp4084
Rp4085
(dp4086
g49
I1
sg50
Nsg51
g7
sg52
(dp4087
sbsg54
(F0.0
F0.0
F0.0
F1.0
tp4088
sg23
Nsg24
Nsg77
V0.
p4089
sg11
Nsg28
I00
sg29
I00
sg30
(dp4090
sg1879
(NNtp4091
sg2631
(Voutward
p4092
F0.0
tp4093
sg32
I00
sg85
Nsg86
I01
sg87
F1.0
sS'_patch_type'
p4094
Vline
p4095
sg33
Nsg90
g4088
sg91
Nsg92
I01
sg93
Nsg94
Vnone
p4096
sg96
Nsg97
g2610
sg99
g100
sS'_patch_transform'
p4097
g0
(g45
g2
Ntp4098
Rp4099
(dp4100
g49
I1
sg50
Nsg51
g7
sg52
(dp4101
sbsg101
g102
sg103
g0
(g104
g105
((lp4102
(lp4103
tp4104
tp4105
Rp4106
sg111
I0
sS'_spine_transform'
p4107
(Videntity
p4108
g0
(g45
g2
Ntp4109
Rp4110
(dp4111
g49
I1
sg50
Nsg51
g7
sg52
(dp4112
sbtp4113
sg112
I01
sg114
NsS'spine_type'
p4114
g4078
sg115
g787
sg88
Nsg2861
F2.5
sg1881
Vprojecting
p4115
sg1883
Nsg25
Nsg1884
g1943
sg34
Nsg2471
g0
(g2472
g2
Ntp4116
Rp4117
(dp4118
g2476
I00
sg2477
Nsg2478
g132
(g133
(I0
tp4119
g135
tp4120
Rp4121
(I1
(I2
I2
tp4122
g59
I00
S'\x00\x00\x00\x00\x00\x00\x00\x00\x00\x00\x00\x00\x00\x00*@\x00\x00\x00\x00\x00\x00\x00\x00\x00\x00\x00\x00\x00\x00*@'
p4123
tp4124
bsg2485
I00
sg2486
F0.1111111111111111
sg2487
I1
sg2488
I00
sbsbaa(lp4125
Vright
p4126
ag0
(g4079
g2
Ntp4127
Rp4128
(dp4129
g6
g7
sg2717
I00
sg41
I01
sg9
g4
sg4083
Nsg8
I00
sg10
Nsg42
Nsg17
g18
sg43
Nsg20
I01
sg2695
g3450
sg44
g0
(g45
g2
Ntp4130
Rp4131
(dp4132
g49
I1
sg50
Nsg51
g7
sg52
(dp4133
sbsg54
g4088
sg23
Nsg24
Nsg77
g4089
sg11
Nsg28
I00
sg29
I00
sg30
(dp4134
sg1879
(NNtp4135
sg2631
g4093
sg32
I00
sg85
Nsg86
I01
sg87
F1.0
sg4094
g4095
sg33
Nsg90
g4088
sg91
Nsg92
I01
sg93
Nsg94
g4096
sg96
Nsg97
g2610
sg99
g100
sg4097
g0
(g45
g2
Ntp4136
Rp4137
(dp4138
g49
I1
sg50
Nsg51
g7
sg52
(dp4139
sbsg101
g102
sg103
g0
(g104
g105
((lp4140
(lp4141
tp4142
tp4143
Rp4144
sg111
I0
sg4107
(g4108
g0
(g45
g2
Ntp4145
Rp4146
(dp4147
g49
I1
sg50
Nsg51
g7
sg52
(dp4148
sbtp4149
sg112
I01
sg114
Nsg4114
g4126
sg115
g787
sg88
Nsg2861
F2.5
sg1881
g4115
sg1883
Nsg25
Nsg1884
g1943
sg34
Nsg2471
g0
(g2472
g2
Ntp4150
Rp4151
(dp4152
g2476
I00
sg2477
Nsg2478
g132
(g133
(I0
tp4153
g135
tp4154
Rp4155
(I1
(I2
I2
tp4156
g59
I00
S'\x00\x00\x00\x00\x00\x00\xf0?\x00\x00\x00\x00\x00\x00*@\x00\x00\x00\x00\x00\x00\xf0?\x00\x00\x00\x00\x00\x00*@'
p4157
tp4158
bsg2485
I00
sg2486
F0.1111111111111111
sg2487
I1
sg2488
I00
sbsbaa(lp4159
Vbottom
p4160
ag0
(g4079
g2
Ntp4161
Rp4162
(dp4163
g6
g7
sg2717
I00
sg41
I01
sg9
g4
sg4083
Nsg8
I01
sg10
Nsg42
Nsg17
g18
sg43
Nsg20
I01
sg2695
g2663
sg44
g0
(g45
g2
Ntp4164
Rp4165
(dp4166
g49
I1
sg50
Nsg51
g7
sg52
(dp4167
sbsg54
g4088
sg23
Nsg24
Nsg77
g4089
sg11
Nsg28
I00
sg29
I00
sg30
(dp4168
sg1879
(NNtp4169
sg2631
g4093
sg32
I00
sg85
Nsg86
I01
sg87
F1.0
sg4094
g4095
sg33
Nsg90
g4088
sg91
Nsg92
I01
sg93
Nsg94
g4096
sg96
Nsg97
g2610
sg99
g100
sg4097
g0
(g45
g2
Ntp4170
Rp4171
(dp4172
g49
I1
sg50
Nsg51
g7
sg52
(dp4173
sbsg101
g102
sg103
g0
(g104
g105
((lp4174
(lp4175
tp4176
tp4177
Rp4178
sg111
I0
sg4107
(g4108
g0
(g45
g2
Ntp4179
Rp4180
(dp4181
g49
I1
sg50
Nsg51
g7
sg52
(dp4182
sbtp4183
sg112
I01
sg114
Nsg4114
g4160
sg115
g184
sg88
Nsg2861
F2.5
sg1881
g4115
sg1883
Nsg25
Nsg1884
g1943
sg34
Nsg2471
g0
(g2472
g2
Ntp4184
Rp4185
(dp4186
g2476
I00
sg2477
Nsg2478
g132
(g133
(I0
tp4187
g135
tp4188
Rp4189
(I1
(I2
I2
tp4190
g59
I00
S'\x00\x00\x00\x00\x00\x00*@\x00\x00\x00\x00\x00\x00\x00\x00\x00\x00\x00\x00\x00\x00*@\x00\x00\x00\x00\x00\x00\x00\x00'
p4191
tp4192
bsg2485
I00
sg2486
F0.1111111111111111
sg2487
I1
sg2488
I00
sbsbaa(lp4193
Vtop
p4194
ag0
(g4079
g2
Ntp4195
Rp4196
(dp4197
g6
g7
sg2717
I00
sg41
I01
sg9
g4
sg4083
Nsg8
I00
sg10
Nsg42
Nsg17
g18
sg43
Nsg20
I01
sg2695
g2663
sg44
g0
(g45
g2
Ntp4198
Rp4199
(dp4200
g49
I1
sg50
Nsg51
g7
sg52
(dp4201
sbsg54
g4088
sg23
Nsg24
Nsg77
g4089
sg11
Nsg28
I00
sg29
I00
sg30
(dp4202
sg1879
(NNtp4203
sg2631
g4093
sg32
I00
sg85
Nsg86
I01
sg87
F1.0
sg4094
g4095
sg33
Nsg90
g4088
sg91
Nsg92
I01
sg93
Nsg94
g4096
sg96
Nsg97
g2610
sg99
g100
sg4097
g0
(g45
g2
Ntp4204
Rp4205
(dp4206
g49
I1
sg50
Nsg51
g7
sg52
(dp4207
sbsg101
g102
sg103
g0
(g104
g105
((lp4208
(lp4209
tp4210
tp4211
Rp4212
sg111
I0
sg4107
(g4108
g0
(g45
g2
Ntp4213
Rp4214
(dp4215
g49
I1
sg50
Nsg51
g7
sg52
(dp4216
sbtp4217
sg112
I01
sg114
Nsg4114
g4194
sg115
g184
sg88
Nsg2861
F2.5
sg1881
g4115
sg1883
Nsg25
Nsg1884
g1943
sg34
Nsg2471
g0
(g2472
g2
Ntp4218
Rp4219
(dp4220
g2476
I00
sg2477
Nsg2478
g132
(g133
(I0
tp4221
g135
tp4222
Rp4223
(I1
(I2
I2
tp4224
g59
I00
S'\x00\x00\x00\x00\x00\x00*@\x00\x00\x00\x00\x00\x00\xf0?\x00\x00\x00\x00\x00\x00*@\x00\x00\x00\x00\x00\x00\xf0?'
p4225
tp4226
bsg2485
I00
sg2486
F0.1111111111111111
sg2487
I1
sg2488
I00
sbsbaatp4227
Rp4228
sS'_anchor'
p4229
VC
p4230
sg43
Nsg1883
NsS'_use_sticky_edges'
p4231
I01
sbtp4232
tp4233
asS'_ind'
p4234
I1
sS'_pos'
p4235
I0
sbsg115
Nsg4071
(lp4236
sg2602
g38
sS'subplotpars'
p4237
g0
(cmatplotlib.figure
SubplotParams
p4238
g2
Ntp4239
Rp4240
(dp4241
g1927
F0.9
sg1929
F0.125
sg1930
F0.88
sg1931
F0.2
sS'validate'
p4242
I01
sg1933
F0.2
sg1935
F0.125
sbsg43
Nsg1883
NsS'bbox_inches'
p4243
g129
sS'transFigure'
p4244
g118
sS'_dpi'
p4245
F72.0
sb.