ccopy_reg
_reconstructor
p0
(cmatplotlib.figure
Figure
p1
c__builtin__
object
p2
Ntp3
Rp4
(dp5
S'_label'
p6
V
p7
sS'_visible'
p8
I01
sS'figure'
p9
NsS'stale_callback'
p10
NsS'_rasterized'
p11
NsS'texts'
p12
(lp13
sS'_hold'
p14
I01
sS'artists'
p15
(lp16
sS'_path_effects'
p17
(lp18
sS'frameon'
p19
I01
sS'_clipon'
p20
I01
sV__mpl_version__
p21
S'2.0.2'
p22
sS'_clippath'
p23
NsS'_sketch'
p24
NsS'_contains'
p25
NsS'_tight_parameters'
p26
(dp27
sS'_mouseover'
p28
I00
sS'_animated'
p29
I00
sS'_propobservers'
p30
(dp31
sS'eventson'
p32
I00
sS'_picker'
p33
NsS'_remove_method'
p34
NsS'figurePatch'
p35
g0
(cmatplotlib.patches
Rectangle
p36
g2
Ntp37
Rp38
(dp39
g6
g7
sS'_width'
p40
F1.0
sS'_fill'
p41
I01
sg9
g4
sg8
I01
sg10
NsS'_agg_filter'
p42
Nsg17
g18
sS'_gid'
p43
Nsg20
I01
sS'_combined_transform'
p44
g0
(cmatplotlib.transforms
IdentityTransform
p45
g2
Ntp46
Rp47
(dp48
S'_invalid'
p49
I1
sS'_inverted'
p50
NsS'_shorthand_name'
p51
g7
sS'_parents'
p52
(dp53
sbsS'_edgecolor'
p54
(cnumpy.core.multiarray
scalar
p55
(cnumpy
dtype
p56
(S'f8'
p57
I0
I1
tp58
Rp59
(I3
S'<'
p60
NNNI-1
I-1
I0
tp61
bS'\x00\x00\x00\x00\x00\x00\xf0?'
p62
tp63
Rp64
g55
(g59
S'\x00\x00\x00\x00\x00\x00\xf0?'
p65
tp66
Rp67
g55
(g59
S'\x00\x00\x00\x00\x00\x00\xf0?'
p68
tp69
Rp70
g55
(g59
S'\x00\x00\x00\x00\x00\x00\x00\x00'
p71
tp72
Rp73
tp74
sg23
NsS'_y'
p75
F0.0
sS'_x'
p76
F0.0
sg24
NsS'_original_edgecolor'
p77
(I1
I1
I1
I0
tp78
sg11
Nsg28
I00
sg29
I00
sg30
(dp79
sS'_rect_transform'
p80
g0
(g45
g2
Ntp81
Rp82
(dp83
g49
I1
sg50
Nsg51
g7
sg52
(dp84
sbsg32
I00
sS'_hatch'
p85
NsS'_stale'
p86
I01
sS'_linewidth'
p87
F0.0
sS'clipbox'
p88
NsS'_height'
p89
F1.0
sg33
NsS'_hatch_color'
p90
g74
sS'_dashes'
p91
NsS'_antialiased'
p92
I00
sS'_dashoffset'
p93
NsS'_original_facecolor'
p94
Vwhite
p95
sS'_snap'
p96
NsS'_facecolor'
p97
(F1.0
F1.0
F1.0
F1.0
tp98
sS'_joinstyle'
p99
Vmiter
p100
sS'_linestyle'
p101
Vsolid
p102
sS'_sticky_edges'
p103
g0
(cmatplotlib.artist
_XYPair
p104
c__builtin__
tuple
p105
((lp106
(lp107
tp108
tp109
Rp110
sS'_oid'
p111
I0
sS'_transformSet'
p112
I01
sS'_angle'
p113
F0.0
sS'_alpha'
p114
NsS'_transform'
p115
g0
(cmatplotlib.transforms
BboxTransformTo
p116
g2
Ntp117
Rp118
(dp119
g49
I2
sS'_mtx'
p120
Nsg50
NsS'_boxout'
p121
g0
(cmatplotlib.transforms
TransformedBbox
p122
g2
Ntp123
Rp124
(dp125
g49
I2
sS'_bbox'
p126
g0
(cmatplotlib.transforms
Bbox
p127
g2
Ntp128
Rp129
(dp130
g49
I2
sS'_minpos'
p131
cnumpy.core.multiarray
_reconstruct
p132
(cnumpy
ndarray
p133
(I0
tp134
S'b'
p135
tp136
Rp137
(I1
(I2
tp138
g59
I00
S'\x00\x00\x00\x00\x00\x00\xf0\x7f\x00\x00\x00\x00\x00\x00\xf0\x7f'
p139
tp140
bsg52
(dp141
I140514939961744
g124
ssS'_points_orig'
p142
g132
(g133
(I0
tp143
g135
tp144
Rp145
(I1
(I2
I2
tp146
g59
I00
S'\x00\x00\x00\x00\x00\x00\x00\x00\x00\x00\x00\x00\x00\x00\x00\x00\x00\x00\x00\x00\x00\x00\x18@\x00\x00\x00\x00\x00\x00\x10@'
p147
tp148
bsS'_points'
p149
g132
(g133
(I0
tp150
g135
tp151
Rp152
(I1
(I2
I2
tp153
g59
I00
S'\x00\x00\x00\x00\x00\x00\x00\x00\x00\x00\x00\x00\x00\x00\x00\x00\x00\x00\x00\x00\x00\x00\xf8?\x00\x00\x00\x00\x00\x00\xf8?'
p154
tp155
bsS'_ignore'
p156
I01
sg51
g7
sbsg115
g0
(cmatplotlib.transforms
Affine2D
p157
g2
Ntp158
Rp159
(dp160
g49
I2
sg50
Nsg120
g132
(g133
(I0
tp161
g135
tp162
Rp163
(I1
(I3
I3
tp164
g59
I00
S'\x00\x00\x00\x00\x00\x00R@\x00\x00\x00\x00\x00\x00\x00\x00\x00\x00\x00\x00\x00\x00\x00\x00\x00\x00\x00\x00\x00\x00\x00\x00\x00\x00\x00\x00\x00\x00R@\x00\x00\x00\x00\x00\x00\x00\x00\x00\x00\x00\x00\x00\x00\x00\x00\x00\x00\x00\x00\x00\x00\x00\x00\x00\x00\x00\x00\x00\x00\xf0?'
p165
tp166
bsg51
g7
sg52
(dp167
I140514926631760
g0
(cmatplotlib.transforms
ScaledTranslation
p168
g2
Ntp169
Rp170
(dp171
g49
I1
sg120
NsS'_scale_trans'
p172
g159
sg50
NsS'_t'
p173
(F0.0
F0.08333333333333333
tp174
sg51
g7
sg52
(dp175
I140514920180688
g0
(cmatplotlib.transforms
CompositeGenericTransform
p176
g2
Ntp177
Rp178
(dp179
g49
I2
sS'input_dims'
p180
I2
sS'_a'
p181
g0
(g116
g2
Ntp182
Rp183
(dp184
g49
I2
sg120
Nsg50
Nsg121
g0
(g122
g2
Ntp185
Rp186
(dp187
g49
I2
sg126
g0
(g127
g2
Ntp188
Rp189
(dp190
g49
I0
sg131
g132
(g133
(I0
tp191
g135
tp192
Rp193
(I1
(I2
tp194
g59
I00
S'\x00\x00\x00\x00\x00\x00\xf0\x7f\x00\x00\x00\x00\x00\x00\xf0\x7f'
p195
tp196
bsg52
(dp197
I140514938846992
g186
ssg142
g132
(g133
(I0
tp198
g135
tp199
Rp200
(I1
(I2
I2
tp201
g59
I00
S'\x00\x00\x00\x00\x00\x00\xc0?\x00\x00\x00\x00\x00\x00\xc0?\xcd\xcc\xcc\xcc\xcc\xcc\xec?)\\\x8f\xc2\xf5(\xec?'
p202
tp203
bsg149
g132
(g133
(I0
tp204
g135
tp205
Rp206
(I1
(I2
I2
tp207
g59
I00
S'\x00\x00\x00\x00\x00\x00\xc0?\x00\x00\x00\x00\x00\x00\xc0?\xcd\xcc\xcc\xcc\xcc\xcc\xec?)\\\x8f\xc2\xf5(\xec?'
p208
tp209
bsg156
I01
sg51
g7
sbsg115
g118
sg149
Nsg52
(dp210
I140514938834192
g183
ssg51
g7
sbsg52
(dp211
I140514920178512
g0
(g176
g2
Ntp212
Rp213
(dp214
g49
I2
sg180
I2
sg181
g183
sS'output_dims'
p215
I2
sS'_b'
p216
g170
sg52
(dp217
sg51
g7
sbsI140514940740688
g0
(g176
g2
Ntp218
Rp219
(dp220
g49
I2
sg180
I2
sg181
g0
(g176
g2
Ntp221
Rp222
(dp223
g49
I1
sg180
I2
sg181
g0
(g116
g2
Ntp224
Rp225
(dp226
g49
I1
sg120
Nsg50
Nsg121
g0
(g127
g2
Ntp227
Rp228
(dp229
g49
I1
sg131
g132
(g133
(I0
tp230
g135
tp231
Rp232
(I1
(I2
tp233
g59
I00
S'\x00\x00\x00\x00\x00\x00\xf0\x7f\x00\x00\x00\x00\x00\x00\xf0\x7f'
p234
tp235
bsg52
(dp236
I140514940740560
g225
ssg142
g132
(g133
(I0
tp237
g135
tp238
Rp239
(I1
(I2
I2
tp240
g59
I00
S'\x00\x00\x00\x00\x00\x00\x00\x00\x00\x00\x00\x00\x00\x00\x00\x00\x00\x00\x00\x00\x00\x00\xf0?\x00\x00\x00\x00\x00\x00\xf0?'
p241
tp242
bsg149
g132
(g133
(I0
tp243
g135
tp244
Rp245
(I1
(I2
I2
tp246
g59
I00
S'\x00\x00\x00\x00\x00\x00\x00\x00\x00\x00\x00\x00\x00\x00\x00\x00\x00\x00\x00\x00\x00\x00\xf0?\x00\x00\x00\x00\x00\x00\xf0?'
p247
tp248
bsg156
I01
sg51
g7
sbsg52
(dp249
I140514940740624
g222
ssg51
g7
sbsg215
I2
sg216
g0
(g157
g2
Ntp250
Rp251
(dp252
g49
I2
sg50
Nsg120
g132
(g133
(I0
tp253
g135
tp254
Rp255
(I1
(I3
I3
tp256
g59
I00
S'\x00\x00\x00\x00\x00\x00\xf0?\x00\x00\x00\x00\x00\x00\x00\x00\x00\x00\x00\x00\x00\x00\x00\x00\x00\x00\x00\x00\x00\x00\x00\x00\x00\x00\x00\x00\x00\x00\xf0?\x00\x00\x00\x00\x00\x00\x00\x00\x00\x00\x00\x00\x00\x00\x00\x00\x00\x00\x00\x00\x00\x00\x00\x00\x00\x00\x00\x00\x00\x00\xf0?'
p257
tp258
bsg51
g7
sg52
(dp259
I140514940740624
g222
ssbsg52
(dp260
I140514940740688
g219
ssg51
g7
sbsg215
I2
sg216
g183
sg52
(dp261
I140514940740752
g0
(g122
g2
Ntp262
Rp263
(dp264
g49
I2
sg126
g0
(g127
g2
Ntp265
Rp266
(dp267
g49
I1
sg131
g132
(g133
(I0
tp268
g135
tp269
Rp270
(I1
(I2
tp271
g59
I00
S'\x00\x00\x00\x00\x00\x00\xf0\x7f\x00\x00\x00\x00\x00\x00\xf0\x7f'
p272
tp273
bsg52
(dp274
I140514940740752
g263
ssg142
g132
(g133
(I0
tp275
g135
tp276
Rp277
(I1
(I2
I2
tp278
g59
I00
S'\x00\x00\x00\x00\x00\x00\x00\x00\x00\x00\x00\x00\x00\x00\x00\x00\x00\x00\x00\x00\x00\x00\xf0?\x00\x00\x00\x00\x00\x00\xf0?'
p279
tp280
bsg149
g132
(g133
(I0
tp281
g135
tp282
Rp283
(I1
(I2
I2
tp284
g59
I00
S'\x00\x00\x00\x00\x00\x00\x00\x00\x00\x00\x00\x00\x00\x00\x00\x00\x00\x00\x00\x00\x00\x00\xf0?\x00\x00\x00\x00\x00\x00\xf0?'
p285
tp286
bsg156
I01
sg51
g7
sbsg115
g219
sg149
Nsg52
(dp287
sg51
g7
sbssg51
g7
sbsI140514938833808
g0
(cmatplotlib.transforms
BlendedGenericTransform
p288
g2
Ntp289
Rp290
(dp291
g49
I2
sg75
g0
(g176
g2
Ntp292
Rp293
(dp294
g49
I2
sg180
I2
sg181
g0
(cmatplotlib.transforms
TransformWrapper
p295
g2
Ntp296
Rp297
(dp298
Voutput_dims
p299
I2
sVparents
p300
(dp301
I140514938834128
g0
(g122
g2
Ntp302
Rp303
(dp304
g49
I2
sg126
g0
(g127
g2
Ntp305
Rp306
(dp307
g49
I2
sg131
g132
(g133
(I0
tp308
g135
tp309
Rp310
(I1
(I2
tp311
g59
I00
S'\x00\x00\x00\x00\x00\x00\xf0\x7f\x00\x00\x00\x00\x00\x00\xf0\x7f'
p312
tp313
bsg52
(dp314
I140514938834128
g303
ssg142
g132
(g133
(I0
tp315
g135
tp316
Rp317
(I1
(I2
I2
tp318
g59
I00
S'\x00\x00\x00\x00\x00\x00\x00\x00\x00\x00\x00\x00\x00\x00\x00\x00\x00\x00\x00\x00\x00\x00\xf0?\x00\x00\x00\x00\x00\x00\xf0?'
p319
tp320
bsg149
g132
(g133
(I0
tp321
g135
tp322
Rp323
(I1
(I2
I2
tp324
g59
I00
S'\x10\xd1b\xdc\xc3R\xe2\xbf\x00\x00\x00\x00\x00\x00\x00\x00\x9a=d!\xc8\xf0)@\x9a\x99\x99\x99\x99\xb9I@'
p325
tp326
bsg156
I01
sg51
g7
sbsg115
g297
sg149
Nsg52
(dp327
I140514938834512
g0
(cmatplotlib.transforms
BboxTransformFrom
p328
g2
Ntp329
Rp330
(dp331
g49
I2
sS'_boxin'
p332
g303
sg120
Nsg50
Nsg51
g7
sg52
(dp333
I140514938833744
g0
(g176
g2
Ntp334
Rp335
(dp336
g49
I2
sg180
I2
sg181
g330
sg215
I2
sg216
g183
sg52
(dp337
I140514938833680
g293
ssg51
g7
sbssbssg51
g7
sbsI140514938833680
g293
ssVinput_dims
p338
I2
sVchild
p339
g0
(cmatplotlib.transforms
BlendedAffine2D
p340
g2
Ntp341
Rp342
(dp343
g49
I0
sg120
g132
(g133
(I0
tp344
g135
tp345
Rp346
(I1
(I3
I3
tp347
g59
I00
S'\x00\x00\x00\x00\x00\x00\xf0?\x00\x00\x00\x00\x00\x00\x00\x00\x00\x00\x00\x00\x00\x00\x00\x00\x00\x00\x00\x00\x00\x00\x00\x00\x00\x00\x00\x00\x00\x00\xf0?\x00\x00\x00\x00\x00\x00\x00\x00\x00\x00\x00\x00\x00\x00\x00\x00\x00\x00\x00\x00\x00\x00\x00\x00\x00\x00\x00\x00\x00\x00\xf0?'
p348
tp349
bsg75
g0
(g45
g2
Ntp350
Rp351
(dp352
g49
I1
sg50
Nsg51
g7
sg52
(dp353
I140514920016144
g342
ssbsg76
g0
(g45
g2
Ntp354
Rp355
(dp356
g49
I1
sg50
Nsg51
g7
sg52
(dp357
I140514920016144
g342
ssbsg50
Nsg51
g7
sg52
(dp358
I140514938834256
g297
ssbsbsg215
I2
sg216
g335
sg52
(dp359
I140514938833616
g0
(g288
g2
Ntp360
Rp361
(dp362
g49
I2
sg75
g183
sg76
g293
sS'_affine'
p363
Nsg52
(dp364
I140514938852240
g0
(g176
g2
Ntp365
Rp366
(dp367
g49
I2
sg180
I2
sg181
g361
sg215
I2
sg216
g0
(g168
g2
Ntp368
Rp369
(dp370
g49
I1
sg120
Nsg172
g159
sg50
Nsg173
(I0
F-0.04722222222222222
tp371
sg51
g7
sg52
(dp372
I140514938852240
g366
ssbsg52
(dp373
sg51
g7
sbsI140514919961616
g0
(g176
g2
Ntp374
Rp375
(dp376
g49
I2
sg180
I2
sg181
g361
sg215
I2
sg216
g0
(g168
g2
Ntp377
Rp378
(dp379
g49
I1
sg120
Nsg172
g159
sg50
Nsg173
(I0
F-0.04861111111111111
tp380
sg51
g7
sg52
(dp381
I140514919961616
g375
ssbsg52
(dp382
sg51
g7
sbsI140514919961872
g0
(g176
g2
Ntp383
Rp384
(dp385
g49
I2
sg180
I2
sg181
g361
sg215
I2
sg216
g0
(g168
g2
Ntp386
Rp387
(dp388
g49
I1
sg120
Nsg172
g159
sg50
Nsg173
(I0
F0.04861111111111111
tp389
sg51
g7
sg52
(dp390
I140514919961872
g384
ssbsg52
(dp391
sg51
g7
sbsI140514920017168
g0
(g176
g2
Ntp392
Rp393
(dp394
g49
I2
sg180
I2
sg181
g361
sg215
I2
sg216
g0
(g168
g2
Ntp395
Rp396
(dp397
g49
I1
sg120
Nsg172
g159
sg50
Nsg173
(I0
F0.04861111111111111
tp398
sg51
g7
sg52
(dp399
I140514920017168
g393
ssbsg52
(dp400
sg51
g7
sbsI140514919960976
g0
(g176
g2
Ntp401
Rp402
(dp403
g49
I2
sg180
I2
sg181
g361
sg215
I2
sg216
g0
(g168
g2
Ntp404
Rp405
(dp406
g49
I1
sg120
Nsg172
g159
sg50
Nsg173
(I0
F0.04722222222222222
tp407
sg51
g7
sg52
(dp408
I140514919960976
g402
ssbsg52
(dp409
sg51
g7
sbsI140514919963152
g0
(g176
g2
Ntp410
Rp411
(dp412
g49
I2
sg180
I2
sg181
g361
sg215
I2
sg216
g0
(g168
g2
Ntp413
Rp414
(dp415
g49
I1
sg120
Nsg172
g159
sg50
Nsg173
(I0
F0.04722222222222222
tp416
sg51
g7
sg52
(dp417
I140514919963152
g411
ssbsg52
(dp418
sg51
g7
sbsI140514920016592
g0
(g176
g2
Ntp419
Rp420
(dp421
g49
I2
sg180
I2
sg181
g361
sg215
I2
sg216
g0
(g168
g2
Ntp422
Rp423
(dp424
g49
I1
sg120
Nsg172
g159
sg50
Nsg173
(I0
F-0.04861111111111111
tp425
sg51
g7
sg52
(dp426
I140514920016592
g420
ssbsg52
(dp427
sg51
g7
sbsI140514919962896
g0
(g176
g2
Ntp428
Rp429
(dp430
g49
I2
sg180
I2
sg181
g361
sg215
I2
sg216
g0
(g168
g2
Ntp431
Rp432
(dp433
g49
I1
sg120
Nsg172
g159
sg50
Nsg173
(I0
F-0.04722222222222222
tp434
sg51
g7
sg52
(dp435
I140514919962896
g429
ssbsg52
(dp436
sg51
g7
sbssg51
g7
sbsI140514938833808
g290
ssg51
g7
sbsg76
g183
sg363
Nsg52
(dp437
I140514938855312
g0
(g176
g2
Ntp438
Rp439
(dp440
g49
I2
sg180
I2
sg181
g290
sg215
I2
sg216
g0
(g168
g2
Ntp441
Rp442
(dp443
g49
I1
sg120
Nsg172
g159
sg50
Nsg173
(F-0.04861111111111111
I0
tp444
sg51
g7
sg52
(dp445
I140514938855312
g439
ssbsg52
(dp446
sg51
g7
sbsI140514920178640
g0
(g176
g2
Ntp447
Rp448
(dp449
g49
I2
sg180
I2
sg181
g290
sg215
I2
sg216
g0
(g168
g2
Ntp450
Rp451
(dp452
g49
I1
sg120
Nsg172
g159
sg50
Nsg173
(F-0.04861111111111111
I0
tp453
sg51
g7
sg52
(dp454
I140514920178640
g448
ssbsg52
(dp455
sg51
g7
sbsI140514938853392
g0
(g176
g2
Ntp456
Rp457
(dp458
g49
I2
sg180
I2
sg181
g290
sg215
I2
sg216
g0
(g168
g2
Ntp459
Rp460
(dp461
g49
I1
sg120
Nsg172
g159
sg50
Nsg173
(F0.04722222222222222
I0
tp462
sg51
g7
sg52
(dp463
I140514938853392
g457
ssbsg52
(dp464
sg51
g7
sbsI140514938854672
g0
(g176
g2
Ntp465
Rp466
(dp467
g49
I2
sg180
I2
sg181
g290
sg215
I2
sg216
g0
(g168
g2
Ntp468
Rp469
(dp470
g49
I1
sg120
Nsg172
g159
sg50
Nsg173
(F0.04861111111111111
I0
tp471
sg51
g7
sg52
(dp472
I140514938854672
g466
ssbsg52
(dp473
sg51
g7
sbsI140514920178704
g0
(g176
g2
Ntp474
Rp475
(dp476
g49
I2
sg180
I2
sg181
g290
sg215
I2
sg216
g0
(g168
g2
Ntp477
Rp478
(dp479
g49
I1
sg120
Nsg172
g159
sg50
Nsg173
(F0.04861111111111111
I0
tp480
sg51
g7
sg52
(dp481
I140514920178704
g475
ssbsg52
(dp482
sg51
g7
sbsI140514938853776
g0
(g176
g2
Ntp483
Rp484
(dp485
g49
I2
sg180
I2
sg181
g290
sg215
I2
sg216
g0
(g168
g2
Ntp486
Rp487
(dp488
g49
I1
sg120
Nsg172
g159
sg50
Nsg173
(F-0.04722222222222222
I0
tp489
sg51
g7
sg52
(dp490
I140514938853776
g484
ssbsg52
(dp491
sg51
g7
sbsI140514920014288
g0
(g176
g2
Ntp492
Rp493
(dp494
g49
I2
sg180
I2
sg181
g290
sg215
I2
sg216
g0
(g168
g2
Ntp495
Rp496
(dp497
g49
I1
sg120
Nsg172
g159
sg50
Nsg173
(F-0.04722222222222222
I0
tp498
sg51
g7
sg52
(dp499
I140514920014288
g493
ssbsg52
(dp500
sg51
g7
sbsI140514920014352
g0
(g176
g2
Ntp501
Rp502
(dp503
g49
I2
sg180
I2
sg181
g290
sg215
I2
sg216
g0
(g168
g2
Ntp504
Rp505
(dp506
g49
I1
sg120
Nsg172
g159
sg50
Nsg173
(F0.04722222222222222
I0
tp507
sg51
g7
sg52
(dp508
I140514920014352
g502
ssbsg52
(dp509
sg51
g7
sbssg51
g7
sbsI140514919960784
g0
(g176
g2
Ntp510
Rp511
(dp512
g49
I2
sg180
I2
sg181
g0
(g176
g2
Ntp513
Rp514
(dp515
g49
I1
sg180
I2
sg181
g0
(g116
g2
Ntp516
Rp517
(dp518
g49
I1
sg120
Nsg50
Nsg121
g0
(g127
g2
Ntp519
Rp520
(dp521
g49
I1
sg131
g132
(g133
(I0
tp522
g135
tp523
Rp524
(I1
(I2
tp525
g59
I00
S'\x00\x00\x00\x00\x00\x00\xf0\x7f\x00\x00\x00\x00\x00\x00\xf0\x7f'
p526
tp527
bsg52
(dp528
I140514919961552
g517
ssg142
g132
(g133
(I0
tp529
g135
tp530
Rp531
(I1
(I2
I2
tp532
g59
I00
S'\x00\x00\x00\x00\x00\x00\x00\x00\x00\x00\x00\x00\x00\x00\x00\x00\x00\x00\x00\x00\x00\x00\xf0?\x00\x00\x00\x00\x00\x00\xf0?'
p533
tp534
bsg149
g132
(g133
(I0
tp535
g135
tp536
Rp537
(I1
(I2
I2
tp538
g59
I00
S'\x00\x00\x00\x00\x00\x00\x00\x00\x00\x00\x00\x00\x00\x00\x00\x00\x00\x00\x00\x00\x00\x00\xf0?\x00\x00\x00\x00\x00\x00\xf0?'
p539
tp540
bsg156
I01
sg51
g7
sbsg52
(dp541
I140514920180560
g514
ssg51
g7
sbsg215
I2
sg216
g0
(g157
g2
Ntp542
Rp543
(dp544
g49
I2
sg50
Nsg120
g132
(g133
(I0
tp545
g135
tp546
Rp547
(I1
(I3
I3
tp548
g59
I00
S'\x00\x00\x00\x00\x00\x00\xf0?\x00\x00\x00\x00\x00\x00\x00\x00\x00\x00\x00\x00\x00\x00\x00\x00\x00\x00\x00\x00\x00\x00\x00\x00\x00\x00\x00\x00\x00\x00\xf0?\x00\x00\x00\x00\x00\x00\x00\x00\x00\x00\x00\x00\x00\x00\x00\x00\x00\x00\x00\x00\x00\x00\x00\x00\x00\x00\x00\x00\x00\x00\xf0?'
p549
tp550
bsg51
g7
sg52
(dp551
I140514920180560
g514
ssbsg52
(dp552
I140514919960784
g511
ssg51
g7
sbsg215
I2
sg216
g183
sg52
(dp553
I140514919960848
g0
(g122
g2
Ntp554
Rp555
(dp556
g49
I2
sg126
g0
(g127
g2
Ntp557
Rp558
(dp559
g49
I1
sg131
g132
(g133
(I0
tp560
g135
tp561
Rp562
(I1
(I2
tp563
g59
I00
S'\x00\x00\x00\x00\x00\x00\xf0\x7f\x00\x00\x00\x00\x00\x00\xf0\x7f'
p564
tp565
bsg52
(dp566
I140514919960848
g555
ssg142
g132
(g133
(I0
tp567
g135
tp568
Rp569
(I1
(I2
I2
tp570
g59
I00
S'\x00\x00\x00\x00\x00\x00\x00\x00\x00\x00\x00\x00\x00\x00\x00\x00\x00\x00\x00\x00\x00\x00\xf0?\x00\x00\x00\x00\x00\x00\xf0?'
p571
tp572
bsg149
g132
(g133
(I0
tp573
g135
tp574
Rp575
(I1
(I2
I2
tp576
g59
I00
S'\x00\x00\x00\x00\x00\x00\x00\x00\x00\x00\x00\x00\x00\x00\x00\x00\x00\x00\x00\x00\x00\x00\xf0?\x00\x00\x00\x00\x00\x00\xf0?'
p577
tp578
bsg156
I01
sg51
g7
sbsg115
g511
sg149
Nsg52
(dp579
sg51
g7
sbssg51
g7
sbsI140514926036432
g0
(g340
g2
Ntp580
Rp581
(dp582
g49
I2
sg120
Nsg75
g0
(g45
g2
Ntp583
Rp584
(dp585
g49
I1
sg50
Nsg51
g7
sg52
(dp586
I140514926036432
g581
ssbsg76
g183
sg50
Nsg51
g7
sg52
(dp587
sbsI140514940741136
g0
(g176
g2
Ntp588
Rp589
(dp590
g49
I2
sg180
I2
sg181
g0
(g176
g2
Ntp591
Rp592
(dp593
g49
I1
sg180
I2
sg181
g0
(g116
g2
Ntp594
Rp595
(dp596
g49
I1
sg120
Nsg50
Nsg121
g0
(g127
g2
Ntp597
Rp598
(dp599
g49
I1
sg131
g132
(g133
(I0
tp600
g135
tp601
Rp602
(I1
(I2
tp603
g59
I00
S'\x00\x00\x00\x00\x00\x00\xf0\x7f\x00\x00\x00\x00\x00\x00\xf0\x7f'
p604
tp605
bsg52
(dp606
I140514940741008
g595
ssg142
g132
(g133
(I0
tp607
g135
tp608
Rp609
(I1
(I2
I2
tp610
g59
I00
S'\x00\x00\x00\x00\x00\x00\x00\x00\x00\x00\x00\x00\x00\x00\x00\x00\x00\x00\x00\x00\x00\x00\xf0?\x00\x00\x00\x00\x00\x00\xf0?'
p611
tp612
bsg149
g132
(g133
(I0
tp613
g135
tp614
Rp615
(I1
(I2
I2
tp616
g59
I00
S'\x00\x00\x00\x00\x00\x00\x00\x00\x00\x00\x00\x00\x00\x00\x00\x00\x00\x00\x00\x00\x00\x00\xf0?\x00\x00\x00\x00\x00\x00\xf0?'
p617
tp618
bsg156
I01
sg51
g7
sbsg52
(dp619
I140514940741072
g592
ssg51
g7
sbsg215
I2
sg216
g0
(g157
g2
Ntp620
Rp621
(dp622
g49
I2
sg50
Nsg120
g132
(g133
(I0
tp623
g135
tp624
Rp625
(I1
(I3
I3
tp626
g59
I00
S'\x00\x00\x00\x00\x00\x00\xf0?\x00\x00\x00\x00\x00\x00\x00\x00\x00\x00\x00\x00\x00\x00\x00\x00\x00\x00\x00\x00\x00\x00\x00\x00\x00\x00\x00\x00\x00\x00\xf0?\x00\x00\x00\x00\x00\x00\x00\x00\x00\x00\x00\x00\x00\x00\x00\x00\x00\x00\x00\x00\x00\x00\x00\x00\x00\x00\x00\x00\x00\x00\xf0?'
p627
tp628
bsg51
g7
sg52
(dp629
I140514940741072
g592
ssbsg52
(dp630
I140514940741136
g589
ssg51
g7
sbsg215
I2
sg216
g183
sg52
(dp631
I140514940741200
g0
(g122
g2
Ntp632
Rp633
(dp634
g49
I2
sg126
g0
(g127
g2
Ntp635
Rp636
(dp637
g49
I1
sg131
g132
(g133
(I0
tp638
g135
tp639
Rp640
(I1
(I2
tp641
g59
I00
S'\x00\x00\x00\x00\x00\x00\xf0\x7f\x00\x00\x00\x00\x00\x00\xf0\x7f'
p642
tp643
bsg52
(dp644
I140514940741200
g633
ssg142
g132
(g133
(I0
tp645
g135
tp646
Rp647
(I1
(I2
I2
tp648
g59
I00
S'\x00\x00\x00\x00\x00\x00\x00\x00\x00\x00\x00\x00\x00\x00\x00\x00\x00\x00\x00\x00\x00\x00\xf0?\x00\x00\x00\x00\x00\x00\xf0?'
p649
tp650
bsg149
g132
(g133
(I0
tp651
g135
tp652
Rp653
(I1
(I2
I2
tp654
g59
I00
S'\x00\x00\x00\x00\x00\x00\x00\x00\x00\x00\x00\x00\x00\x00\x00\x00\x00\x00\x00\x00\x00\x00\xf0?\x00\x00\x00\x00\x00\x00\xf0?'
p655
tp656
bsg156
I01
sg51
g7
sbsg115
g589
sg149
Nsg52
(dp657
sg51
g7
sbssg51
g7
sbsI140514940740240
g0
(g176
g2
Ntp658
Rp659
(dp660
g49
I2
sg180
I2
sg181
g0
(g176
g2
Ntp661
Rp662
(dp663
g49
I1
sg180
I2
sg181
g0
(g116
g2
Ntp664
Rp665
(dp666
g49
I1
sg120
Nsg50
Nsg121
g0
(g127
g2
Ntp667
Rp668
(dp669
g49
I1
sg131
g132
(g133
(I0
tp670
g135
tp671
Rp672
(I1
(I2
tp673
g59
I00
S'\x00\x00\x00\x00\x00\x00\xf0\x7f\x00\x00\x00\x00\x00\x00\xf0\x7f'
p674
tp675
bsg52
(dp676
I140514940740112
g665
ssg142
g132
(g133
(I0
tp677
g135
tp678
Rp679
(I1
(I2
I2
tp680
g59
I00
S'\x00\x00\x00\x00\x00\x00\x00\x00\x00\x00\x00\x00\x00\x00\x00\x00\x00\x00\x00\x00\x00\x00\xf0?\x00\x00\x00\x00\x00\x00\xf0?'
p681
tp682
bsg149
g132
(g133
(I0
tp683
g135
tp684
Rp685
(I1
(I2
I2
tp686
g59
I00
S'\x00\x00\x00\x00\x00\x00\x00\x00\x00\x00\x00\x00\x00\x00\x00\x00\x00\x00\x00\x00\x00\x00\xf0?\x00\x00\x00\x00\x00\x00\xf0?'
p687
tp688
bsg156
I01
sg51
g7
sbsg52
(dp689
I140514940740176
g662
ssg51
g7
sbsg215
I2
sg216
g0
(g157
g2
Ntp690
Rp691
(dp692
g49
I2
sg50
Nsg120
g132
(g133
(I0
tp693
g135
tp694
Rp695
(I1
(I3
I3
tp696
g59
I00
S'\x00\x00\x00\x00\x00\x00\xf0?\x00\x00\x00\x00\x00\x00\x00\x00\x00\x00\x00\x00\x00\x00\x00\x00\x00\x00\x00\x00\x00\x00\x00\x00\x00\x00\x00\x00\x00\x00\xf0?\x00\x00\x00\x00\x00\x00\x00\x00\x00\x00\x00\x00\x00\x00\x00\x00\x00\x00\x00\x00\x00\x00\x00\x00\x00\x00\x00\x00\x00\x00\xf0?'
p697
tp698
bsg51
g7
sg52
(dp699
I140514940740176
g662
ssbsg52
(dp700
I140514940740240
g659
ssg51
g7
sbsg215
I2
sg216
g183
sg52
(dp701
I140514940740304
g0
(g122
g2
Ntp702
Rp703
(dp704
g49
I2
sg126
g0
(g127
g2
Ntp705
Rp706
(dp707
g49
I1
sg131
g132
(g133
(I0
tp708
g135
tp709
Rp710
(I1
(I2
tp711
g59
I00
S'\x00\x00\x00\x00\x00\x00\xf0\x7f\x00\x00\x00\x00\x00\x00\xf0\x7f'
p712
tp713
bsg52
(dp714
I140514940740304
g703
ssg142
g132
(g133
(I0
tp715
g135
tp716
Rp717
(I1
(I2
I2
tp718
g59
I00
S'\x00\x00\x00\x00\x00\x00\x00\x00\x00\x00\x00\x00\x00\x00\x00\x00\x00\x00\x00\x00\x00\x00\xf0?\x00\x00\x00\x00\x00\x00\xf0?'
p719
tp720
bsg149
g132
(g133
(I0
tp721
g135
tp722
Rp723
(I1
(I2
I2
tp724
g59
I00
S'\x00\x00\x00\x00\x00\x00\x00\x00\x00\x00\x00\x00\x00\x00\x00\x00\x00\x00\x00\x00\x00\x00\xf0?\x00\x00\x00\x00\x00\x00\xf0?'
p725
tp726
bsg156
I01
sg51
g7
sbsg115
g659
sg149
Nsg52
(dp727
sg51
g7
sbssg51
g7
sbsI140514940741584
g0
(g176
g2
Ntp728
Rp729
(dp730
g49
I2
sg180
I2
sg181
g0
(g176
g2
Ntp731
Rp732
(dp733
g49
I1
sg180
I2
sg181
g0
(g116
g2
Ntp734
Rp735
(dp736
g49
I1
sg120
Nsg50
Nsg121
g0
(g127
g2
Ntp737
Rp738
(dp739
g49
I1
sg131
g132
(g133
(I0
tp740
g135
tp741
Rp742
(I1
(I2
tp743
g59
I00
S'\x00\x00\x00\x00\x00\x00\xf0\x7f\x00\x00\x00\x00\x00\x00\xf0\x7f'
p744
tp745
bsg52
(dp746
I140514940741456
g735
ssg142
g132
(g133
(I0
tp747
g135
tp748
Rp749
(I1
(I2
I2
tp750
g59
I00
S'\x00\x00\x00\x00\x00\x00\x00\x00\x00\x00\x00\x00\x00\x00\x00\x00\x00\x00\x00\x00\x00\x00\xf0?\x00\x00\x00\x00\x00\x00\xf0?'
p751
tp752
bsg149
g132
(g133
(I0
tp753
g135
tp754
Rp755
(I1
(I2
I2
tp756
g59
I00
S'\x00\x00\x00\x00\x00\x00\x00\x00\x00\x00\x00\x00\x00\x00\x00\x00\x00\x00\x00\x00\x00\x00\xf0?\x00\x00\x00\x00\x00\x00\xf0?'
p757
tp758
bsg156
I01
sg51
g7
sbsg52
(dp759
I140514940741520
g732
ssg51
g7
sbsg215
I2
sg216
g0
(g157
g2
Ntp760
Rp761
(dp762
g49
I2
sg50
Nsg120
g132
(g133
(I0
tp763
g135
tp764
Rp765
(I1
(I3
I3
tp766
g59
I00
S'\x00\x00\x00\x00\x00\x00\xf0?\x00\x00\x00\x00\x00\x00\x00\x00\x00\x00\x00\x00\x00\x00\x00\x00\x00\x00\x00\x00\x00\x00\x00\x00\x00\x00\x00\x00\x00\x00\xf0?\x00\x00\x00\x00\x00\x00\x00\x00\x00\x00\x00\x00\x00\x00\x00\x00\x00\x00\x00\x00\x00\x00\x00\x00\x00\x00\x00\x00\x00\x00\xf0?'
p767
tp768
bsg51
g7
sg52
(dp769
I140514940741520
g732
ssbsg52
(dp770
I140514940741584
g729
ssg51
g7
sbsg215
I2
sg216
g183
sg52
(dp771
I140514940741648
g0
(g122
g2
Ntp772
Rp773
(dp774
g49
I2
sg126
g0
(g127
g2
Ntp775
Rp776
(dp777
g49
I1
sg131
g132
(g133
(I0
tp778
g135
tp779
Rp780
(I1
(I2
tp781
g59
I00
S'\x00\x00\x00\x00\x00\x00\xf0\x7f\x00\x00\x00\x00\x00\x00\xf0\x7f'
p782
tp783
bsg52
(dp784
I140514940741648
g773
ssg142
g132
(g133
(I0
tp785
g135
tp786
Rp787
(I1
(I2
I2
tp788
g59
I00
S'\x00\x00\x00\x00\x00\x00\x00\x00\x00\x00\x00\x00\x00\x00\x00\x00\x00\x00\x00\x00\x00\x00\xf0?\x00\x00\x00\x00\x00\x00\xf0?'
p789
tp790
bsg149
g132
(g133
(I0
tp791
g135
tp792
Rp793
(I1
(I2
I2
tp794
g59
I00
S'\x00\x00\x00\x00\x00\x00\x00\x00\x00\x00\x00\x00\x00\x00\x00\x00\x00\x00\x00\x00\x00\x00\xf0?\x00\x00\x00\x00\x00\x00\xf0?'
p795
tp796
bsg156
I01
sg51
g7
sbsg115
g729
sg149
Nsg52
(dp797
sg51
g7
sbssg51
g7
sbsI140514926630928
g0
(g340
g2
Ntp798
Rp799
(dp800
g49
I2
sg120
Nsg75
g0
(g45
g2
Ntp801
Rp802
(dp803
g49
I1
sg50
Nsg51
g7
sg52
(dp804
I140514926630928
g799
ssbsg76
g183
sg50
Nsg51
g7
sg52
(dp805
sbsI140514940741968
g0
(g176
g2
Ntp806
Rp807
(dp808
g49
I2
sg180
I2
sg181
g0
(g176
g2
Ntp809
Rp810
(dp811
g49
I1
sg180
I2
sg181
g0
(g116
g2
Ntp812
Rp813
(dp814
g49
I1
sg120
Nsg50
Nsg121
g0
(g127
g2
Ntp815
Rp816
(dp817
g49
I1
sg131
g132
(g133
(I0
tp818
g135
tp819
Rp820
(I1
(I2
tp821
g59
I00
S'\x00\x00\x00\x00\x00\x00\xf0\x7f\x00\x00\x00\x00\x00\x00\xf0\x7f'
p822
tp823
bsg52
(dp824
I140514940741840
g813
ssg142
g132
(g133
(I0
tp825
g135
tp826
Rp827
(I1
(I2
I2
tp828
g59
I00
S'\x00\x00\x00\x00\x00\x00\x00\x00\x00\x00\x00\x00\x00\x00\x00\x00\x00\x00\x00\x00\x00\x00\xf0?\x00\x00\x00\x00\x00\x00\xf0?'
p829
tp830
bsg149
g132
(g133
(I0
tp831
g135
tp832
Rp833
(I1
(I2
I2
tp834
g59
I00
S'\x00\x00\x00\x00\x00\x00\x00\x00\x00\x00\x00\x00\x00\x00\x00\x00\x00\x00\x00\x00\x00\x00\xf0?\x00\x00\x00\x00\x00\x00\xf0?'
p835
tp836
bsg156
I01
sg51
g7
sbsg52
(dp837
I140514940741904
g810
ssg51
g7
sbsg215
I2
sg216
g0
(g157
g2
Ntp838
Rp839
(dp840
g49
I2
sg50
Nsg120
g132
(g133
(I0
tp841
g135
tp842
Rp843
(I1
(I3
I3
tp844
g59
I00
S'\x00\x00\x00\x00\x00\x00\xf0?\x00\x00\x00\x00\x00\x00\x00\x00\x00\x00\x00\x00\x00\x00\x00\x00\x00\x00\x00\x00\x00\x00\x00\x00\x00\x00\x00\x00\x00\x00\xf0?\x00\x00\x00\x00\x00\x00\x00\x00\x00\x00\x00\x00\x00\x00\x00\x00\x00\x00\x00\x00\x00\x00\x00\x00\x00\x00\x00\x00\x00\x00\xf0?'
p845
tp846
bsg51
g7
sg52
(dp847
I140514940741904
g810
ssbsg52
(dp848
I140514940741968
g807
ssg51
g7
sbsg215
I2
sg216
g183
sg52
(dp849
I140514940742032
g0
(g122
g2
Ntp850
Rp851
(dp852
g49
I2
sg126
g0
(g127
g2
Ntp853
Rp854
(dp855
g49
I1
sg131
g132
(g133
(I0
tp856
g135
tp857
Rp858
(I1
(I2
tp859
g59
I00
S'\x00\x00\x00\x00\x00\x00\xf0\x7f\x00\x00\x00\x00\x00\x00\xf0\x7f'
p860
tp861
bsg52
(dp862
I140514940742032
g851
ssg142
g132
(g133
(I0
tp863
g135
tp864
Rp865
(I1
(I2
I2
tp866
g59
I00
S'\x00\x00\x00\x00\x00\x00\x00\x00\x00\x00\x00\x00\x00\x00\x00\x00\x00\x00\x00\x00\x00\x00\xf0?\x00\x00\x00\x00\x00\x00\xf0?'
p867
tp868
bsg149
g132
(g133
(I0
tp869
g135
tp870
Rp871
(I1
(I2
I2
tp872
g59
I00
S'\x00\x00\x00\x00\x00\x00\x00\x00\x00\x00\x00\x00\x00\x00\x00\x00\x00\x00\x00\x00\x00\x00\xf0?\x00\x00\x00\x00\x00\x00\xf0?'
p873
tp874
bsg156
I01
sg51
g7
sbsg115
g807
sg149
Nsg52
(dp875
sg51
g7
sbssg51
g7
sbsI140514940888592
g0
(g176
g2
Ntp876
Rp877
(dp878
g49
I2
sg180
I2
sg181
g0
(g176
g2
Ntp879
Rp880
(dp881
g49
I1
sg180
I2
sg181
g0
(g116
g2
Ntp882
Rp883
(dp884
g49
I1
sg120
Nsg50
Nsg121
g0
(g127
g2
Ntp885
Rp886
(dp887
g49
I1
sg131
g132
(g133
(I0
tp888
g135
tp889
Rp890
(I1
(I2
tp891
g59
I00
S'\x00\x00\x00\x00\x00\x00\xf0\x7f\x00\x00\x00\x00\x00\x00\xf0\x7f'
p892
tp893
bsg52
(dp894
I140514940888464
g883
ssg142
g132
(g133
(I0
tp895
g135
tp896
Rp897
(I1
(I2
I2
tp898
g59
I00
S'\x00\x00\x00\x00\x00\x00\x00\x00\x00\x00\x00\x00\x00\x00\x00\x00\x00\x00\x00\x00\x00\x00\xf0?\x00\x00\x00\x00\x00\x00\xf0?'
p899
tp900
bsg149
g132
(g133
(I0
tp901
g135
tp902
Rp903
(I1
(I2
I2
tp904
g59
I00
S'\x00\x00\x00\x00\x00\x00\x00\x00\x00\x00\x00\x00\x00\x00\x00\x00\x00\x00\x00\x00\x00\x00\xf0?\x00\x00\x00\x00\x00\x00\xf0?'
p905
tp906
bsg156
I01
sg51
g7
sbsg52
(dp907
I140514940888528
g880
ssg51
g7
sbsg215
I2
sg216
g0
(g157
g2
Ntp908
Rp909
(dp910
g49
I2
sg50
Nsg120
g132
(g133
(I0
tp911
g135
tp912
Rp913
(I1
(I3
I3
tp914
g59
I00
S'\x00\x00\x00\x00\x00\x00\xf0?\x00\x00\x00\x00\x00\x00\x00\x00\x00\x00\x00\x00\x00\x00\x00\x00\x00\x00\x00\x00\x00\x00\x00\x00\x00\x00\x00\x00\x00\x00\xf0?\x00\x00\x00\x00\x00\x00\x00\x00\x00\x00\x00\x00\x00\x00\x00\x00\x00\x00\x00\x00\x00\x00\x00\x00\x00\x00\x00\x00\x00\x00\xf0?'
p915
tp916
bsg51
g7
sg52
(dp917
I140514940888528
g880
ssbsg52
(dp918
I140514940888592
g877
ssg51
g7
sbsg215
I2
sg216
g183
sg52
(dp919
I140514940888656
g0
(g122
g2
Ntp920
Rp921
(dp922
g49
I2
sg126
g0
(g127
g2
Ntp923
Rp924
(dp925
g49
I1
sg131
g132
(g133
(I0
tp926
g135
tp927
Rp928
(I1
(I2
tp929
g59
I00
S'\x00\x00\x00\x00\x00\x00\xf0\x7f\x00\x00\x00\x00\x00\x00\xf0\x7f'
p930
tp931
bsg52
(dp932
I140514940888656
g921
ssg142
g132
(g133
(I0
tp933
g135
tp934
Rp935
(I1
(I2
I2
tp936
g59
I00
S'\x00\x00\x00\x00\x00\x00\x00\x00\x00\x00\x00\x00\x00\x00\x00\x00\x00\x00\x00\x00\x00\x00\xf0?\x00\x00\x00\x00\x00\x00\xf0?'
p937
tp938
bsg149
g132
(g133
(I0
tp939
g135
tp940
Rp941
(I1
(I2
I2
tp942
g59
I00
S'\x00\x00\x00\x00\x00\x00\x00\x00\x00\x00\x00\x00\x00\x00\x00\x00\x00\x00\x00\x00\x00\x00\xf0?\x00\x00\x00\x00\x00\x00\xf0?'
p943
tp944
bsg156
I01
sg51
g7
sbsg115
g877
sg149
Nsg52
(dp945
sg51
g7
sbssg51
g7
sbsI140514940889040
g0
(g176
g2
Ntp946
Rp947
(dp948
g49
I2
sg180
I2
sg181
g0
(g176
g2
Ntp949
Rp950
(dp951
g49
I1
sg180
I2
sg181
g0
(g116
g2
Ntp952
Rp953
(dp954
g49
I1
sg120
Nsg50
Nsg121
g0
(g127
g2
Ntp955
Rp956
(dp957
g49
I1
sg131
g132
(g133
(I0
tp958
g135
tp959
Rp960
(I1
(I2
tp961
g59
I00
S'\x00\x00\x00\x00\x00\x00\xf0\x7f\x00\x00\x00\x00\x00\x00\xf0\x7f'
p962
tp963
bsg52
(dp964
I140514940888912
g953
ssg142
g132
(g133
(I0
tp965
g135
tp966
Rp967
(I1
(I2
I2
tp968
g59
I00
S'\x00\x00\x00\x00\x00\x00\x00\x00\x00\x00\x00\x00\x00\x00\x00\x00\x00\x00\x00\x00\x00\x00\xf0?\x00\x00\x00\x00\x00\x00\xf0?'
p969
tp970
bsg149
g132
(g133
(I0
tp971
g135
tp972
Rp973
(I1
(I2
I2
tp974
g59
I00
S'\x00\x00\x00\x00\x00\x00\x00\x00\x00\x00\x00\x00\x00\x00\x00\x00\x00\x00\x00\x00\x00\x00\xf0?\x00\x00\x00\x00\x00\x00\xf0?'
p975
tp976
bsg156
I01
sg51
g7
sbsg52
(dp977
I140514940888976
g950
ssg51
g7
sbsg215
I2
sg216
g0
(g157
g2
Ntp978
Rp979
(dp980
g49
I2
sg50
Nsg120
g132
(g133
(I0
tp981
g135
tp982
Rp983
(I1
(I3
I3
tp984
g59
I00
S'\x00\x00\x00\x00\x00\x00\xf0?\x00\x00\x00\x00\x00\x00\x00\x00\x00\x00\x00\x00\x00\x00\x00\x00\x00\x00\x00\x00\x00\x00\x00\x00\x00\x00\x00\x00\x00\x00\xf0?\x00\x00\x00\x00\x00\x00\x00\x00\x00\x00\x00\x00\x00\x00\x00\x00\x00\x00\x00\x00\x00\x00\x00\x00\x00\x00\x00\x00\x00\x00\xf0?'
p985
tp986
bsg51
g7
sg52
(dp987
I140514940888976
g950
ssbsg52
(dp988
I140514940889040
g947
ssg51
g7
sbsg215
I2
sg216
g183
sg52
(dp989
I140514940889104
g0
(g122
g2
Ntp990
Rp991
(dp992
g49
I2
sg126
g0
(g127
g2
Ntp993
Rp994
(dp995
g49
I1
sg131
g132
(g133
(I0
tp996
g135
tp997
Rp998
(I1
(I2
tp999
g59
I00
S'\x00\x00\x00\x00\x00\x00\xf0\x7f\x00\x00\x00\x00\x00\x00\xf0\x7f'
p1000
tp1001
bsg52
(dp1002
I140514940889104
g991
ssg142
g132
(g133
(I0
tp1003
g135
tp1004
Rp1005
(I1
(I2
I2
tp1006
g59
I00
S'\x00\x00\x00\x00\x00\x00\x00\x00\x00\x00\x00\x00\x00\x00\x00\x00\x00\x00\x00\x00\x00\x00\xf0?\x00\x00\x00\x00\x00\x00\xf0?'
p1007
tp1008
bsg149
g132
(g133
(I0
tp1009
g135
tp1010
Rp1011
(I1
(I2
I2
tp1012
g59
I00
S'\x00\x00\x00\x00\x00\x00\x00\x00\x00\x00\x00\x00\x00\x00\x00\x00\x00\x00\x00\x00\x00\x00\xf0?\x00\x00\x00\x00\x00\x00\xf0?'
p1013
tp1014
bsg156
I01
sg51
g7
sbsg115
g947
sg149
Nsg52
(dp1015
sg51
g7
sbssg51
g7
sbsI140514919963472
g0
(g176
g2
Ntp1016
Rp1017
(dp1018
g49
I2
sg180
I2
sg181
g0
(g176
g2
Ntp1019
Rp1020
(dp1021
g49
I1
sg180
I2
sg181
g0
(g116
g2
Ntp1022
Rp1023
(dp1024
g49
I1
sg120
Nsg50
Nsg121
g0
(g127
g2
Ntp1025
Rp1026
(dp1027
g49
I1
sg131
g132
(g133
(I0
tp1028
g135
tp1029
Rp1030
(I1
(I2
tp1031
g59
I00
S'\x00\x00\x00\x00\x00\x00\xf0\x7f\x00\x00\x00\x00\x00\x00\xf0\x7f'
p1032
tp1033
bsg52
(dp1034
I140514919963344
g1023
ssg142
g132
(g133
(I0
tp1035
g135
tp1036
Rp1037
(I1
(I2
I2
tp1038
g59
I00
S'\x00\x00\x00\x00\x00\x00\x00\x00\x00\x00\x00\x00\x00\x00\x00\x00\x00\x00\x00\x00\x00\x00\xf0?\x00\x00\x00\x00\x00\x00\xf0?'
p1039
tp1040
bsg149
g132
(g133
(I0
tp1041
g135
tp1042
Rp1043
(I1
(I2
I2
tp1044
g59
I00
S'\x00\x00\x00\x00\x00\x00\x00\x00\x00\x00\x00\x00\x00\x00\x00\x00\x00\x00\x00\x00\x00\x00\xf0?\x00\x00\x00\x00\x00\x00\xf0?'
p1045
tp1046
bsg156
I01
sg51
g7
sbsg52
(dp1047
I140514919963408
g1020
ssg51
g7
sbsg215
I2
sg216
g0
(g157
g2
Ntp1048
Rp1049
(dp1050
g49
I2
sg50
Nsg120
g132
(g133
(I0
tp1051
g135
tp1052
Rp1053
(I1
(I3
I3
tp1054
g59
I00
S'\x00\x00\x00\x00\x00\x00\xf0?\x00\x00\x00\x00\x00\x00\x00\x00\x00\x00\x00\x00\x00\x00\x00\x00\x00\x00\x00\x00\x00\x00\x00\x00\x00\x00\x00\x00\x00\x00\xf0?\x00\x00\x00\x00\x00\x00\x00\x00\x00\x00\x00\x00\x00\x00\x00\x00\x00\x00\x00\x00\x00\x00\x00\x00\x00\x00\x00\x00\x00\x00\xf0?'
p1055
tp1056
bsg51
g7
sg52
(dp1057
I140514919963408
g1020
ssbsg52
(dp1058
I140514919963472
g1017
ssg51
g7
sbsg215
I2
sg216
g183
sg52
(dp1059
I140514919963536
g0
(g122
g2
Ntp1060
Rp1061
(dp1062
g49
I2
sg126
g0
(g127
g2
Ntp1063
Rp1064
(dp1065
g49
I1
sg131
g132
(g133
(I0
tp1066
g135
tp1067
Rp1068
(I1
(I2
tp1069
g59
I00
S'\x00\x00\x00\x00\x00\x00\xf0\x7f\x00\x00\x00\x00\x00\x00\xf0\x7f'
p1070
tp1071
bsg52
(dp1072
I140514919963536
g1061
ssg142
g132
(g133
(I0
tp1073
g135
tp1074
Rp1075
(I1
(I2
I2
tp1076
g59
I00
S'\x00\x00\x00\x00\x00\x00\x00\x00\x00\x00\x00\x00\x00\x00\x00\x00\x00\x00\x00\x00\x00\x00\xf0?\x00\x00\x00\x00\x00\x00\xf0?'
p1077
tp1078
bsg149
g132
(g133
(I0
tp1079
g135
tp1080
Rp1081
(I1
(I2
I2
tp1082
g59
I00
S'\x00\x00\x00\x00\x00\x00\x00\x00\x00\x00\x00\x00\x00\x00\x00\x00\x00\x00\x00\x00\x00\x00\xf0?\x00\x00\x00\x00\x00\x00\xf0?'
p1083
tp1084
bsg156
I01
sg51
g7
sbsg115
g1017
sg149
Nsg52
(dp1085
sg51
g7
sbssg51
g7
sbsI140514920180688
g178
sI140514940742928
g0
(g176
g2
Ntp1086
Rp1087
(dp1088
g49
I2
sg180
I2
sg181
g0
(g176
g2
Ntp1089
Rp1090
(dp1091
g49
I1
sg180
I2
sg181
g0
(g116
g2
Ntp1092
Rp1093
(dp1094
g49
I1
sg120
Nsg50
Nsg121
g0
(g127
g2
Ntp1095
Rp1096
(dp1097
g49
I1
sg131
g132
(g133
(I0
tp1098
g135
tp1099
Rp1100
(I1
(I2
tp1101
g59
I00
S'\x00\x00\x00\x00\x00\x00\xf0\x7f\x00\x00\x00\x00\x00\x00\xf0\x7f'
p1102
tp1103
bsg52
(dp1104
I140514940742800
g1093
ssg142
g132
(g133
(I0
tp1105
g135
tp1106
Rp1107
(I1
(I2
I2
tp1108
g59
I00
S'\x00\x00\x00\x00\x00\x00\x00\x00\x00\x00\x00\x00\x00\x00\x00\x00\x00\x00\x00\x00\x00\x00\xf0?\x00\x00\x00\x00\x00\x00\xf0?'
p1109
tp1110
bsg149
g132
(g133
(I0
tp1111
g135
tp1112
Rp1113
(I1
(I2
I2
tp1114
g59
I00
S'\x00\x00\x00\x00\x00\x00\x00\x00\x00\x00\x00\x00\x00\x00\x00\x00\x00\x00\x00\x00\x00\x00\xf0?\x00\x00\x00\x00\x00\x00\xf0?'
p1115
tp1116
bsg156
I01
sg51
g7
sbsg52
(dp1117
I140514940742864
g1090
ssg51
g7
sbsg215
I2
sg216
g0
(g157
g2
Ntp1118
Rp1119
(dp1120
g49
I2
sg50
Nsg120
g132
(g133
(I0
tp1121
g135
tp1122
Rp1123
(I1
(I3
I3
tp1124
g59
I00
S'\x00\x00\x00\x00\x00\x00\xf0?\x00\x00\x00\x00\x00\x00\x00\x00\x00\x00\x00\x00\x00\x00\x00\x00\x00\x00\x00\x00\x00\x00\x00\x00\x00\x00\x00\x00\x00\x00\xf0?\x00\x00\x00\x00\x00\x00\x00\x00\x00\x00\x00\x00\x00\x00\x00\x00\x00\x00\x00\x00\x00\x00\x00\x00\x00\x00\x00\x00\x00\x00\xf0?'
p1125
tp1126
bsg51
g7
sg52
(dp1127
I140514940742864
g1090
ssbsg52
(dp1128
I140514940742928
g1087
ssg51
g7
sbsg215
I2
sg216
g183
sg52
(dp1129
I140514940742992
g0
(g122
g2
Ntp1130
Rp1131
(dp1132
g49
I2
sg126
g0
(g127
g2
Ntp1133
Rp1134
(dp1135
g49
I1
sg131
g132
(g133
(I0
tp1136
g135
tp1137
Rp1138
(I1
(I2
tp1139
g59
I00
S'\x00\x00\x00\x00\x00\x00\xf0\x7f\x00\x00\x00\x00\x00\x00\xf0\x7f'
p1140
tp1141
bsg52
(dp1142
I140514940742992
g1131
ssg142
g132
(g133
(I0
tp1143
g135
tp1144
Rp1145
(I1
(I2
I2
tp1146
g59
I00
S'\x00\x00\x00\x00\x00\x00\x00\x00\x00\x00\x00\x00\x00\x00\x00\x00\x00\x00\x00\x00\x00\x00\xf0?\x00\x00\x00\x00\x00\x00\xf0?'
p1147
tp1148
bsg149
g132
(g133
(I0
tp1149
g135
tp1150
Rp1151
(I1
(I2
I2
tp1152
g59
I00
S'\x00\x00\x00\x00\x00\x00\x00\x00\x00\x00\x00\x00\x00\x00\x00\x00\x00\x00\x00\x00\x00\x00\xf0?\x00\x00\x00\x00\x00\x00\xf0?'
p1153
tp1154
bsg156
I01
sg51
g7
sbsg115
g1087
sg149
Nsg52
(dp1155
sg51
g7
sbssg51
g7
sbsI140514938833744
g335
sI140514926632336
g0
(g340
g2
Ntp1156
Rp1157
(dp1158
g49
I2
sg120
Nsg75
g183
sg76
g0
(g45
g2
Ntp1159
Rp1160
(dp1161
g49
I1
sg50
Nsg51
g7
sg52
(dp1162
I140514926632336
g1157
ssbsg50
Nsg51
g7
sg52
(dp1163
sbsI140514940890576
g0
(g176
g2
Ntp1164
Rp1165
(dp1166
g49
I2
sg180
I2
sg181
g0
(g176
g2
Ntp1167
Rp1168
(dp1169
g49
I1
sg180
I2
sg181
g0
(g116
g2
Ntp1170
Rp1171
(dp1172
g49
I1
sg120
Nsg50
Nsg121
g0
(g127
g2
Ntp1173
Rp1174
(dp1175
g49
I1
sg131
g132
(g133
(I0
tp1176
g135
tp1177
Rp1178
(I1
(I2
tp1179
g59
I00
S'\x00\x00\x00\x00\x00\x00\xf0\x7f\x00\x00\x00\x00\x00\x00\xf0\x7f'
p1180
tp1181
bsg52
(dp1182
I140514940890384
g1171
ssg142
g132
(g133
(I0
tp1183
g135
tp1184
Rp1185
(I1
(I2
I2
tp1186
g59
I00
S'\x00\x00\x00\x00\x00\x00\x00\x00\x00\x00\x00\x00\x00\x00\x00\x00\x00\x00\x00\x00\x00\x00\xf0?\x00\x00\x00\x00\x00\x00\xf0?'
p1187
tp1188
bsg149
g132
(g133
(I0
tp1189
g135
tp1190
Rp1191
(I1
(I2
I2
tp1192
g59
I00
S'\x00\x00\x00\x00\x00\x00\x00\x00\x00\x00\x00\x00\x00\x00\x00\x00\x00\x00\x00\x00\x00\x00\xf0?\x00\x00\x00\x00\x00\x00\xf0?'
p1193
tp1194
bsg156
I01
sg51
g7
sbsg52
(dp1195
I140514940890512
g1168
ssg51
g7
sbsg215
I2
sg216
g0
(g157
g2
Ntp1196
Rp1197
(dp1198
g49
I2
sg50
Nsg120
g132
(g133
(I0
tp1199
g135
tp1200
Rp1201
(I1
(I3
I3
tp1202
g59
I00
S'\x00\x00\x00\x00\x00\x00\xf0?\x00\x00\x00\x00\x00\x00\x00\x00\x00\x00\x00\x00\x00\x00\x00\x00\x00\x00\x00\x00\x00\x00\x00\x00\x00\x00\x00\x00\x00\x00\xf0?\x00\x00\x00\x00\x00\x00\x00\x00\x00\x00\x00\x00\x00\x00\x00\x00\x00\x00\x00\x00\x00\x00\x00\x00\x00\x00\x00\x00\x00\x00\xf0?'
p1203
tp1204
bsg51
g7
sg52
(dp1205
I140514940890512
g1168
ssbsg52
(dp1206
I140514940890576
g1165
ssg51
g7
sbsg215
I2
sg216
g183
sg52
(dp1207
I140514940890704
g0
(g122
g2
Ntp1208
Rp1209
(dp1210
g49
I2
sg126
g0
(g127
g2
Ntp1211
Rp1212
(dp1213
g49
I1
sg131
g132
(g133
(I0
tp1214
g135
tp1215
Rp1216
(I1
(I2
tp1217
g59
I00
S'\x00\x00\x00\x00\x00\x00\xf0\x7f\x00\x00\x00\x00\x00\x00\xf0\x7f'
p1218
tp1219
bsg52
(dp1220
I140514940890704
g1209
ssg142
g132
(g133
(I0
tp1221
g135
tp1222
Rp1223
(I1
(I2
I2
tp1224
g59
I00
S'\x00\x00\x00\x00\x00\x00\x00\x00\x00\x00\x00\x00\x00\x00\x00\x00\x00\x00\x00\x00\x00\x00\xf0?\x00\x00\x00\x00\x00\x00\xf0?'
p1225
tp1226
bsg149
g132
(g133
(I0
tp1227
g135
tp1228
Rp1229
(I1
(I2
I2
tp1230
g59
I00
S'\x00\x00\x00\x00\x00\x00\x00\x00\x00\x00\x00\x00\x00\x00\x00\x00\x00\x00\x00\x00\x00\x00\xf0?\x00\x00\x00\x00\x00\x00\xf0?'
p1231
tp1232
bsg156
I01
sg51
g7
sbsg115
g1165
sg149
Nsg52
(dp1233
sg51
g7
sbssg51
g7
sbsI140514926038544
g0
(g340
g2
Ntp1234
Rp1235
(dp1236
g49
I2
sg120
Nsg75
g0
(g45
g2
Ntp1237
Rp1238
(dp1239
g49
I1
sg50
Nsg51
g7
sg52
(dp1240
I140514926038544
g1235
ssbsg76
g183
sg50
Nsg51
g7
sg52
(dp1241
sbsI140514919964368
g0
(g176
g2
Ntp1242
Rp1243
(dp1244
g49
I2
sg180
I2
sg181
g0
(g176
g2
Ntp1245
Rp1246
(dp1247
g49
I1
sg180
I2
sg181
g0
(g116
g2
Ntp1248
Rp1249
(dp1250
g49
I1
sg120
Nsg50
Nsg121
g0
(g127
g2
Ntp1251
Rp1252
(dp1253
g49
I1
sg131
g132
(g133
(I0
tp1254
g135
tp1255
Rp1256
(I1
(I2
tp1257
g59
I00
S'\x00\x00\x00\x00\x00\x00\xf0\x7f\x00\x00\x00\x00\x00\x00\xf0\x7f'
p1258
tp1259
bsg52
(dp1260
I140514919964240
g1249
ssg142
g132
(g133
(I0
tp1261
g135
tp1262
Rp1263
(I1
(I2
I2
tp1264
g59
I00
S'\x00\x00\x00\x00\x00\x00\x00\x00\x00\x00\x00\x00\x00\x00\x00\x00\x00\x00\x00\x00\x00\x00\xf0?\x00\x00\x00\x00\x00\x00\xf0?'
p1265
tp1266
bsg149
g132
(g133
(I0
tp1267
g135
tp1268
Rp1269
(I1
(I2
I2
tp1270
g59
I00
S'\x00\x00\x00\x00\x00\x00\x00\x00\x00\x00\x00\x00\x00\x00\x00\x00\x00\x00\x00\x00\x00\x00\xf0?\x00\x00\x00\x00\x00\x00\xf0?'
p1271
tp1272
bsg156
I01
sg51
g7
sbsg52
(dp1273
I140514919964304
g1246
ssg51
g7
sbsg215
I2
sg216
g0
(g157
g2
Ntp1274
Rp1275
(dp1276
g49
I2
sg50
Nsg120
g132
(g133
(I0
tp1277
g135
tp1278
Rp1279
(I1
(I3
I3
tp1280
g59
I00
S'\x00\x00\x00\x00\x00\x00\xf0?\x00\x00\x00\x00\x00\x00\x00\x00\x00\x00\x00\x00\x00\x00\x00\x00\x00\x00\x00\x00\x00\x00\x00\x00\x00\x00\x00\x00\x00\x00\xf0?\x00\x00\x00\x00\x00\x00\x00\x00\x00\x00\x00\x00\x00\x00\x00\x00\x00\x00\x00\x00\x00\x00\x00\x00\x00\x00\x00\x00\x00\x00\xf0?'
p1281
tp1282
bsg51
g7
sg52
(dp1283
I140514919964304
g1246
ssbsg52
(dp1284
I140514919964368
g1243
ssg51
g7
sbsg215
I2
sg216
g183
sg52
(dp1285
I140514919964432
g0
(g122
g2
Ntp1286
Rp1287
(dp1288
g49
I2
sg126
g0
(g127
g2
Ntp1289
Rp1290
(dp1291
g49
I1
sg131
g132
(g133
(I0
tp1292
g135
tp1293
Rp1294
(I1
(I2
tp1295
g59
I00
S'\x00\x00\x00\x00\x00\x00\xf0\x7f\x00\x00\x00\x00\x00\x00\xf0\x7f'
p1296
tp1297
bsg52
(dp1298
I140514919964432
g1287
ssg142
g132
(g133
(I0
tp1299
g135
tp1300
Rp1301
(I1
(I2
I2
tp1302
g59
I00
S'\x00\x00\x00\x00\x00\x00\x00\x00\x00\x00\x00\x00\x00\x00\x00\x00\x00\x00\x00\x00\x00\x00\xf0?\x00\x00\x00\x00\x00\x00\xf0?'
p1303
tp1304
bsg149
g132
(g133
(I0
tp1305
g135
tp1306
Rp1307
(I1
(I2
I2
tp1308
g59
I00
S'\x00\x00\x00\x00\x00\x00\x00\x00\x00\x00\x00\x00\x00\x00\x00\x00\x00\x00\x00\x00\x00\x00\xf0?\x00\x00\x00\x00\x00\x00\xf0?'
p1309
tp1310
bsg156
I01
sg51
g7
sbsg115
g1243
sg149
Nsg52
(dp1311
sg51
g7
sbssg51
g7
sbsI140514938833616
g361
sI140514920181648
g0
(g176
g2
Ntp1312
Rp1313
(dp1314
g49
I2
sg180
I2
sg181
g183
sg215
I2
sg216
g170
sg52
(dp1315
sg51
g7
sbsI140514940887248
g0
(g176
g2
Ntp1316
Rp1317
(dp1318
g49
I2
sg180
I2
sg181
g0
(g176
g2
Ntp1319
Rp1320
(dp1321
g49
I1
sg180
I2
sg181
g0
(g116
g2
Ntp1322
Rp1323
(dp1324
g49
I1
sg120
Nsg50
Nsg121
g0
(g127
g2
Ntp1325
Rp1326
(dp1327
g49
I1
sg131
g132
(g133
(I0
tp1328
g135
tp1329
Rp1330
(I1
(I2
tp1331
g59
I00
S'\x00\x00\x00\x00\x00\x00\xf0\x7f\x00\x00\x00\x00\x00\x00\xf0\x7f'
p1332
tp1333
bsg52
(dp1334
I140514940887120
g1323
ssg142
g132
(g133
(I0
tp1335
g135
tp1336
Rp1337
(I1
(I2
I2
tp1338
g59
I00
S'\x00\x00\x00\x00\x00\x00\x00\x00\x00\x00\x00\x00\x00\x00\x00\x00\x00\x00\x00\x00\x00\x00\xf0?\x00\x00\x00\x00\x00\x00\xf0?'
p1339
tp1340
bsg149
g132
(g133
(I0
tp1341
g135
tp1342
Rp1343
(I1
(I2
I2
tp1344
g59
I00
S'\x00\x00\x00\x00\x00\x00\x00\x00\x00\x00\x00\x00\x00\x00\x00\x00\x00\x00\x00\x00\x00\x00\xf0?\x00\x00\x00\x00\x00\x00\xf0?'
p1345
tp1346
bsg156
I01
sg51
g7
sbsg52
(dp1347
I140514940887184
g1320
ssg51
g7
sbsg215
I2
sg216
g0
(g157
g2
Ntp1348
Rp1349
(dp1350
g49
I2
sg50
Nsg120
g132
(g133
(I0
tp1351
g135
tp1352
Rp1353
(I1
(I3
I3
tp1354
g59
I00
S'\x00\x00\x00\x00\x00\x00\xf0?\x00\x00\x00\x00\x00\x00\x00\x00\x00\x00\x00\x00\x00\x00\x00\x00\x00\x00\x00\x00\x00\x00\x00\x00\x00\x00\x00\x00\x00\x00\xf0?\x00\x00\x00\x00\x00\x00\x00\x00\x00\x00\x00\x00\x00\x00\x00\x00\x00\x00\x00\x00\x00\x00\x00\x00\x00\x00\x00\x00\x00\x00\xf0?'
p1355
tp1356
bsg51
g7
sg52
(dp1357
I140514940887184
g1320
ssbsg52
(dp1358
I140514940887248
g1317
ssg51
g7
sbsg215
I2
sg216
g183
sg52
(dp1359
I140514940887312
g0
(g122
g2
Ntp1360
Rp1361
(dp1362
g49
I2
sg126
g0
(g127
g2
Ntp1363
Rp1364
(dp1365
g49
I1
sg131
g132
(g133
(I0
tp1366
g135
tp1367
Rp1368
(I1
(I2
tp1369
g59
I00
S'\x00\x00\x00\x00\x00\x00\xf0\x7f\x00\x00\x00\x00\x00\x00\xf0\x7f'
p1370
tp1371
bsg52
(dp1372
I140514940887312
g1361
ssg142
g132
(g133
(I0
tp1373
g135
tp1374
Rp1375
(I1
(I2
I2
tp1376
g59
I00
S'\x00\x00\x00\x00\x00\x00\x00\x00\x00\x00\x00\x00\x00\x00\x00\x00\x00\x00\x00\x00\x00\x00\xf0?\x00\x00\x00\x00\x00\x00\xf0?'
p1377
tp1378
bsg149
g132
(g133
(I0
tp1379
g135
tp1380
Rp1381
(I1
(I2
I2
tp1382
g59
I00
S'\x00\x00\x00\x00\x00\x00\x00\x00\x00\x00\x00\x00\x00\x00\x00\x00\x00\x00\x00\x00\x00\x00\xf0?\x00\x00\x00\x00\x00\x00\xf0?'
p1383
tp1384
bsg156
I01
sg51
g7
sbsg115
g1317
sg149
Nsg52
(dp1385
sg51
g7
sbssg51
g7
sbsI140514940743376
g0
(g176
g2
Ntp1386
Rp1387
(dp1388
g49
I2
sg180
I2
sg181
g0
(g176
g2
Ntp1389
Rp1390
(dp1391
g49
I1
sg180
I2
sg181
g0
(g116
g2
Ntp1392
Rp1393
(dp1394
g49
I1
sg120
Nsg50
Nsg121
g0
(g127
g2
Ntp1395
Rp1396
(dp1397
g49
I1
sg131
g132
(g133
(I0
tp1398
g135
tp1399
Rp1400
(I1
(I2
tp1401
g59
I00
S'\x00\x00\x00\x00\x00\x00\xf0\x7f\x00\x00\x00\x00\x00\x00\xf0\x7f'
p1402
tp1403
bsg52
(dp1404
I140514940743248
g1393
ssg142
g132
(g133
(I0
tp1405
g135
tp1406
Rp1407
(I1
(I2
I2
tp1408
g59
I00
S'\x00\x00\x00\x00\x00\x00\x00\x00\x00\x00\x00\x00\x00\x00\x00\x00\x00\x00\x00\x00\x00\x00\xf0?\x00\x00\x00\x00\x00\x00\xf0?'
p1409
tp1410
bsg149
g132
(g133
(I0
tp1411
g135
tp1412
Rp1413
(I1
(I2
I2
tp1414
g59
I00
S'\x00\x00\x00\x00\x00\x00\x00\x00\x00\x00\x00\x00\x00\x00\x00\x00\x00\x00\x00\x00\x00\x00\xf0?\x00\x00\x00\x00\x00\x00\xf0?'
p1415
tp1416
bsg156
I01
sg51
g7
sbsg52
(dp1417
I140514940743312
g1390
ssg51
g7
sbsg215
I2
sg216
g0
(g157
g2
Ntp1418
Rp1419
(dp1420
g49
I2
sg50
Nsg120
g132
(g133
(I0
tp1421
g135
tp1422
Rp1423
(I1
(I3
I3
tp1424
g59
I00
S'\x00\x00\x00\x00\x00\x00\xf0?\x00\x00\x00\x00\x00\x00\x00\x00\x00\x00\x00\x00\x00\x00\x00\x00\x00\x00\x00\x00\x00\x00\x00\x00\x00\x00\x00\x00\x00\x00\xf0?\x00\x00\x00\x00\x00\x00\x00\x00\x00\x00\x00\x00\x00\x00\x00\x00\x00\x00\x00\x00\x00\x00\x00\x00\x00\x00\x00\x00\x00\x00\xf0?'
p1425
tp1426
bsg51
g7
sg52
(dp1427
I140514940743312
g1390
ssbsg52
(dp1428
I140514940743376
g1387
ssg51
g7
sbsg215
I2
sg216
g183
sg52
(dp1429
I140514940743440
g0
(g122
g2
Ntp1430
Rp1431
(dp1432
g49
I2
sg126
g0
(g127
g2
Ntp1433
Rp1434
(dp1435
g49
I1
sg131
g132
(g133
(I0
tp1436
g135
tp1437
Rp1438
(I1
(I2
tp1439
g59
I00
S'\x00\x00\x00\x00\x00\x00\xf0\x7f\x00\x00\x00\x00\x00\x00\xf0\x7f'
p1440
tp1441
bsg52
(dp1442
I140514940743440
g1431
ssg142
g132
(g133
(I0
tp1443
g135
tp1444
Rp1445
(I1
(I2
I2
tp1446
g59
I00
S'\x00\x00\x00\x00\x00\x00\x00\x00\x00\x00\x00\x00\x00\x00\x00\x00\x00\x00\x00\x00\x00\x00\xf0?\x00\x00\x00\x00\x00\x00\xf0?'
p1447
tp1448
bsg149
g132
(g133
(I0
tp1449
g135
tp1450
Rp1451
(I1
(I2
I2
tp1452
g59
I00
S'\x00\x00\x00\x00\x00\x00\x00\x00\x00\x00\x00\x00\x00\x00\x00\x00\x00\x00\x00\x00\x00\x00\xf0?\x00\x00\x00\x00\x00\x00\xf0?'
p1453
tp1454
bsg156
I01
sg51
g7
sbsg115
g1387
sg149
Nsg52
(dp1455
sg51
g7
sbssg51
g7
sbsI140514940739792
g0
(g176
g2
Ntp1456
Rp1457
(dp1458
g49
I2
sg180
I2
sg181
g0
(g176
g2
Ntp1459
Rp1460
(dp1461
g49
I1
sg180
I2
sg181
g0
(g116
g2
Ntp1462
Rp1463
(dp1464
g49
I1
sg120
Nsg50
Nsg121
g0
(g127
g2
Ntp1465
Rp1466
(dp1467
g49
I1
sg131
g132
(g133
(I0
tp1468
g135
tp1469
Rp1470
(I1
(I2
tp1471
g59
I00
S'\x00\x00\x00\x00\x00\x00\xf0\x7f\x00\x00\x00\x00\x00\x00\xf0\x7f'
p1472
tp1473
bsg52
(dp1474
I140514940739664
g1463
ssg142
g132
(g133
(I0
tp1475
g135
tp1476
Rp1477
(I1
(I2
I2
tp1478
g59
I00
S'\x00\x00\x00\x00\x00\x00\x00\x00\x00\x00\x00\x00\x00\x00\x00\x00\x00\x00\x00\x00\x00\x00\xf0?\x00\x00\x00\x00\x00\x00\xf0?'
p1479
tp1480
bsg149
g132
(g133
(I0
tp1481
g135
tp1482
Rp1483
(I1
(I2
I2
tp1484
g59
I00
S'\x00\x00\x00\x00\x00\x00\x00\x00\x00\x00\x00\x00\x00\x00\x00\x00\x00\x00\x00\x00\x00\x00\xf0?\x00\x00\x00\x00\x00\x00\xf0?'
p1485
tp1486
bsg156
I01
sg51
g7
sbsg52
(dp1487
I140514940739728
g1460
ssg51
g7
sbsg215
I2
sg216
g0
(g157
g2
Ntp1488
Rp1489
(dp1490
g49
I2
sg50
Nsg120
g132
(g133
(I0
tp1491
g135
tp1492
Rp1493
(I1
(I3
I3
tp1494
g59
I00
S'\x00\x00\x00\x00\x00\x00\xf0?\x00\x00\x00\x00\x00\x00\x00\x00\x00\x00\x00\x00\x00\x00\x00\x00\x00\x00\x00\x00\x00\x00\x00\x00\x00\x00\x00\x00\x00\x00\xf0?\x00\x00\x00\x00\x00\x00\x00\x00\x00\x00\x00\x00\x00\x00\x00\x00\x00\x00\x00\x00\x00\x00\x00\x00\x00\x00\x00\x00\x00\x00\xf0?'
p1495
tp1496
bsg51
g7
sg52
(dp1497
I140514940739728
g1460
ssbsg52
(dp1498
I140514940739792
g1457
ssg51
g7
sbsg215
I2
sg216
g183
sg52
(dp1499
I140514940739856
g0
(g122
g2
Ntp1500
Rp1501
(dp1502
g49
I2
sg126
g0
(g127
g2
Ntp1503
Rp1504
(dp1505
g49
I1
sg131
g132
(g133
(I0
tp1506
g135
tp1507
Rp1508
(I1
(I2
tp1509
g59
I00
S'\x00\x00\x00\x00\x00\x00\xf0\x7f\x00\x00\x00\x00\x00\x00\xf0\x7f'
p1510
tp1511
bsg52
(dp1512
I140514940739856
g1501
ssg142
g132
(g133
(I0
tp1513
g135
tp1514
Rp1515
(I1
(I2
I2
tp1516
g59
I00
S'\x00\x00\x00\x00\x00\x00\x00\x00\x00\x00\x00\x00\x00\x00\x00\x00\x00\x00\x00\x00\x00\x00\xf0?\x00\x00\x00\x00\x00\x00\xf0?'
p1517
tp1518
bsg149
g132
(g133
(I0
tp1519
g135
tp1520
Rp1521
(I1
(I2
I2
tp1522
g59
I00
S'\x00\x00\x00\x00\x00\x00\x00\x00\x00\x00\x00\x00\x00\x00\x00\x00\x00\x00\x00\x00\x00\x00\xf0?\x00\x00\x00\x00\x00\x00\xf0?'
p1523
tp1524
bsg156
I01
sg51
g7
sbsg115
g1457
sg149
Nsg52
(dp1525
sg51
g7
sbssg51
g7
sbsI140514940888144
g0
(g176
g2
Ntp1526
Rp1527
(dp1528
g49
I2
sg180
I2
sg181
g0
(g176
g2
Ntp1529
Rp1530
(dp1531
g49
I1
sg180
I2
sg181
g0
(g116
g2
Ntp1532
Rp1533
(dp1534
g49
I1
sg120
Nsg50
Nsg121
g0
(g127
g2
Ntp1535
Rp1536
(dp1537
g49
I1
sg131
g132
(g133
(I0
tp1538
g135
tp1539
Rp1540
(I1
(I2
tp1541
g59
I00
S'\x00\x00\x00\x00\x00\x00\xf0\x7f\x00\x00\x00\x00\x00\x00\xf0\x7f'
p1542
tp1543
bsg52
(dp1544
I140514940888016
g1533
ssg142
g132
(g133
(I0
tp1545
g135
tp1546
Rp1547
(I1
(I2
I2
tp1548
g59
I00
S'\x00\x00\x00\x00\x00\x00\x00\x00\x00\x00\x00\x00\x00\x00\x00\x00\x00\x00\x00\x00\x00\x00\xf0?\x00\x00\x00\x00\x00\x00\xf0?'
p1549
tp1550
bsg149
g132
(g133
(I0
tp1551
g135
tp1552
Rp1553
(I1
(I2
I2
tp1554
g59
I00
S'\x00\x00\x00\x00\x00\x00\x00\x00\x00\x00\x00\x00\x00\x00\x00\x00\x00\x00\x00\x00\x00\x00\xf0?\x00\x00\x00\x00\x00\x00\xf0?'
p1555
tp1556
bsg156
I01
sg51
g7
sbsg52
(dp1557
I140514940888080
g1530
ssg51
g7
sbsg215
I2
sg216
g0
(g157
g2
Ntp1558
Rp1559
(dp1560
g49
I2
sg50
Nsg120
g132
(g133
(I0
tp1561
g135
tp1562
Rp1563
(I1
(I3
I3
tp1564
g59
I00
S'\x00\x00\x00\x00\x00\x00\xf0?\x00\x00\x00\x00\x00\x00\x00\x00\x00\x00\x00\x00\x00\x00\x00\x00\x00\x00\x00\x00\x00\x00\x00\x00\x00\x00\x00\x00\x00\x00\xf0?\x00\x00\x00\x00\x00\x00\x00\x00\x00\x00\x00\x00\x00\x00\x00\x00\x00\x00\x00\x00\x00\x00\x00\x00\x00\x00\x00\x00\x00\x00\xf0?'
p1565
tp1566
bsg51
g7
sg52
(dp1567
I140514940888080
g1530
ssbsg52
(dp1568
I140514940888144
g1527
ssg51
g7
sbsg215
I2
sg216
g183
sg52
(dp1569
I140514940888208
g0
(g122
g2
Ntp1570
Rp1571
(dp1572
g49
I2
sg126
g0
(g127
g2
Ntp1573
Rp1574
(dp1575
g49
I1
sg131
g132
(g133
(I0
tp1576
g135
tp1577
Rp1578
(I1
(I2
tp1579
g59
I00
S'\x00\x00\x00\x00\x00\x00\xf0\x7f\x00\x00\x00\x00\x00\x00\xf0\x7f'
p1580
tp1581
bsg52
(dp1582
I140514940888208
g1571
ssg142
g132
(g133
(I0
tp1583
g135
tp1584
Rp1585
(I1
(I2
I2
tp1586
g59
I00
S'\x00\x00\x00\x00\x00\x00\x00\x00\x00\x00\x00\x00\x00\x00\x00\x00\x00\x00\x00\x00\x00\x00\xf0?\x00\x00\x00\x00\x00\x00\xf0?'
p1587
tp1588
bsg149
g132
(g133
(I0
tp1589
g135
tp1590
Rp1591
(I1
(I2
I2
tp1592
g59
I00
S'\x00\x00\x00\x00\x00\x00\x00\x00\x00\x00\x00\x00\x00\x00\x00\x00\x00\x00\x00\x00\x00\x00\xf0?\x00\x00\x00\x00\x00\x00\xf0?'
p1593
tp1594
bsg156
I01
sg51
g7
sbsg115
g1527
sg149
Nsg52
(dp1595
sg51
g7
sbssg51
g7
sbsI140514940887696
g0
(g176
g2
Ntp1596
Rp1597
(dp1598
g49
I2
sg180
I2
sg181
g0
(g176
g2
Ntp1599
Rp1600
(dp1601
g49
I1
sg180
I2
sg181
g0
(g116
g2
Ntp1602
Rp1603
(dp1604
g49
I1
sg120
Nsg50
Nsg121
g0
(g127
g2
Ntp1605
Rp1606
(dp1607
g49
I1
sg131
g132
(g133
(I0
tp1608
g135
tp1609
Rp1610
(I1
(I2
tp1611
g59
I00
S'\x00\x00\x00\x00\x00\x00\xf0\x7f\x00\x00\x00\x00\x00\x00\xf0\x7f'
p1612
tp1613
bsg52
(dp1614
I140514940887568
g1603
ssg142
g132
(g133
(I0
tp1615
g135
tp1616
Rp1617
(I1
(I2
I2
tp1618
g59
I00
S'\x00\x00\x00\x00\x00\x00\x00\x00\x00\x00\x00\x00\x00\x00\x00\x00\x00\x00\x00\x00\x00\x00\xf0?\x00\x00\x00\x00\x00\x00\xf0?'
p1619
tp1620
bsg149
g132
(g133
(I0
tp1621
g135
tp1622
Rp1623
(I1
(I2
I2
tp1624
g59
I00
S'\x00\x00\x00\x00\x00\x00\x00\x00\x00\x00\x00\x00\x00\x00\x00\x00\x00\x00\x00\x00\x00\x00\xf0?\x00\x00\x00\x00\x00\x00\xf0?'
p1625
tp1626
bsg156
I01
sg51
g7
sbsg52
(dp1627
I140514940887632
g1600
ssg51
g7
sbsg215
I2
sg216
g0
(g157
g2
Ntp1628
Rp1629
(dp1630
g49
I2
sg50
Nsg120
g132
(g133
(I0
tp1631
g135
tp1632
Rp1633
(I1
(I3
I3
tp1634
g59
I00
S'\x00\x00\x00\x00\x00\x00\xf0?\x00\x00\x00\x00\x00\x00\x00\x00\x00\x00\x00\x00\x00\x00\x00\x00\x00\x00\x00\x00\x00\x00\x00\x00\x00\x00\x00\x00\x00\x00\xf0?\x00\x00\x00\x00\x00\x00\x00\x00\x00\x00\x00\x00\x00\x00\x00\x00\x00\x00\x00\x00\x00\x00\x00\x00\x00\x00\x00\x00\x00\x00\xf0?'
p1635
tp1636
bsg51
g7
sg52
(dp1637
I140514940887632
g1600
ssbsg52
(dp1638
I140514940887696
g1597
ssg51
g7
sbsg215
I2
sg216
g183
sg52
(dp1639
I140514940887760
g0
(g122
g2
Ntp1640
Rp1641
(dp1642
g49
I2
sg126
g0
(g127
g2
Ntp1643
Rp1644
(dp1645
g49
I1
sg131
g132
(g133
(I0
tp1646
g135
tp1647
Rp1648
(I1
(I2
tp1649
g59
I00
S'\x00\x00\x00\x00\x00\x00\xf0\x7f\x00\x00\x00\x00\x00\x00\xf0\x7f'
p1650
tp1651
bsg52
(dp1652
I140514940887760
g1641
ssg142
g132
(g133
(I0
tp1653
g135
tp1654
Rp1655
(I1
(I2
I2
tp1656
g59
I00
S'\x00\x00\x00\x00\x00\x00\x00\x00\x00\x00\x00\x00\x00\x00\x00\x00\x00\x00\x00\x00\x00\x00\xf0?\x00\x00\x00\x00\x00\x00\xf0?'
p1657
tp1658
bsg149
g132
(g133
(I0
tp1659
g135
tp1660
Rp1661
(I1
(I2
I2
tp1662
g59
I00
S'\x00\x00\x00\x00\x00\x00\x00\x00\x00\x00\x00\x00\x00\x00\x00\x00\x00\x00\x00\x00\x00\x00\xf0?\x00\x00\x00\x00\x00\x00\xf0?'
p1663
tp1664
bsg156
I01
sg51
g7
sbsg115
g1597
sg149
Nsg52
(dp1665
sg51
g7
sbssg51
g7
sbsI140514940742480
g0
(g176
g2
Ntp1666
Rp1667
(dp1668
g49
I2
sg180
I2
sg181
g0
(g176
g2
Ntp1669
Rp1670
(dp1671
g49
I1
sg180
I2
sg181
g0
(g116
g2
Ntp1672
Rp1673
(dp1674
g49
I1
sg120
Nsg50
Nsg121
g0
(g127
g2
Ntp1675
Rp1676
(dp1677
g49
I1
sg131
g132
(g133
(I0
tp1678
g135
tp1679
Rp1680
(I1
(I2
tp1681
g59
I00
S'\x00\x00\x00\x00\x00\x00\xf0\x7f\x00\x00\x00\x00\x00\x00\xf0\x7f'
p1682
tp1683
bsg52
(dp1684
I140514940742352
g1673
ssg142
g132
(g133
(I0
tp1685
g135
tp1686
Rp1687
(I1
(I2
I2
tp1688
g59
I00
S'\x00\x00\x00\x00\x00\x00\x00\x00\x00\x00\x00\x00\x00\x00\x00\x00\x00\x00\x00\x00\x00\x00\xf0?\x00\x00\x00\x00\x00\x00\xf0?'
p1689
tp1690
bsg149
g132
(g133
(I0
tp1691
g135
tp1692
Rp1693
(I1
(I2
I2
tp1694
g59
I00
S'\x00\x00\x00\x00\x00\x00\x00\x00\x00\x00\x00\x00\x00\x00\x00\x00\x00\x00\x00\x00\x00\x00\xf0?\x00\x00\x00\x00\x00\x00\xf0?'
p1695
tp1696
bsg156
I01
sg51
g7
sbsg52
(dp1697
I140514940742416
g1670
ssg51
g7
sbsg215
I2
sg216
g0
(g157
g2
Ntp1698
Rp1699
(dp1700
g49
I2
sg50
Nsg120
g132
(g133
(I0
tp1701
g135
tp1702
Rp1703
(I1
(I3
I3
tp1704
g59
I00
S'\x00\x00\x00\x00\x00\x00\xf0?\x00\x00\x00\x00\x00\x00\x00\x00\x00\x00\x00\x00\x00\x00\x00\x00\x00\x00\x00\x00\x00\x00\x00\x00\x00\x00\x00\x00\x00\x00\xf0?\x00\x00\x00\x00\x00\x00\x00\x00\x00\x00\x00\x00\x00\x00\x00\x00\x00\x00\x00\x00\x00\x00\x00\x00\x00\x00\x00\x00\x00\x00\xf0?'
p1705
tp1706
bsg51
g7
sg52
(dp1707
I140514940742416
g1670
ssbsg52
(dp1708
I140514940742480
g1667
ssg51
g7
sbsg215
I2
sg216
g183
sg52
(dp1709
I140514940742544
g0
(g122
g2
Ntp1710
Rp1711
(dp1712
g49
I2
sg126
g0
(g127
g2
Ntp1713
Rp1714
(dp1715
g49
I1
sg131
g132
(g133
(I0
tp1716
g135
tp1717
Rp1718
(I1
(I2
tp1719
g59
I00
S'\x00\x00\x00\x00\x00\x00\xf0\x7f\x00\x00\x00\x00\x00\x00\xf0\x7f'
p1720
tp1721
bsg52
(dp1722
I140514940742544
g1711
ssg142
g132
(g133
(I0
tp1723
g135
tp1724
Rp1725
(I1
(I2
I2
tp1726
g59
I00
S'\x00\x00\x00\x00\x00\x00\x00\x00\x00\x00\x00\x00\x00\x00\x00\x00\x00\x00\x00\x00\x00\x00\xf0?\x00\x00\x00\x00\x00\x00\xf0?'
p1727
tp1728
bsg149
g132
(g133
(I0
tp1729
g135
tp1730
Rp1731
(I1
(I2
I2
tp1732
g59
I00
S'\x00\x00\x00\x00\x00\x00\x00\x00\x00\x00\x00\x00\x00\x00\x00\x00\x00\x00\x00\x00\x00\x00\xf0?\x00\x00\x00\x00\x00\x00\xf0?'
p1733
tp1734
bsg156
I01
sg51
g7
sbsg115
g1667
sg149
Nsg52
(dp1735
sg51
g7
sbssg51
g7
sbsI140514938856144
g0
(g176
g2
Ntp1736
Rp1737
(dp1738
g49
I2
sg180
I2
sg181
g0
(g176
g2
Ntp1739
Rp1740
(dp1741
g49
I1
sg180
I2
sg181
g0
(g116
g2
Ntp1742
Rp1743
(dp1744
g49
I1
sg120
Nsg50
Nsg121
g0
(g127
g2
Ntp1745
Rp1746
(dp1747
g49
I1
sg131
g132
(g133
(I0
tp1748
g135
tp1749
Rp1750
(I1
(I2
tp1751
g59
I00
S'\x00\x00\x00\x00\x00\x00\xf0\x7f\x00\x00\x00\x00\x00\x00\xf0\x7f'
p1752
tp1753
bsg52
(dp1754
I140514938855888
g1743
ssg142
g132
(g133
(I0
tp1755
g135
tp1756
Rp1757
(I1
(I2
I2
tp1758
g59
I00
S'\x00\x00\x00\x00\x00\x00\x00\x00\x00\x00\x00\x00\x00\x00\x00\x00\x00\x00\x00\x00\x00\x00\xf0?\x00\x00\x00\x00\x00\x00\xf0?'
p1759
tp1760
bsg149
g132
(g133
(I0
tp1761
g135
tp1762
Rp1763
(I1
(I2
I2
tp1764
g59
I00
S'\x00\x00\x00\x00\x00\x00\x00\x00\x00\x00\x00\x00\x00\x00\x00\x00\x00\x00\x00\x00\x00\x00\xf0?\x00\x00\x00\x00\x00\x00\xf0?'
p1765
tp1766
bsg156
I01
sg51
g7
sbsg52
(dp1767
I140514938856080
g1740
ssg51
g7
sbsg215
I2
sg216
g0
(g157
g2
Ntp1768
Rp1769
(dp1770
g49
I2
sg50
Nsg120
g132
(g133
(I0
tp1771
g135
tp1772
Rp1773
(I1
(I3
I3
tp1774
g59
I00
S'\x00\x00\x00\x00\x00\x00\xf0?\x00\x00\x00\x00\x00\x00\x00\x00\x00\x00\x00\x00\x00\x00\x00\x00\x00\x00\x00\x00\x00\x00\x00\x00\x00\x00\x00\x00\x00\x00\xf0?\x00\x00\x00\x00\x00\x00\x00\x00\x00\x00\x00\x00\x00\x00\x00\x00\x00\x00\x00\x00\x00\x00\x00\x00\x00\x00\x00\x00\x00\x00\xf0?'
p1775
tp1776
bsg51
g7
sg52
(dp1777
I140514938856080
g1740
ssbsg52
(dp1778
I140514938856144
g1737
ssg51
g7
sbsg215
I2
sg216
g183
sg52
(dp1779
I140514938856272
g0
(g122
g2
Ntp1780
Rp1781
(dp1782
g49
I2
sg126
g0
(g127
g2
Ntp1783
Rp1784
(dp1785
g49
I1
sg131
g132
(g133
(I0
tp1786
g135
tp1787
Rp1788
(I1
(I2
tp1789
g59
I00
S'\x00\x00\x00\x00\x00\x00\xf0\x7f\x00\x00\x00\x00\x00\x00\xf0\x7f'
p1790
tp1791
bsg52
(dp1792
I140514938856272
g1781
ssg142
g132
(g133
(I0
tp1793
g135
tp1794
Rp1795
(I1
(I2
I2
tp1796
g59
I00
S'\x00\x00\x00\x00\x00\x00\x00\x00\x00\x00\x00\x00\x00\x00\x00\x00\x00\x00\x00\x00\x00\x00\xf0?\x00\x00\x00\x00\x00\x00\xf0?'
p1797
tp1798
bsg149
g132
(g133
(I0
tp1799
g135
tp1800
Rp1801
(I1
(I2
I2
tp1802
g59
I00
S'\x00\x00\x00\x00\x00\x00\x00\x00\x00\x00\x00\x00\x00\x00\x00\x00\x00\x00\x00\x00\x00\x00\xf0?\x00\x00\x00\x00\x00\x00\xf0?'
p1803
tp1804
bsg156
I01
sg51
g7
sbsg115
g1737
sg149
Nsg52
(dp1805
sg51
g7
sbssg51
g7
sbsI140514919963920
g0
(g176
g2
Ntp1806
Rp1807
(dp1808
g49
I2
sg180
I2
sg181
g0
(g176
g2
Ntp1809
Rp1810
(dp1811
g49
I1
sg180
I2
sg181
g0
(g116
g2
Ntp1812
Rp1813
(dp1814
g49
I1
sg120
Nsg50
Nsg121
g0
(g127
g2
Ntp1815
Rp1816
(dp1817
g49
I1
sg131
g132
(g133
(I0
tp1818
g135
tp1819
Rp1820
(I1
(I2
tp1821
g59
I00
S'\x00\x00\x00\x00\x00\x00\xf0\x7f\x00\x00\x00\x00\x00\x00\xf0\x7f'
p1822
tp1823
bsg52
(dp1824
I140514919963792
g1813
ssg142
g132
(g133
(I0
tp1825
g135
tp1826
Rp1827
(I1
(I2
I2
tp1828
g59
I00
S'\x00\x00\x00\x00\x00\x00\x00\x00\x00\x00\x00\x00\x00\x00\x00\x00\x00\x00\x00\x00\x00\x00\xf0?\x00\x00\x00\x00\x00\x00\xf0?'
p1829
tp1830
bsg149
g132
(g133
(I0
tp1831
g135
tp1832
Rp1833
(I1
(I2
I2
tp1834
g59
I00
S'\x00\x00\x00\x00\x00\x00\x00\x00\x00\x00\x00\x00\x00\x00\x00\x00\x00\x00\x00\x00\x00\x00\xf0?\x00\x00\x00\x00\x00\x00\xf0?'
p1835
tp1836
bsg156
I01
sg51
g7
sbsg52
(dp1837
I140514919963856
g1810
ssg51
g7
sbsg215
I2
sg216
g0
(g157
g2
Ntp1838
Rp1839
(dp1840
g49
I2
sg50
Nsg120
g132
(g133
(I0
tp1841
g135
tp1842
Rp1843
(I1
(I3
I3
tp1844
g59
I00
S'\x00\x00\x00\x00\x00\x00\xf0?\x00\x00\x00\x00\x00\x00\x00\x00\x00\x00\x00\x00\x00\x00\x00\x00\x00\x00\x00\x00\x00\x00\x00\x00\x00\x00\x00\x00\x00\x00\xf0?\x00\x00\x00\x00\x00\x00\x00\x00\x00\x00\x00\x00\x00\x00\x00\x00\x00\x00\x00\x00\x00\x00\x00\x00\x00\x00\x00\x00\x00\x00\xf0?'
p1845
tp1846
bsg51
g7
sg52
(dp1847
I140514919963856
g1810
ssbsg52
(dp1848
I140514919963920
g1807
ssg51
g7
sbsg215
I2
sg216
g183
sg52
(dp1849
I140514919963984
g0
(g122
g2
Ntp1850
Rp1851
(dp1852
g49
I2
sg126
g0
(g127
g2
Ntp1853
Rp1854
(dp1855
g49
I1
sg131
g132
(g133
(I0
tp1856
g135
tp1857
Rp1858
(I1
(I2
tp1859
g59
I00
S'\x00\x00\x00\x00\x00\x00\xf0\x7f\x00\x00\x00\x00\x00\x00\xf0\x7f'
p1860
tp1861
bsg52
(dp1862
I140514919963984
g1851
ssg142
g132
(g133
(I0
tp1863
g135
tp1864
Rp1865
(I1
(I2
I2
tp1866
g59
I00
S'\x00\x00\x00\x00\x00\x00\x00\x00\x00\x00\x00\x00\x00\x00\x00\x00\x00\x00\x00\x00\x00\x00\xf0?\x00\x00\x00\x00\x00\x00\xf0?'
p1867
tp1868
bsg149
g132
(g133
(I0
tp1869
g135
tp1870
Rp1871
(I1
(I2
I2
tp1872
g59
I00
S'\x00\x00\x00\x00\x00\x00\x00\x00\x00\x00\x00\x00\x00\x00\x00\x00\x00\x00\x00\x00\x00\x00\xf0?\x00\x00\x00\x00\x00\x00\xf0?'
p1873
tp1874
bsg156
I01
sg51
g7
sbsg115
g1807
sg149
Nsg52
(dp1875
sg51
g7
sbssg51
g7
sbssg51
g7
sbsg215
I2
sg216
g170
sg52
(dp1876
sg51
g7
sbsI140514920181648
g1313
sI140514920178512
g213
ssbsI140514920017808
g423
sI140514920014032
g496
sI140514938855376
g442
sI140514920177872
g478
sI140514938854480
g469
sI140514919960720
g405
sI140514919962832
g432
sI140514919961296
g378
sI140514938853648
g460
sI140514919961808
g387
sI140514939961744
g124
sI140514938853840
g487
sI140514920017232
g396
sI140514920014416
g505
sI140514920178320
g451
sI140514919963088
g414
sI140514938853072
g369
ssbsg149
Nsg52
(dp1877
I140514939962896
g118
ssg51
g7
sbsg52
(dp1878
I140514938846992
g186
ssg51
g7
sbsS'_us_dashes'
p1879
(NNtp1880
sS'_capstyle'
p1881
Vbutt
p1882
sS'_url'
p1883
Nsg25
NsS'_axes'
p1884
Nsg34
Nsbsg42
Nsg88
NsV_restore_to_pylab
p1885
I01
sS'images'
p1886
(lp1887
sS'_suptitle'
p1888
NsS'dpi_scale_trans'
p1889
g159
sS'number'
p1890
I1
sS'callbacks'
p1891
g0
(cmatplotlib.cbook
CallbackRegistry
p1892
g2
Ntp1893
Rp1894
I01
bsg96
NsS'_tight'
p1895
I00
sg86
I01
sS'bbox'
p1896
g124
sg103
g0
(g104
g105
((lp1897
(lp1898
tp1899
tp1900
Rp1901
sg111
I0
sS'patches'
p1902
(lp1903
sS'legends'
p1904
(lp1905
sS'suppressComposite'
p1906
Nsg112
I00
sg114
NsS'_axstack'
p1907
g0
(cmatplotlib.figure
AxesStack
p1908
g2
Ntp1909
Rp1910
(dp1911
S'_default'
p1912
NsS'_elements'
p1913
(lp1914
(((g0
(cmatplotlib.gridspec
SubplotSpec
p1915
g2
Ntp1916
Rp1917
(dp1918
S'num1'
p1919
I0
sS'num2'
p1920
I0
sS'_gridspec'
p1921
g0
(cmatplotlib.gridspec
GridSpec
p1922
g2
Ntp1923
Rp1924
(dp1925
S'_nrows'
p1926
I1
sS'right'
p1927
NsS'_col_width_ratios'
p1928
NsS'bottom'
p1929
NsS'top'
p1930
NsS'wspace'
p1931
NsS'_ncols'
p1932
I1
sS'hspace'
p1933
NsS'_row_height_ratios'
p1934
NsS'left'
p1935
Nsbsbtp1936
(ttp1937
(I1
g0
(cmatplotlib.axes._subplots
_PicklableSubplotClassConstructor
p1938
g2
Ntp1939
Rp1940
(cmatplotlib.axes._axes
Axes
p1941
tp1942
Rp1943
(dp1944
S'transLimits'
p1945
g330
sS'_get_patches_for_fill'
p1946
g0
(cmatplotlib.axes._base
_process_plot_var_args
p1947
g2
Ntp1948
Rp1949
(dp1950
Vaxes
p1951
g1943
sVcommand
p1952
Vfill
p1953
sbsS'_xcid'
p1954
I1
sg6
V
p1955
sS'legend_'
p1956
g0
(cmatplotlib.legend
Legend
p1957
g2
Ntp1958
Rp1959
(dp1960
g6
g7
sS'markerscale'
p1961
F1.0
sg9
g4
sS'legendHandles'
p1962
(lp1963
g0
(g36
g2
Ntp1964
Rp1965
(dp1966
g6
VControl
p1967
sg40
F20.0
sg41
I00
sg9
g4
sg8
I01
sg10
Nsg42
Nsg17
g18
sg43
Nsg20
I01
sg44
g0
(g45
g2
Ntp1968
Rp1969
(dp1970
g49
I1
sg50
Nsg51
g7
sg52
(dp1971
sbsg54
(g55
(g59
S'\x10\x10\x10\x10\x10\x10\xe0?'
p1972
tp1973
Rp1974
g55
(g59
S'\x10\x10\x10\x10\x10\x10\xe0?'
p1975
tp1976
Rp1977
g55
(g59
S'\x10\x10\x10\x10\x10\x10\xe0?'
p1978
tp1979
Rp1980
g55
(g59
S'\x00\x00\x00\x00\x00\x00\xf0?'
p1981
tp1982
Rp1983
tp1984
sg23
Nsg75
F-0.0
sg76
F-0.0
sg24
Nsg77
Nsg11
Nsg28
I00
sg29
I00
sg30
(dp1985
sg80
g0
(g45
g2
Ntp1986
Rp1987
(dp1988
g49
I1
sg50
Nsg51
g7
sg52
(dp1989
sbsg32
I00
sg85
Nsg86
I01
sg87
F1.0
sg88
Nsg89
F7.0
sg33
Nsg90
g1984
sg91
Nsg92
I01
sg93
Nsg94
Nsg96
Nsg97
(g55
(g59
S'\x10\x10\x10\x10\x10\x10\xe0?'
p1990
tp1991
Rp1992
g55
(g59
S'\x10\x10\x10\x10\x10\x10\xe0?'
p1993
tp1994
Rp1995
g55
(g59
S'\x10\x10\x10\x10\x10\x10\xe0?'
p1996
tp1997
Rp1998
I0
tp1999
sg99
g100
sg101
g102
sg103
g0
(g104
g105
((lp2000
(lp2001
I0
atp2002
tp2003
Rp2004
sg111
I0
sg112
I01
sg113
F0.0
sg114
Nsg115
g0
(cmatplotlib.transforms
CompositeAffine2D
p2005
g2
Ntp2006
Rp2007
(dp2008
g49
I1
sg180
I2
sg50
Nsg51
g7
sg120
Nsg52
(dp2009
sg215
I2
sg216
g0
(g157
g2
Ntp2010
Rp2011
(dp2012
g49
I2
sg50
Nsg120
g132
(g133
(I0
tp2013
g135
tp2014
Rp2015
(I1
(I3
I3
tp2016
g59
I00
S'\x00\x00\x00\x00\x00\x00\xf0?\x00\x00\x00\x00\x00\x00\x00\x00\x00\x00\x00\x00\x00\x00\x00\x00\x00\x00\x00\x00\x00\x00\x00\x00\x00\x00\x00\x00\x00\x00\xf0?\x00\x00\x00\x00\x00\x00\x00\x00\x00\x00\x00\x00\x00\x00\x00\x00\x00\x00\x00\x00\x00\x00\x00\x00\x00\x00\x00\x00\x00\x00\xf0?'
p2017
tp2018
bsg51
g7
sg52
(dp2019
I140514938857872
g2007
ssbsg181
g0
(g157
g2
Ntp2020
Rp2021
(dp2022
g49
I0
sg50
Nsg120
g132
(g133
(I0
tp2023
g135
tp2024
Rp2025
(I1
(I3
I3
tp2026
g59
I00
S'\x00\x00\x00\x00\x00\x00\xf0?\x00\x00\x00\x00\x00\x00\x00\x00\x00\x00\x00\x00\x00\x00\x00\x00\x00\x00\x00\x00\x00\x00\x00\x00\x00\x00\x00\x00\x00\x00\xf0?\x00\x00\x00\x00\x00\x00\x00\x00\x00\x00\x00\x00\x00\x00\x00\x00\x00\x00\x00\x00\x00\x00\x00\x00\x00\x00\x00\x00\x00\x00\xf0?'
p2027
tp2028
bsg51
g7
sg52
(dp2029
I140514938857872
g2007
ssbsbsg1879
(NNtp2030
sg1881
g1882
sg1883
Nsg25
Nsg1884
g1943
sg34
Nsbag0
(g36
g2
Ntp2031
Rp2032
(dp2033
g6
VGABAzine
p2034
sg40
F20.0
sg41
I00
sg9
g4
sg8
I01
sg10
Nsg42
Nsg17
g18
sg43
Nsg20
I01
sg44
g0
(g45
g2
Ntp2035
Rp2036
(dp2037
g49
I1
sg50
Nsg51
g7
sg52
(dp2038
sbsg54
(g55
(g59
S'\x00\x00\x00\x00\x00\x00\xf0?'
p2039
tp2040
Rp2041
g55
(g59
S'\x00\x00\x00\x00\x00\x00\x00\x00'
p2042
tp2043
Rp2044
g55
(g59
S'\x00\x00\x00\x00\x00\x00\x00\x00'
p2045
tp2046
Rp2047
g55
(g59
S'\x00\x00\x00\x00\x00\x00\xf0?'
p2048
tp2049
Rp2050
tp2051
sg23
Nsg75
F-0.0
sg76
F-0.0
sg24
Nsg77
Nsg11
Nsg28
I00
sg29
I00
sg30
(dp2052
sg80
g0
(g45
g2
Ntp2053
Rp2054
(dp2055
g49
I1
sg50
Nsg51
g7
sg52
(dp2056
sbsg32
I00
sg85
Nsg86
I01
sg87
F1.0
sg88
Nsg89
F7.0
sg33
Nsg90
g2051
sg91
Nsg92
I01
sg93
Nsg94
Nsg96
Nsg97
(g55
(g59
S'\x00\x00\x00\x00\x00\x00\xf0?'
p2057
tp2058
Rp2059
g55
(g59
S'\x00\x00\x00\x00\x00\x00\x00\x00'
p2060
tp2061
Rp2062
g55
(g59
S'\x00\x00\x00\x00\x00\x00\x00\x00'
p2063
tp2064
Rp2065
I0
tp2066
sg99
g100
sg101
g102
sg103
g0
(g104
g105
((lp2067
(lp2068
I0
atp2069
tp2070
Rp2071
sg111
I0
sg112
I01
sg113
F0.0
sg114
Nsg115
g0
(g2005
g2
Ntp2072
Rp2073
(dp2074
g49
I1
sg180
I2
sg50
Nsg51
g7
sg120
Nsg52
(dp2075
sg215
I2
sg216
g0
(g157
g2
Ntp2076
Rp2077
(dp2078
g49
I2
sg50
Nsg120
g132
(g133
(I0
tp2079
g135
tp2080
Rp2081
(I1
(I3
I3
tp2082
g59
I00
S'\x00\x00\x00\x00\x00\x00\xf0?\x00\x00\x00\x00\x00\x00\x00\x00\x00\x00\x00\x00\x00\x00\x00\x00\x00\x00\x00\x00\x00\x00\x00\x00\x00\x00\x00\x00\x00\x00\xf0?\x00\x00\x00\x00\x00\x00\x00\x00\x00\x00\x00\x00\x00\x00\x00\x00\x00\x00\x00\x00\x00\x00\x00\x00\x00\x00\x00\x00\x00\x00\xf0?'
p2083
tp2084
bsg51
g7
sg52
(dp2085
I140514938859152
g2073
ssbsg181
g0
(g157
g2
Ntp2086
Rp2087
(dp2088
g49
I0
sg50
Nsg120
g132
(g133
(I0
tp2089
g135
tp2090
Rp2091
(I1
(I3
I3
tp2092
g59
I00
S'\x00\x00\x00\x00\x00\x00\xf0?\x00\x00\x00\x00\x00\x00\x00\x00\x00\x00\x00\x00\x00\x00\x00\x00\x00\x00\x00\x00\x00\x00\x00\x00\x00\x00\x00\x00\x00\x00\xf0?\x00\x00\x00\x00\x00\x00\x00\x00\x00\x00\x00\x00\x00\x00\x00\x00\x00\x00\x00\x00\x00\x00\x00\x00\x00\x00\x00\x00\x00\x00\xf0?'
p2093
tp2094
bsg51
g7
sg52
(dp2095
I140514938859152
g2073
ssbsbsg1879
(NNtp2096
sg1881
g1882
sg1883
Nsg25
Nsg1884
g1943
sg34
NsbasS'_legend_title_box'
p2097
g0
(cmatplotlib.offsetbox
TextArea
p2098
g2
Ntp2099
Rp2100
(dp2101
g6
g7
sg8
I00
sg9
g4
sS'_children'
p2102
(lp2103
g0
(cmatplotlib.text
Text
p2104
g2
Ntp2105
Rp2106
(dp2107
g6
g7
sg8
I01
sg9
g4
sg10
NsS'_fontproperties'
p2108
g0
(cmatplotlib.font_manager
FontProperties
p2109
g2
Ntp2110
Rp2111
(dp2112
S'_family'
p2113
(lp2114
Vsans-serif
p2115
asS'_file'
p2116
NsS'_variant'
p2117
Vnormal
p2118
sS'_slant'
p2119
g2118
sS'_size'
p2120
F8.0
sS'_weight'
p2121
I400
sS'_stretch'
p2122
g2118
sbsg42
Nsg17
g18
sS'_multialignment'
p2123
Nsg20
I01
sg23
Nsg75
I0
sg76
I0
sg24
Nsg25
Nsg11
Nsg28
I00
sg29
I00
sg30
(dp2124
sS'_renderer'
p2125
Nsg32
I00
sg1884
Nsg88
Nsg1883
NsS'_rotation_mode'
p2126
Nsg33
Nsg96
Nsg86
I01
sS'_verticalalignment'
p2127
Vbaseline
p2128
sS'_text'
p2129
VNone
p2130
sS'_bbox_patch'
p2131
Nsg103
g0
(g104
g105
((lp2132
(lp2133
tp2134
tp2135
Rp2136
sg111
I0
sS'_rotation'
p2137
Nsg112
I01
sg114
NsS'_linespacing'
p2138
F1.2
sg115
g0
(g2005
g2
Ntp2139
Rp2140
(dp2141
g49
I1
sg180
I2
sg50
Nsg51
g7
sg120
Nsg52
(dp2142
sg215
I2
sg216
g0
(g157
g2
Ntp2143
Rp2144
(dp2145
g49
I0
sg50
Nsg120
g132
(g133
(I0
tp2146
g135
tp2147
Rp2148
(I1
(I3
I3
tp2149
g59
I00
S'\x00\x00\x00\x00\x00\x00\xf0?\x00\x00\x00\x00\x00\x00\x00\x00\x00\x00\x00\x00\x00\x00\x00\x00\x00\x00\x00\x00\x00\x00\x00\x00\x00\x00\x00\x00\x00\x00\xf0?\x00\x00\x00\x00\x00\x00\x00\x00\x00\x00\x00\x00\x00\x00\x00\x00\x00\x00\x00\x00\x00\x00\x00\x00\x00\x00\x00\x00\x00\x00\xf0?'
p2150
tp2151
bsg51
g7
sg52
(dp2152
I140514926261008
g2140
ssbsg181
g0
(g157
g2
Ntp2153
Rp2154
(dp2155
g49
I2
sg50
Nsg120
g132
(g133
(I0
tp2156
g135
tp2157
Rp2158
(I1
(I3
I3
tp2159
g59
I00
S'\x00\x00\x00\x00\x00\x00\xf0?\x00\x00\x00\x00\x00\x00\x00\x00\x00\x00\x00\x00\x00\x00\x00\x00\x00\x00\x00\x00\x00\x00\x00\x00\x00\x00\x00\x00\x00\x00\xf0?\x00\x00\x00\x00\x00\x00\x00\x00\x00\x00\x00\x00\x00\x00\x00\x00\x00\x00\x00\x00\x00\x00\x00\x00\x00\x00\x00\x00\x00\x00\xf0?'
p2160
tp2161
bsg51
g7
sg52
(dp2162
I140514926261008
g2140
ssbsbsS'_usetex'
p2163
I00
sS'_wrap'
p2164
I00
sg43
NsS'_color'
p2165
V0.
p2166
sS'_horizontalalignment'
p2167
Vleft
p2168
sg34
Nsbasg2129
g2106
sg10
Nsg42
NsS'_minimumdescent'
p2169
I01
sg17
g18
sg20
I00
sg23
Nsg24
Nsg25
Nsg11
Nsg28
I00
sg1884
Nsg30
(dp2170
sg32
I00
sg29
I00
sg88
Nsg33
Nsg96
Nsg86
I01
sS'_multilinebaseline'
p2171
Nsg103
g0
(g104
g105
((lp2172
(lp2173
tp2174
tp2175
Rp2176
sg111
I0
sS'offset_transform'
p2177
g2154
sg112
I00
sg114
NsS'_baseline_transform'
p2178
g2144
sg115
NsS'_offset'
p2179
(I0
I0
tp2180
sg43
Nsg1883
Nsg34
Nsbsg8
I01
sS'_fontsize'
p2181
F10.0
sg10
NsS'_draggable'
p2182
Nsg11
NsS'columnspacing'
p2183
F2.0
sg12
(lp2184
g0
(g2104
g2
Ntp2185
Rp2186
(dp2187
g6
g7
sg8
I01
sg9
g4
sg10
Nsg2108
g0
(g2109
g2
Ntp2188
Rp2189
(dp2190
g2113
(lp2191
g2115
asg2116
Nsg2117
g2118
sg2119
g2118
sg2120
F10.0
sg2121
I400
sg2122
g2118
sbsg42
Nsg17
g18
sg2123
Nsg20
I01
sg23
Nsg75
I0
sg76
I0
sg24
Nsg25
Nsg11
Nsg28
I00
sg29
I00
sg30
(dp2192
sg2125
Nsg32
I00
sg1884
Nsg88
Nsg1883
Nsg2126
Nsg33
Nsg96
Nsg86
I01
sg2127
g2128
sg2129
VControl
p2193
sg2131
Nsg103
g0
(g104
g105
((lp2194
(lp2195
tp2196
tp2197
Rp2198
sg111
I0
sg2137
Nsg112
I01
sg114
Nsg2138
F1.2
sg115
g0
(g2005
g2
Ntp2199
Rp2200
(dp2201
g49
I1
sg180
I2
sg50
Nsg51
g7
sg120
Nsg52
(dp2202
sg215
I2
sg216
g0
(g157
g2
Ntp2203
Rp2204
(dp2205
g49
I0
sg50
Nsg120
g132
(g133
(I0
tp2206
g135
tp2207
Rp2208
(I1
(I3
I3
tp2209
g59
I00
S'\x00\x00\x00\x00\x00\x00\xf0?\x00\x00\x00\x00\x00\x00\x00\x00\x00\x00\x00\x00\x00\x00\x00\x00\x00\x00\x00\x00\x00\x00\x00\x00\x00\x00\x00\x00\x00\x00\xf0?\x00\x00\x00\x00\x00\x00\x00\x00\x00\x00\x00\x00\x00\x00\x00\x00\x00\x00\x00\x00\x00\x00\x00\x00\x00\x00\x00\x00\x00\x00\xf0?'
p2210
tp2211
bsg51
g7
sg52
(dp2212
I140514938857424
g2200
ssbsg181
g0
(g157
g2
Ntp2213
Rp2214
(dp2215
g49
I2
sg50
Nsg120
g132
(g133
(I0
tp2216
g135
tp2217
Rp2218
(I1
(I3
I3
tp2219
g59
I00
S'\x00\x00\x00\x00\x00\x00\xf0?\x00\x00\x00\x00\x00\x00\x00\x00\x00\x00\x00\x00\x00\x00\x00\x00\x00\x00\x00\x00\x00\x00\x00\x00\x00\x00\x00\x00\x00\x00\xf0?\x00\x00\x00\x00\x00\x00\x00\x00\x00\x00\x00\x00\x00\x00\x00\x00\x00\x00\x00\x00\x00\x00\x00\x00\x00\x00\x00\x00\x00\x00\xf0?'
p2220
tp2221
bsg51
g7
sg52
(dp2222
I140514938857424
g2200
ssbsbsg2163
I00
sg2164
I00
sg43
Nsg2165
g2166
sg2167
Vleft
p2223
sg34
Nsbag0
(g2104
g2
Ntp2224
Rp2225
(dp2226
g6
g7
sg8
I01
sg9
g4
sg10
Nsg2108
g2189
sg42
Nsg17
g18
sg2123
Nsg20
I01
sg23
Nsg75
I0
sg76
I0
sg24
Nsg25
Nsg11
Nsg28
I00
sg29
I00
sg30
(dp2227
sg2125
Nsg32
I00
sg1884
Nsg88
Nsg1883
Nsg2126
Nsg33
Nsg96
Nsg86
I01
sg2127
g2128
sg2129
VGABAzine
p2228
sg2131
Nsg103
g0
(g104
g105
((lp2229
(lp2230
tp2231
tp2232
Rp2233
sg111
I0
sg2137
Nsg112
I01
sg114
Nsg2138
F1.2
sg115
g0
(g2005
g2
Ntp2234
Rp2235
(dp2236
g49
I1
sg180
I2
sg50
Nsg51
g7
sg120
Nsg52
(dp2237
sg215
I2
sg216
g0
(g157
g2
Ntp2238
Rp2239
(dp2240
g49
I0
sg50
Nsg120
g132
(g133
(I0
tp2241
g135
tp2242
Rp2243
(I1
(I3
I3
tp2244
g59
I00
S'\x00\x00\x00\x00\x00\x00\xf0?\x00\x00\x00\x00\x00\x00\x00\x00\x00\x00\x00\x00\x00\x00\x00\x00\x00\x00\x00\x00\x00\x00\x00\x00\x00\x00\x00\x00\x00\x00\xf0?\x00\x00\x00\x00\x00\x00\x00\x00\x00\x00\x00\x00\x00\x00\x00\x00\x00\x00\x00\x00\x00\x00\x00\x00\x00\x00\x00\x00\x00\x00\xf0?'
p2245
tp2246
bsg51
g7
sg52
(dp2247
I140514938858704
g2235
ssbsg181
g0
(g157
g2
Ntp2248
Rp2249
(dp2250
g49
I2
sg50
Nsg120
g132
(g133
(I0
tp2251
g135
tp2252
Rp2253
(I1
(I3
I3
tp2254
g59
I00
S'\x00\x00\x00\x00\x00\x00\xf0?\x00\x00\x00\x00\x00\x00\x00\x00\x00\x00\x00\x00\x00\x00\x00\x00\x00\x00\x00\x00\x00\x00\x00\x00\x00\x00\x00\x00\x00\x00\xf0?\x00\x00\x00\x00\x00\x00\x00\x00\x00\x00\x00\x00\x00\x00\x00\x00\x00\x00\x00\x00\x00\x00\x00\x00\x00\x00\x00\x00\x00\x00\xf0?'
p2255
tp2256
bsg51
g7
sg52
(dp2257
I140514938858704
g2235
ssbsbsg2163
I00
sg2164
I00
sg43
Nsg2165
g2166
sg2167
g2223
sg34
NsbasS'handletextpad'
p2258
F0.8
sS'borderaxespad'
p2259
F0.5
sg17
g18
sS'_legend_handle_box'
p2260
g0
(cmatplotlib.offsetbox
HPacker
p2261
g2
Ntp2262
Rp2263
(dp2264
g6
g7
sg8
I01
sg9
g4
sg2102
(lp2265
g0
(cmatplotlib.offsetbox
VPacker
p2266
g2
Ntp2267
Rp2268
(dp2269
g6
g7
sg8
I01
sg9
g4
sg2102
(lp2270
g0
(g2261
g2
Ntp2271
Rp2272
(dp2273
g6
g7
sg8
I01
sg9
g4
sg2102
(lp2274
g0
(cmatplotlib.offsetbox
DrawingArea
p2275
g2
Ntp2276
Rp2277
(dp2278
g6
g7
sg8
I01
sg9
g4
sg2102
(lp2279
g1965
asg10
NsS'height'
p2280
F7.0
sg42
Nsg17
g18
sg20
I00
sg23
Nsg24
Nsg25
NsS'dpi_transform'
p2281
g2021
sg11
NsS'_clip_children'
p2282
I00
sg28
I00
sS'width'
p2283
F20.0
sg29
I00
sg30
(dp2284
sg32
I00
sg1884
Nsg88
NsS'ydescent'
p2285
F0.0
sg33
Nsg96
Nsg86
I01
sg103
g0
(g104
g105
((lp2286
(lp2287
tp2288
tp2289
Rp2290
sg111
I0
sg2177
g2011
sg112
I00
sg114
Nsg115
Nsg2179
g2180
sS'xdescent'
p2291
F0.0
sg43
Nsg1883
Nsg34
Nsbag0
(g2098
g2
Ntp2292
Rp2293
(dp2294
g6
g7
sg8
I01
sg9
g4
sg2102
(lp2295
g2186
asg2129
g2186
sg10
Nsg42
Nsg2169
I01
sg17
g18
sg20
I00
sg23
Nsg24
Nsg25
Nsg11
Nsg28
I00
sg1884
Nsg30
(dp2296
sg32
I00
sg29
I00
sg88
Nsg33
Nsg96
Nsg86
I01
sg2171
I01
sg103
g0
(g104
g105
((lp2297
(lp2298
tp2299
tp2300
Rp2301
sg111
I0
sg2177
g2214
sg112
I00
sg114
Nsg2178
g2204
sg115
Nsg2179
g2180
sg43
Nsg1883
Nsg34
Nsbasg10
Nsg2280
Nsg42
Nsg17
g18
sg20
I00
sg23
Nsg24
Nsg25
NsS'sep'
p2302
F8.0
sg11
Nsg28
I00
sg2283
NsS'pad'
p2303
I0
sg29
I00
sg30
(dp2304
sg32
I00
sg1884
Nsg88
Nsg33
Nsg96
Nsg86
I01
sg103
g0
(g104
g105
((lp2305
(lp2306
tp2307
tp2308
Rp2309
sg111
I0
sg112
I00
sg114
NsS'align'
p2310
Vbaseline
p2311
sg115
Nsg2179
g2180
sg43
Nsg1883
NsS'mode'
p2312
Vfixed
p2313
sg34
Nsbag0
(g2261
g2
Ntp2314
Rp2315
(dp2316
g6
g7
sg8
I01
sg9
g4
sg2102
(lp2317
g0
(g2275
g2
Ntp2318
Rp2319
(dp2320
g6
g7
sg8
I01
sg9
g4
sg2102
(lp2321
g2032
asg10
Nsg2280
F7.0
sg42
Nsg17
g18
sg20
I00
sg23
Nsg24
Nsg25
Nsg2281
g2087
sg11
Nsg2282
I00
sg28
I00
sg2283
F20.0
sg29
I00
sg30
(dp2322
sg32
I00
sg1884
Nsg88
Nsg2285
F0.0
sg33
Nsg96
Nsg86
I01
sg103
g0
(g104
g105
((lp2323
(lp2324
tp2325
tp2326
Rp2327
sg111
I0
sg2177
g2077
sg112
I00
sg114
Nsg115
Nsg2179
g2180
sg2291
F0.0
sg43
Nsg1883
Nsg34
Nsbag0
(g2098
g2
Ntp2328
Rp2329
(dp2330
g6
g7
sg8
I01
sg9
g4
sg2102
(lp2331
g2225
asg2129
g2225
sg10
Nsg42
Nsg2169
I00
sg17
g18
sg20
I00
sg23
Nsg24
Nsg25
Nsg11
Nsg28
I00
sg1884
Nsg30
(dp2332
sg32
I00
sg29
I00
sg88
Nsg33
Nsg96
Nsg86
I01
sg2171
I01
sg103
g0
(g104
g105
((lp2333
(lp2334
tp2335
tp2336
Rp2337
sg111
I0
sg2177
g2249
sg112
I00
sg114
Nsg2178
g2239
sg115
Nsg2179
g2180
sg43
Nsg1883
Nsg34
Nsbasg10
Nsg2280
Nsg42
Nsg17
g18
sg20
I00
sg23
Nsg24
Nsg25
Nsg2302
F8.0
sg11
Nsg28
I00
sg2283
Nsg2303
I0
sg29
I00
sg30
(dp2338
sg32
I00
sg1884
Nsg88
Nsg33
Nsg96
Nsg86
I01
sg103
g0
(g104
g105
((lp2339
(lp2340
tp2341
tp2342
Rp2343
sg111
I0
sg112
I00
sg114
Nsg2310
g2311
sg115
Nsg2179
g2180
sg43
Nsg1883
Nsg2312
g2313
sg34
Nsbasg10
Nsg2280
Nsg42
Nsg17
g18
sg20
I00
sg23
Nsg24
Nsg25
Nsg2302
F5.0
sg11
Nsg28
I00
sg2283
Nsg2303
I0
sg29
I00
sg30
(dp2344
sg32
I00
sg1884
Nsg88
Nsg33
Nsg96
Nsg86
I01
sg103
g0
(g104
g105
((lp2345
(lp2346
tp2347
tp2348
Rp2349
sg111
I0
sg112
I00
sg114
Nsg2310
g2311
sg115
Nsg2179
g2180
sg43
Nsg1883
Nsg2312
Vfixed
p2350
sg34
Nsbasg10
Nsg2280
Nsg42
Nsg17
g18
sg20
I00
sg23
Nsg24
Nsg25
Nsg2302
F20.0
sg11
Nsg28
I00
sg2283
Nsg2303
I0
sg29
I00
sg30
(dp2351
sg32
I00
sg1884
Nsg88
Nsg33
Nsg96
Nsg86
I01
sg103
g0
(g104
g105
((lp2352
(lp2353
tp2354
tp2355
Rp2356
sg111
I0
sg112
I00
sg114
Nsg2310
g2311
sg115
Nsg2179
g2180
sg43
Nsg1883
Nsg2312
Vfixed
p2357
sg34
Nsbsg20
I01
sg28
I00
sg23
Nsg24
Nsg25
NsS'_mode'
p2358
NsS'numpoints'
p2359
I1
sS'_bbox_to_anchor'
p2360
NsS'prop'
p2361
g2189
sS'_scatteryoffsets'
p2362
g132
(g133
(I0
tp2363
g135
tp2364
Rp2365
(I1
(I1
tp2366
g59
I00
S'\x00\x00\x00\x00\x00\x00\xd8?'
p2367
tp2368
bsS'_custom_handler_map'
p2369
Nsg29
I00
sg30
(dp2370
sS'_drawFrame'
p2371
I00
sg32
I00
sS'handlelength'
p2372
F2.0
sg1884
g1943
sg42
Nsg88
NsS'parent'
p2373
g1943
sS'legendPatch'
p2374
g0
(cmatplotlib.patches
FancyBboxPatch
p2375
g2
Ntp2376
Rp2377
(dp2378
g6
g7
sg40
F1.0
sg41
I01
sg9
g4
sS'_mutation_aspect'
p2379
Nsg10
Nsg42
Nsg17
g18
sg101
g102
sg43
Nsg20
I01
sg44
g0
(g45
g2
Ntp2380
Rp2381
(dp2382
g49
I1
sg50
Nsg51
g7
sg52
(dp2383
sbsg54
(F0.8
F0.8
F0.8
F0.8
tp2384
sg23
Nsg75
F0.0
sg76
F0.0
sg24
Nsg77
V0.8
p2385
sg11
Nsg28
I00
sg29
I00
sg30
(dp2386
sg32
I00
sg85
Nsg86
I01
sg87
F1.0
sg88
Nsg89
F1.0
sg33
Nsg90
g2384
sg91
Nsg92
I01
sg93
Nsg94
Vwhite
p2387
sg96
I01
sg97
(F1.0
F1.0
F1.0
F0.8
tp2388
sg99
g100
sS'_bbox_transmuter'
p2389
g0
(cmatplotlib.cbook
_NestedClassGetter
p2390
g2
Ntp2391
Rp2392
(cmatplotlib.patches
BoxStyle
p2393
S'Round'
p2394
tp2395
Rp2396
(dp2397
S'rounding_size'
p2398
F0.2
sg2303
I0
sbsS'_mutation_scale'
p2399
F10.0
sg103
g0
(g104
g105
((lp2400
(lp2401
tp2402
tp2403
Rp2404
sg111
I0
sg112
I01
sg114
F0.8
sg115
g0
(g45
g2
Ntp2405
Rp2406
(dp2407
g49
I1
sg50
Nsg51
g7
sg52
(dp2408
sbsg8
I01
sg1879
(NNtp2409
sg1881
g1882
sg1883
Nsg25
Nsg1884
g1943
sg34
Nsbsg33
NsS'scatterpoints'
p2410
I1
sS'labelspacing'
p2411
F0.5
sg96
Nsg86
I01
sS'_legend_box'
p2412
g0
(g2266
g2
Ntp2413
Rp2414
(dp2415
g6
g7
sg8
I01
sg9
g4
sg2102
(lp2416
g2100
ag2263
asg10
Nsg2280
Nsg42
Nsg17
g18
sg20
I00
sg23
Nsg24
Nsg25
Nsg2302
F5.0
sg11
Nsg28
I00
sg2283
Nsg2303
F4.0
sg29
I00
sg30
(dp2417
sg32
I00
sg1884
Nsg88
Nsg33
Nsg96
Nsg86
I01
sg103
g0
(g104
g105
((lp2418
(lp2419
tp2420
tp2421
Rp2422
sg111
I0
sg112
I00
sg114
Nsg2310
Vcenter
p2423
sg115
Nsg2179
g0
(cmatplotlib.cbook
_InstanceMethodPickler
p2424
g2
Ntp2425
Rp2426
(dp2427
S'parent_obj'
p2428
g1959
sS'instancemethod_name'
p2429
S'_findoffset_best'
p2430
sbsg43
Nsg1883
Nsg2312
g2350
sg34
NsbsS'shadow'
p2431
I00
sg103
g0
(g104
g105
((lp2432
(lp2433
tp2434
tp2435
Rp2436
sg111
I0
sg114
NsS'isaxes'
p2437
I01
sS'handleheight'
p2438
F0.7
sg112
I00
sS'_last_fontsize_points'
p2439
F10.0
sS'borderpad'
p2440
F0.4
sS'_ncol'
p2441
I1
sg115
g2406
sS'_loc_real'
p2442
I0
sg43
Nsg1883
Nsg34
Nsbsg12
(lp2443
sS'_frameon'
p2444
I01
sS'_autoscaleYon'
p2445
I01
sg14
I01
sg15
(lp2446
sg20
I01
sS'tables'
p2447
(lp2448
sg1902
(lp2449
g0
(cmatplotlib.patches
Polygon
p2450
g2
Ntp2451
Rp2452
(dp2453
g6
g1967
sg8
I01
sg41
I00
sg9
g4
sS'_closed'
p2454
I00
sg10
Nsg42
Nsg17
g18
sg43
Nsg20
I01
sg44
g0
(g45
g2
Ntp2455
Rp2456
(dp2457
g49
I1
sg50
Nsg51
g7
sg52
(dp2458
sbsg54
g1984
sg23
Nsg24
Nsg77
g132
(g133
(I0
tp2459
g135
tp2460
Rp2461
(I1
(I4
tp2462
g59
I00
S'\x10\x10\x10\x10\x10\x10\xe0?\x10\x10\x10\x10\x10\x10\xe0?\x10\x10\x10\x10\x10\x10\xe0?\x00\x00\x00\x00\x00\x00\xf0?'
p2463
tp2464
bsg11
Nsg28
I00
sg29
I00
sg30
(dp2465
sg32
I00
sg85
Nsg86
I01
sg87
F1.0
sg88
g1209
sg33
Nsg90
g1984
sg91
Nsg92
I01
sg93
Nsg94
g2461
sg96
Nsg97
g1999
sg99
g100
sg101
g102
sg103
g0
(g104
g105
((lp2466
(lp2467
I0
atp2468
tp2469
Rp2470
sg111
I0
sg112
I01
sg114
Nsg115
g293
sg1879
g2030
sg1881
g1882
sg1883
Nsg25
Nsg1884
g1943
sg34
NsS'_path'
p2471
g0
(cmatplotlib.path
Path
p2472
g2
Ntp2473
Rp2474
(dp2475
S'_should_simplify'
p2476
I00
sS'_codes'
p2477
NsS'_vertices'
p2478
g132
(g133
(I0
tp2479
g135
tp2480
Rp2481
(I1
(I60
I2
tp2482
g59
I00
S'\x82\xdf4\x8d\xc6\x01\xa6?\x00\x00\x00\x00\x00\x00\x00\x00\x82\xdf4\x8d\xc6\x01\xa6?\x00\x00\x00\x00\x00\x00 @\xaa0[\xbe\xe9\xeb\xdd?\x00\x00\x00\x00\x00\x00 @\xaa0[\xbe\xe9\xeb\xdd?\x00\x00\x00\x00\x00\x80H@\xb2\xe2\x87U\xcd\x8b\xec?\x00\x00\x00\x00\x00\x80H@\xb2\xe2\x87U\xcd\x8b\xec?\x00\x00\x00\x00\x00\x00@@\x88\x16\xf1\xe5\xd2\x10\xf5?\x00\x00\x00\x00\x00\x00@@\x88\x16\xf1\xe5\xd2\x10\xf5?\x00\x00\x00\x00\x00\x004@\xb6;\x1e!\xbf\xdb\xfb?\x00\x00\x00\x00\x00\x004@\xb6;\x1e!\xbf\xdb\xfb?\x00\x00\x00\x00\x00\x00<@r\xb0%\xaeUS\x01@\x00\x00\x00\x00\x00\x00<@r\xb0%\xaeUS\x01@\x00\x00\x00\x00\x00\x002@\nC\xbc\xcb\xcb\xb8\x04@\x00\x00\x00\x00\x00\x002@\nC\xbc\xcb\xcb\xb8\x04@\x00\x00\x00\x00\x00\x008@\xa1\xd5R\xe9A\x1e\x08@\x00\x00\x00\x00\x00\x008@\xa1\xd5R\xe9A\x1e\x08@\x00\x00\x00\x00\x00\x00;@8h\xe9\x06\xb8\x83\x0b@\x00\x00\x00\x00\x00\x00;@8h\xe9\x06\xb8\x83\x0b@\x00\x00\x00\x00\x00\x00B@\xcf\xfa\x7f$.\xe9\x0e@\x00\x00\x00\x00\x00\x00B@\xcf\xfa\x7f$.\xe9\x0e@\x00\x00\x00\x00\x00\x003@\xb3F\x0b!R\'\x11@\x00\x00\x00\x00\x00\x003@\xb3F\x0b!R\'\x11@\x00\x00\x00\x00\x00\x001@\xff\x8f\xd6/\r\xda\x12@\x00\x00\x00\x00\x00\x001@\xff\x8f\xd6/\r\xda\x12@\x00\x00\x00\x00\x00\x006@K\xd9\xa1>\xc8\x8c\x14@\x00\x00\x00\x00\x00\x006@K\xd9\xa1>\xc8\x8c\x14@\x00\x00\x00\x00\x00\x004@\x96"mM\x83?\x16@\x00\x00\x00\x00\x00\x004@\x96"mM\x83?\x16@\x00\x00\x00\x00\x00\x00"@\xe2k8\\>\xf2\x17@\x00\x00\x00\x00\x00\x00"@\xe2k8\\>\xf2\x17@\x00\x00\x00\x00\x00\x000@-\xb5\x03k\xf9\xa4\x19@\x00\x00\x00\x00\x00\x000@-\xb5\x03k\xf9\xa4\x19@\x00\x00\x00\x00\x00\x00*@y\xfe\xcey\xb4W\x1b@\x00\x00\x00\x00\x00\x00*@y\xfe\xcey\xb4W\x1b@\x00\x00\x00\x00\x00\x00\x10@\xc5G\x9a\x88o\n\x1d@\x00\x00\x00\x00\x00\x00\x10@\xc5G\x9a\x88o\n\x1d@\x00\x00\x00\x00\x00\x00"@\x10\x91e\x97*\xbd\x1e@\x00\x00\x00\x00\x00\x00"@\x10\x91e\x97*\xbd\x1e@\x00\x00\x00\x00\x00\x00(@.m\x18\xd3\xf27 @\x00\x00\x00\x00\x00\x00(@.m\x18\xd3\xf27 @\x00\x00\x00\x00\x00\x00\x10@\xd4\x11~ZP\x11!@\x00\x00\x00\x00\x00\x00\x10@\xd4\x11~ZP\x11!@\x00\x00\x00\x00\x00\x00\x1c@z\xb6\xe3\xe1\xad\xea!@\x00\x00\x00\x00\x00\x00\x1c@z\xb6\xe3\xe1\xad\xea!@\x00\x00\x00\x00\x00\x00\x08@ [Ii\x0b\xc4"@\x00\x00\x00\x00\x00\x00\x08@ [Ii\x0b\xc4"@\x00\x00\x00\x00\x00\x00\x00@\xc6\xff\xae\xf0h\x9d#@\x00\x00\x00\x00\x00\x00\x00@\xc6\xff\xae\xf0h\x9d#@\x00\x00\x00\x00\x00\x00\xf0?l\xa4\x14x\xc6v$@\x00\x00\x00\x00\x00\x00\xf0?l\xa4\x14x\xc6v$@\x00\x00\x00\x00\x00\x00\x00@\x11Iz\xff#P%@\x00\x00\x00\x00\x00\x00\x00@\x11Iz\xff#P%@\x00\x00\x00\x00\x00\x00\x00\x00\xb7\xed\xdf\x86\x81)&@\x00\x00\x00\x00\x00\x00\x00\x00\xb7\xed\xdf\x86\x81)&@\x00\x00\x00\x00\x00\x00\x00\x00]\x92E\x0e\xdf\x02\'@\x00\x00\x00\x00\x00\x00\x00\x00]\x92E\x0e\xdf\x02\'@\x00\x00\x00\x00\x00\x00\x00\x00\x037\xab\x95<\xdc\'@\x00\x00\x00\x00\x00\x00\x00\x00\x037\xab\x95<\xdc\'@\x00\x00\x00\x00\x00\x00\x00\x00\xa9\xdb\x10\x1d\x9a\xb5(@\x00\x00\x00\x00\x00\x00\x00\x00\xa9\xdb\x10\x1d\x9a\xb5(@\x00\x00\x00\x00\x00\x00\x00\x00'
p2483
tp2484
bsS'_readonly'
p2485
I00
sS'_simplify_threshold'
p2486
F0.1111111111111111
sS'_interpolation_steps'
p2487
I1
sS'_has_nonfinite'
p2488
I00
sbsbag0
(g2450
g2
Ntp2489
Rp2490
(dp2491
g6
g2034
sg8
I01
sg41
I00
sg9
g4
sg2454
I00
sg10
Nsg42
Nsg17
g18
sg43
Nsg20
I01
sg44
g0
(g45
g2
Ntp2492
Rp2493
(dp2494
g49
I1
sg50
Nsg51
g7
sg52
(dp2495
sbsg54
g2051
sg23
Nsg24
Nsg77
g132
(g133
(I0
tp2496
g135
tp2497
Rp2498
(I1
(I4
tp2499
g59
I00
S'\x00\x00\x00\x00\x00\x00\xf0?\x00\x00\x00\x00\x00\x00\x00\x00\x00\x00\x00\x00\x00\x00\x00\x00\x00\x00\x00\x00\x00\x00\xf0?'
p2500
tp2501
bsg11
Nsg28
I00
sg29
I00
sg30
(dp2502
sg32
I00
sg85
Nsg86
I01
sg87
F1.0
sg88
g1781
sg33
Nsg90
g2051
sg91
Nsg92
I01
sg93
Nsg94
g2498
sg96
Nsg97
g2066
sg99
g100
sg101
g102
sg103
g0
(g104
g105
((lp2503
(lp2504
I0
atp2505
tp2506
Rp2507
sg111
I0
sg112
I01
sg114
Nsg115
g293
sg1879
g2096
sg1881
g1882
sg1883
Nsg25
Nsg1884
g1943
sg34
Nsg2471
g0
(g2472
g2
Ntp2508
Rp2509
(dp2510
g2476
I00
sg2477
Nsg2478
g132
(g133
(I0
tp2511
g135
tp2512
Rp2513
(I1
(I60
I2
tp2514
g59
I00
S'\x82\xdf4\x8d\xc6\x01\xa6?\x00\x00\x00\x00\x00\x00\x00\x00\x82\xdf4\x8d\xc6\x01\xa6?\x00\x00\x00\x00\x00\x00\x00\x00\xaa0[\xbe\xe9\xeb\xdd?\x00\x00\x00\x00\x00\x00\x00\x00\xaa0[\xbe\xe9\xeb\xdd?\x00\x00\x00\x00\x00\x00\xf0?\xb2\xe2\x87U\xcd\x8b\xec?\x00\x00\x00\x00\x00\x00\xf0?\xb2\xe2\x87U\xcd\x8b\xec?\x00\x00\x00\x00\x00\x00&@\x88\x16\xf1\xe5\xd2\x10\xf5?\x00\x00\x00\x00\x00\x00&@\x88\x16\xf1\xe5\xd2\x10\xf5?\x00\x00\x00\x00\x00\x00<@\xb6;\x1e!\xbf\xdb\xfb?\x00\x00\x00\x00\x00\x00<@\xb6;\x1e!\xbf\xdb\xfb?\x00\x00\x00\x00\x00\x00;@r\xb0%\xaeUS\x01@\x00\x00\x00\x00\x00\x00;@r\xb0%\xaeUS\x01@\x00\x00\x00\x00\x00\x006@\nC\xbc\xcb\xcb\xb8\x04@\x00\x00\x00\x00\x00\x006@\nC\xbc\xcb\xcb\xb8\x04@\x00\x00\x00\x00\x00\x003@\xa1\xd5R\xe9A\x1e\x08@\x00\x00\x00\x00\x00\x003@\xa1\xd5R\xe9A\x1e\x08@\x00\x00\x00\x00\x00\x001@8h\xe9\x06\xb8\x83\x0b@\x00\x00\x00\x00\x00\x001@8h\xe9\x06\xb8\x83\x0b@\x00\x00\x00\x00\x00\x00,@\xcf\xfa\x7f$.\xe9\x0e@\x00\x00\x00\x00\x00\x00,@\xcf\xfa\x7f$.\xe9\x0e@\x00\x00\x00\x00\x00\x00.@\xb3F\x0b!R\'\x11@\x00\x00\x00\x00\x00\x00.@\xb3F\x0b!R\'\x11@\x00\x00\x00\x00\x00\x001@\xff\x8f\xd6/\r\xda\x12@\x00\x00\x00\x00\x00\x001@\xff\x8f\xd6/\r\xda\x12@\x00\x00\x00\x00\x00\x004@K\xd9\xa1>\xc8\x8c\x14@\x00\x00\x00\x00\x00\x004@K\xd9\xa1>\xc8\x8c\x14@\x00\x00\x00\x00\x00\x00;@\x96"mM\x83?\x16@\x00\x00\x00\x00\x00\x00;@\x96"mM\x83?\x16@\x00\x00\x00\x00\x00\x004@\xe2k8\\>\xf2\x17@\x00\x00\x00\x00\x00\x004@\xe2k8\\>\xf2\x17@\x00\x00\x00\x00\x00\x002@-\xb5\x03k\xf9\xa4\x19@\x00\x00\x00\x00\x00\x002@-\xb5\x03k\xf9\xa4\x19@\x00\x00\x00\x00\x00\x003@y\xfe\xcey\xb4W\x1b@\x00\x00\x00\x00\x00\x003@y\xfe\xcey\xb4W\x1b@\x00\x00\x00\x00\x00\x001@\xc5G\x9a\x88o\n\x1d@\x00\x00\x00\x00\x00\x001@\xc5G\x9a\x88o\n\x1d@\x00\x00\x00\x00\x00\x00"@\x10\x91e\x97*\xbd\x1e@\x00\x00\x00\x00\x00\x00"@\x10\x91e\x97*\xbd\x1e@\x00\x00\x00\x00\x00\x00\x10@.m\x18\xd3\xf27 @\x00\x00\x00\x00\x00\x00\x10@.m\x18\xd3\xf27 @\x00\x00\x00\x00\x00\x00\x1c@\xd4\x11~ZP\x11!@\x00\x00\x00\x00\x00\x00\x1c@\xd4\x11~ZP\x11!@\x00\x00\x00\x00\x00\x00\x14@z\xb6\xe3\xe1\xad\xea!@\x00\x00\x00\x00\x00\x00\x14@z\xb6\xe3\xe1\xad\xea!@\x00\x00\x00\x00\x00\x00\x08@ [Ii\x0b\xc4"@\x00\x00\x00\x00\x00\x00\x08@ [Ii\x0b\xc4"@\x00\x00\x00\x00\x00\x00\xf0?\xc6\xff\xae\xf0h\x9d#@\x00\x00\x00\x00\x00\x00\xf0?\xc6\xff\xae\xf0h\x9d#@\x00\x00\x00\x00\x00\x00\x14@l\xa4\x14x\xc6v$@\x00\x00\x00\x00\x00\x00\x14@l\xa4\x14x\xc6v$@\x00\x00\x00\x00\x00\x00\xf0?\x11Iz\xff#P%@\x00\x00\x00\x00\x00\x00\xf0?\x11Iz\xff#P%@\x00\x00\x00\x00\x00\x00\xf0?\xb7\xed\xdf\x86\x81)&@\x00\x00\x00\x00\x00\x00\xf0?\xb7\xed\xdf\x86\x81)&@\x00\x00\x00\x00\x00\x00\xf0?]\x92E\x0e\xdf\x02\'@\x00\x00\x00\x00\x00\x00\xf0?]\x92E\x0e\xdf\x02\'@\x00\x00\x00\x00\x00\x00\x00\x00\x037\xab\x95<\xdc\'@\x00\x00\x00\x00\x00\x00\x00\x00\x037\xab\x95<\xdc\'@\x00\x00\x00\x00\x00\x00\x00@\xa9\xdb\x10\x1d\x9a\xb5(@\x00\x00\x00\x00\x00\x00\x00@\xa9\xdb\x10\x1d\x9a\xb5(@\x00\x00\x00\x00\x00\x00\x00\x00'
p2515
tp2516
bsg2485
I00
sg2486
F0.1111111111111111
sg2487
I1
sg2488
I00
sbsbasS'title'
p2517
g0
(g2104
g2
Ntp2518
Rp2519
(dp2520
g6
g7
sg8
I01
sg9
g4
sg10
Nsg2108
g0
(g2109
g2
Ntp2521
Rp2522
(dp2523
g2113
(lp2524
g2115
asg2116
Nsg2117
g2118
sg2119
g2118
sg2120
F9.6
sg2121
I400
sg2122
g2118
sbsg42
Nsg17
g18
sg2123
Nsg20
I01
sg23
Nsg75
F1.0
sg76
F0.5
sg24
Nsg25
Nsg11
Nsg28
I00
sg29
I00
sg30
(dp2525
sg2125
Nsg32
I00
sg1884
g1943
sg88
Nsg1883
Nsg2126
Nsg33
Nsg96
Nsg86
I01
sg2127
Vbaseline
p2526
sg2129
V
p2527
sg2131
Nsg103
g0
(g104
g105
((lp2528
(lp2529
tp2530
tp2531
Rp2532
sg111
I0
sg2137
Nsg112
I01
sg114
Nsg2138
F1.2
sg115
g178
sg2163
I00
sg2164
I00
sg43
Nsg2165
g2166
sg2167
Vcenter
p2533
sg34
NsbsS'_current_image'
p2534
NsS'mouseover_set'
p2535
c__builtin__
set
p2536
((lp2537
tp2538
Rp2539
sg11
NsS'_cursorProps'
p2540
(I1
(g55
(g59
S'\x00\x00\x00\x00\x00\x00\x00\x00'
p2541
tp2542
Rp2543
g55
(g59
S'\x00\x00\x00\x00\x00\x00\x00\x00'
p2544
tp2545
Rp2546
g55
(g59
S'\x00\x00\x00\x00\x00\x00\x00\x00'
p2547
tp2548
Rp2549
I1
tp2550
tp2551
sS'numRows'
p2552
I1
sS'collections'
p2553
(lp2554
sg1884
g1943
sg30
(dp2555
sg32
I00
sS'containers'
p2556
(lp2557
sg29
I00
sg88
NsS'_get_lines'
p2558
g0
(g1947
g2
Ntp2559
Rp2560
(dp2561
g1951
g1943
sg1952
Vplot
p2562
sbsS'_aspect'
p2563
Vauto
p2564
sS'fmt_xdata'
p2565
Nsg1891
g0
(g1892
g2
Ntp2566
Rp2567
I01
bsg96
Nsg97
g2387
sg86
I01
sg1896
g186
sS'ignore_existing_data_limits'
p2568
I00
sg24
Nsg111
I0
sg112
I00
sS'_left_title'
p2569
g0
(g2104
g2
Ntp2570
Rp2571
(dp2572
g6
g7
sg8
I01
sg9
g4
sg10
Nsg2108
g0
(g2109
g2
Ntp2573
Rp2574
(dp2575
g2113
g2524
sg2116
Nsg2117
g2118
sg2119
g2118
sg2120
F9.6
sg2121
I400
sg2122
g2118
sbsg42
Nsg17
g18
sg2123
Nsg20
I01
sg23
Nsg75
F1.0
sg76
F0.0
sg24
Nsg25
Nsg11
Nsg28
I00
sg29
I00
sg30
(dp2576
sg2125
Nsg32
I00
sg1884
g1943
sg88
Nsg1883
Nsg2126
Nsg33
Nsg96
Nsg86
I01
sg2127
Vbaseline
p2577
sg2129
V
p2578
sg2131
Nsg103
g0
(g104
g105
((lp2579
(lp2580
tp2581
tp2582
Rp2583
sg111
I0
sg2137
Nsg112
I01
sg114
Nsg2138
F1.2
sg115
g1313
sg2163
I00
sg2164
I00
sg43
Nsg2165
g2166
sg2167
Vleft
p2584
sg34
NsbsS'_right_title'
p2585
g0
(g2104
g2
Ntp2586
Rp2587
(dp2588
g6
g7
sg8
I01
sg9
g4
sg10
Nsg2108
g0
(g2109
g2
Ntp2589
Rp2590
(dp2591
g2113
g2524
sg2116
Nsg2117
g2118
sg2119
g2118
sg2120
F9.6
sg2121
I400
sg2122
g2118
sbsg42
Nsg17
g18
sg2123
Nsg20
I01
sg23
Nsg75
F1.0
sg76
F1.0
sg24
Nsg25
Nsg11
Nsg28
I00
sg29
I00
sg30
(dp2592
sg2125
Nsg32
I00
sg1884
g1943
sg88
Nsg1883
Nsg2126
Nsg33
Nsg96
Nsg86
I01
sg2127
g2577
sg2129
V
p2593
sg2131
Nsg103
g0
(g104
g105
((lp2594
(lp2595
tp2596
tp2597
Rp2598
sg111
I0
sg2137
Nsg112
I01
sg114
Nsg2138
F1.2
sg115
g213
sg2163
I00
sg2164
I00
sg43
Nsg2165
g2166
sg2167
Vright
p2599
sg34
NsbsS'transScale'
p2600
g297
sg115
NsS'axison'
p2601
I01
sS'patch'
p2602
g0
(g36
g2
Ntp2603
Rp2604
(dp2605
g6
g7
sg40
F1.0
sg41
I01
sg9
g4
sg8
I01
sg10
Nsg42
Nsg17
g18
sg43
Nsg20
I01
sg44
g0
(g45
g2
Ntp2606
Rp2607
(dp2608
g49
I1
sg50
Nsg51
g7
sg52
(dp2609
sbsg54
(F0.0
F0.0
F0.0
F0.0
tp2610
sg23
Nsg75
F0.0
sg76
F0.0
sg24
Nsg77
VNone
p2611
sg11
Nsg28
I00
sg29
I00
sg30
(dp2612
sg80
g1740
sg32
I00
sg85
Nsg86
I01
sg87
F0.0
sg88
Nsg89
F1.0
sg33
Nsg90
g2610
sg91
Nsg92
I01
sg93
Nsg94
g2387
sg96
Nsg97
g98
sg99
g100
sg101
g102
sg103
g0
(g104
g105
((lp2613
(lp2614
tp2615
tp2616
Rp2617
sg111
I0
sg112
I01
sg113
F0.0
sg114
Nsg115
g183
sg1879
(NNtp2618
sg1881
g1882
sg1883
Nsg25
Nsg1884
Nsg34
NsbsS'viewLim'
p2619
g306
sg17
g18
sS'_subplotspec'
p2620
g1917
sS'_adjustable'
p2621
Vbox
p2622
sg9
g4
sS'titleOffsetTrans'
p2623
g170
sS'_yaxis_transform'
p2624
g290
sS'_gridOn'
p2625
I00
sg10
NsS'colNum'
p2626
I0
sg42
Nsg1886
(lp2627
sS'_autoscaleXon'
p2628
I01
sS'_xmargin'
p2629
F0.05
sS'rowNum'
p2630
I0
sS'_position'
p2631
g189
sS'_rasterization_zorder'
p2632
NsS'_cachedRenderer'
p2633
NsS'_navigate'
p2634
I01
sg23
NsS'_originalPosition'
p2635
g0
(g127
g2
Ntp2636
Rp2637
(dp2638
g49
I1
sg131
g132
(g133
(I0
tp2639
g135
tp2640
Rp2641
(I1
(I2
tp2642
g59
I00
S'\x00\x00\x00\x00\x00\x00\xf0\x7f\x00\x00\x00\x00\x00\x00\xf0\x7f'
p2643
tp2644
bsg52
(dp2645
sg142
g132
(g133
(I0
tp2646
g135
tp2647
Rp2648
(I1
(I2
I2
tp2649
g59
I00
S'\x00\x00\x00\x00\x00\x00\xc0?\x00\x00\x00\x00\x00\x00\xc0?\xcd\xcc\xcc\xcc\xcc\xcc\xec?)\\\x8f\xc2\xf5(\xec?'
p2650
tp2651
bsg149
g132
(g133
(I0
tp2652
g135
tp2653
Rp2654
(I1
(I2
I2
tp2655
g59
I00
S'\x00\x00\x00\x00\x00\x00\xc0?\x00\x00\x00\x00\x00\x00\xc0?\xcd\xcc\xcc\xcc\xcc\xcc\xec?)\\\x8f\xc2\xf5(\xec?'
p2656
tp2657
bsg156
I01
sg51
g7
sbsg25
NsS'_xaxis_transform'
p2658
g361
sg28
I00
sS'figbox'
p2659
g189
sS'xaxis'
p2660
g0
(cmatplotlib.axis
XAxis
p2661
g2
Ntp2662
Rp2663
(dp2664
g6
g7
sS'major'
p2665
g0
(cmatplotlib.axis
Ticker
p2666
g2
Ntp2667
Rp2668
(dp2669
S'locator'
p2670
g0
(cmatplotlib.ticker
AutoLocator
p2671
g2
Ntp2672
Rp2673
(dp2674
S'_min_n_ticks'
p2675
I2
sS'_symmetric'
p2676
I00
sS'_nbins'
p2677
Vauto
p2678
sS'_steps'
p2679
g132
(g133
(I0
tp2680
g135
tp2681
Rp2682
(I1
(I5
tp2683
g59
I00
S'\x00\x00\x00\x00\x00\x00\xf0?\x00\x00\x00\x00\x00\x00\x00@\x00\x00\x00\x00\x00\x00\x04@\x00\x00\x00\x00\x00\x00\x14@\x00\x00\x00\x00\x00\x00$@'
p2684
tp2685
bsS'_prune'
p2686
NsS'_extended_steps'
p2687
g132
(g133
(I0
tp2688
g135
tp2689
Rp2690
(I1
(I10
tp2691
g59
I00
S'\x9a\x99\x99\x99\x99\x99\xb9?\x9a\x99\x99\x99\x99\x99\xc9?\x00\x00\x00\x00\x00\x00\xd0?\x00\x00\x00\x00\x00\x00\xe0?\x00\x00\x00\x00\x00\x00\xf0?\x00\x00\x00\x00\x00\x00\x00@\x00\x00\x00\x00\x00\x00\x04@\x00\x00\x00\x00\x00\x00\x14@\x00\x00\x00\x00\x00\x00$@\x00\x00\x00\x00\x00\x004@'
p2692
tp2693
bsS'_integer'
p2694
I00
sS'axis'
p2695
g2663
sbsS'formatter'
p2696
g0
(cmatplotlib.ticker
ScalarFormatter
p2697
g2
Ntp2698
Rp2699
(dp2700
S'_powerlimits'
p2701
(lp2702
I-7
aI7
asS'orderOfMagnitude'
p2703
I0
sS'_useOffset'
p2704
I01
sS'_useLocale'
p2705
I00
sS'format'
p2706
g7
sS'_useMathText'
p2707
I00
sS'_offset_threshold'
p2708
I4
sS'offset'
p2709
I0
sg2163
I00
sS'_scientific'
p2710
I01
sg2695
g2663
sbsbsS'isDefault_label'
p2711
I00
sS'_scale'
p2712
g0
(cmatplotlib.scale
LinearScale
p2713
g2
Ntp2714
Rp2715
sg9
g4
sg8
I01
sS'_gridOnMinor'
p2716
I00
sg10
Nsg42
NsS'_smart_bounds'
p2717
I00
sg17
g18
sg20
I01
sg23
NsS'offsetText'
p2718
g0
(g2104
g2
Ntp2719
Rp2720
(dp2721
g6
g7
sg8
I01
sg9
g4
sg10
Nsg2108
g0
(g2109
g2
Ntp2722
Rp2723
(dp2724
g2113
(lp2725
g2115
asg2116
Nsg2117
g2118
sg2119
g2118
sg2120
F8.0
sg2121
I400
sg2122
g2118
sbsg42
Nsg17
g18
sg2123
Nsg20
I01
sg23
Nsg75
I0
sg76
I1
sg24
Nsg25
Nsg11
Nsg28
I00
sg29
I00
sg30
(dp2726
sg2125
Nsg32
I00
sg1884
Nsg88
Nsg1883
Nsg2126
Nsg33
Nsg96
Nsg86
I01
sg2127
Vtop
p2727
sg2129
V
p2728
sg2131
Nsg103
g0
(g104
g105
((lp2729
(lp2730
tp2731
tp2732
Rp2733
sg111
I0
sg2137
Nsg112
I01
sg114
Nsg2138
F1.2
sg115
g1235
sg2163
I00
sg2164
I00
sg43
Nsg2165
V0.
p2734
sg2167
Vright
p2735
sg34
Nsbsg24
Nsg25
Nsg11
NsS'label'
p2736
g0
(g2104
g2
Ntp2737
Rp2738
(dp2739
g6
g7
sg8
I01
sg9
g4
sg10
Nsg2108
g0
(g2109
g2
Ntp2740
Rp2741
(dp2742
g2113
(lp2743
g2115
asg2116
Nsg2117
g2118
sg2119
g2118
sg2120
F10.0
sg2121
I400
sg2122
g2118
sbsg42
Nsg17
g18
sg2123
Nsg20
I01
sg23
Nsg75
I0
sg76
F0.5
sg24
Nsg25
Nsg11
Nsg28
I00
sg29
I00
sg30
(dp2744
sg2125
Nsg32
I00
sg1884
Nsg88
Nsg1883
Nsg2126
Nsg33
Nsg96
Nsg86
I01
sg2127
Vtop
p2745
sg2129
VPSP Amplitude (mV)
p2746
sg2131
Nsg103
g0
(g104
g105
((lp2747
(lp2748
tp2749
tp2750
Rp2751
sg111
I0
sg2137
Nsg112
I01
sg114
Nsg2138
F1.2
sg115
g581
sg2163
I00
sg2164
I00
sg43
Nsg2165
V0.
p2752
sg2167
Vcenter
p2753
sg34
Nsbsg28
I00
sS'isDefault_majfmt'
p2754
I01
sg29
I00
sg30
(dp2755
sS'units'
p2756
Nsg32
I00
sS'minor'
p2757
g0
(g2666
g2
Ntp2758
Rp2759
(dp2760
g2670
g0
(cmatplotlib.ticker
NullLocator
p2761
g2
Ntp2762
Rp2763
(dp2764
g2695
g2663
sbsg2696
g0
(cmatplotlib.ticker
NullFormatter
p2765
g2
Ntp2766
Rp2767
(dp2768
g2695
g2663
sbsbsg1884
g1943
sS'_major_tick_kw'
p2769
(dp2770
Vlabel1On
p2771
I01
sVgridOn
p2772
I00
sVlabel2On
p2773
I00
sVtick1On
p2774
I01
sVtick2On
p2775
I00
ssS'isDefault_minloc'
p2776
I01
sg88
g555
sg33
NsS'_gridOnMajor'
p2777
I00
sS'_lastNumMinorTicks'
p2778
I1
sS'labelpad'
p2779
F4.0
sS'majorTicks'
p2780
(lp2781
g0
(cmatplotlib.axis
XTick
p2782
g2
Ntp2783
Rp2784
(dp2785
g6
g7
sg40
F0.8
sg9
g4
sS'tick1On'
p2786
I01
sg8
I01
sg10
Nsg111
I0
sg42
NsS'_pad'
p2787
F3.5
sS'_labelcolor'
p2788
g2734
sS'gridOn'
p2789
I00
sg2120
F0.0
sg17
g18
sS'_tickdir'
p2790
Vout
p2791
sg2736
g0
(g2104
g2
Ntp2792
Rp2793
(dp2794
g6
g7
sg8
I01
sg9
g4
sg10
Nsg2108
g0
(g2109
g2
Ntp2795
Rp2796
(dp2797
g2113
(lp2798
g2115
asg2116
Nsg2117
g2118
sg2119
g2118
sg2120
F8.0
sg2121
I400
sg2122
g2118
sbsg42
Nsg17
g18
sg2123
Nsg20
I01
sg23
Nsg75
I0
sg76
I0
sg24
Nsg25
Nsg11
Nsg28
I00
sg29
I00
sg30
(dp2799
sg2125
Nsg32
I00
sg1884
Nsg88
Nsg1883
Nsg2126
Nsg33
Nsg96
Nsg86
I01
sg2127
Vtop
p2800
sg2129
V
p2801
sg2131
Nsg103
g0
(g104
g105
((lp2802
(lp2803
tp2804
tp2805
Rp2806
sg111
I0
sg2137
Nsg112
I01
sg114
Nsg2138
F1.2
sg115
g420
sg2163
I00
sg2164
I00
sg43
Nsg2165
g2734
sg2167
Vcenter
p2807
sg34
Nsbsg20
I01
sg23
NsS'label2On'
p2808
I00
sg24
Nsg25
Nsg11
NsS'tick2On'
p2809
I00
sg28
I00
sg29
I00
sg30
(dp2810
sS'_tickmarkers'
p2811
(I3
I2
tp2812
sg32
I00
sS'_zorder'
p2813
F2.01
sg1884
g1943
sS'label1On'
p2814
I01
sg88
g1061
sg1883
NsS'label1'
p2815
g2793
sS'label2'
p2816
g0
(g2104
g2
Ntp2817
Rp2818
(dp2819
g6
g7
sg8
I01
sg9
g4
sg10
Nsg2108
g0
(g2109
g2
Ntp2820
Rp2821
(dp2822
g2113
(lp2823
g2115
asg2116
Nsg2117
g2118
sg2119
g2118
sg2120
F8.0
sg2121
I400
sg2122
g2118
sbsg42
Nsg17
g18
sg2123
Nsg20
I01
sg23
Nsg75
I1
sg76
I0
sg24
Nsg25
Nsg11
Nsg28
I00
sg29
I00
sg30
(dp2824
sg2125
Nsg32
I00
sg1884
Nsg88
Nsg1883
Nsg2126
Nsg33
Nsg96
Nsg86
I01
sg2127
Vbottom
p2825
sg2129
V
p2826
sg2131
Nsg103
g0
(g104
g105
((lp2827
(lp2828
tp2829
tp2830
Rp2831
sg111
I0
sg2137
Nsg112
I01
sg114
Nsg2138
F1.2
sg115
g393
sg2163
I00
sg2164
I00
sg43
Nsg2165
g2734
sg2167
g2807
sg34
Nsbsg96
NsS'_loc'
p2832
I0
sg86
I01
sg103
g0
(g104
g105
((lp2833
(lp2834
tp2835
tp2836
Rp2837
sS'_base_pad'
p2838
F3.5
sS'tick1line'
p2839
g0
(cmatplotlib.lines
Line2D
p2840
g2
Ntp2841
Rp2842
(dp2843
g6
g7
sS'_dashcapstyle'
p2844
Vbutt
p2845
sS'_linestyles'
p2846
Nsg20
I01
sS'_x_filled'
p2847
NsS'ind_offset'
p2848
I0
sg75
Nsg76
Nsg24
Nsg11
Nsg29
I00
sg30
(dp2849
sg32
I00
sg1884
NsS'_markeredgewidth'
p2850
F0.8
sS'_dashSeq'
p2851
NsS'_markerfacecoloralt'
p2852
Vnone
p2853
sS'_markeredgecolor'
p2854
Vauto
p2855
sg96
Nsg86
I01
sS'_xorig'
p2856
(I0
tp2857
sg111
I0
sg112
I01
sS'_invalidy'
p2858
I01
sS'_invalidx'
p2859
I01
sg115
g361
sS'_us_dashSeq'
p2860
NsS'zorder'
p2861
F2.01
sg2165
g2734
sS'pickradius'
p2862
I5
sg9
g4
sS'verticalOffset'
p2863
Nsg10
Nsg42
Nsg17
g18
sS'_solidjoinstyle'
p2864
Vround
p2865
sg23
Nsg25
Nsg28
I00
sS'_markevery'
p2866
Nsg34
NsS'_transformed_path'
p2867
NsS'_marker'
p2868
g0
(cmatplotlib.markers
MarkerStyle
p2869
g2
Ntp2870
Rp2871
(dp2872
g2868
I3
sS'_alt_path'
p2873
NsS'_snap_threshold'
p2874
F1.0
sg115
g0
(g157
g2
Ntp2875
Rp2876
(dp2877
g49
I2
sg50
Nsg120
g132
(g133
(I0
tp2878
g135
tp2879
Rp2880
(I1
(I3
I3
tp2881
g59
I00
S'\x00\x00\x00\x00\x00\x00\xf0?\x00\x00\x00\x00\x00\x00\x00\x00\x00\x00\x00\x00\x00\x00\x00\x00\x00\x00\x00\x00\x00\x00\x00\x00\x00\x00\x00\x00\x00\x00\xf0\xbf\x00\x00\x00\x00\x00\x00\x00\x00\x00\x00\x00\x00\x00\x00\x00\x00\x00\x00\x00\x00\x00\x00\x00\x00\x00\x00\x00\x00\x00\x00\xf0?'
p2882
tp2883
bsg51
g7
sg52
(dp2884
sbsS'_filled'
p2885
I00
sS'_fillstyle'
p2886
Vfull
p2887
sS'_alt_transform'
p2888
Nsg1881
Vbutt
p2889
sg99
Vround
p2890
sg2471
g0
(g2472
g2
Ntp2891
Rp2892
(dp2893
g2476
I00
sg2477
Nsg2478
g132
(g133
(I0
tp2894
g135
tp2895
Rp2896
(I1
(I2
I2
tp2897
g59
I00
S'\x00\x00\x00\x00\x00\x00\x00\x80\x00\x00\x00\x00\x00\x00\x00\x00\x00\x00\x00\x00\x00\x00\x00\x80\x00\x00\x00\x00\x00\x00\xf0?'
p2898
tp2899
bsg2485
I00
sg2486
F0.1111111111111111
sg2487
I1
sg2488
I00
sbsbsS'_markerfacecolor'
p2900
Vauto
p2901
sg88
Nsg33
Nsg92
I01
sS'_xy'
p2902
Nsg101
VNone
p2903
sg103
g0
(g104
g105
((lp2904
(lp2905
tp2906
tp2907
Rp2908
sS'_subslice'
p2909
I00
sS'_drawstyle'
p2910
Vdefault
p2911
sS'_solidcapstyle'
p2912
g2865
sS'_us_dashOffset'
p2913
Nsg114
NsS'_dashjoinstyle'
p2914
g2865
sS'_markersize'
p2915
F0.0
sg8
I01
sS'_dashOffset'
p2916
Nsg43
Nsg1883
NsS'_yorig'
p2917
(I0
tp2918
sg87
F0.5
sg2471
Nsbsg112
I00
sS'gridline'
p2919
g0
(g2840
g2
Ntp2920
Rp2921
(dp2922
g6
g7
sg8
I01
sg2912
g2865
sg9
g4
sg2844
g2845
sg2846
Nsg10
Nsg42
Nsg17
g18
sg2864
g2865
sg20
I01
sg2847
Nsg23
Nsg75
g132
(g133
(I0
tp2923
g135
tp2924
Rp2925
(I1
(I2
tp2926
g59
I00
S'\x00\x00\x00\x00\x00\x00\x00\x00\x00\x00\x00\x00\x00\x00\xf0?'
p2927
tp2928
bsg76
g132
(g133
(I0
tp2929
g135
tp2930
Rp2931
(I1
(I2
tp2932
g59
I00
S'\x00\x00\x00\x00\x00\x00\x00\x00\x00\x00\x00\x00\x00\x00\x00\x00'
p2933
tp2934
bsg24
Nsg25
Nsg11
Nsg2856
(F0.0
F0.0
tp2935
sg28
I00
sg2866
Nsg29
I00
sg30
(dp2936
sg2863
Nsg32
I00
sg2909
I00
sg1884
Nsg2867
Nsg2850
F1.0
sg2900
g2901
sg2851
Nsg2165
V.8
p2937
sg2868
g0
(g2869
g2
Ntp2938
Rp2939
(dp2940
g2868
VNone
p2941
sg2873
Nsg2874
Nsg115
g0
(g45
g2
Ntp2942
Rp2943
(dp2944
g49
I1
sg50
Nsg51
g7
sg52
(dp2945
sbsg2885
I00
sg2886
g2887
sg2888
Nsg1881
g2889
sg99
g2890
sg2471
g0
(g2472
g2
Ntp2946
Rp2947
(dp2948
g2476
I00
sg2477
Nsg2478
g132
(g133
(I0
tp2949
g135
tp2950
Rp2951
(I1
(I0
I2
tp2952
g59
I00
S''
p2953
tp2954
bsg2485
I00
sg2486
F0.1111111111111111
sg2487
I1
sg2488
I00
sbsbsg33
Nsg2852
g2853
sg92
I01
sg2854
g2855
sg96
Nsg2915
F0.0
sg86
I01
sg2902
g132
(g133
(I0
tp2955
g135
tp2956
Rp2957
(I1
(I2
I2
tp2958
g59
I00
S'\x00\x00\x00\x00\x00\x00\x00\x00\x00\x00\x00\x00\x00\x00\x00\x00\x00\x00\x00\x00\x00\x00\x00\x00\x00\x00\x00\x00\x00\x00\xf0?'
p2959
tp2960
bsg101
V-
p2961
sg103
g0
(g104
g105
((lp2962
(lp2963
tp2964
tp2965
Rp2966
sg111
I0
sg2910
g2911
sg2848
I0
sg2913
Nsg2862
I5
sg112
I01
sg114
F1.0
sg2914
g2865
sg2859
I00
sg115
g361
sg2916
Nsg2860
Nsg2858
I00
sg43
Nsg1883
Nsg2917
(I0
F1.0
tp2967
sg88
g1851
sg87
F0.8
sg34
Nsg2471
g0
(g2472
g2
Ntp2968
Rp2969
(dp2970
g2476
I00
sg2477
Nsg2478
g2957
sg2485
I00
sg2486
F0.1111111111111111
sg2487
I180
sg2488
I00
sbsbsg114
Nsg33
NsS'tick2line'
p2971
g0
(g2840
g2
Ntp2972
Rp2973
(dp2974
g6
g7
sg2844
g2845
sg2846
Nsg20
I01
sg2847
Nsg2848
I0
sg75
Nsg76
Nsg24
Nsg11
Nsg29
I00
sg30
(dp2975
sg32
I00
sg1884
Nsg2850
F0.8
sg2851
Nsg2852
g2853
sg2854
g2855
sg96
Nsg86
I01
sg2856
(I0
tp2976
sg111
I0
sg112
I01
sg2858
I01
sg2859
I01
sg115
g361
sg2860
Nsg2861
F2.01
sg2165
g2734
sg2862
I5
sg9
g4
sg2863
Nsg10
Nsg42
Nsg17
g18
sg2864
g2865
sg23
Nsg25
Nsg28
I00
sg2866
Nsg34
Nsg2867
Nsg2868
g0
(g2869
g2
Ntp2977
Rp2978
(dp2979
g2868
I2
sg2873
Nsg2874
F1.0
sg115
g0
(g157
g2
Ntp2980
Rp2981
(dp2982
g49
I2
sg50
Nsg120
g132
(g133
(I0
tp2983
g135
tp2984
Rp2985
(I1
(I3
I3
tp2986
g59
I00
S'\x00\x00\x00\x00\x00\x00\xf0?\x00\x00\x00\x00\x00\x00\x00\x00\x00\x00\x00\x00\x00\x00\x00\x00\x00\x00\x00\x00\x00\x00\x00\x00\x00\x00\x00\x00\x00\x00\xf0?\x00\x00\x00\x00\x00\x00\x00\x00\x00\x00\x00\x00\x00\x00\x00\x00\x00\x00\x00\x00\x00\x00\x00\x00\x00\x00\x00\x00\x00\x00\xf0?'
p2987
tp2988
bsg51
g7
sg52
(dp2989
sbsg2885
I00
sg2886
g2887
sg2888
Nsg1881
g2889
sg99
g2890
sg2471
g2892
sbsg2900
g2901
sg88
Nsg33
Nsg92
I01
sg2902
Nsg101
VNone
p2990
sg103
g0
(g104
g105
((lp2991
(lp2992
tp2993
tp2994
Rp2995
sg2909
I00
sg2910
g2911
sg2912
g2865
sg2913
Nsg114
Nsg2914
g2865
sg2915
F0.0
sg8
I01
sg2916
Nsg43
Nsg1883
Nsg2917
(I1
tp2996
sg87
F0.5
sg2471
Nsbsg115
NsS'_labelsize'
p2997
F8.0
sS'_name'
p2998
Vxtick
p2999
sg43
Nsg2165
g2734
sg34
Nsbag0
(g2782
g2
Ntp3000
Rp3001
(dp3002
g6
g7
sg40
F0.8
sg9
g4
sg2786
I01
sg8
I01
sg10
Nsg111
I0
sg42
Nsg2787
F3.5
sg2788
g2734
sg2789
I00
sg2120
F0.0
sg17
g18
sg2790
g2791
sg2736
g0
(g2104
g2
Ntp3003
Rp3004
(dp3005
g6
g7
sg8
I01
sg9
g4
sg10
Nsg2108
g0
(g2109
g2
Ntp3006
Rp3007
(dp3008
g2113
(lp3009
g2115
asg2116
Nsg2117
g2118
sg2119
g2118
sg2120
F8.0
sg2121
I400
sg2122
g2118
sbsg42
Nsg17
g18
sg2123
Nsg20
I01
sg23
Nsg75
I0
sg76
I0
sg24
Nsg25
Nsg11
Nsg28
I00
sg29
I00
sg30
(dp3010
sg2125
Nsg32
I00
sg1884
Nsg88
Nsg1883
Nsg2126
Nsg33
Nsg96
Nsg86
I01
sg2127
g2800
sg2129
V
p3011
sg2131
Nsg103
g0
(g104
g105
((lp3012
(lp3013
tp3014
tp3015
Rp3016
sg111
I0
sg2137
Nsg112
I01
sg114
Nsg2138
F1.2
sg115
g375
sg2163
I00
sg2164
I00
sg43
Nsg2165
g2734
sg2167
g2807
sg34
Nsbsg20
I01
sg23
Nsg2808
I00
sg24
Nsg25
Nsg11
Nsg2809
I00
sg28
I00
sg29
I00
sg30
(dp3017
sg2811
(I3
I2
tp3018
sg32
I00
sg2813
F2.01
sg1884
g1943
sg2814
I01
sg88
g1287
sg1883
Nsg2815
g3004
sg2816
g0
(g2104
g2
Ntp3019
Rp3020
(dp3021
g6
g7
sg8
I01
sg9
g4
sg10
Nsg2108
g0
(g2109
g2
Ntp3022
Rp3023
(dp3024
g2113
(lp3025
g2115
asg2116
Nsg2117
g2118
sg2119
g2118
sg2120
F8.0
sg2121
I400
sg2122
g2118
sbsg42
Nsg17
g18
sg2123
Nsg20
I01
sg23
Nsg75
I1
sg76
I0
sg24
Nsg25
Nsg11
Nsg28
I00
sg29
I00
sg30
(dp3026
sg2125
Nsg32
I00
sg1884
Nsg88
Nsg1883
Nsg2126
Nsg33
Nsg96
Nsg86
I01
sg2127
g2825
sg2129
V
p3027
sg2131
Nsg103
g0
(g104
g105
((lp3028
(lp3029
tp3030
tp3031
Rp3032
sg111
I0
sg2137
Nsg112
I01
sg114
Nsg2138
F1.2
sg115
g384
sg2163
I00
sg2164
I00
sg43
Nsg2165
g2734
sg2167
g2807
sg34
Nsbsg96
Nsg2832
I0
sg86
I01
sg103
g0
(g104
g105
((lp3033
(lp3034
tp3035
tp3036
Rp3037
sg2838
F3.5
sg2839
g0
(g2840
g2
Ntp3038
Rp3039
(dp3040
g6
g7
sg2844
g2845
sg2846
Nsg20
I01
sg2847
Nsg2848
I0
sg75
Nsg76
Nsg24
Nsg11
Nsg29
I00
sg30
(dp3041
sg32
I00
sg1884
Nsg2850
F0.8
sg2851
Nsg2852
g2853
sg2854
g2855
sg96
Nsg86
I01
sg2856
(I0
tp3042
sg111
I0
sg112
I01
sg2858
I01
sg2859
I01
sg115
g361
sg2860
Nsg2861
F2.01
sg2165
g2734
sg2862
I5
sg9
g4
sg2863
Nsg10
Nsg42
Nsg17
g18
sg2864
g2865
sg23
Nsg25
Nsg28
I00
sg2866
Nsg34
Nsg2867
Nsg2868
g0
(g2869
g2
Ntp3043
Rp3044
(dp3045
g2868
I3
sg2873
Nsg2874
F1.0
sg115
g0
(g157
g2
Ntp3046
Rp3047
(dp3048
g49
I2
sg50
Nsg120
g132
(g133
(I0
tp3049
g135
tp3050
Rp3051
(I1
(I3
I3
tp3052
g59
I00
S'\x00\x00\x00\x00\x00\x00\xf0?\x00\x00\x00\x00\x00\x00\x00\x00\x00\x00\x00\x00\x00\x00\x00\x00\x00\x00\x00\x00\x00\x00\x00\x00\x00\x00\x00\x00\x00\x00\xf0\xbf\x00\x00\x00\x00\x00\x00\x00\x00\x00\x00\x00\x00\x00\x00\x00\x00\x00\x00\x00\x00\x00\x00\x00\x00\x00\x00\x00\x00\x00\x00\xf0?'
p3053
tp3054
bsg51
g7
sg52
(dp3055
sbsg2885
I00
sg2886
g2887
sg2888
Nsg1881
g2889
sg99
g2890
sg2471
g2892
sbsg2900
g2901
sg88
Nsg33
Nsg92
I01
sg2902
Nsg101
g2903
sg103
g0
(g104
g105
((lp3056
(lp3057
tp3058
tp3059
Rp3060
sg2909
I00
sg2910
g2911
sg2912
g2865
sg2913
Nsg114
Nsg2914
g2865
sg2915
F0.0
sg8
I01
sg2916
Nsg43
Nsg1883
Nsg2917
g2918
sg87
F0.5
sg2471
Nsbsg112
I00
sg2919
g0
(g2840
g2
Ntp3061
Rp3062
(dp3063
g6
g7
sg8
I01
sg2912
g2865
sg9
g4
sg2844
g2845
sg2846
Nsg10
Nsg42
Nsg17
g18
sg2864
g2865
sg20
I01
sg2847
Nsg23
Nsg75
g132
(g133
(I0
tp3064
g135
tp3065
Rp3066
(I1
(I2
tp3067
g59
I00
S'\x00\x00\x00\x00\x00\x00\x00\x00\x00\x00\x00\x00\x00\x00\xf0?'
p3068
tp3069
bsg76
g132
(g133
(I0
tp3070
g135
tp3071
Rp3072
(I1
(I2
tp3073
g59
I00
S'\x00\x00\x00\x00\x00\x00\x00\x00\x00\x00\x00\x00\x00\x00\x00\x00'
p3074
tp3075
bsg24
Nsg25
Nsg11
Nsg2856
g2935
sg28
I00
sg2866
Nsg29
I00
sg30
(dp3076
sg2863
Nsg32
I00
sg2909
I00
sg1884
Nsg2867
Nsg2850
F1.0
sg2900
g2901
sg2851
Nsg2165
g2937
sg2868
g0
(g2869
g2
Ntp3077
Rp3078
(dp3079
g2868
g2941
sg2873
Nsg2874
Nsg115
g0
(g45
g2
Ntp3080
Rp3081
(dp3082
g49
I1
sg50
Nsg51
g7
sg52
(dp3083
sbsg2885
I00
sg2886
g2887
sg2888
Nsg1881
g2889
sg99
g2890
sg2471
g0
(g2472
g2
Ntp3084
Rp3085
(dp3086
g2476
I00
sg2477
Nsg2478
g132
(g133
(I0
tp3087
g135
tp3088
Rp3089
(I1
(I0
I2
tp3090
g59
I00
g2953
tp3091
bsg2485
I00
sg2486
F0.1111111111111111
sg2487
I1
sg2488
I00
sbsbsg33
Nsg2852
g2853
sg92
I01
sg2854
g2855
sg96
Nsg2915
F0.0
sg86
I01
sg2902
g132
(g133
(I0
tp3092
g135
tp3093
Rp3094
(I1
(I2
I2
tp3095
g59
I00
S'\x00\x00\x00\x00\x00\x00\x00\x00\x00\x00\x00\x00\x00\x00\x00\x00\x00\x00\x00\x00\x00\x00\x00\x00\x00\x00\x00\x00\x00\x00\xf0?'
p3096
tp3097
bsg101
g2961
sg103
g0
(g104
g105
((lp3098
(lp3099
tp3100
tp3101
Rp3102
sg111
I0
sg2910
g2911
sg2848
I0
sg2913
Nsg2862
I5
sg112
I01
sg114
F1.0
sg2914
g2865
sg2859
I00
sg115
g361
sg2916
Nsg2860
Nsg2858
I00
sg43
Nsg1883
Nsg2917
g2967
sg88
g1501
sg87
F0.8
sg34
Nsg2471
g0
(g2472
g2
Ntp3103
Rp3104
(dp3105
g2476
I00
sg2477
Nsg2478
g3094
sg2485
I00
sg2486
F0.1111111111111111
sg2487
I180
sg2488
I00
sbsbsg114
Nsg33
Nsg2971
g0
(g2840
g2
Ntp3106
Rp3107
(dp3108
g6
g7
sg2844
g2845
sg2846
Nsg20
I01
sg2847
Nsg2848
I0
sg75
Nsg76
Nsg24
Nsg11
Nsg29
I00
sg30
(dp3109
sg32
I00
sg1884
Nsg2850
F0.8
sg2851
Nsg2852
g2853
sg2854
g2855
sg96
Nsg86
I01
sg2856
(I0
tp3110
sg111
I0
sg112
I01
sg2858
I01
sg2859
I01
sg115
g361
sg2860
Nsg2861
F2.01
sg2165
g2734
sg2862
I5
sg9
g4
sg2863
Nsg10
Nsg42
Nsg17
g18
sg2864
g2865
sg23
Nsg25
Nsg28
I00
sg2866
Nsg34
Nsg2867
Nsg2868
g0
(g2869
g2
Ntp3111
Rp3112
(dp3113
g2868
I2
sg2873
Nsg2874
F1.0
sg115
g0
(g157
g2
Ntp3114
Rp3115
(dp3116
g49
I2
sg50
Nsg120
g132
(g133
(I0
tp3117
g135
tp3118
Rp3119
(I1
(I3
I3
tp3120
g59
I00
S'\x00\x00\x00\x00\x00\x00\xf0?\x00\x00\x00\x00\x00\x00\x00\x00\x00\x00\x00\x00\x00\x00\x00\x00\x00\x00\x00\x00\x00\x00\x00\x00\x00\x00\x00\x00\x00\x00\xf0?\x00\x00\x00\x00\x00\x00\x00\x00\x00\x00\x00\x00\x00\x00\x00\x00\x00\x00\x00\x00\x00\x00\x00\x00\x00\x00\x00\x00\x00\x00\xf0?'
p3121
tp3122
bsg51
g7
sg52
(dp3123
sbsg2885
I00
sg2886
g2887
sg2888
Nsg1881
g2889
sg99
g2890
sg2471
g2892
sbsg2900
g2901
sg88
Nsg33
Nsg92
I01
sg2902
Nsg101
g2990
sg103
g0
(g104
g105
((lp3124
(lp3125
tp3126
tp3127
Rp3128
sg2909
I00
sg2910
g2911
sg2912
g2865
sg2913
Nsg114
Nsg2914
g2865
sg2915
F0.0
sg8
I01
sg2916
Nsg43
Nsg1883
Nsg2917
g2996
sg87
F0.5
sg2471
Nsbsg115
Nsg2997
F8.0
sg2998
g2999
sg43
Nsg2165
g2734
sg34
NsbasS'isDefault_majloc'
p3129
I01
sg1891
g0
(g1892
g2
Ntp3130
Rp3131
I01
bsg96
Nsg86
I01
sS'_autolabelpos'
p3132
I01
sg103
g0
(g104
g105
((lp3133
(lp3134
tp3135
tp3136
Rp3137
sg111
I0
sS'_lastNumMajorTicks'
p3138
I1
sS'converter'
p3139
Nsg112
I00
sg114
NsS'offset_text_position'
p3140
Vbottom
p3141
sg115
NsS'label_position'
p3142
Vbottom
p3143
sg43
Nsg1883
Nsg2862
I15
sS'minorTicks'
p3144
(lp3145
g0
(g2782
g2
Ntp3146
Rp3147
(dp3148
g6
g7
sg40
F0.6
sg9
g4
sg2786
I01
sg8
I01
sg10
Nsg111
I0
sg42
Nsg2787
F3.4
sg2788
g2734
sg2789
I00
sg2120
F0.0
sg17
g18
sg2790
g2791
sg2736
g0
(g2104
g2
Ntp3149
Rp3150
(dp3151
g6
g7
sg8
I01
sg9
g4
sg10
Nsg2108
g0
(g2109
g2
Ntp3152
Rp3153
(dp3154
g2113
(lp3155
g2115
asg2116
Nsg2117
g2118
sg2119
g2118
sg2120
F8.0
sg2121
I400
sg2122
g2118
sbsg42
Nsg17
g18
sg2123
Nsg20
I01
sg23
Nsg75
I0
sg76
I0
sg24
Nsg25
Nsg11
Nsg28
I00
sg29
I00
sg30
(dp3156
sg2125
Nsg32
I00
sg1884
Nsg88
Nsg1883
Nsg2126
Nsg33
Nsg96
Nsg86
I01
sg2127
g2800
sg2129
V
p3157
sg2131
Nsg103
g0
(g104
g105
((lp3158
(lp3159
tp3160
tp3161
Rp3162
sg111
I0
sg2137
Nsg112
I01
sg114
Nsg2138
F1.2
sg115
g366
sg2163
I00
sg2164
I00
sg43
Nsg2165
g2734
sg2167
g2807
sg34
Nsbsg20
I01
sg23
Nsg2808
I00
sg24
Nsg25
Nsg11
Nsg2809
I00
sg28
I00
sg29
I00
sg30
(dp3163
sg2811
(I3
I2
tp3164
sg32
I00
sg2813
I2
sg1884
g1943
sg2814
I01
sg88
g703
sg1883
Nsg2815
g3150
sg2816
g0
(g2104
g2
Ntp3165
Rp3166
(dp3167
g6
g7
sg8
I01
sg9
g4
sg10
Nsg2108
g0
(g2109
g2
Ntp3168
Rp3169
(dp3170
g2113
(lp3171
g2115
asg2116
Nsg2117
g2118
sg2119
g2118
sg2120
F8.0
sg2121
I400
sg2122
g2118
sbsg42
Nsg17
g18
sg2123
Nsg20
I01
sg23
Nsg75
I1
sg76
I0
sg24
Nsg25
Nsg11
Nsg28
I00
sg29
I00
sg30
(dp3172
sg2125
Nsg32
I00
sg1884
Nsg88
Nsg1883
Nsg2126
Nsg33
Nsg96
Nsg86
I01
sg2127
g2825
sg2129
V
p3173
sg2131
Nsg103
g0
(g104
g105
((lp3174
(lp3175
tp3176
tp3177
Rp3178
sg111
I0
sg2137
Nsg112
I01
sg114
Nsg2138
F1.2
sg115
g402
sg2163
I00
sg2164
I00
sg43
Nsg2165
g2734
sg2167
g2807
sg34
Nsbsg96
Nsg2832
I0
sg86
I01
sg103
g0
(g104
g105
((lp3179
(lp3180
tp3181
tp3182
Rp3183
sg2838
F3.4
sg2839
g0
(g2840
g2
Ntp3184
Rp3185
(dp3186
g6
g7
sg2844
g2845
sg2846
Nsg20
I01
sg2847
Nsg2848
I0
sg75
Nsg76
Nsg24
Nsg11
Nsg29
I00
sg30
(dp3187
sg32
I00
sg1884
Nsg2850
F0.6
sg2851
Nsg2852
g2853
sg2854
g2855
sg96
Nsg86
I01
sg2856
(I0
tp3188
sg111
I0
sg112
I01
sg2858
I01
sg2859
I01
sg115
g361
sg2860
Nsg2861
I2
sg2165
g2734
sg2862
I5
sg9
g4
sg2863
Nsg10
Nsg42
Nsg17
g18
sg2864
g2865
sg23
Nsg25
Nsg28
I00
sg2866
Nsg34
Nsg2867
Nsg2868
g0
(g2869
g2
Ntp3189
Rp3190
(dp3191
g2868
I3
sg2873
Nsg2874
F1.0
sg115
g0
(g157
g2
Ntp3192
Rp3193
(dp3194
g49
I2
sg50
Nsg120
g132
(g133
(I0
tp3195
g135
tp3196
Rp3197
(I1
(I3
I3
tp3198
g59
I00
S'\x00\x00\x00\x00\x00\x00\xf0?\x00\x00\x00\x00\x00\x00\x00\x00\x00\x00\x00\x00\x00\x00\x00\x00\x00\x00\x00\x00\x00\x00\x00\x00\x00\x00\x00\x00\x00\x00\xf0\xbf\x00\x00\x00\x00\x00\x00\x00\x00\x00\x00\x00\x00\x00\x00\x00\x00\x00\x00\x00\x00\x00\x00\x00\x00\x00\x00\x00\x00\x00\x00\xf0?'
p3199
tp3200
bsg51
g7
sg52
(dp3201
sbsg2885
I00
sg2886
g2887
sg2888
Nsg1881
g2889
sg99
g2890
sg2471
g2892
sbsg2900
g2901
sg88
Nsg33
Nsg92
I01
sg2902
Nsg101
g2903
sg103
g0
(g104
g105
((lp3202
(lp3203
tp3204
tp3205
Rp3206
sg2909
I00
sg2910
g2911
sg2912
g2865
sg2913
Nsg114
Nsg2914
g2865
sg2915
F0.0
sg8
I01
sg2916
Nsg43
Nsg1883
Nsg2917
g2918
sg87
F0.5
sg2471
Nsbsg112
I00
sg2919
g0
(g2840
g2
Ntp3207
Rp3208
(dp3209
g6
g7
sg8
I01
sg2912
g2865
sg9
g4
sg2844
g2845
sg2846
Nsg10
Nsg42
Nsg17
g18
sg2864
g2865
sg20
I01
sg2847
Nsg23
Nsg75
g132
(g133
(I0
tp3210
g135
tp3211
Rp3212
(I1
(I2
tp3213
g59
I00
S'\x00\x00\x00\x00\x00\x00\x00\x00\x00\x00\x00\x00\x00\x00\xf0?'
p3214
tp3215
bsg76
g132
(g133
(I0
tp3216
g135
tp3217
Rp3218
(I1
(I2
tp3219
g59
I00
S'\x00\x00\x00\x00\x00\x00\x00\x00\x00\x00\x00\x00\x00\x00\x00\x00'
p3220
tp3221
bsg24
Nsg25
Nsg11
Nsg2856
g2935
sg28
I00
sg2866
Nsg29
I00
sg30
(dp3222
sg2863
Nsg32
I00
sg2909
I00
sg1884
Nsg2867
Nsg2850
F1.0
sg2900
g2901
sg2851
Nsg2165
g2937
sg2868
g0
(g2869
g2
Ntp3223
Rp3224
(dp3225
g2868
g2941
sg2873
Nsg2874
Nsg115
g0
(g45
g2
Ntp3226
Rp3227
(dp3228
g49
I1
sg50
Nsg51
g7
sg52
(dp3229
sbsg2885
I00
sg2886
g2887
sg2888
Nsg1881
g2889
sg99
g2890
sg2471
g0
(g2472
g2
Ntp3230
Rp3231
(dp3232
g2476
I00
sg2477
Nsg2478
g132
(g133
(I0
tp3233
g135
tp3234
Rp3235
(I1
(I0
I2
tp3236
g59
I00
g2953
tp3237
bsg2485
I00
sg2486
F0.1111111111111111
sg2487
I1
sg2488
I00
sbsbsg33
Nsg2852
g2853
sg92
I01
sg2854
g2855
sg96
Nsg2915
F0.0
sg86
I01
sg2902
g132
(g133
(I0
tp3238
g135
tp3239
Rp3240
(I1
(I2
I2
tp3241
g59
I00
S'\x00\x00\x00\x00\x00\x00\x00\x00\x00\x00\x00\x00\x00\x00\x00\x00\x00\x00\x00\x00\x00\x00\x00\x00\x00\x00\x00\x00\x00\x00\xf0?'
p3242
tp3243
bsg101
g2961
sg103
g0
(g104
g105
((lp3244
(lp3245
tp3246
tp3247
Rp3248
sg111
I0
sg2910
g2911
sg2848
I0
sg2913
Nsg2862
I5
sg112
I01
sg114
F1.0
sg2914
g2865
sg2859
I00
sg115
g361
sg2916
Nsg2860
Nsg2858
I00
sg43
Nsg1883
Nsg2917
g2967
sg88
g263
sg87
F0.8
sg34
Nsg2471
g0
(g2472
g2
Ntp3249
Rp3250
(dp3251
g2476
I00
sg2477
Nsg2478
g3240
sg2485
I00
sg2486
F0.1111111111111111
sg2487
I180
sg2488
I00
sbsbsg114
Nsg33
Nsg2971
g0
(g2840
g2
Ntp3252
Rp3253
(dp3254
g6
g7
sg2844
g2845
sg2846
Nsg20
I01
sg2847
Nsg2848
I0
sg75
Nsg76
Nsg24
Nsg11
Nsg29
I00
sg30
(dp3255
sg32
I00
sg1884
Nsg2850
F0.6
sg2851
Nsg2852
g2853
sg2854
g2855
sg96
Nsg86
I01
sg2856
(I0
tp3256
sg111
I0
sg112
I01
sg2858
I01
sg2859
I01
sg115
g361
sg2860
Nsg2861
I2
sg2165
g2734
sg2862
I5
sg9
g4
sg2863
Nsg10
Nsg42
Nsg17
g18
sg2864
g2865
sg23
Nsg25
Nsg28
I00
sg2866
Nsg34
Nsg2867
Nsg2868
g0
(g2869
g2
Ntp3257
Rp3258
(dp3259
g2868
I2
sg2873
Nsg2874
F1.0
sg115
g0
(g157
g2
Ntp3260
Rp3261
(dp3262
g49
I2
sg50
Nsg120
g132
(g133
(I0
tp3263
g135
tp3264
Rp3265
(I1
(I3
I3
tp3266
g59
I00
S'\x00\x00\x00\x00\x00\x00\xf0?\x00\x00\x00\x00\x00\x00\x00\x00\x00\x00\x00\x00\x00\x00\x00\x00\x00\x00\x00\x00\x00\x00\x00\x00\x00\x00\x00\x00\x00\x00\xf0?\x00\x00\x00\x00\x00\x00\x00\x00\x00\x00\x00\x00\x00\x00\x00\x00\x00\x00\x00\x00\x00\x00\x00\x00\x00\x00\x00\x00\x00\x00\xf0?'
p3267
tp3268
bsg51
g7
sg52
(dp3269
sbsg2885
I00
sg2886
g2887
sg2888
Nsg1881
g2889
sg99
g2890
sg2471
g2892
sbsg2900
g2901
sg88
Nsg33
Nsg92
I01
sg2902
Nsg101
g2990
sg103
g0
(g104
g105
((lp3270
(lp3271
tp3272
tp3273
Rp3274
sg2909
I00
sg2910
g2911
sg2912
g2865
sg2913
Nsg114
Nsg2914
g2865
sg2915
F0.0
sg8
I01
sg2916
Nsg43
Nsg1883
Nsg2917
g2996
sg87
F0.5
sg2471
Nsbsg115
Nsg2997
F8.0
sg2998
g2999
sg43
Nsg2165
g2734
sg34
Nsbag0
(g2782
g2
Ntp3275
Rp3276
(dp3277
g6
g7
sg40
F0.6
sg9
g4
sg2786
I01
sg8
I01
sg10
Nsg111
I0
sg42
Nsg2787
F3.4
sg2788
g2734
sg2789
I00
sg2120
F0.0
sg17
g18
sg2790
g2791
sg2736
g0
(g2104
g2
Ntp3278
Rp3279
(dp3280
g6
g7
sg8
I01
sg9
g4
sg10
Nsg2108
g0
(g2109
g2
Ntp3281
Rp3282
(dp3283
g2113
(lp3284
g2115
asg2116
Nsg2117
g2118
sg2119
g2118
sg2120
F8.0
sg2121
I400
sg2122
g2118
sbsg42
Nsg17
g18
sg2123
Nsg20
I01
sg23
Nsg75
I0
sg76
I0
sg24
Nsg25
Nsg11
Nsg28
I00
sg29
I00
sg30
(dp3285
sg2125
Nsg32
I00
sg1884
Nsg88
Nsg1883
Nsg2126
Nsg33
Nsg96
Nsg86
I01
sg2127
g2800
sg2129
V
p3286
sg2131
Nsg103
g0
(g104
g105
((lp3287
(lp3288
tp3289
tp3290
Rp3291
sg111
I0
sg2137
Nsg112
I01
sg114
Nsg2138
F1.2
sg115
g429
sg2163
I00
sg2164
I00
sg43
Nsg2165
g2734
sg2167
g2807
sg34
Nsbsg20
I01
sg23
Nsg2808
I00
sg24
Nsg25
Nsg11
Nsg2809
I00
sg28
I00
sg29
I00
sg30
(dp3292
sg2811
(I3
I2
tp3293
sg32
I00
sg2813
I2
sg1884
g1943
sg2814
I01
sg88
g633
sg1883
Nsg2815
g3279
sg2816
g0
(g2104
g2
Ntp3294
Rp3295
(dp3296
g6
g7
sg8
I01
sg9
g4
sg10
Nsg2108
g0
(g2109
g2
Ntp3297
Rp3298
(dp3299
g2113
(lp3300
g2115
asg2116
Nsg2117
g2118
sg2119
g2118
sg2120
F8.0
sg2121
I400
sg2122
g2118
sbsg42
Nsg17
g18
sg2123
Nsg20
I01
sg23
Nsg75
I1
sg76
I0
sg24
Nsg25
Nsg11
Nsg28
I00
sg29
I00
sg30
(dp3301
sg2125
Nsg32
I00
sg1884
Nsg88
Nsg1883
Nsg2126
Nsg33
Nsg96
Nsg86
I01
sg2127
g2825
sg2129
V
p3302
sg2131
Nsg103
g0
(g104
g105
((lp3303
(lp3304
tp3305
tp3306
Rp3307
sg111
I0
sg2137
Nsg112
I01
sg114
Nsg2138
F1.2
sg115
g411
sg2163
I00
sg2164
I00
sg43
Nsg2165
g2734
sg2167
g2807
sg34
Nsbsg96
Nsg2832
I0
sg86
I01
sg103
g0
(g104
g105
((lp3308
(lp3309
tp3310
tp3311
Rp3312
sg2838
F3.4
sg2839
g0
(g2840
g2
Ntp3313
Rp3314
(dp3315
g6
g7
sg2844
g2845
sg2846
Nsg20
I01
sg2847
Nsg2848
I0
sg75
Nsg76
Nsg24
Nsg11
Nsg29
I00
sg30
(dp3316
sg32
I00
sg1884
Nsg2850
F0.6
sg2851
Nsg2852
g2853
sg2854
g2855
sg96
Nsg86
I01
sg2856
(I0
tp3317
sg111
I0
sg112
I01
sg2858
I01
sg2859
I01
sg115
g361
sg2860
Nsg2861
I2
sg2165
g2734
sg2862
I5
sg9
g4
sg2863
Nsg10
Nsg42
Nsg17
g18
sg2864
g2865
sg23
Nsg25
Nsg28
I00
sg2866
Nsg34
Nsg2867
Nsg2868
g0
(g2869
g2
Ntp3318
Rp3319
(dp3320
g2868
I3
sg2873
Nsg2874
F1.0
sg115
g0
(g157
g2
Ntp3321
Rp3322
(dp3323
g49
I2
sg50
Nsg120
g132
(g133
(I0
tp3324
g135
tp3325
Rp3326
(I1
(I3
I3
tp3327
g59
I00
S'\x00\x00\x00\x00\x00\x00\xf0?\x00\x00\x00\x00\x00\x00\x00\x00\x00\x00\x00\x00\x00\x00\x00\x00\x00\x00\x00\x00\x00\x00\x00\x00\x00\x00\x00\x00\x00\x00\xf0\xbf\x00\x00\x00\x00\x00\x00\x00\x00\x00\x00\x00\x00\x00\x00\x00\x00\x00\x00\x00\x00\x00\x00\x00\x00\x00\x00\x00\x00\x00\x00\xf0?'
p3328
tp3329
bsg51
g7
sg52
(dp3330
sbsg2885
I00
sg2886
g2887
sg2888
Nsg1881
g2889
sg99
g2890
sg2471
g2892
sbsg2900
g2901
sg88
Nsg33
Nsg92
I01
sg2902
Nsg101
g2903
sg103
g0
(g104
g105
((lp3331
(lp3332
tp3333
tp3334
Rp3335
sg2909
I00
sg2910
g2911
sg2912
g2865
sg2913
Nsg114
Nsg2914
g2865
sg2915
F0.0
sg8
I01
sg2916
Nsg43
Nsg1883
Nsg2917
g2918
sg87
F0.5
sg2471
Nsbsg112
I00
sg2919
g0
(g2840
g2
Ntp3336
Rp3337
(dp3338
g6
g7
sg8
I01
sg2912
g2865
sg9
g4
sg2844
g2845
sg2846
Nsg10
Nsg42
Nsg17
g18
sg2864
g2865
sg20
I01
sg2847
Nsg23
Nsg75
g132
(g133
(I0
tp3339
g135
tp3340
Rp3341
(I1
(I2
tp3342
g59
I00
S'\x00\x00\x00\x00\x00\x00\x00\x00\x00\x00\x00\x00\x00\x00\xf0?'
p3343
tp3344
bsg76
g132
(g133
(I0
tp3345
g135
tp3346
Rp3347
(I1
(I2
tp3348
g59
I00
S'\x00\x00\x00\x00\x00\x00\x00\x00\x00\x00\x00\x00\x00\x00\x00\x00'
p3349
tp3350
bsg24
Nsg25
Nsg11
Nsg2856
g2935
sg28
I00
sg2866
Nsg29
I00
sg30
(dp3351
sg2863
Nsg32
I00
sg2909
I00
sg1884
Nsg2867
Nsg2850
F1.0
sg2900
g2901
sg2851
Nsg2165
g2937
sg2868
g0
(g2869
g2
Ntp3352
Rp3353
(dp3354
g2868
g2941
sg2873
Nsg2874
Nsg115
g0
(g45
g2
Ntp3355
Rp3356
(dp3357
g49
I1
sg50
Nsg51
g7
sg52
(dp3358
sbsg2885
I00
sg2886
g2887
sg2888
Nsg1881
g2889
sg99
g2890
sg2471
g0
(g2472
g2
Ntp3359
Rp3360
(dp3361
g2476
I00
sg2477
Nsg2478
g132
(g133
(I0
tp3362
g135
tp3363
Rp3364
(I1
(I0
I2
tp3365
g59
I00
g2953
tp3366
bsg2485
I00
sg2486
F0.1111111111111111
sg2487
I1
sg2488
I00
sbsbsg33
Nsg2852
g2853
sg92
I01
sg2854
g2855
sg96
Nsg2915
F0.0
sg86
I01
sg2902
g132
(g133
(I0
tp3367
g135
tp3368
Rp3369
(I1
(I2
I2
tp3370
g59
I00
S'\x00\x00\x00\x00\x00\x00\x00\x00\x00\x00\x00\x00\x00\x00\x00\x00\x00\x00\x00\x00\x00\x00\x00\x00\x00\x00\x00\x00\x00\x00\xf0?'
p3371
tp3372
bsg101
g2961
sg103
g0
(g104
g105
((lp3373
(lp3374
tp3375
tp3376
Rp3377
sg111
I0
sg2910
g2911
sg2848
I0
sg2913
Nsg2862
I5
sg112
I01
sg114
F1.0
sg2914
g2865
sg2859
I00
sg115
g361
sg2916
Nsg2860
Nsg2858
I00
sg43
Nsg1883
Nsg2917
g2967
sg88
g773
sg87
F0.8
sg34
Nsg2471
g0
(g2472
g2
Ntp3378
Rp3379
(dp3380
g2476
I00
sg2477
Nsg2478
g3369
sg2485
I00
sg2486
F0.1111111111111111
sg2487
I180
sg2488
I00
sbsbsg114
Nsg33
Nsg2971
g0
(g2840
g2
Ntp3381
Rp3382
(dp3383
g6
g7
sg2844
g2845
sg2846
Nsg20
I01
sg2847
Nsg2848
I0
sg75
Nsg76
Nsg24
Nsg11
Nsg29
I00
sg30
(dp3384
sg32
I00
sg1884
Nsg2850
F0.6
sg2851
Nsg2852
g2853
sg2854
g2855
sg96
Nsg86
I01
sg2856
(I0
tp3385
sg111
I0
sg112
I01
sg2858
I01
sg2859
I01
sg115
g361
sg2860
Nsg2861
I2
sg2165
g2734
sg2862
I5
sg9
g4
sg2863
Nsg10
Nsg42
Nsg17
g18
sg2864
g2865
sg23
Nsg25
Nsg28
I00
sg2866
Nsg34
Nsg2867
Nsg2868
g0
(g2869
g2
Ntp3386
Rp3387
(dp3388
g2868
I2
sg2873
Nsg2874
F1.0
sg115
g0
(g157
g2
Ntp3389
Rp3390
(dp3391
g49
I2
sg50
Nsg120
g132
(g133
(I0
tp3392
g135
tp3393
Rp3394
(I1
(I3
I3
tp3395
g59
I00
S'\x00\x00\x00\x00\x00\x00\xf0?\x00\x00\x00\x00\x00\x00\x00\x00\x00\x00\x00\x00\x00\x00\x00\x00\x00\x00\x00\x00\x00\x00\x00\x00\x00\x00\x00\x00\x00\x00\xf0?\x00\x00\x00\x00\x00\x00\x00\x00\x00\x00\x00\x00\x00\x00\x00\x00\x00\x00\x00\x00\x00\x00\x00\x00\x00\x00\x00\x00\x00\x00\xf0?'
p3396
tp3397
bsg51
g7
sg52
(dp3398
sbsg2885
I00
sg2886
g2887
sg2888
Nsg1881
g2889
sg99
g2890
sg2471
g2892
sbsg2900
g2901
sg88
Nsg33
Nsg92
I01
sg2902
Nsg101
g2990
sg103
g0
(g104
g105
((lp3399
(lp3400
tp3401
tp3402
Rp3403
sg2909
I00
sg2910
g2911
sg2912
g2865
sg2913
Nsg114
Nsg2914
g2865
sg2915
F0.0
sg8
I01
sg2916
Nsg43
Nsg1883
Nsg2917
g2996
sg87
F0.5
sg2471
Nsbsg115
Nsg2997
F8.0
sg2998
g2999
sg43
Nsg2165
g2734
sg34
Nsbasg34
NsS'_minor_tick_kw'
p3404
(dp3405
g2771
I01
sg2773
I00
sg2774
I01
sg2775
I00
ssS'isDefault_minfmt'
p3406
I01
sbsS'_navigate_mode'
p3407
Nsg34
NsS'transAxes'
p3408
g183
sS'_connected'
p3409
(dp3410
sS'fmt_ydata'
p3411
NsS'dataLim'
p3412
g0
(g127
g2
Ntp3413
Rp3414
(dp3415
g49
I0
sg131
g132
(g133
(I0
tp3416
g135
tp3417
Rp3418
(I1
(I2
tp3419
g59
I00
S'\x82\xdf4\x8d\xc6\x01\xa6?\x00\x00\x00\x00\x00\x00\xf0?'
p3420
tp3421
bsg52
(dp3422
sg142
g132
(g133
(I0
tp3423
g135
tp3424
Rp3425
(I1
(I2
I2
tp3426
g59
I00
S'\x00\x00\x00\x00\x00\x00\xf0\x7f\x00\x00\x00\x00\x00\x00\xf0\x7f\x00\x00\x00\x00\x00\x00\xf0\xff\x00\x00\x00\x00\x00\x00\xf0\xff'
p3427
tp3428
bsg149
g132
(g133
(I0
tp3429
g135
tp3430
Rp3431
(I1
(I2
I2
tp3432
g59
I00
S'\x82\xdf4\x8d\xc6\x01\xa6?\x00\x00\x00\x00\x00\x00\x00\x00\xa9\xdb\x10\x1d\x9a\xb5(@\x00\x00\x00\x00\x00\x80H@'
p3433
tp3434
bsg156
I01
sg51
g7
sbsS'transData'
p3435
g293
sg33
NsS'_sharey'
p3436
NsS'_sharex'
p3437
NsS'axesPatch'
p3438
g2604
sS'_ymargin'
p3439
F0.05
sS'_axes_locator'
p3440
Nsg103
g0
(g104
g105
((lp3441
(lp3442
tp3443
tp3444
Rp3445
sS'numCols'
p3446
I1
sg114
Nsg1895
NsS'yaxis'
p3447
g0
(cmatplotlib.axis
YAxis
p3448
g2
Ntp3449
Rp3450
(dp3451
g6
g7
sg2665
g0
(g2666
g2
Ntp3452
Rp3453
(dp3454
g2670
g0
(g2671
g2
Ntp3455
Rp3456
(dp3457
g2675
I2
sg2676
I00
sg2677
g2678
sg2679
g132
(g133
(I0
tp3458
g135
tp3459
Rp3460
(I1
(I5
tp3461
g59
I00
S'\x00\x00\x00\x00\x00\x00\xf0?\x00\x00\x00\x00\x00\x00\x00@\x00\x00\x00\x00\x00\x00\x04@\x00\x00\x00\x00\x00\x00\x14@\x00\x00\x00\x00\x00\x00$@'
p3462
tp3463
bsg2686
Nsg2687
g132
(g133
(I0
tp3464
g135
tp3465
Rp3466
(I1
(I10
tp3467
g59
I00
S'\x9a\x99\x99\x99\x99\x99\xb9?\x9a\x99\x99\x99\x99\x99\xc9?\x00\x00\x00\x00\x00\x00\xd0?\x00\x00\x00\x00\x00\x00\xe0?\x00\x00\x00\x00\x00\x00\xf0?\x00\x00\x00\x00\x00\x00\x00@\x00\x00\x00\x00\x00\x00\x04@\x00\x00\x00\x00\x00\x00\x14@\x00\x00\x00\x00\x00\x00$@\x00\x00\x00\x00\x00\x004@'
p3468
tp3469
bsg2694
I00
sg2695
g3450
sbsg2696
g0
(g2697
g2
Ntp3470
Rp3471
(dp3472
g2701
g2702
sg2703
I0
sg2704
I01
sg2705
I00
sg2706
g7
sg2707
I00
sg2708
I4
sg2709
I0
sg2163
I00
sg2710
I01
sg2695
g3450
sbsbsg2711
I00
sg2712
g0
(g2713
g2
Ntp3473
Rp3474
sg9
g4
sg8
I01
sg2716
I00
sg10
Nsg42
Nsg2717
I00
sg17
g18
sg20
I01
sg23
Nsg2718
g0
(g2104
g2
Ntp3475
Rp3476
(dp3477
g6
g7
sg8
I01
sg9
g4
sg10
Nsg2108
g0
(g2109
g2
Ntp3478
Rp3479
(dp3480
g2113
(lp3481
g2115
asg2116
Nsg2117
g2118
sg2119
g2118
sg2120
F8.0
sg2121
I400
sg2122
g2118
sbsg42
Nsg17
g18
sg2123
Nsg20
I01
sg23
Nsg75
F0.5
sg76
I0
sg24
Nsg25
Nsg11
Nsg28
I00
sg29
I00
sg30
(dp3482
sg2125
Nsg32
I00
sg1884
Nsg88
Nsg1883
Nsg2126
Nsg33
Nsg96
Nsg86
I01
sg2127
Vbaseline
p3483
sg2129
V
p3484
sg2131
Nsg103
g0
(g104
g105
((lp3485
(lp3486
tp3487
tp3488
Rp3489
sg111
I0
sg2137
Nsg112
I01
sg114
Nsg2138
F1.2
sg115
g799
sg2163
I00
sg2164
I00
sg43
Nsg2165
V0.
p3490
sg2167
Vleft
p3491
sg34
Nsbsg24
Nsg25
Nsg11
Nsg2736
g0
(g2104
g2
Ntp3492
Rp3493
(dp3494
g6
g7
sg8
I01
sg9
g4
sg10
Nsg2108
g0
(g2109
g2
Ntp3495
Rp3496
(dp3497
g2113
(lp3498
g2115
asg2116
Nsg2117
g2118
sg2119
g2118
sg2120
F10.0
sg2121
I400
sg2122
g2118
sbsg42
Nsg17
g18
sg2123
Nsg20
I01
sg23
Nsg75
F0.5
sg76
I0
sg24
Nsg25
Nsg11
Nsg28
I00
sg29
I00
sg30
(dp3499
sg2125
Nsg32
I00
sg1884
Nsg88
Nsg1883
Nsg2126
Vanchor
p3500
sg33
Nsg96
Nsg86
I01
sg2127
Vbottom
p3501
sg2129
V# recorded PSPs
p3502
sg2131
Nsg103
g0
(g104
g105
((lp3503
(lp3504
tp3505
tp3506
Rp3507
sg111
I0
sg2137
Vvertical
p3508
sg112
I01
sg114
Nsg2138
F1.2
sg115
g1157
sg2163
I00
sg2164
I00
sg43
Nsg2165
g2752
sg2167
Vcenter
p3509
sg34
Nsbsg28
I00
sg2754
I01
sg29
I00
sg30
(dp3510
sg2756
Nsg32
I00
sg2757
g0
(g2666
g2
Ntp3511
Rp3512
(dp3513
g2670
g0
(g2761
g2
Ntp3514
Rp3515
(dp3516
g2695
g3450
sbsg2696
g0
(g2765
g2
Ntp3517
Rp3518
(dp3519
g2695
g3450
sbsbsg1884
g1943
sg2769
(dp3520
g2771
I01
sg2772
I00
sg2773
I00
sg2774
I01
sg2775
I00
ssg2776
I01
sg88
g851
sg33
Nsg2777
I00
sg2778
I1
sg2779
F4.0
sg2780
(lp3521
g0
(cmatplotlib.axis
YTick
p3522
g2
Ntp3523
Rp3524
(dp3525
g6
g7
sg40
F0.8
sg9
g4
sg2786
I01
sg8
I01
sg10
Nsg111
I0
sg42
Nsg2787
F3.5
sg2788
g3490
sg2789
I00
sg2120
F0.0
sg17
g18
sg2790
Vout
p3526
sg2736
g0
(g2104
g2
Ntp3527
Rp3528
(dp3529
g6
g7
sg8
I01
sg9
g4
sg10
Nsg2108
g0
(g2109
g2
Ntp3530
Rp3531
(dp3532
g2113
(lp3533
g2115
asg2116
Nsg2117
g2118
sg2119
g2118
sg2120
F8.0
sg2121
I400
sg2122
g2118
sbsg42
Nsg17
g18
sg2123
Nsg20
I01
sg23
Nsg75
I0
sg76
I0
sg24
Nsg25
Nsg11
Nsg28
I00
sg29
I00
sg30
(dp3534
sg2125
Nsg32
I00
sg1884
Nsg88
Nsg1883
Nsg2126
Nsg33
Nsg96
Nsg86
I01
sg2127
Vcenter_baseline
p3535
sg2129
V
p3536
sg2131
Nsg103
g0
(g104
g105
((lp3537
(lp3538
tp3539
tp3540
Rp3541
sg111
I0
sg2137
Nsg112
I01
sg114
Nsg2138
F1.2
sg115
g448
sg2163
I00
sg2164
I00
sg43
Nsg2165
g3490
sg2167
Vright
p3542
sg34
Nsbsg20
I01
sg23
Nsg2808
I00
sg24
Nsg25
Nsg11
Nsg2809
I00
sg28
I00
sg29
I00
sg30
(dp3543
sg2811
(I0
I1
tp3544
sg32
I00
sg2813
F2.01
sg1884
g1943
sg2814
I01
sg88
g1711
sg1883
Nsg2815
g3528
sg2816
g0
(g2104
g2
Ntp3545
Rp3546
(dp3547
g6
g7
sg8
I01
sg9
g4
sg10
Nsg2108
g0
(g2109
g2
Ntp3548
Rp3549
(dp3550
g2113
(lp3551
g2115
asg2116
Nsg2117
g2118
sg2119
g2118
sg2120
F8.0
sg2121
I400
sg2122
g2118
sbsg42
Nsg17
g18
sg2123
Nsg20
I01
sg23
Nsg75
I0
sg76
I1
sg24
Nsg25
Nsg11
Nsg28
I00
sg29
I00
sg30
(dp3552
sg2125
Nsg32
I00
sg1884
Nsg88
Nsg1883
Nsg2126
Nsg33
Nsg96
Nsg86
I01
sg2127
g3535
sg2129
V
p3553
sg2131
Nsg103
g0
(g104
g105
((lp3554
(lp3555
tp3556
tp3557
Rp3558
sg111
I0
sg2137
Nsg112
I01
sg114
Nsg2138
F1.2
sg115
g475
sg2163
I00
sg2164
I00
sg43
Nsg2165
g3490
sg2167
Vleft
p3559
sg34
Nsbsg96
Nsg2832
I0
sg86
I01
sg103
g0
(g104
g105
((lp3560
(lp3561
tp3562
tp3563
Rp3564
sg2838
F3.5
sg2839
g0
(g2840
g2
Ntp3565
Rp3566
(dp3567
g6
g7
sg2844
g2845
sg2846
Nsg20
I01
sg2847
Nsg2848
I0
sg75
Nsg76
Nsg24
Nsg11
Nsg29
I00
sg30
(dp3568
sg32
I00
sg1884
Nsg2850
F0.8
sg2851
Nsg2852
g2853
sg2854
g2855
sg96
Nsg86
I01
sg2856
(I0
tp3569
sg111
I0
sg112
I01
sg2858
I01
sg2859
I01
sg115
g290
sg2860
Nsg2861
F2.01
sg2165
g3490
sg2862
I5
sg9
g4
sg2863
Nsg10
Nsg42
Nsg17
g18
sg2864
g2865
sg23
Nsg25
Nsg28
I00
sg2866
Nsg34
Nsg2867
Nsg2868
g0
(g2869
g2
Ntp3570
Rp3571
(dp3572
g2868
I0
sg2873
Nsg2874
F1.0
sg115
g0
(g157
g2
Ntp3573
Rp3574
(dp3575
g49
I2
sg50
Nsg120
g132
(g133
(I0
tp3576
g135
tp3577
Rp3578
(I1
(I3
I3
tp3579
g59
I00
S'\x00\x00\x00\x00\x00\x00\xf0\xbf\x00\x00\x00\x00\x00\x00\x00\x00\x00\x00\x00\x00\x00\x00\x00\x00\x00\x00\x00\x00\x00\x00\x00\x00\x00\x00\x00\x00\x00\x00\xf0?\x00\x00\x00\x00\x00\x00\x00\x00\x00\x00\x00\x00\x00\x00\x00\x00\x00\x00\x00\x00\x00\x00\x00\x00\x00\x00\x00\x00\x00\x00\xf0?'
p3580
tp3581
bsg51
g7
sg52
(dp3582
sbsg2885
I00
sg2886
g2887
sg2888
Nsg1881
g2889
sg99
g2890
sg2471
g0
(g2472
g2
Ntp3583
Rp3584
(dp3585
g2476
I00
sg2477
Nsg2478
g132
(g133
(I0
tp3586
g135
tp3587
Rp3588
(I1
(I2
I2
tp3589
g59
I00
S'\x00\x00\x00\x00\x00\x00\x00\x00\x00\x00\x00\x00\x00\x00\x00\x00\x00\x00\x00\x00\x00\x00\xf0?\x00\x00\x00\x00\x00\x00\x00\x00'
p3590
tp3591
bsg2485
I00
sg2486
F0.1111111111111111
sg2487
I1
sg2488
I00
sbsbsg2900
g2901
sg88
Nsg33
Nsg92
I01
sg2902
Nsg101
VNone
p3592
sg103
g0
(g104
g105
((lp3593
(lp3594
tp3595
tp3596
Rp3597
sg2909
I00
sg2910
g2911
sg2912
g2865
sg2913
Nsg114
Nsg2914
g2865
sg2915
F0.0
sg8
I01
sg2916
Nsg43
Nsg1883
Nsg2917
(I0
tp3598
sg87
F0.5
sg2471
Nsbsg112
I00
sg2919
g0
(g2840
g2
Ntp3599
Rp3600
(dp3601
g6
g7
sg8
I01
sg2912
g2865
sg9
g4
sg2844
g2845
sg2846
Nsg10
Nsg42
Nsg17
g18
sg2864
g2865
sg20
I01
sg2847
Nsg23
Nsg75
g132
(g133
(I0
tp3602
g135
tp3603
Rp3604
(I1
(I2
tp3605
g59
I00
S'\x00\x00\x00\x00\x00\x00\x00\x00\x00\x00\x00\x00\x00\x00\x00\x00'
p3606
tp3607
bsg76
g132
(g133
(I0
tp3608
g135
tp3609
Rp3610
(I1
(I2
tp3611
g59
I00
S'\x00\x00\x00\x00\x00\x00\x00\x00\x00\x00\x00\x00\x00\x00\xf0?'
p3612
tp3613
bsg24
Nsg25
Nsg11
Nsg2856
(I0
I1
tp3614
sg28
I00
sg2866
Nsg29
I00
sg30
(dp3615
sg2863
Nsg32
I00
sg2909
I00
sg1884
Nsg2867
Nsg2850
F1.0
sg2900
g2901
sg2851
Nsg2165
g2937
sg2868
g0
(g2869
g2
Ntp3616
Rp3617
(dp3618
g2868
g2941
sg2873
Nsg2874
Nsg115
g0
(g45
g2
Ntp3619
Rp3620
(dp3621
g49
I1
sg50
Nsg51
g7
sg52
(dp3622
sbsg2885
I00
sg2886
g2887
sg2888
Nsg1881
g2889
sg99
g2890
sg2471
g0
(g2472
g2
Ntp3623
Rp3624
(dp3625
g2476
I00
sg2477
Nsg2478
g132
(g133
(I0
tp3626
g135
tp3627
Rp3628
(I1
(I0
I2
tp3629
g59
I00
g2953
tp3630
bsg2485
I00
sg2486
F0.1111111111111111
sg2487
I1
sg2488
I00
sbsbsg33
Nsg2852
g2853
sg92
I01
sg2854
g2855
sg96
Nsg2915
F0.0
sg86
I01
sg2902
g132
(g133
(I0
tp3631
g135
tp3632
Rp3633
(I1
(I2
I2
tp3634
g59
I00
S'\x00\x00\x00\x00\x00\x00\x00\x00\x00\x00\x00\x00\x00\x00\x00\x00\x00\x00\x00\x00\x00\x00\xf0?\x00\x00\x00\x00\x00\x00\x00\x00'
p3635
tp3636
bsg101
g2961
sg103
g0
(g104
g105
((lp3637
(lp3638
tp3639
tp3640
Rp3641
sg111
I0
sg2910
g2911
sg2848
I0
sg2913
Nsg2862
I5
sg112
I01
sg114
F1.0
sg2914
g2865
sg2859
I00
sg115
g290
sg2916
Nsg2860
Nsg2858
I00
sg43
Nsg1883
Nsg2917
(I0
I0
tp3642
sg88
g1131
sg87
F0.8
sg34
Nsg2471
g0
(g2472
g2
Ntp3643
Rp3644
(dp3645
g2476
I00
sg2477
Nsg2478
g3633
sg2485
I00
sg2486
F0.1111111111111111
sg2487
I180
sg2488
I00
sbsbsg114
Nsg33
Nsg2971
g0
(g2840
g2
Ntp3646
Rp3647
(dp3648
g6
g7
sg2844
g2845
sg2846
Nsg20
I01
sg2847
Nsg2848
I0
sg75
Nsg76
Nsg24
Nsg11
Nsg29
I00
sg30
(dp3649
sg32
I00
sg1884
Nsg2850
F0.8
sg2851
Nsg2852
g2853
sg2854
g2855
sg96
Nsg86
I01
sg2856
(I1
tp3650
sg111
I0
sg112
I01
sg2858
I01
sg2859
I01
sg115
g290
sg2860
Nsg2861
F2.01
sg2165
g3490
sg2862
I5
sg9
g4
sg2863
Nsg10
Nsg42
Nsg17
g18
sg2864
g2865
sg23
Nsg25
Nsg28
I00
sg2866
Nsg34
Nsg2867
Nsg2868
g0
(g2869
g2
Ntp3651
Rp3652
(dp3653
g2868
I1
sg2873
Nsg2874
F1.0
sg115
g0
(g157
g2
Ntp3654
Rp3655
(dp3656
g49
I2
sg50
Nsg120
g132
(g133
(I0
tp3657
g135
tp3658
Rp3659
(I1
(I3
I3
tp3660
g59
I00
S'\x00\x00\x00\x00\x00\x00\xf0?\x00\x00\x00\x00\x00\x00\x00\x00\x00\x00\x00\x00\x00\x00\x00\x00\x00\x00\x00\x00\x00\x00\x00\x00\x00\x00\x00\x00\x00\x00\xf0?\x00\x00\x00\x00\x00\x00\x00\x00\x00\x00\x00\x00\x00\x00\x00\x00\x00\x00\x00\x00\x00\x00\x00\x00\x00\x00\x00\x00\x00\x00\xf0?'
p3661
tp3662
bsg51
g7
sg52
(dp3663
sbsg2885
I00
sg2886
g2887
sg2888
Nsg1881
g2889
sg99
g2890
sg2471
g3584
sbsg2900
g2901
sg88
Nsg33
Nsg92
I01
sg2902
Nsg101
VNone
p3664
sg103
g0
(g104
g105
((lp3665
(lp3666
tp3667
tp3668
Rp3669
sg2909
I00
sg2910
g2911
sg2912
g2865
sg2913
Nsg114
Nsg2914
g2865
sg2915
F0.0
sg8
I01
sg2916
Nsg43
Nsg1883
Nsg2917
(I0
tp3670
sg87
F0.5
sg2471
Nsbsg115
Nsg2997
F8.0
sg2998
Vytick
p3671
sg43
Nsg2165
g3490
sg34
Nsbag0
(g3522
g2
Ntp3672
Rp3673
(dp3674
g6
g7
sg40
F0.8
sg9
g4
sg2786
I01
sg8
I01
sg10
Nsg111
I0
sg42
Nsg2787
F3.5
sg2788
g3490
sg2789
I00
sg2120
F0.0
sg17
g18
sg2790
g3526
sg2736
g0
(g2104
g2
Ntp3675
Rp3676
(dp3677
g6
g7
sg8
I01
sg9
g4
sg10
Nsg2108
g0
(g2109
g2
Ntp3678
Rp3679
(dp3680
g2113
(lp3681
g2115
asg2116
Nsg2117
g2118
sg2119
g2118
sg2120
F8.0
sg2121
I400
sg2122
g2118
sbsg42
Nsg17
g18
sg2123
Nsg20
I01
sg23
Nsg75
I0
sg76
I0
sg24
Nsg25
Nsg11
Nsg28
I00
sg29
I00
sg30
(dp3682
sg2125
Nsg32
I00
sg1884
Nsg88
Nsg1883
Nsg2126
Nsg33
Nsg96
Nsg86
I01
sg2127
g3535
sg2129
V
p3683
sg2131
Nsg103
g0
(g104
g105
((lp3684
(lp3685
tp3686
tp3687
Rp3688
sg111
I0
sg2137
Nsg112
I01
sg114
Nsg2138
F1.2
sg115
g439
sg2163
I00
sg2164
I00
sg43
Nsg2165
g3490
sg2167
g3542
sg34
Nsbsg20
I01
sg23
Nsg2808
I00
sg24
Nsg25
Nsg11
Nsg2809
I00
sg28
I00
sg29
I00
sg30
(dp3689
sg2811
(I0
I1
tp3690
sg32
I00
sg2813
F2.01
sg1884
g1943
sg2814
I01
sg88
g1431
sg1883
Nsg2815
g3676
sg2816
g0
(g2104
g2
Ntp3691
Rp3692
(dp3693
g6
g7
sg8
I01
sg9
g4
sg10
Nsg2108
g0
(g2109
g2
Ntp3694
Rp3695
(dp3696
g2113
(lp3697
g2115
asg2116
Nsg2117
g2118
sg2119
g2118
sg2120
F8.0
sg2121
I400
sg2122
g2118
sbsg42
Nsg17
g18
sg2123
Nsg20
I01
sg23
Nsg75
I0
sg76
I1
sg24
Nsg25
Nsg11
Nsg28
I00
sg29
I00
sg30
(dp3698
sg2125
Nsg32
I00
sg1884
Nsg88
Nsg1883
Nsg2126
Nsg33
Nsg96
Nsg86
I01
sg2127
g3535
sg2129
V
p3699
sg2131
Nsg103
g0
(g104
g105
((lp3700
(lp3701
tp3702
tp3703
Rp3704
sg111
I0
sg2137
Nsg112
I01
sg114
Nsg2138
F1.2
sg115
g466
sg2163
I00
sg2164
I00
sg43
Nsg2165
g3490
sg2167
g3559
sg34
Nsbsg96
Nsg2832
I0
sg86
I01
sg103
g0
(g104
g105
((lp3705
(lp3706
tp3707
tp3708
Rp3709
sg2838
F3.5
sg2839
g0
(g2840
g2
Ntp3710
Rp3711
(dp3712
g6
g7
sg2844
g2845
sg2846
Nsg20
I01
sg2847
Nsg2848
I0
sg75
Nsg76
Nsg24
Nsg11
Nsg29
I00
sg30
(dp3713
sg32
I00
sg1884
Nsg2850
F0.8
sg2851
Nsg2852
g2853
sg2854
g2855
sg96
Nsg86
I01
sg2856
g3569
sg111
I0
sg112
I01
sg2858
I01
sg2859
I01
sg115
g290
sg2860
Nsg2861
F2.01
sg2165
g3490
sg2862
I5
sg9
g4
sg2863
Nsg10
Nsg42
Nsg17
g18
sg2864
g2865
sg23
Nsg25
Nsg28
I00
sg2866
Nsg34
Nsg2867
Nsg2868
g0
(g2869
g2
Ntp3714
Rp3715
(dp3716
g2868
I0
sg2873
Nsg2874
F1.0
sg115
g0
(g157
g2
Ntp3717
Rp3718
(dp3719
g49
I2
sg50
Nsg120
g132
(g133
(I0
tp3720
g135
tp3721
Rp3722
(I1
(I3
I3
tp3723
g59
I00
S'\x00\x00\x00\x00\x00\x00\xf0\xbf\x00\x00\x00\x00\x00\x00\x00\x00\x00\x00\x00\x00\x00\x00\x00\x00\x00\x00\x00\x00\x00\x00\x00\x00\x00\x00\x00\x00\x00\x00\xf0?\x00\x00\x00\x00\x00\x00\x00\x00\x00\x00\x00\x00\x00\x00\x00\x00\x00\x00\x00\x00\x00\x00\x00\x00\x00\x00\x00\x00\x00\x00\xf0?'
p3724
tp3725
bsg51
g7
sg52
(dp3726
sbsg2885
I00
sg2886
g2887
sg2888
Nsg1881
g2889
sg99
g2890
sg2471
g3584
sbsg2900
g2901
sg88
Nsg33
Nsg92
I01
sg2902
Nsg101
g3592
sg103
g0
(g104
g105
((lp3727
(lp3728
tp3729
tp3730
Rp3731
sg2909
I00
sg2910
g2911
sg2912
g2865
sg2913
Nsg114
Nsg2914
g2865
sg2915
F0.0
sg8
I01
sg2916
Nsg43
Nsg1883
Nsg2917
(I0
tp3732
sg87
F0.5
sg2471
Nsbsg112
I00
sg2919
g0
(g2840
g2
Ntp3733
Rp3734
(dp3735
g6
g7
sg8
I01
sg2912
g2865
sg9
g4
sg2844
g2845
sg2846
Nsg10
Nsg42
Nsg17
g18
sg2864
g2865
sg20
I01
sg2847
Nsg23
Nsg75
g132
(g133
(I0
tp3736
g135
tp3737
Rp3738
(I1
(I2
tp3739
g59
I00
S'\x00\x00\x00\x00\x00\x00\x00\x00\x00\x00\x00\x00\x00\x00\x00\x00'
p3740
tp3741
bsg76
g132
(g133
(I0
tp3742
g135
tp3743
Rp3744
(I1
(I2
tp3745
g59
I00
S'\x00\x00\x00\x00\x00\x00\x00\x00\x00\x00\x00\x00\x00\x00\xf0?'
p3746
tp3747
bsg24
Nsg25
Nsg11
Nsg2856
g3614
sg28
I00
sg2866
Nsg29
I00
sg30
(dp3748
sg2863
Nsg32
I00
sg2909
I00
sg1884
Nsg2867
Nsg2850
F1.0
sg2900
g2901
sg2851
Nsg2165
g2937
sg2868
g0
(g2869
g2
Ntp3749
Rp3750
(dp3751
g2868
g2941
sg2873
Nsg2874
Nsg115
g0
(g45
g2
Ntp3752
Rp3753
(dp3754
g49
I1
sg50
Nsg51
g7
sg52
(dp3755
sbsg2885
I00
sg2886
g2887
sg2888
Nsg1881
g2889
sg99
g2890
sg2471
g0
(g2472
g2
Ntp3756
Rp3757
(dp3758
g2476
I00
sg2477
Nsg2478
g132
(g133
(I0
tp3759
g135
tp3760
Rp3761
(I1
(I0
I2
tp3762
g59
I00
g2953
tp3763
bsg2485
I00
sg2486
F0.1111111111111111
sg2487
I1
sg2488
I00
sbsbsg33
Nsg2852
g2853
sg92
I01
sg2854
g2855
sg96
Nsg2915
F0.0
sg86
I01
sg2902
g132
(g133
(I0
tp3764
g135
tp3765
Rp3766
(I1
(I2
I2
tp3767
g59
I00
S'\x00\x00\x00\x00\x00\x00\x00\x00\x00\x00\x00\x00\x00\x00\x00\x00\x00\x00\x00\x00\x00\x00\xf0?\x00\x00\x00\x00\x00\x00\x00\x00'
p3768
tp3769
bsg101
g2961
sg103
g0
(g104
g105
((lp3770
(lp3771
tp3772
tp3773
Rp3774
sg111
I0
sg2910
g2911
sg2848
I0
sg2913
Nsg2862
I5
sg112
I01
sg114
F1.0
sg2914
g2865
sg2859
I00
sg115
g290
sg2916
Nsg2860
Nsg2858
I00
sg43
Nsg1883
Nsg2917
g3642
sg88
g1361
sg87
F0.8
sg34
Nsg2471
g0
(g2472
g2
Ntp3775
Rp3776
(dp3777
g2476
I00
sg2477
Nsg2478
g3766
sg2485
I00
sg2486
F0.1111111111111111
sg2487
I180
sg2488
I00
sbsbsg114
Nsg33
Nsg2971
g0
(g2840
g2
Ntp3778
Rp3779
(dp3780
g6
g7
sg2844
g2845
sg2846
Nsg20
I01
sg2847
Nsg2848
I0
sg75
Nsg76
Nsg24
Nsg11
Nsg29
I00
sg30
(dp3781
sg32
I00
sg1884
Nsg2850
F0.8
sg2851
Nsg2852
g2853
sg2854
g2855
sg96
Nsg86
I01
sg2856
g3650
sg111
I0
sg112
I01
sg2858
I01
sg2859
I01
sg115
g290
sg2860
Nsg2861
F2.01
sg2165
g3490
sg2862
I5
sg9
g4
sg2863
Nsg10
Nsg42
Nsg17
g18
sg2864
g2865
sg23
Nsg25
Nsg28
I00
sg2866
Nsg34
Nsg2867
Nsg2868
g0
(g2869
g2
Ntp3782
Rp3783
(dp3784
g2868
I1
sg2873
Nsg2874
F1.0
sg115
g0
(g157
g2
Ntp3785
Rp3786
(dp3787
g49
I2
sg50
Nsg120
g132
(g133
(I0
tp3788
g135
tp3789
Rp3790
(I1
(I3
I3
tp3791
g59
I00
S'\x00\x00\x00\x00\x00\x00\xf0?\x00\x00\x00\x00\x00\x00\x00\x00\x00\x00\x00\x00\x00\x00\x00\x00\x00\x00\x00\x00\x00\x00\x00\x00\x00\x00\x00\x00\x00\x00\xf0?\x00\x00\x00\x00\x00\x00\x00\x00\x00\x00\x00\x00\x00\x00\x00\x00\x00\x00\x00\x00\x00\x00\x00\x00\x00\x00\x00\x00\x00\x00\xf0?'
p3792
tp3793
bsg51
g7
sg52
(dp3794
sbsg2885
I00
sg2886
g2887
sg2888
Nsg1881
g2889
sg99
g2890
sg2471
g3584
sbsg2900
g2901
sg88
Nsg33
Nsg92
I01
sg2902
Nsg101
g3664
sg103
g0
(g104
g105
((lp3795
(lp3796
tp3797
tp3798
Rp3799
sg2909
I00
sg2910
g2911
sg2912
g2865
sg2913
Nsg114
Nsg2914
g2865
sg2915
F0.0
sg8
I01
sg2916
Nsg43
Nsg1883
Nsg2917
(I0
tp3800
sg87
F0.5
sg2471
Nsbsg115
Nsg2997
F8.0
sg2998
g3671
sg43
Nsg2165
g3490
sg34
Nsbasg3129
I01
sg1891
g0
(g1892
g2
Ntp3801
Rp3802
I01
bsg96
Nsg86
I01
sg3132
I01
sg103
g0
(g104
g105
((lp3803
(lp3804
tp3805
tp3806
Rp3807
sg111
I0
sg3138
I1
sg3139
Nsg112
I00
sg114
Nsg3140
Vleft
p3808
sg115
Nsg3142
Vleft
p3809
sg43
Nsg1883
Nsg2862
I15
sg3144
(lp3810
g0
(g3522
g2
Ntp3811
Rp3812
(dp3813
g6
g7
sg40
F0.6
sg9
g4
sg2786
I01
sg8
I01
sg10
Nsg111
I0
sg42
Nsg2787
F3.4
sg2788
g3490
sg2789
I00
sg2120
F0.0
sg17
g18
sg2790
g3526
sg2736
g0
(g2104
g2
Ntp3814
Rp3815
(dp3816
g6
g7
sg8
I01
sg9
g4
sg10
Nsg2108
g0
(g2109
g2
Ntp3817
Rp3818
(dp3819
g2113
(lp3820
g2115
asg2116
Nsg2117
g2118
sg2119
g2118
sg2120
F8.0
sg2121
I400
sg2122
g2118
sbsg42
Nsg17
g18
sg2123
Nsg20
I01
sg23
Nsg75
I0
sg76
I0
sg24
Nsg25
Nsg11
Nsg28
I00
sg29
I00
sg30
(dp3821
sg2125
Nsg32
I00
sg1884
Nsg88
Nsg1883
Nsg2126
Nsg33
Nsg96
Nsg86
I01
sg2127
g3535
sg2129
V
p3822
sg2131
Nsg103
g0
(g104
g105
((lp3823
(lp3824
tp3825
tp3826
Rp3827
sg111
I0
sg2137
Nsg112
I01
sg114
Nsg2138
F1.2
sg115
g484
sg2163
I00
sg2164
I00
sg43
Nsg2165
g3490
sg2167
g3542
sg34
Nsbsg20
I01
sg23
Nsg2808
I00
sg24
Nsg25
Nsg11
Nsg2809
I00
sg28
I00
sg29
I00
sg30
(dp3828
sg2811
(I0
I1
tp3829
sg32
I00
sg2813
I2
sg1884
g1943
sg2814
I01
sg88
g1641
sg1883
Nsg2815
g3815
sg2816
g0
(g2104
g2
Ntp3830
Rp3831
(dp3832
g6
g7
sg8
I01
sg9
g4
sg10
Nsg2108
g0
(g2109
g2
Ntp3833
Rp3834
(dp3835
g2113
(lp3836
g2115
asg2116
Nsg2117
g2118
sg2119
g2118
sg2120
F8.0
sg2121
I400
sg2122
g2118
sbsg42
Nsg17
g18
sg2123
Nsg20
I01
sg23
Nsg75
I0
sg76
I1
sg24
Nsg25
Nsg11
Nsg28
I00
sg29
I00
sg30
(dp3837
sg2125
Nsg32
I00
sg1884
Nsg88
Nsg1883
Nsg2126
Nsg33
Nsg96
Nsg86
I01
sg2127
g3535
sg2129
V
p3838
sg2131
Nsg103
g0
(g104
g105
((lp3839
(lp3840
tp3841
tp3842
Rp3843
sg111
I0
sg2137
Nsg112
I01
sg114
Nsg2138
F1.2
sg115
g457
sg2163
I00
sg2164
I00
sg43
Nsg2165
g3490
sg2167
g3559
sg34
Nsbsg96
Nsg2832
I0
sg86
I01
sg103
g0
(g104
g105
((lp3844
(lp3845
tp3846
tp3847
Rp3848
sg2838
F3.4
sg2839
g0
(g2840
g2
Ntp3849
Rp3850
(dp3851
g6
g7
sg2844
g2845
sg2846
Nsg20
I01
sg2847
Nsg2848
I0
sg75
Nsg76
Nsg24
Nsg11
Nsg29
I00
sg30
(dp3852
sg32
I00
sg1884
Nsg2850
F0.6
sg2851
Nsg2852
g2853
sg2854
g2855
sg96
Nsg86
I01
sg2856
g3569
sg111
I0
sg112
I01
sg2858
I01
sg2859
I01
sg115
g290
sg2860
Nsg2861
I2
sg2165
g3490
sg2862
I5
sg9
g4
sg2863
Nsg10
Nsg42
Nsg17
g18
sg2864
g2865
sg23
Nsg25
Nsg28
I00
sg2866
Nsg34
Nsg2867
Nsg2868
g0
(g2869
g2
Ntp3853
Rp3854
(dp3855
g2868
I0
sg2873
Nsg2874
F1.0
sg115
g0
(g157
g2
Ntp3856
Rp3857
(dp3858
g49
I2
sg50
Nsg120
g132
(g133
(I0
tp3859
g135
tp3860
Rp3861
(I1
(I3
I3
tp3862
g59
I00
S'\x00\x00\x00\x00\x00\x00\xf0\xbf\x00\x00\x00\x00\x00\x00\x00\x00\x00\x00\x00\x00\x00\x00\x00\x00\x00\x00\x00\x00\x00\x00\x00\x00\x00\x00\x00\x00\x00\x00\xf0?\x00\x00\x00\x00\x00\x00\x00\x00\x00\x00\x00\x00\x00\x00\x00\x00\x00\x00\x00\x00\x00\x00\x00\x00\x00\x00\x00\x00\x00\x00\xf0?'
p3863
tp3864
bsg51
g7
sg52
(dp3865
sbsg2885
I00
sg2886
g2887
sg2888
Nsg1881
g2889
sg99
g2890
sg2471
g3584
sbsg2900
g2901
sg88
Nsg33
Nsg92
I01
sg2902
Nsg101
g3592
sg103
g0
(g104
g105
((lp3866
(lp3867
tp3868
tp3869
Rp3870
sg2909
I00
sg2910
g2911
sg2912
g2865
sg2913
Nsg114
Nsg2914
g2865
sg2915
F0.0
sg8
I01
sg2916
Nsg43
Nsg1883
Nsg2917
(I0
tp3871
sg87
F0.5
sg2471
Nsbsg112
I00
sg2919
g0
(g2840
g2
Ntp3872
Rp3873
(dp3874
g6
g7
sg8
I01
sg2912
g2865
sg9
g4
sg2844
g2845
sg2846
Nsg10
Nsg42
Nsg17
g18
sg2864
g2865
sg20
I01
sg2847
Nsg23
Nsg75
g132
(g133
(I0
tp3875
g135
tp3876
Rp3877
(I1
(I2
tp3878
g59
I00
S'\x00\x00\x00\x00\x00\x00\x00\x00\x00\x00\x00\x00\x00\x00\x00\x00'
p3879
tp3880
bsg76
g132
(g133
(I0
tp3881
g135
tp3882
Rp3883
(I1
(I2
tp3884
g59
I00
S'\x00\x00\x00\x00\x00\x00\x00\x00\x00\x00\x00\x00\x00\x00\xf0?'
p3885
tp3886
bsg24
Nsg25
Nsg11
Nsg2856
g3614
sg28
I00
sg2866
Nsg29
I00
sg30
(dp3887
sg2863
Nsg32
I00
sg2909
I00
sg1884
Nsg2867
Nsg2850
F1.0
sg2900
g2901
sg2851
Nsg2165
g2937
sg2868
g0
(g2869
g2
Ntp3888
Rp3889
(dp3890
g2868
g2941
sg2873
Nsg2874
Nsg115
g0
(g45
g2
Ntp3891
Rp3892
(dp3893
g49
I1
sg50
Nsg51
g7
sg52
(dp3894
sbsg2885
I00
sg2886
g2887
sg2888
Nsg1881
g2889
sg99
g2890
sg2471
g0
(g2472
g2
Ntp3895
Rp3896
(dp3897
g2476
I00
sg2477
Nsg2478
g132
(g133
(I0
tp3898
g135
tp3899
Rp3900
(I1
(I0
I2
tp3901
g59
I00
g2953
tp3902
bsg2485
I00
sg2486
F0.1111111111111111
sg2487
I1
sg2488
I00
sbsbsg33
Nsg2852
g2853
sg92
I01
sg2854
g2855
sg96
Nsg2915
F0.0
sg86
I01
sg2902
g132
(g133
(I0
tp3903
g135
tp3904
Rp3905
(I1
(I2
I2
tp3906
g59
I00
S'\x00\x00\x00\x00\x00\x00\x00\x00\x00\x00\x00\x00\x00\x00\x00\x00\x00\x00\x00\x00\x00\x00\xf0?\x00\x00\x00\x00\x00\x00\x00\x00'
p3907
tp3908
bsg101
g2961
sg103
g0
(g104
g105
((lp3909
(lp3910
tp3911
tp3912
Rp3913
sg111
I0
sg2910
g2911
sg2848
I0
sg2913
Nsg2862
I5
sg112
I01
sg114
F1.0
sg2914
g2865
sg2859
I00
sg115
g290
sg2916
Nsg2860
Nsg2858
I00
sg43
Nsg1883
Nsg2917
g3642
sg88
g1571
sg87
F0.8
sg34
Nsg2471
g0
(g2472
g2
Ntp3914
Rp3915
(dp3916
g2476
I00
sg2477
Nsg2478
g3905
sg2485
I00
sg2486
F0.1111111111111111
sg2487
I180
sg2488
I00
sbsbsg114
Nsg33
Nsg2971
g0
(g2840
g2
Ntp3917
Rp3918
(dp3919
g6
g7
sg2844
g2845
sg2846
Nsg20
I01
sg2847
Nsg2848
I0
sg75
Nsg76
Nsg24
Nsg11
Nsg29
I00
sg30
(dp3920
sg32
I00
sg1884
Nsg2850
F0.6
sg2851
Nsg2852
g2853
sg2854
g2855
sg96
Nsg86
I01
sg2856
g3650
sg111
I0
sg112
I01
sg2858
I01
sg2859
I01
sg115
g290
sg2860
Nsg2861
I2
sg2165
g3490
sg2862
I5
sg9
g4
sg2863
Nsg10
Nsg42
Nsg17
g18
sg2864
g2865
sg23
Nsg25
Nsg28
I00
sg2866
Nsg34
Nsg2867
Nsg2868
g0
(g2869
g2
Ntp3921
Rp3922
(dp3923
g2868
I1
sg2873
Nsg2874
F1.0
sg115
g0
(g157
g2
Ntp3924
Rp3925
(dp3926
g49
I2
sg50
Nsg120
g132
(g133
(I0
tp3927
g135
tp3928
Rp3929
(I1
(I3
I3
tp3930
g59
I00
S'\x00\x00\x00\x00\x00\x00\xf0?\x00\x00\x00\x00\x00\x00\x00\x00\x00\x00\x00\x00\x00\x00\x00\x00\x00\x00\x00\x00\x00\x00\x00\x00\x00\x00\x00\x00\x00\x00\xf0?\x00\x00\x00\x00\x00\x00\x00\x00\x00\x00\x00\x00\x00\x00\x00\x00\x00\x00\x00\x00\x00\x00\x00\x00\x00\x00\x00\x00\x00\x00\xf0?'
p3931
tp3932
bsg51
g7
sg52
(dp3933
sbsg2885
I00
sg2886
g2887
sg2888
Nsg1881
g2889
sg99
g2890
sg2471
g3584
sbsg2900
g2901
sg88
Nsg33
Nsg92
I01
sg2902
Nsg101
g3664
sg103
g0
(g104
g105
((lp3934
(lp3935
tp3936
tp3937
Rp3938
sg2909
I00
sg2910
g2911
sg2912
g2865
sg2913
Nsg114
Nsg2914
g2865
sg2915
F0.0
sg8
I01
sg2916
Nsg43
Nsg1883
Nsg2917
(I0
tp3939
sg87
F0.5
sg2471
Nsbsg115
Nsg2997
F8.0
sg2998
g3671
sg43
Nsg2165
g3490
sg34
Nsbag0
(g3522
g2
Ntp3940
Rp3941
(dp3942
g6
g7
sg40
F0.6
sg9
g4
sg2786
I01
sg8
I01
sg10
Nsg111
I0
sg42
Nsg2787
F3.4
sg2788
g3490
sg2789
I00
sg2120
F0.0
sg17
g18
sg2790
g3526
sg2736
g0
(g2104
g2
Ntp3943
Rp3944
(dp3945
g6
g7
sg8
I01
sg9
g4
sg10
Nsg2108
g0
(g2109
g2
Ntp3946
Rp3947
(dp3948
g2113
(lp3949
g2115
asg2116
Nsg2117
g2118
sg2119
g2118
sg2120
F8.0
sg2121
I400
sg2122
g2118
sbsg42
Nsg17
g18
sg2123
Nsg20
I01
sg23
Nsg75
I0
sg76
I0
sg24
Nsg25
Nsg11
Nsg28
I00
sg29
I00
sg30
(dp3950
sg2125
Nsg32
I00
sg1884
Nsg88
Nsg1883
Nsg2126
Nsg33
Nsg96
Nsg86
I01
sg2127
g3535
sg2129
V
p3951
sg2131
Nsg103
g0
(g104
g105
((lp3952
(lp3953
tp3954
tp3955
Rp3956
sg111
I0
sg2137
Nsg112
I01
sg114
Nsg2138
F1.2
sg115
g493
sg2163
I00
sg2164
I00
sg43
Nsg2165
g3490
sg2167
g3542
sg34
Nsbsg20
I01
sg23
Nsg2808
I00
sg24
Nsg25
Nsg11
Nsg2809
I00
sg28
I00
sg29
I00
sg30
(dp3957
sg2811
(I0
I1
tp3958
sg32
I00
sg2813
I2
sg1884
g1943
sg2814
I01
sg88
g921
sg1883
Nsg2815
g3944
sg2816
g0
(g2104
g2
Ntp3959
Rp3960
(dp3961
g6
g7
sg8
I01
sg9
g4
sg10
Nsg2108
g0
(g2109
g2
Ntp3962
Rp3963
(dp3964
g2113
(lp3965
g2115
asg2116
Nsg2117
g2118
sg2119
g2118
sg2120
F8.0
sg2121
I400
sg2122
g2118
sbsg42
Nsg17
g18
sg2123
Nsg20
I01
sg23
Nsg75
I0
sg76
I1
sg24
Nsg25
Nsg11
Nsg28
I00
sg29
I00
sg30
(dp3966
sg2125
Nsg32
I00
sg1884
Nsg88
Nsg1883
Nsg2126
Nsg33
Nsg96
Nsg86
I01
sg2127
g3535
sg2129
V
p3967
sg2131
Nsg103
g0
(g104
g105
((lp3968
(lp3969
tp3970
tp3971
Rp3972
sg111
I0
sg2137
Nsg112
I01
sg114
Nsg2138
F1.2
sg115
g502
sg2163
I00
sg2164
I00
sg43
Nsg2165
g3490
sg2167
g3559
sg34
Nsbsg96
Nsg2832
I0
sg86
I01
sg103
g0
(g104
g105
((lp3973
(lp3974
tp3975
tp3976
Rp3977
sg2838
F3.4
sg2839
g0
(g2840
g2
Ntp3978
Rp3979
(dp3980
g6
g7
sg2844
g2845
sg2846
Nsg20
I01
sg2847
Nsg2848
I0
sg75
Nsg76
Nsg24
Nsg11
Nsg29
I00
sg30
(dp3981
sg32
I00
sg1884
Nsg2850
F0.6
sg2851
Nsg2852
g2853
sg2854
g2855
sg96
Nsg86
I01
sg2856
g3569
sg111
I0
sg112
I01
sg2858
I01
sg2859
I01
sg115
g290
sg2860
Nsg2861
I2
sg2165
g3490
sg2862
I5
sg9
g4
sg2863
Nsg10
Nsg42
Nsg17
g18
sg2864
g2865
sg23
Nsg25
Nsg28
I00
sg2866
Nsg34
Nsg2867
Nsg2868
g0
(g2869
g2
Ntp3982
Rp3983
(dp3984
g2868
I0
sg2873
Nsg2874
F1.0
sg115
g0
(g157
g2
Ntp3985
Rp3986
(dp3987
g49
I2
sg50
Nsg120
g132
(g133
(I0
tp3988
g135
tp3989
Rp3990
(I1
(I3
I3
tp3991
g59
I00
S'\x00\x00\x00\x00\x00\x00\xf0\xbf\x00\x00\x00\x00\x00\x00\x00\x00\x00\x00\x00\x00\x00\x00\x00\x00\x00\x00\x00\x00\x00\x00\x00\x00\x00\x00\x00\x00\x00\x00\xf0?\x00\x00\x00\x00\x00\x00\x00\x00\x00\x00\x00\x00\x00\x00\x00\x00\x00\x00\x00\x00\x00\x00\x00\x00\x00\x00\x00\x00\x00\x00\xf0?'
p3992
tp3993
bsg51
g7
sg52
(dp3994
sbsg2885
I00
sg2886
g2887
sg2888
Nsg1881
g2889
sg99
g2890
sg2471
g3584
sbsg2900
g2901
sg88
Nsg33
Nsg92
I01
sg2902
Nsg101
g3592
sg103
g0
(g104
g105
((lp3995
(lp3996
tp3997
tp3998
Rp3999
sg2909
I00
sg2910
g2911
sg2912
g2865
sg2913
Nsg114
Nsg2914
g2865
sg2915
F0.0
sg8
I01
sg2916
Nsg43
Nsg1883
Nsg2917
(I0
tp4000
sg87
F0.5
sg2471
Nsbsg112
I00
sg2919
g0
(g2840
g2
Ntp4001
Rp4002
(dp4003
g6
g7
sg8
I01
sg2912
g2865
sg9
g4
sg2844
g2845
sg2846
Nsg10
Nsg42
Nsg17
g18
sg2864
g2865
sg20
I01
sg2847
Nsg23
Nsg75
g132
(g133
(I0
tp4004
g135
tp4005
Rp4006
(I1
(I2
tp4007
g59
I00
S'\x00\x00\x00\x00\x00\x00\x00\x00\x00\x00\x00\x00\x00\x00\x00\x00'
p4008
tp4009
bsg76
g132
(g133
(I0
tp4010
g135
tp4011
Rp4012
(I1
(I2
tp4013
g59
I00
S'\x00\x00\x00\x00\x00\x00\x00\x00\x00\x00\x00\x00\x00\x00\xf0?'
p4014
tp4015
bsg24
Nsg25
Nsg11
Nsg2856
g3614
sg28
I00
sg2866
Nsg29
I00
sg30
(dp4016
sg2863
Nsg32
I00
sg2909
I00
sg1884
Nsg2867
Nsg2850
F1.0
sg2900
g2901
sg2851
Nsg2165
g2937
sg2868
g0
(g2869
g2
Ntp4017
Rp4018
(dp4019
g2868
g2941
sg2873
Nsg2874
Nsg115
g0
(g45
g2
Ntp4020
Rp4021
(dp4022
g49
I1
sg50
Nsg51
g7
sg52
(dp4023
sbsg2885
I00
sg2886
g2887
sg2888
Nsg1881
g2889
sg99
g2890
sg2471
g0
(g2472
g2
Ntp4024
Rp4025
(dp4026
g2476
I00
sg2477
Nsg2478
g132
(g133
(I0
tp4027
g135
tp4028
Rp4029
(I1
(I0
I2
tp4030
g59
I00
g2953
tp4031
bsg2485
I00
sg2486
F0.1111111111111111
sg2487
I1
sg2488
I00
sbsbsg33
Nsg2852
g2853
sg92
I01
sg2854
g2855
sg96
Nsg2915
F0.0
sg86
I01
sg2902
g132
(g133
(I0
tp4032
g135
tp4033
Rp4034
(I1
(I2
I2
tp4035
g59
I00
S'\x00\x00\x00\x00\x00\x00\x00\x00\x00\x00\x00\x00\x00\x00\x00\x00\x00\x00\x00\x00\x00\x00\xf0?\x00\x00\x00\x00\x00\x00\x00\x00'
p4036
tp4037
bsg101
g2961
sg103
g0
(g104
g105
((lp4038
(lp4039
tp4040
tp4041
Rp4042
sg111
I0
sg2910
g2911
sg2848
I0
sg2913
Nsg2862
I5
sg112
I01
sg114
F1.0
sg2914
g2865
sg2859
I00
sg115
g290
sg2916
Nsg2860
Nsg2858
I00
sg43
Nsg1883
Nsg2917
g3642
sg88
g991
sg87
F0.8
sg34
Nsg2471
g0
(g2472
g2
Ntp4043
Rp4044
(dp4045
g2476
I00
sg2477
Nsg2478
g4034
sg2485
I00
sg2486
F0.1111111111111111
sg2487
I180
sg2488
I00
sbsbsg114
Nsg33
Nsg2971
g0
(g2840
g2
Ntp4046
Rp4047
(dp4048
g6
g7
sg2844
g2845
sg2846
Nsg20
I01
sg2847
Nsg2848
I0
sg75
Nsg76
Nsg24
Nsg11
Nsg29
I00
sg30
(dp4049
sg32
I00
sg1884
Nsg2850
F0.6
sg2851
Nsg2852
g2853
sg2854
g2855
sg96
Nsg86
I01
sg2856
g3650
sg111
I0
sg112
I01
sg2858
I01
sg2859
I01
sg115
g290
sg2860
Nsg2861
I2
sg2165
g3490
sg2862
I5
sg9
g4
sg2863
Nsg10
Nsg42
Nsg17
g18
sg2864
g2865
sg23
Nsg25
Nsg28
I00
sg2866
Nsg34
Nsg2867
Nsg2868
g0
(g2869
g2
Ntp4050
Rp4051
(dp4052
g2868
I1
sg2873
Nsg2874
F1.0
sg115
g0
(g157
g2
Ntp4053
Rp4054
(dp4055
g49
I2
sg50
Nsg120
g132
(g133
(I0
tp4056
g135
tp4057
Rp4058
(I1
(I3
I3
tp4059
g59
I00
S'\x00\x00\x00\x00\x00\x00\xf0?\x00\x00\x00\x00\x00\x00\x00\x00\x00\x00\x00\x00\x00\x00\x00\x00\x00\x00\x00\x00\x00\x00\x00\x00\x00\x00\x00\x00\x00\x00\xf0?\x00\x00\x00\x00\x00\x00\x00\x00\x00\x00\x00\x00\x00\x00\x00\x00\x00\x00\x00\x00\x00\x00\x00\x00\x00\x00\x00\x00\x00\x00\xf0?'
p4060
tp4061
bsg51
g7
sg52
(dp4062
sbsg2885
I00
sg2886
g2887
sg2888
Nsg1881
g2889
sg99
g2890
sg2471
g3584
sbsg2900
g2901
sg88
Nsg33
Nsg92
I01
sg2902
Nsg101
g3664
sg103
g0
(g104
g105
((lp4063
(lp4064
tp4065
tp4066
Rp4067
sg2909
I00
sg2910
g2911
sg2912
g2865
sg2913
Nsg114
Nsg2914
g2865
sg2915
F0.0
sg8
I01
sg2916
Nsg43
Nsg1883
Nsg2917
(I0
tp4068
sg87
F0.5
sg2471
Nsbsg115
Nsg2997
F8.0
sg2998
g3671
sg43
Nsg2165
g3490
sg34
Nsbasg34
Nsg3404
(dp4069
g2771
I01
sg2773
I00
sg2774
I01
sg2775
I00
ssg3406
I01
sbsS'_axisbelow'
p4070
I00
sg8
I01
sS'lines'
p4071
(lp4072
sS'_ycid'
p4073
I1
sS'spines'
p4074
ccollections
OrderedDict
p4075
((lp4076
(lp4077
Vleft
p4078
ag0
(cmatplotlib.spines
Spine
p4079
g2
Ntp4080
Rp4081
(dp4082
g6
g7
sg2717
I00
sg41
I01
sg9
g4
sS'_bounds'
p4083
Nsg8
I01
sg10
Nsg42
Nsg17
g18
sg43
Nsg20
I01
sg2695
g3450
sg44
g0
(g45
g2
Ntp4084
Rp4085
(dp4086
g49
I1
sg50
Nsg51
g7
sg52
(dp4087
sbsg54
(F0.0
F0.0
F0.0
F1.0
tp4088
sg23
Nsg24
Nsg77
V0.
p4089
sg11
Nsg28
I00
sg29
I00
sg30
(dp4090
sg1879
(NNtp4091
sg2631
(Voutward
p4092
F0.0
tp4093
sg32
I00
sg85
Nsg86
I01
sg87
F1.0
sS'_patch_type'
p4094
Vline
p4095
sg33
Nsg90
g4088
sg91
Nsg92
I01
sg93
Nsg94
Vnone
p4096
sg96
Nsg97
g2610
sg99
g100
sS'_patch_transform'
p4097
g0
(g45
g2
Ntp4098
Rp4099
(dp4100
g49
I1
sg50
Nsg51
g7
sg52
(dp4101
sbsg101
g102
sg103
g0
(g104
g105
((lp4102
(lp4103
tp4104
tp4105
Rp4106
sg111
I0
sS'_spine_transform'
p4107
(Videntity
p4108
g0
(g45
g2
Ntp4109
Rp4110
(dp4111
g49
I1
sg50
Nsg51
g7
sg52
(dp4112
sbtp4113
sg112
I01
sg114
NsS'spine_type'
p4114
g4078
sg115
g290
sg88
Nsg2861
F2.5
sg1881
Vprojecting
p4115
sg1883
Nsg25
Nsg1884
g1943
sg34
Nsg2471
g0
(g2472
g2
Ntp4116
Rp4117
(dp4118
g2476
I00
sg2477
Nsg2478
g132
(g133
(I0
tp4119
g135
tp4120
Rp4121
(I1
(I2
I2
tp4122
g59
I00
S'\x00\x00\x00\x00\x00\x00\x00\x00\x00\x00\x00\x00\x00\x00*@\x00\x00\x00\x00\x00\x00\x00\x00\x00\x00\x00\x00\x00\x00*@'
p4123
tp4124
bsg2485
I00
sg2486
F0.1111111111111111
sg2487
I1
sg2488
I00
sbsbaa(lp4125
Vright
p4126
ag0
(g4079
g2
Ntp4127
Rp4128
(dp4129
g6
g7
sg2717
I00
sg41
I01
sg9
g4
sg4083
Nsg8
I00
sg10
Nsg42
Nsg17
g18
sg43
Nsg20
I01
sg2695
g3450
sg44
g0
(g45
g2
Ntp4130
Rp4131
(dp4132
g49
I1
sg50
Nsg51
g7
sg52
(dp4133
sbsg54
g4088
sg23
Nsg24
Nsg77
g4089
sg11
Nsg28
I00
sg29
I00
sg30
(dp4134
sg1879
(NNtp4135
sg2631
g4093
sg32
I00
sg85
Nsg86
I01
sg87
F1.0
sg4094
g4095
sg33
Nsg90
g4088
sg91
Nsg92
I01
sg93
Nsg94
g4096
sg96
Nsg97
g2610
sg99
g100
sg4097
g0
(g45
g2
Ntp4136
Rp4137
(dp4138
g49
I1
sg50
Nsg51
g7
sg52
(dp4139
sbsg101
g102
sg103
g0
(g104
g105
((lp4140
(lp4141
tp4142
tp4143
Rp4144
sg111
I0
sg4107
(g4108
g0
(g45
g2
Ntp4145
Rp4146
(dp4147
g49
I1
sg50
Nsg51
g7
sg52
(dp4148
sbtp4149
sg112
I01
sg114
Nsg4114
g4126
sg115
g290
sg88
Nsg2861
F2.5
sg1881
g4115
sg1883
Nsg25
Nsg1884
g1943
sg34
Nsg2471
g0
(g2472
g2
Ntp4150
Rp4151
(dp4152
g2476
I00
sg2477
Nsg2478
g132
(g133
(I0
tp4153
g135
tp4154
Rp4155
(I1
(I2
I2
tp4156
g59
I00
S'\x00\x00\x00\x00\x00\x00\xf0?\x00\x00\x00\x00\x00\x00*@\x00\x00\x00\x00\x00\x00\xf0?\x00\x00\x00\x00\x00\x00*@'
p4157
tp4158
bsg2485
I00
sg2486
F0.1111111111111111
sg2487
I1
sg2488
I00
sbsbaa(lp4159
Vbottom
p4160
ag0
(g4079
g2
Ntp4161
Rp4162
(dp4163
g6
g7
sg2717
I00
sg41
I01
sg9
g4
sg4083
Nsg8
I01
sg10
Nsg42
Nsg17
g18
sg43
Nsg20
I01
sg2695
g2663
sg44
g0
(g45
g2
Ntp4164
Rp4165
(dp4166
g49
I1
sg50
Nsg51
g7
sg52
(dp4167
sbsg54
g4088
sg23
Nsg24
Nsg77
g4089
sg11
Nsg28
I00
sg29
I00
sg30
(dp4168
sg1879
(NNtp4169
sg2631
g4093
sg32
I00
sg85
Nsg86
I01
sg87
F1.0
sg4094
g4095
sg33
Nsg90
g4088
sg91
Nsg92
I01
sg93
Nsg94
g4096
sg96
Nsg97
g2610
sg99
g100
sg4097
g0
(g45
g2
Ntp4170
Rp4171
(dp4172
g49
I1
sg50
Nsg51
g7
sg52
(dp4173
sbsg101
g102
sg103
g0
(g104
g105
((lp4174
(lp4175
tp4176
tp4177
Rp4178
sg111
I0
sg4107
(g4108
g0
(g45
g2
Ntp4179
Rp4180
(dp4181
g49
I1
sg50
Nsg51
g7
sg52
(dp4182
sbtp4183
sg112
I01
sg114
Nsg4114
g4160
sg115
g361
sg88
Nsg2861
F2.5
sg1881
g4115
sg1883
Nsg25
Nsg1884
g1943
sg34
Nsg2471
g0
(g2472
g2
Ntp4184
Rp4185
(dp4186
g2476
I00
sg2477
Nsg2478
g132
(g133
(I0
tp4187
g135
tp4188
Rp4189
(I1
(I2
I2
tp4190
g59
I00
S'\x00\x00\x00\x00\x00\x00*@\x00\x00\x00\x00\x00\x00\x00\x00\x00\x00\x00\x00\x00\x00*@\x00\x00\x00\x00\x00\x00\x00\x00'
p4191
tp4192
bsg2485
I00
sg2486
F0.1111111111111111
sg2487
I1
sg2488
I00
sbsbaa(lp4193
Vtop
p4194
ag0
(g4079
g2
Ntp4195
Rp4196
(dp4197
g6
g7
sg2717
I00
sg41
I01
sg9
g4
sg4083
Nsg8
I00
sg10
Nsg42
Nsg17
g18
sg43
Nsg20
I01
sg2695
g2663
sg44
g0
(g45
g2
Ntp4198
Rp4199
(dp4200
g49
I1
sg50
Nsg51
g7
sg52
(dp4201
sbsg54
g4088
sg23
Nsg24
Nsg77
g4089
sg11
Nsg28
I00
sg29
I00
sg30
(dp4202
sg1879
(NNtp4203
sg2631
g4093
sg32
I00
sg85
Nsg86
I01
sg87
F1.0
sg4094
g4095
sg33
Nsg90
g4088
sg91
Nsg92
I01
sg93
Nsg94
g4096
sg96
Nsg97
g2610
sg99
g100
sg4097
g0
(g45
g2
Ntp4204
Rp4205
(dp4206
g49
I1
sg50
Nsg51
g7
sg52
(dp4207
sbsg101
g102
sg103
g0
(g104
g105
((lp4208
(lp4209
tp4210
tp4211
Rp4212
sg111
I0
sg4107
(g4108
g0
(g45
g2
Ntp4213
Rp4214
(dp4215
g49
I1
sg50
Nsg51
g7
sg52
(dp4216
sbtp4217
sg112
I01
sg114
Nsg4114
g4194
sg115
g361
sg88
Nsg2861
F2.5
sg1881
g4115
sg1883
Nsg25
Nsg1884
g1943
sg34
Nsg2471
g0
(g2472
g2
Ntp4218
Rp4219
(dp4220
g2476
I00
sg2477
Nsg2478
g132
(g133
(I0
tp4221
g135
tp4222
Rp4223
(I1
(I2
I2
tp4224
g59
I00
S'\x00\x00\x00\x00\x00\x00*@\x00\x00\x00\x00\x00\x00\xf0?\x00\x00\x00\x00\x00\x00*@\x00\x00\x00\x00\x00\x00\xf0?'
p4225
tp4226
bsg2485
I00
sg2486
F0.1111111111111111
sg2487
I1
sg2488
I00
sbsbaatp4227
Rp4228
sS'_anchor'
p4229
VC
p4230
sg43
Nsg1883
NsS'_use_sticky_edges'
p4231
I01
sbtp4232
tp4233
asS'_ind'
p4234
I1
sS'_pos'
p4235
I0
sbsg115
Nsg4071
(lp4236
sg2602
g38
sS'subplotpars'
p4237
g0
(cmatplotlib.figure
SubplotParams
p4238
g2
Ntp4239
Rp4240
(dp4241
g1927
F0.9
sg1929
F0.125
sg1930
F0.88
sg1931
F0.2
sS'validate'
p4242
I01
sg1933
F0.2
sg1935
F0.125
sbsg43
Nsg1883
NsS'bbox_inches'
p4243
g129
sS'transFigure'
p4244
g118
sS'_dpi'
p4245
F72.0
sb.