ccopy_reg
_reconstructor
p0
(cmatplotlib.figure
Figure
p1
c__builtin__
object
p2
Ntp3
Rp4
(dp5
S'_label'
p6
V
p7
sS'_visible'
p8
I01
sS'figure'
p9
NsS'stale_callback'
p10
NsS'_rasterized'
p11
NsS'texts'
p12
(lp13
sS'_hold'
p14
I01
sS'artists'
p15
(lp16
sS'_path_effects'
p17
(lp18
sS'frameon'
p19
I01
sS'_clipon'
p20
I01
sV__mpl_version__
p21
S'2.1.1'
p22
sS'_clippath'
p23
NsS'_sketch'
p24
NsS'_contains'
p25
NsS'_tight_parameters'
p26
(dp27
sS'_mouseover'
p28
I00
sS'_animated'
p29
I00
sS'_propobservers'
p30
(dp31
sS'eventson'
p32
I00
sS'_picker'
p33
NsS'_remove_method'
p34
NsS'_agg_filter'
p35
NsS'clipbox'
p36
NsV_restore_to_pylab
p37
I01
sS'images'
p38
(lp39
sS'_suptitle'
p40
NsS'dpi_scale_trans'
p41
g0
(cmatplotlib.transforms
Affine2D
p42
g2
Ntp43
Rp44
(dp45
S'_invalid'
p46
I2
sS'_inverted'
p47
NsS'_mtx'
p48
cnumpy.core.multiarray
_reconstruct
p49
(cnumpy
ndarray
p50
(I0
tp51
S'b'
p52
tp53
Rp54
(I1
(I3
I3
tp55
cnumpy
dtype
p56
(S'f8'
p57
I0
I1
tp58
Rp59
(I3
S'<'
p60
NNNI-1
I-1
I0
tp61
bI00
S'\x00\x00\x00\x00\x00\x00R@\x00\x00\x00\x00\x00\x00\x00\x00\x00\x00\x00\x00\x00\x00\x00\x00\x00\x00\x00\x00\x00\x00\x00\x00\x00\x00\x00\x00\x00\x00R@\x00\x00\x00\x00\x00\x00\x00\x00\x00\x00\x00\x00\x00\x00\x00\x00\x00\x00\x00\x00\x00\x00\x00\x00\x00\x00\x00\x00\x00\x00\xf0?'
p62
tp63
bsS'_shorthand_name'
p64
g7
sS'_parents'
p65
(dp66
I140468170944080
NsI140468170941328
NsI140468192228304
g0
(cmatplotlib.transforms
ScaledTranslation
p67
g2
Ntp68
Rp69
(dp70
g46
I1
sg48
NsS'_scale_trans'
p71
g44
sg47
NsS'_t'
p72
(I0
F-0.04722222222222222
tp73
sg64
g7
sg65
(dp74
I140468192228240
g0
(cmatplotlib.transforms
CompositeGenericTransform
p75
g2
Ntp76
Rp77
(dp78
g46
I2
sS'input_dims'
p79
I2
sS'_a'
p80
g0
(cmatplotlib.transforms
BlendedGenericTransform
p81
g2
Ntp82
Rp83
(dp84
g46
I2
sS'_y'
p85
g0
(cmatplotlib.transforms
BboxTransformTo
p86
g2
Ntp87
Rp88
(dp89
g46
I2
sg48
Nsg47
NsS'_boxout'
p90
g0
(cmatplotlib.transforms
TransformedBbox
p91
g2
Ntp92
Rp93
(dp94
g46
I2
sS'_bbox'
p95
g0
(cmatplotlib.transforms
Bbox
p96
g2
Ntp97
Rp98
(dp99
g46
I0
sS'_minpos'
p100
g49
(g50
(I0
tp101
g52
tp102
Rp103
(I1
(I2
tp104
g59
I00
S'\x00\x00\x00\x00\x00\x00\xf0\x7f\x00\x00\x00\x00\x00\x00\xf0\x7f'
p105
tp106
bsg65
(dp107
I140468198405456
g93
ssS'_points_orig'
p108
g49
(g50
(I0
tp109
g52
tp110
Rp111
(I1
(I2
I2
tp112
g59
I00
S'\x00\x00\x00\x00\x00\x00\xc0?\x00\x00\x00\x00\x00\x00\xc0?\xcd\xcc\xcc\xcc\xcc\xcc\xec?)\\\x8f\xc2\xf5(\xec?'
p113
tp114
bsS'_points'
p115
g49
(g50
(I0
tp116
g52
tp117
Rp118
(I1
(I2
I2
tp119
g59
I00
S'\x00\x00\x00\x00\x00\x00\xc0?\x00\x00\x00\x00\x00\x00\xc0?\xcd\xcc\xcc\xcc\xcc\xcc\xec?)\\\x8f\xc2\xf5(\xec?'
p120
tp121
bsS'_ignore'
p122
I01
sg64
g7
sbsS'_transform'
p123
g0
(g86
g2
Ntp124
Rp125
(dp126
g46
I2
sg48
Nsg47
Nsg90
g0
(g91
g2
Ntp127
Rp128
(dp129
g46
I2
sg95
g0
(g96
g2
Ntp130
Rp131
(dp132
g46
I2
sg100
g49
(g50
(I0
tp133
g52
tp134
Rp135
(I1
(I2
tp136
g59
I00
S'\x00\x00\x00\x00\x00\x00\xf0\x7f\x00\x00\x00\x00\x00\x00\xf0\x7f'
p137
tp138
bsg65
(dp139
I140468206251984
g128
ssg108
g49
(g50
(I0
tp140
g52
tp141
Rp142
(I1
(I2
I2
tp143
g59
I00
S'\x00\x00\x00\x00\x00\x00\x00\x00\x00\x00\x00\x00\x00\x00\x00\x00\x00\x00\x00\x00\x00\x00\x18@\x00\x00\x00\x00\x00\x00\x10@'
p144
tp145
bsg115
g49
(g50
(I0
tp146
g52
tp147
Rp148
(I1
(I2
I2
tp149
g59
I00
S'\x00\x00\x00\x00\x00\x00\x00\x00\x00\x00\x00\x00\x00\x00\x00\x00\x00\x00\x00\x00\x00\x00\xf8?\x00\x00\x00\x00\x00\x00\xf8?'
p150
tp151
bsg122
I01
sg64
g7
sbsg123
g44
sg115
Nsg65
(dp152
I140468206250256
g125
ssg64
g7
sbsg65
(dp153
I140468198405456
g93
ssg64
g7
sbsg115
Nsg65
(dp154
I140468202467408
g88
ssg64
g7
sbsg65
(dp155
I140468197974928
g0
(g75
g2
Ntp156
Rp157
(dp158
g46
I2
sg79
I2
sg80
g0
(g75
g2
Ntp159
Rp160
(dp161
g46
I1
sg79
I2
sg80
g0
(g86
g2
Ntp162
Rp163
(dp164
g46
I1
sg48
Nsg47
Nsg90
g0
(g96
g2
Ntp165
Rp166
(dp167
g46
I1
sg100
g49
(g50
(I0
tp168
g52
tp169
Rp170
(I1
(I2
tp171
g59
I00
S'\x00\x00\x00\x00\x00\x00\xf0\x7f\x00\x00\x00\x00\x00\x00\xf0\x7f'
p172
tp173
bsg65
(dp174
I140468197974736
g163
ssg108
g49
(g50
(I0
tp175
g52
tp176
Rp177
(I1
(I2
I2
tp178
g59
I00
S'\x00\x00\x00\x00\x00\x00\x00\x00\x00\x00\x00\x00\x00\x00\x00\x00\x00\x00\x00\x00\x00\x00\xf0?\x00\x00\x00\x00\x00\x00\xf0?'
p179
tp180
bsg115
g49
(g50
(I0
tp181
g52
tp182
Rp183
(I1
(I2
I2
tp184
g59
I00
S'\x00\x00\x00\x00\x00\x00\x00\x00\x00\x00\x00\x00\x00\x00\x00\x00\x00\x00\x00\x00\x00\x00\xf0?\x00\x00\x00\x00\x00\x00\xf0?'
p185
tp186
bsg122
I01
sg64
g7
sbsg65
(dp187
I140468197977360
g160
ssg64
g7
sbsS'output_dims'
p188
I2
sS'_b'
p189
g0
(g42
g2
Ntp190
Rp191
(dp192
g46
I2
sg47
Nsg48
g49
(g50
(I0
tp193
g52
tp194
Rp195
(I1
(I3
I3
tp196
g59
I00
S'\x00\x00\x00\x00\x00\x00\xf0?\x00\x00\x00\x00\x00\x00\x00\x00\x00\x00\x00\x00\x00\x00\x00\x00\x00\x00\x00\x00\x00\x00\x00\x00\x00\x00\x00\x00\x00\x00\xf0?\x00\x00\x00\x00\x00\x00\x00\x00\x00\x00\x00\x00\x00\x00\x00\x00\x00\x00\x00\x00\x00\x00\x00\x00\x00\x00\x00\x00\x00\x00\xf0?'
p197
tp198
bsg64
g7
sg65
(dp199
I140468197977360
g160
ssbsg65
(dp200
I140468197974928
g157
ssg64
g7
sbsg188
I2
sg189
g88
sg65
(dp201
I140468197976400
g0
(g91
g2
Ntp202
Rp203
(dp204
g46
I2
sg95
g0
(g96
g2
Ntp205
Rp206
(dp207
g46
I1
sg100
g49
(g50
(I0
tp208
g52
tp209
Rp210
(I1
(I2
tp211
g59
I00
S'\x00\x00\x00\x00\x00\x00\xf0\x7f\x00\x00\x00\x00\x00\x00\xf0\x7f'
p212
tp213
bsg65
(dp214
I140468197976400
g203
ssg108
g49
(g50
(I0
tp215
g52
tp216
Rp217
(I1
(I2
I2
tp218
g59
I00
S'\x00\x00\x00\x00\x00\x00\x00\x00\x00\x00\x00\x00\x00\x00\x00\x00\x00\x00\x00\x00\x00\x00\xf0?\x00\x00\x00\x00\x00\x00\xf0?'
p219
tp220
bsg115
g49
(g50
(I0
tp221
g52
tp222
Rp223
(I1
(I2
I2
tp224
g59
I00
S'\x00\x00\x00\x00\x00\x00\x00\x00\x00\x00\x00\x00\x00\x00\x00\x00\x00\x00\x00\x00\x00\x00\xf0?\x00\x00\x00\x00\x00\x00\xf0?'
p225
tp226
bsg122
I01
sg64
g7
sbsg123
g157
sg115
Nsg65
(dp227
sg64
g7
sbssg64
g7
sbsI140468197975184
g0
(g75
g2
Ntp228
Rp229
(dp230
g46
I2
sg79
I2
sg80
g0
(g75
g2
Ntp231
Rp232
(dp233
g46
I1
sg79
I2
sg80
g0
(g86
g2
Ntp234
Rp235
(dp236
g46
I1
sg48
Nsg47
Nsg90
g0
(g96
g2
Ntp237
Rp238
(dp239
g46
I1
sg100
g49
(g50
(I0
tp240
g52
tp241
Rp242
(I1
(I2
tp243
g59
I00
S'\x00\x00\x00\x00\x00\x00\xf0\x7f\x00\x00\x00\x00\x00\x00\xf0\x7f'
p244
tp245
bsg65
(dp246
I140468197977872
g235
ssg108
g49
(g50
(I0
tp247
g52
tp248
Rp249
(I1
(I2
I2
tp250
g59
I00
S'\x00\x00\x00\x00\x00\x00\x00\x00\x00\x00\x00\x00\x00\x00\x00\x00\x00\x00\x00\x00\x00\x00\xf0?\x00\x00\x00\x00\x00\x00\xf0?'
p251
tp252
bsg115
g49
(g50
(I0
tp253
g52
tp254
Rp255
(I1
(I2
I2
tp256
g59
I00
S'\x00\x00\x00\x00\x00\x00\x00\x00\x00\x00\x00\x00\x00\x00\x00\x00\x00\x00\x00\x00\x00\x00\xf0?\x00\x00\x00\x00\x00\x00\xf0?'
p257
tp258
bsg122
I01
sg64
g7
sbsg65
(dp259
I140468197974480
g232
ssg64
g7
sbsg188
I2
sg189
g0
(g42
g2
Ntp260
Rp261
(dp262
g46
I2
sg47
Nsg48
g49
(g50
(I0
tp263
g52
tp264
Rp265
(I1
(I3
I3
tp266
g59
I00
S'\x00\x00\x00\x00\x00\x00\xf0?\x00\x00\x00\x00\x00\x00\x00\x00\x00\x00\x00\x00\x00\x00\x00\x00\x00\x00\x00\x00\x00\x00\x00\x00\x00\x00\x00\x00\x00\x00\xf0?\x00\x00\x00\x00\x00\x00\x00\x00\x00\x00\x00\x00\x00\x00\x00\x00\x00\x00\x00\x00\x00\x00\x00\x00\x00\x00\x00\x00\x00\x00\xf0?'
p267
tp268
bsg64
g7
sg65
(dp269
I140468197974480
g232
ssbsg65
(dp270
I140468197975184
g229
ssg64
g7
sbsg188
I2
sg189
g88
sg65
(dp271
I140468197976272
g0
(g91
g2
Ntp272
Rp273
(dp274
g46
I2
sg95
g0
(g96
g2
Ntp275
Rp276
(dp277
g46
I1
sg100
g49
(g50
(I0
tp278
g52
tp279
Rp280
(I1
(I2
tp281
g59
I00
S'\x00\x00\x00\x00\x00\x00\xf0\x7f\x00\x00\x00\x00\x00\x00\xf0\x7f'
p282
tp283
bsg65
(dp284
I140468197976272
g273
ssg108
g49
(g50
(I0
tp285
g52
tp286
Rp287
(I1
(I2
I2
tp288
g59
I00
S'\x00\x00\x00\x00\x00\x00\x00\x00\x00\x00\x00\x00\x00\x00\x00\x00\x00\x00\x00\x00\x00\x00\xf0?\x00\x00\x00\x00\x00\x00\xf0?'
p289
tp290
bsg115
g49
(g50
(I0
tp291
g52
tp292
Rp293
(I1
(I2
I2
tp294
g59
I00
S'\x00\x00\x00\x00\x00\x00\x00\x00\x00\x00\x00\x00\x00\x00\x00\x00\x00\x00\x00\x00\x00\x00\xf0?\x00\x00\x00\x00\x00\x00\xf0?'
p295
tp296
bsg122
I01
sg64
g7
sbsg123
g229
sg115
Nsg65
(dp297
sg64
g7
sbssg64
g7
sbsI140468196662160
g0
(g75
g2
Ntp298
Rp299
(dp300
g46
I2
sg79
I2
sg80
g0
(g75
g2
Ntp301
Rp302
(dp303
g46
I1
sg79
I2
sg80
g0
(g86
g2
Ntp304
Rp305
(dp306
g46
I1
sg48
Nsg47
Nsg90
g0
(g96
g2
Ntp307
Rp308
(dp309
g46
I1
sg100
g49
(g50
(I0
tp310
g52
tp311
Rp312
(I1
(I2
tp313
g59
I00
S'\x00\x00\x00\x00\x00\x00\xf0\x7f\x00\x00\x00\x00\x00\x00\xf0\x7f'
p314
tp315
bsg65
(dp316
I140468196659600
g305
ssg108
g49
(g50
(I0
tp317
g52
tp318
Rp319
(I1
(I2
I2
tp320
g59
I00
S'\x00\x00\x00\x00\x00\x00\x00\x00\x00\x00\x00\x00\x00\x00\x00\x00\x00\x00\x00\x00\x00\x00\xf0?\x00\x00\x00\x00\x00\x00\xf0?'
p321
tp322
bsg115
g49
(g50
(I0
tp323
g52
tp324
Rp325
(I1
(I2
I2
tp326
g59
I00
S'\x00\x00\x00\x00\x00\x00\x00\x00\x00\x00\x00\x00\x00\x00\x00\x00\x00\x00\x00\x00\x00\x00\xf0?\x00\x00\x00\x00\x00\x00\xf0?'
p327
tp328
bsg122
I01
sg64
g7
sbsg65
(dp329
I140468196660176
g302
ssg64
g7
sbsg188
I2
sg189
g0
(g42
g2
Ntp330
Rp331
(dp332
g46
I2
sg47
Nsg48
g49
(g50
(I0
tp333
g52
tp334
Rp335
(I1
(I3
I3
tp336
g59
I00
S'\x00\x00\x00\x00\x00\x00\xf0?\x00\x00\x00\x00\x00\x00\x00\x00\x00\x00\x00\x00\x00\x00\x00\x00\x00\x00\x00\x00\x00\x00\x00\x00\x00\x00\x00\x00\x00\x00\xf0?\x00\x00\x00\x00\x00\x00\x00\x00\x00\x00\x00\x00\x00\x00\x00\x00\x00\x00\x00\x00\x00\x00\x00\x00\x00\x00\x00\x00\x00\x00\xf0?'
p337
tp338
bsg64
g7
sg65
(dp339
I140468196660176
g302
ssbsg65
(dp340
I140468196662160
g299
ssg64
g7
sbsg188
I2
sg189
g88
sg65
(dp341
I140468196659792
g0
(g91
g2
Ntp342
Rp343
(dp344
g46
I2
sg95
g0
(g96
g2
Ntp345
Rp346
(dp347
g46
I1
sg100
g49
(g50
(I0
tp348
g52
tp349
Rp350
(I1
(I2
tp351
g59
I00
S'\x00\x00\x00\x00\x00\x00\xf0\x7f\x00\x00\x00\x00\x00\x00\xf0\x7f'
p352
tp353
bsg65
(dp354
I140468196659792
g343
ssg108
g49
(g50
(I0
tp355
g52
tp356
Rp357
(I1
(I2
I2
tp358
g59
I00
S'\x00\x00\x00\x00\x00\x00\x00\x00\x00\x00\x00\x00\x00\x00\x00\x00\x00\x00\x00\x00\x00\x00\xf0?\x00\x00\x00\x00\x00\x00\xf0?'
p359
tp360
bsg115
g49
(g50
(I0
tp361
g52
tp362
Rp363
(I1
(I2
I2
tp364
g59
I00
S'\x00\x00\x00\x00\x00\x00\x00\x00\x00\x00\x00\x00\x00\x00\x00\x00\x00\x00\x00\x00\x00\x00\xf0?\x00\x00\x00\x00\x00\x00\xf0?'
p365
tp366
bsg122
I01
sg64
g7
sbsg123
g299
sg115
Nsg65
(dp367
sg64
g7
sbssg64
g7
sbsI140468170941904
g0
(g75
g2
Ntp368
Rp369
(dp370
g46
I2
sg79
I2
sg80
g0
(g75
g2
Ntp371
Rp372
(dp373
g46
I1
sg79
I2
sg80
g0
(g86
g2
Ntp374
Rp375
(dp376
g46
I1
sg48
Nsg47
Nsg90
g0
(g96
g2
Ntp377
Rp378
(dp379
g46
I1
sg100
g49
(g50
(I0
tp380
g52
tp381
Rp382
(I1
(I2
tp383
g59
I00
S'\x00\x00\x00\x00\x00\x00\xf0\x7f\x00\x00\x00\x00\x00\x00\xf0\x7f'
p384
tp385
bsg65
(dp386
I140468170943952
g375
ssg108
g49
(g50
(I0
tp387
g52
tp388
Rp389
(I1
(I2
I2
tp390
g59
I00
S'\x00\x00\x00\x00\x00\x00\x00\x00\x00\x00\x00\x00\x00\x00\x00\x00\x00\x00\x00\x00\x00\x00\xf0?\x00\x00\x00\x00\x00\x00\xf0?'
p391
tp392
bsg115
g49
(g50
(I0
tp393
g52
tp394
Rp395
(I1
(I2
I2
tp396
g59
I00
S'\x00\x00\x00\x00\x00\x00\x00\x00\x00\x00\x00\x00\x00\x00\x00\x00\x00\x00\x00\x00\x00\x00\xf0?\x00\x00\x00\x00\x00\x00\xf0?'
p397
tp398
bsg122
I01
sg64
g7
sbsg65
(dp399
I140468170942608
g372
ssg64
g7
sbsg188
I2
sg189
g0
(g42
g2
Ntp400
Rp401
(dp402
g46
I2
sg47
Nsg48
g49
(g50
(I0
tp403
g52
tp404
Rp405
(I1
(I3
I3
tp406
g59
I00
S'\x00\x00\x00\x00\x00\x00\xf0?\x00\x00\x00\x00\x00\x00\x00\x00\x00\x00\x00\x00\x00\x00\x00\x00\x00\x00\x00\x00\x00\x00\x00\x00\x00\x00\x00\x00\x00\x00\xf0?\x00\x00\x00\x00\x00\x00\x00\x00\x00\x00\x00\x00\x00\x00\x00\x00\x00\x00\x00\x00\x00\x00\x00\x00\x00\x00\x00\x00\x00\x00\xf0?'
p407
tp408
bsg64
g7
sg65
(dp409
I140468170942608
g372
ssbsg65
(dp410
I140468170941904
g369
ssg64
g7
sbsg188
I2
sg189
g88
sg65
(dp411
I140468170942096
g0
(g91
g2
Ntp412
Rp413
(dp414
g46
I2
sg95
g0
(g96
g2
Ntp415
Rp416
(dp417
g46
I1
sg100
g49
(g50
(I0
tp418
g52
tp419
Rp420
(I1
(I2
tp421
g59
I00
S'\x00\x00\x00\x00\x00\x00\xf0\x7f\x00\x00\x00\x00\x00\x00\xf0\x7f'
p422
tp423
bsg65
(dp424
I140468170942096
g413
ssg108
g49
(g50
(I0
tp425
g52
tp426
Rp427
(I1
(I2
I2
tp428
g59
I00
S'\x00\x00\x00\x00\x00\x00\x00\x00\x00\x00\x00\x00\x00\x00\x00\x00\x00\x00\x00\x00\x00\x00\xf0?\x00\x00\x00\x00\x00\x00\xf0?'
p429
tp430
bsg115
g49
(g50
(I0
tp431
g52
tp432
Rp433
(I1
(I2
I2
tp434
g59
I00
S'\x00\x00\x00\x00\x00\x00\x00\x00\x00\x00\x00\x00\x00\x00\x00\x00\x00\x00\x00\x00\x00\x00\xf0?\x00\x00\x00\x00\x00\x00\xf0?'
p435
tp436
bsg122
I01
sg64
g7
sbsg123
g369
sg115
Nsg65
(dp437
sg64
g7
sbssg64
g7
sbsI140468198512272
g0
(g81
g2
Ntp438
Rp439
(dp440
g46
I2
sg85
g0
(g75
g2
Ntp441
Rp442
(dp443
g46
I2
sg79
I2
sg80
g0
(cmatplotlib.transforms
TransformWrapper
p444
g2
Ntp445
Rp446
(dp447
Voutput_dims
p448
I2
sVparents
p449
(dp450
I140468202467664
g0
(g91
g2
Ntp451
Rp452
(dp453
g46
I2
sg95
g0
(g96
g2
Ntp454
Rp455
(dp456
g46
I2
sg100
g49
(g50
(I0
tp457
g52
tp458
Rp459
(I1
(I2
tp460
g59
I00
S'\x00\x00\x00\x00\x00\x00\xf0\x7f\x00\x00\x00\x00\x00\x00\xf0\x7f'
p461
tp462
bsg65
(dp463
I140468202467664
g452
ssg108
g49
(g50
(I0
tp464
g52
tp465
Rp466
(I1
(I2
I2
tp467
g59
I00
S'\x00\x00\x00\x00\x00\x00\x00\x00\x00\x00\x00\x00\x00\x00\x00\x00\x00\x00\x00\x00\x00\x00\xf0?\x00\x00\x00\x00\x00\x00\xf0?'
p468
tp469
bsg115
g49
(g50
(I0
tp470
g52
tp471
Rp472
(I1
(I2
I2
tp473
g59
I00
S'\x10\xd1b\xdc\xc3R\xe2\xbf\x00\x00\x00\x00\x00\x00\x00\x00\x9a=d!\xc8\xf0)@\x9a\x99\x99\x99\x99\xb9I@'
p474
tp475
bsg122
I01
sg64
g7
sbsg123
g446
sg115
Nsg65
(dp476
I140468202470992
g0
(cmatplotlib.transforms
BboxTransformFrom
p477
g2
Ntp478
Rp479
(dp480
g46
I2
sS'_boxin'
p481
g452
sg48
Nsg47
Nsg64
g7
sg65
(dp482
I140468202470160
g0
(g75
g2
Ntp483
Rp484
(dp485
g46
I2
sg79
I2
sg80
g479
sg188
I2
sg189
g88
sg65
(dp486
I140468202468688
g442
sI140468197976592
NsI140468197975632
Nssg64
g7
sbssbssg64
g7
sbsI140468202468688
g442
sI140468197975632
NsI140468197976592
NssVinput_dims
p487
I2
sVchild
p488
g0
(cmatplotlib.transforms
BlendedAffine2D
p489
g2
Ntp490
Rp491
(dp492
g46
I0
sg48
g49
(g50
(I0
tp493
g52
tp494
Rp495
(I1
(I3
I3
tp496
g59
I00
S'\x00\x00\x00\x00\x00\x00\xf0?\x00\x00\x00\x00\x00\x00\x00\x00\x00\x00\x00\x00\x00\x00\x00\x00\x00\x00\x00\x00\x00\x00\x00\x00\x00\x00\x00\x00\x00\x00\xf0?\x00\x00\x00\x00\x00\x00\x00\x00\x00\x00\x00\x00\x00\x00\x00\x00\x00\x00\x00\x00\x00\x00\x00\x00\x00\x00\x00\x00\x00\x00\xf0?'
p497
tp498
bsg85
g0
(cmatplotlib.transforms
IdentityTransform
p499
g2
Ntp500
Rp501
(dp502
g46
I1
sg47
Nsg64
g7
sg65
(dp503
I140468204083728
g491
ssbsS'_x'
p504
g0
(g499
g2
Ntp505
Rp506
(dp507
g46
I1
sg47
Nsg64
g7
sg65
(dp508
I140468204083728
g491
ssbsg47
Nsg64
g7
sg65
(dp509
I140468202469328
g446
ssbsbsg188
I2
sg189
g484
sg65
(dp510
I140468202467536
g83
sI140468198512272
g439
ssg64
g7
sbsg504
g88
sS'_affine'
p511
Nsg65
(dp512
I140468170941328
NsI140468170942160
NsI140468203923216
g0
(g75
g2
Ntp513
Rp514
(dp515
g46
I2
sg79
I2
sg80
g439
sg188
I2
sg189
g0
(g67
g2
Ntp516
Rp517
(dp518
g46
I1
sg48
Nsg71
g44
sg47
Nsg72
(F0.04722222222222222
I0
tp519
sg64
g7
sg65
(dp520
I140468203923216
g514
ssbsg65
(dp521
sg64
g7
sbsI140468170942288
NsI140468194334672
NsI140468170943824
NsI140468194335120
NsI140468170942928
NsI140468170940624
g0
(g75
g2
Ntp522
Rp523
(dp524
g46
I2
sg79
I2
sg80
g439
sg188
I2
sg189
g0
(g67
g2
Ntp525
Rp526
(dp527
g46
I1
sg48
Nsg71
g44
sg47
Nsg72
(F-0.04861111111111111
I0
tp528
sg64
g7
sg65
(dp529
I140468170940624
g523
ssbsg65
(dp530
sg64
g7
sbsI140468170943888
NsI140468170943440
NsI140468203924688
NsI140468170943760
NsI140468192000848
NsI140468192001424
NsI140468203924944
g0
(g75
g2
Ntp531
Rp532
(dp533
g46
I2
sg79
I2
sg80
g439
sg188
I2
sg189
g0
(g67
g2
Ntp534
Rp535
(dp536
g46
I1
sg48
Nsg71
g44
sg47
Nsg72
(F-0.04861111111111111
I0
tp537
sg64
g7
sg65
(dp538
I140468203924944
g532
ssbsg65
(dp539
sg64
g7
sbsI140468203925072
NsI140468170944272
NsI140468203925328
g0
(g75
g2
Ntp540
Rp541
(dp542
g46
I2
sg79
I2
sg80
g439
sg188
I2
sg189
g0
(g67
g2
Ntp543
Rp544
(dp545
g46
I1
sg48
Nsg71
g44
sg47
Nsg72
(F0.04861111111111111
I0
tp546
sg64
g7
sg65
(dp547
I140468203925328
g541
ssbsg65
(dp548
sg64
g7
sbsI140468170942032
g0
(g75
g2
Ntp549
Rp550
(dp551
g46
I2
sg79
I2
sg80
g439
sg188
I2
sg189
g0
(g67
g2
Ntp552
Rp553
(dp554
g46
I1
sg48
Nsg71
g44
sg47
Nsg72
(F0.04861111111111111
I0
tp555
sg64
g7
sg65
(dp556
I140468170942032
g550
ssbsg65
(dp557
sg64
g7
sbsI140468170944464
NsI140468192227536
g0
(g75
g2
Ntp558
Rp559
(dp560
g46
I2
sg79
I2
sg80
g439
sg188
I2
sg189
g0
(g67
g2
Ntp561
Rp562
(dp563
g46
I1
sg48
Nsg71
g44
sg47
Nsg72
(F0.04722222222222222
I0
tp564
sg64
g7
sg65
(dp565
I140468192227536
g559
ssbsg65
(dp566
sg64
g7
sbsI140468203923984
g0
(g75
g2
Ntp567
Rp568
(dp569
g46
I2
sg79
I2
sg80
g439
sg188
I2
sg189
g0
(g67
g2
Ntp570
Rp571
(dp572
g46
I1
sg48
Nsg71
g44
sg47
Nsg72
(F-0.04722222222222222
I0
tp573
sg64
g7
sg65
(dp574
I140468203923984
g568
ssbsg65
(dp575
sg64
g7
sbsI140468203922064
g0
(g75
g2
Ntp576
Rp577
(dp578
g46
I2
sg79
I2
sg80
g439
sg188
I2
sg189
g0
(g67
g2
Ntp579
Rp580
(dp581
g46
I1
sg48
Nsg71
g44
sg47
Nsg72
(F-0.04722222222222222
I0
tp582
sg64
g7
sg65
(dp583
I140468203922064
g577
ssbsg65
(dp584
sg64
g7
sbsI140468170941072
NsI140468205294288
Nssg64
g7
sbsI140468205725392
g0
(g489
g2
Ntp585
Rp586
(dp587
g46
I2
sg48
Nsg85
g0
(g499
g2
Ntp588
Rp589
(dp590
g46
I1
sg47
Nsg64
g7
sg65
(dp591
I140468205725392
g586
ssbsg504
g88
sg47
Nsg64
g7
sg65
(dp592
sbsI140468204081360
g0
(g75
g2
Ntp593
Rp594
(dp595
g46
I2
sg79
I2
sg80
g88
sg188
I2
sg189
g0
(g67
g2
Ntp596
Rp597
(dp598
g46
I1
sg48
Nsg71
g44
sg47
Nsg72
(F0.0
F0.08333333333333333
tp599
sg64
g7
sg65
(dp600
I140468204082512
g0
(g75
g2
Ntp601
Rp602
(dp603
g46
I2
sg79
I2
sg80
g88
sg188
I2
sg189
g597
sg65
(dp604
sg64
g7
sbsI140468204081744
g0
(g75
g2
Ntp605
Rp606
(dp607
g46
I2
sg79
I2
sg80
g88
sg188
I2
sg189
g597
sg65
(dp608
sg64
g7
sbsI140468204081360
g594
ssbsg65
(dp609
sg64
g7
sbsI140468170942416
g0
(g75
g2
Ntp610
Rp611
(dp612
g46
I2
sg79
I2
sg80
g0
(g75
g2
Ntp613
Rp614
(dp615
g46
I1
sg79
I2
sg80
g0
(g86
g2
Ntp616
Rp617
(dp618
g46
I1
sg48
Nsg47
Nsg90
g0
(g96
g2
Ntp619
Rp620
(dp621
g46
I1
sg100
g49
(g50
(I0
tp622
g52
tp623
Rp624
(I1
(I2
tp625
g59
I00
S'\x00\x00\x00\x00\x00\x00\xf0\x7f\x00\x00\x00\x00\x00\x00\xf0\x7f'
p626
tp627
bsg65
(dp628
I140468198162704
g617
ssg108
g49
(g50
(I0
tp629
g52
tp630
Rp631
(I1
(I2
I2
tp632
g59
I00
S'\x00\x00\x00\x00\x00\x00\x00\x00\x00\x00\x00\x00\x00\x00\x00\x00\x00\x00\x00\x00\x00\x00\xf0?\x00\x00\x00\x00\x00\x00\xf0?'
p633
tp634
bsg115
g49
(g50
(I0
tp635
g52
tp636
Rp637
(I1
(I2
I2
tp638
g59
I00
S'\x00\x00\x00\x00\x00\x00\x00\x00\x00\x00\x00\x00\x00\x00\x00\x00\x00\x00\x00\x00\x00\x00\xf0?\x00\x00\x00\x00\x00\x00\xf0?'
p639
tp640
bsg122
I01
sg64
g7
sbsg65
(dp641
I140468170942224
g614
ssg64
g7
sbsg188
I2
sg189
g0
(g42
g2
Ntp642
Rp643
(dp644
g46
I2
sg47
Nsg48
g49
(g50
(I0
tp645
g52
tp646
Rp647
(I1
(I3
I3
tp648
g59
I00
S'\x00\x00\x00\x00\x00\x00\xf0?\x00\x00\x00\x00\x00\x00\x00\x00\x00\x00\x00\x00\x00\x00\x00\x00\x00\x00\x00\x00\x00\x00\x00\x00\x00\x00\x00\x00\x00\x00\xf0?\x00\x00\x00\x00\x00\x00\x00\x00\x00\x00\x00\x00\x00\x00\x00\x00\x00\x00\x00\x00\x00\x00\x00\x00\x00\x00\x00\x00\x00\x00\xf0?'
p649
tp650
bsg64
g7
sg65
(dp651
I140468170942224
g614
ssbsg65
(dp652
I140468170942416
g611
ssg64
g7
sbsg188
I2
sg189
g88
sg65
(dp653
I140468170941456
g0
(g91
g2
Ntp654
Rp655
(dp656
g46
I2
sg95
g0
(g96
g2
Ntp657
Rp658
(dp659
g46
I1
sg100
g49
(g50
(I0
tp660
g52
tp661
Rp662
(I1
(I2
tp663
g59
I00
S'\x00\x00\x00\x00\x00\x00\xf0\x7f\x00\x00\x00\x00\x00\x00\xf0\x7f'
p664
tp665
bsg65
(dp666
I140468170941456
g655
ssg108
g49
(g50
(I0
tp667
g52
tp668
Rp669
(I1
(I2
I2
tp670
g59
I00
S'\x00\x00\x00\x00\x00\x00\x00\x00\x00\x00\x00\x00\x00\x00\x00\x00\x00\x00\x00\x00\x00\x00\xf0?\x00\x00\x00\x00\x00\x00\xf0?'
p671
tp672
bsg115
g49
(g50
(I0
tp673
g52
tp674
Rp675
(I1
(I2
I2
tp676
g59
I00
S'\x00\x00\x00\x00\x00\x00\x00\x00\x00\x00\x00\x00\x00\x00\x00\x00\x00\x00\x00\x00\x00\x00\xf0?\x00\x00\x00\x00\x00\x00\xf0?'
p677
tp678
bsg122
I01
sg64
g7
sbsg123
g611
sg115
Nsg65
(dp679
sg64
g7
sbssg64
g7
sbsI140468205295632
g0
(g489
g2
Ntp680
Rp681
(dp682
g46
I2
sg48
Nsg85
g88
sg504
g0
(g499
g2
Ntp683
Rp684
(dp685
g46
I1
sg47
Nsg64
g7
sg65
(dp686
I140468205295632
g681
ssbsg47
Nsg64
g7
sg65
(dp687
sbsI140468192229520
g0
(g75
g2
Ntp688
Rp689
(dp690
g46
I2
sg79
I2
sg80
g0
(g75
g2
Ntp691
Rp692
(dp693
g46
I1
sg79
I2
sg80
g0
(g86
g2
Ntp694
Rp695
(dp696
g46
I1
sg48
Nsg47
Nsg90
g0
(g96
g2
Ntp697
Rp698
(dp699
g46
I1
sg100
g49
(g50
(I0
tp700
g52
tp701
Rp702
(I1
(I2
tp703
g59
I00
S'\x00\x00\x00\x00\x00\x00\xf0\x7f\x00\x00\x00\x00\x00\x00\xf0\x7f'
p704
tp705
bsg65
(dp706
I140468192227728
g695
ssg108
g49
(g50
(I0
tp707
g52
tp708
Rp709
(I1
(I2
I2
tp710
g59
I00
S'\x00\x00\x00\x00\x00\x00\x00\x00\x00\x00\x00\x00\x00\x00\x00\x00\x00\x00\x00\x00\x00\x00\xf0?\x00\x00\x00\x00\x00\x00\xf0?'
p711
tp712
bsg115
g49
(g50
(I0
tp713
g52
tp714
Rp715
(I1
(I2
I2
tp716
g59
I00
S'\x00\x00\x00\x00\x00\x00\x00\x00\x00\x00\x00\x00\x00\x00\x00\x00\x00\x00\x00\x00\x00\x00\xf0?\x00\x00\x00\x00\x00\x00\xf0?'
p717
tp718
bsg122
I01
sg64
g7
sbsg65
(dp719
I140468192227792
g692
ssg64
g7
sbsg188
I2
sg189
g0
(g42
g2
Ntp720
Rp721
(dp722
g46
I2
sg47
Nsg48
g49
(g50
(I0
tp723
g52
tp724
Rp725
(I1
(I3
I3
tp726
g59
I00
S'\x00\x00\x00\x00\x00\x00\xf0?\x00\x00\x00\x00\x00\x00\x00\x00\x00\x00\x00\x00\x00\x00\x00\x00\x00\x00\x00\x00\x00\x00\x00\x00\x00\x00\x00\x00\x00\x00\xf0?\x00\x00\x00\x00\x00\x00\x00\x00\x00\x00\x00\x00\x00\x00\x00\x00\x00\x00\x00\x00\x00\x00\x00\x00\x00\x00\x00\x00\x00\x00\xf0?'
p727
tp728
bsg64
g7
sg65
(dp729
I140468192227792
g692
ssbsg65
(dp730
I140468192229520
g689
ssg64
g7
sbsg188
I2
sg189
g88
sg65
(dp731
I140468192231184
g0
(g91
g2
Ntp732
Rp733
(dp734
g46
I2
sg95
g0
(g96
g2
Ntp735
Rp736
(dp737
g46
I1
sg100
g49
(g50
(I0
tp738
g52
tp739
Rp740
(I1
(I2
tp741
g59
I00
S'\x00\x00\x00\x00\x00\x00\xf0\x7f\x00\x00\x00\x00\x00\x00\xf0\x7f'
p742
tp743
bsg65
(dp744
I140468192231184
g733
ssg108
g49
(g50
(I0
tp745
g52
tp746
Rp747
(I1
(I2
I2
tp748
g59
I00
S'\x00\x00\x00\x00\x00\x00\x00\x00\x00\x00\x00\x00\x00\x00\x00\x00\x00\x00\x00\x00\x00\x00\xf0?\x00\x00\x00\x00\x00\x00\xf0?'
p749
tp750
bsg115
g49
(g50
(I0
tp751
g52
tp752
Rp753
(I1
(I2
I2
tp754
g59
I00
S'\x00\x00\x00\x00\x00\x00\x00\x00\x00\x00\x00\x00\x00\x00\x00\x00\x00\x00\x00\x00\x00\x00\xf0?\x00\x00\x00\x00\x00\x00\xf0?'
p755
tp756
bsg122
I01
sg64
g7
sbsg123
g689
sg115
Nsg65
(dp757
sg64
g7
sbssg64
g7
sbsI140468196661520
g0
(g75
g2
Ntp758
Rp759
(dp760
g46
I2
sg79
I2
sg80
g0
(g75
g2
Ntp761
Rp762
(dp763
g46
I1
sg79
I2
sg80
g0
(g86
g2
Ntp764
Rp765
(dp766
g46
I1
sg48
Nsg47
Nsg90
g0
(g96
g2
Ntp767
Rp768
(dp769
g46
I1
sg100
g49
(g50
(I0
tp770
g52
tp771
Rp772
(I1
(I2
tp773
g59
I00
S'\x00\x00\x00\x00\x00\x00\xf0\x7f\x00\x00\x00\x00\x00\x00\xf0\x7f'
p774
tp775
bsg65
(dp776
I140468196662800
g765
ssg108
g49
(g50
(I0
tp777
g52
tp778
Rp779
(I1
(I2
I2
tp780
g59
I00
S'\x00\x00\x00\x00\x00\x00\x00\x00\x00\x00\x00\x00\x00\x00\x00\x00\x00\x00\x00\x00\x00\x00\xf0?\x00\x00\x00\x00\x00\x00\xf0?'
p781
tp782
bsg115
g49
(g50
(I0
tp783
g52
tp784
Rp785
(I1
(I2
I2
tp786
g59
I00
S'\x00\x00\x00\x00\x00\x00\x00\x00\x00\x00\x00\x00\x00\x00\x00\x00\x00\x00\x00\x00\x00\x00\xf0?\x00\x00\x00\x00\x00\x00\xf0?'
p787
tp788
bsg122
I01
sg64
g7
sbsg65
(dp789
I140468196660688
g762
ssg64
g7
sbsg188
I2
sg189
g0
(g42
g2
Ntp790
Rp791
(dp792
g46
I2
sg47
Nsg48
g49
(g50
(I0
tp793
g52
tp794
Rp795
(I1
(I3
I3
tp796
g59
I00
S'\x00\x00\x00\x00\x00\x00\xf0?\x00\x00\x00\x00\x00\x00\x00\x00\x00\x00\x00\x00\x00\x00\x00\x00\x00\x00\x00\x00\x00\x00\x00\x00\x00\x00\x00\x00\x00\x00\xf0?\x00\x00\x00\x00\x00\x00\x00\x00\x00\x00\x00\x00\x00\x00\x00\x00\x00\x00\x00\x00\x00\x00\x00\x00\x00\x00\x00\x00\x00\x00\xf0?'
p797
tp798
bsg64
g7
sg65
(dp799
I140468196660688
g762
ssbsg65
(dp800
I140468196661520
g759
ssg64
g7
sbsg188
I2
sg189
g88
sg65
(dp801
I140468196660368
g0
(g91
g2
Ntp802
Rp803
(dp804
g46
I2
sg95
g0
(g96
g2
Ntp805
Rp806
(dp807
g46
I1
sg100
g49
(g50
(I0
tp808
g52
tp809
Rp810
(I1
(I2
tp811
g59
I00
S'\x00\x00\x00\x00\x00\x00\xf0\x7f\x00\x00\x00\x00\x00\x00\xf0\x7f'
p812
tp813
bsg65
(dp814
I140468196660368
g803
ssg108
g49
(g50
(I0
tp815
g52
tp816
Rp817
(I1
(I2
I2
tp818
g59
I00
S'\x00\x00\x00\x00\x00\x00\x00\x00\x00\x00\x00\x00\x00\x00\x00\x00\x00\x00\x00\x00\x00\x00\xf0?\x00\x00\x00\x00\x00\x00\xf0?'
p819
tp820
bsg115
g49
(g50
(I0
tp821
g52
tp822
Rp823
(I1
(I2
I2
tp824
g59
I00
S'\x00\x00\x00\x00\x00\x00\x00\x00\x00\x00\x00\x00\x00\x00\x00\x00\x00\x00\x00\x00\x00\x00\xf0?\x00\x00\x00\x00\x00\x00\xf0?'
p825
tp826
bsg122
I01
sg64
g7
sbsg123
g759
sg115
Nsg65
(dp827
sg64
g7
sbssg64
g7
sbsI140468205296272
g0
(g489
g2
Ntp828
Rp829
(dp830
g46
I2
sg48
Nsg85
g0
(g499
g2
Ntp831
Rp832
(dp833
g46
I1
sg47
Nsg64
g7
sg65
(dp834
I140468205296272
g829
ssbsg504
g88
sg47
Nsg64
g7
sg65
(dp835
sbsI140468202470160
g484
sI140468196660112
g0
(g75
g2
Ntp836
Rp837
(dp838
g46
I2
sg79
I2
sg80
g0
(g75
g2
Ntp839
Rp840
(dp841
g46
I1
sg79
I2
sg80
g0
(g86
g2
Ntp842
Rp843
(dp844
g46
I1
sg48
Nsg47
Nsg90
g0
(g96
g2
Ntp845
Rp846
(dp847
g46
I1
sg100
g49
(g50
(I0
tp848
g52
tp849
Rp850
(I1
(I2
tp851
g59
I00
S'\x00\x00\x00\x00\x00\x00\xf0\x7f\x00\x00\x00\x00\x00\x00\xf0\x7f'
p852
tp853
bsg65
(dp854
I140468196663056
g843
ssg108
g49
(g50
(I0
tp855
g52
tp856
Rp857
(I1
(I2
I2
tp858
g59
I00
S'\x00\x00\x00\x00\x00\x00\x00\x00\x00\x00\x00\x00\x00\x00\x00\x00\x00\x00\x00\x00\x00\x00\xf0?\x00\x00\x00\x00\x00\x00\xf0?'
p859
tp860
bsg115
g49
(g50
(I0
tp861
g52
tp862
Rp863
(I1
(I2
I2
tp864
g59
I00
S'\x00\x00\x00\x00\x00\x00\x00\x00\x00\x00\x00\x00\x00\x00\x00\x00\x00\x00\x00\x00\x00\x00\xf0?\x00\x00\x00\x00\x00\x00\xf0?'
p865
tp866
bsg122
I01
sg64
g7
sbsg65
(dp867
I140468196660816
g840
ssg64
g7
sbsg188
I2
sg189
g0
(g42
g2
Ntp868
Rp869
(dp870
g46
I2
sg47
Nsg48
g49
(g50
(I0
tp871
g52
tp872
Rp873
(I1
(I3
I3
tp874
g59
I00
S'\x00\x00\x00\x00\x00\x00\xf0?\x00\x00\x00\x00\x00\x00\x00\x00\x00\x00\x00\x00\x00\x00\x00\x00\x00\x00\x00\x00\x00\x00\x00\x00\x00\x00\x00\x00\x00\x00\xf0?\x00\x00\x00\x00\x00\x00\x00\x00\x00\x00\x00\x00\x00\x00\x00\x00\x00\x00\x00\x00\x00\x00\x00\x00\x00\x00\x00\x00\x00\x00\xf0?'
p875
tp876
bsg64
g7
sg65
(dp877
I140468196660816
g840
ssbsg65
(dp878
I140468196660112
g837
ssg64
g7
sbsg188
I2
sg189
g88
sg65
(dp879
I140468196663120
g0
(g91
g2
Ntp880
Rp881
(dp882
g46
I2
sg95
g0
(g96
g2
Ntp883
Rp884
(dp885
g46
I1
sg100
g49
(g50
(I0
tp886
g52
tp887
Rp888
(I1
(I2
tp889
g59
I00
S'\x00\x00\x00\x00\x00\x00\xf0\x7f\x00\x00\x00\x00\x00\x00\xf0\x7f'
p890
tp891
bsg65
(dp892
I140468196663120
g881
ssg108
g49
(g50
(I0
tp893
g52
tp894
Rp895
(I1
(I2
I2
tp896
g59
I00
S'\x00\x00\x00\x00\x00\x00\x00\x00\x00\x00\x00\x00\x00\x00\x00\x00\x00\x00\x00\x00\x00\x00\xf0?\x00\x00\x00\x00\x00\x00\xf0?'
p897
tp898
bsg115
g49
(g50
(I0
tp899
g52
tp900
Rp901
(I1
(I2
I2
tp902
g59
I00
S'\x00\x00\x00\x00\x00\x00\x00\x00\x00\x00\x00\x00\x00\x00\x00\x00\x00\x00\x00\x00\x00\x00\xf0?\x00\x00\x00\x00\x00\x00\xf0?'
p903
tp904
bsg122
I01
sg64
g7
sbsg123
g837
sg115
Nsg65
(dp905
sg64
g7
sbssg64
g7
sbsI140468205293776
g0
(g75
g2
Ntp906
Rp907
(dp908
g46
I2
sg79
I2
sg80
g0
(g75
g2
Ntp909
Rp910
(dp911
g46
I1
sg79
I2
sg80
g0
(g86
g2
Ntp912
Rp913
(dp914
g46
I1
sg48
Nsg47
Nsg90
g0
(g96
g2
Ntp915
Rp916
(dp917
g46
I1
sg100
g49
(g50
(I0
tp918
g52
tp919
Rp920
(I1
(I2
tp921
g59
I00
S'\x00\x00\x00\x00\x00\x00\xf0\x7f\x00\x00\x00\x00\x00\x00\xf0\x7f'
p922
tp923
bsg65
(dp924
I140468205294032
g913
ssg108
g49
(g50
(I0
tp925
g52
tp926
Rp927
(I1
(I2
I2
tp928
g59
I00
S'\x00\x00\x00\x00\x00\x00\x00\x00\x00\x00\x00\x00\x00\x00\x00\x00\x00\x00\x00\x00\x00\x00\xf0?\x00\x00\x00\x00\x00\x00\xf0?'
p929
tp930
bsg115
g49
(g50
(I0
tp931
g52
tp932
Rp933
(I1
(I2
I2
tp934
g59
I00
S'\x00\x00\x00\x00\x00\x00\x00\x00\x00\x00\x00\x00\x00\x00\x00\x00\x00\x00\x00\x00\x00\x00\xf0?\x00\x00\x00\x00\x00\x00\xf0?'
p935
tp936
bsg122
I01
sg64
g7
sbsg65
(dp937
I140468205295504
g910
ssg64
g7
sbsg188
I2
sg189
g0
(g42
g2
Ntp938
Rp939
(dp940
g46
I2
sg47
Nsg48
g49
(g50
(I0
tp941
g52
tp942
Rp943
(I1
(I3
I3
tp944
g59
I00
S'\x00\x00\x00\x00\x00\x00\xf0?\x00\x00\x00\x00\x00\x00\x00\x00\x00\x00\x00\x00\x00\x00\x00\x00\x00\x00\x00\x00\x00\x00\x00\x00\x00\x00\x00\x00\x00\x00\xf0?\x00\x00\x00\x00\x00\x00\x00\x00\x00\x00\x00\x00\x00\x00\x00\x00\x00\x00\x00\x00\x00\x00\x00\x00\x00\x00\x00\x00\x00\x00\xf0?'
p945
tp946
bsg64
g7
sg65
(dp947
I140468205295504
g910
ssbsg65
(dp948
I140468205293776
g907
ssg64
g7
sbsg188
I2
sg189
g88
sg65
(dp949
I140468205294992
g0
(g91
g2
Ntp950
Rp951
(dp952
g46
I2
sg95
g0
(g96
g2
Ntp953
Rp954
(dp955
g46
I1
sg100
g49
(g50
(I0
tp956
g52
tp957
Rp958
(I1
(I2
tp959
g59
I00
S'\x00\x00\x00\x00\x00\x00\xf0\x7f\x00\x00\x00\x00\x00\x00\xf0\x7f'
p960
tp961
bsg65
(dp962
I140468205294992
g951
ssg108
g49
(g50
(I0
tp963
g52
tp964
Rp965
(I1
(I2
I2
tp966
g59
I00
S'\x00\x00\x00\x00\x00\x00\x00\x00\x00\x00\x00\x00\x00\x00\x00\x00\x00\x00\x00\x00\x00\x00\xf0?\x00\x00\x00\x00\x00\x00\xf0?'
p967
tp968
bsg115
g49
(g50
(I0
tp969
g52
tp970
Rp971
(I1
(I2
I2
tp972
g59
I00
S'\x00\x00\x00\x00\x00\x00\x00\x00\x00\x00\x00\x00\x00\x00\x00\x00\x00\x00\x00\x00\x00\x00\xf0?\x00\x00\x00\x00\x00\x00\xf0?'
p973
tp974
bsg122
I01
sg64
g7
sbsg123
g907
sg115
Nsg65
(dp975
sg64
g7
sbssg64
g7
sbsI140468196662480
g0
(g75
g2
Ntp976
Rp977
(dp978
g46
I2
sg79
I2
sg80
g0
(g75
g2
Ntp979
Rp980
(dp981
g46
I1
sg79
I2
sg80
g0
(g86
g2
Ntp982
Rp983
(dp984
g46
I1
sg48
Nsg47
Nsg90
g0
(g96
g2
Ntp985
Rp986
(dp987
g46
I1
sg100
g49
(g50
(I0
tp988
g52
tp989
Rp990
(I1
(I2
tp991
g59
I00
S'\x00\x00\x00\x00\x00\x00\xf0\x7f\x00\x00\x00\x00\x00\x00\xf0\x7f'
p992
tp993
bsg65
(dp994
I140468196661840
g983
ssg108
g49
(g50
(I0
tp995
g52
tp996
Rp997
(I1
(I2
I2
tp998
g59
I00
S'\x00\x00\x00\x00\x00\x00\x00\x00\x00\x00\x00\x00\x00\x00\x00\x00\x00\x00\x00\x00\x00\x00\xf0?\x00\x00\x00\x00\x00\x00\xf0?'
p999
tp1000
bsg115
g49
(g50
(I0
tp1001
g52
tp1002
Rp1003
(I1
(I2
I2
tp1004
g59
I00
S'\x00\x00\x00\x00\x00\x00\x00\x00\x00\x00\x00\x00\x00\x00\x00\x00\x00\x00\x00\x00\x00\x00\xf0?\x00\x00\x00\x00\x00\x00\xf0?'
p1005
tp1006
bsg122
I01
sg64
g7
sbsg65
(dp1007
I140468196661264
g980
ssg64
g7
sbsg188
I2
sg189
g0
(g42
g2
Ntp1008
Rp1009
(dp1010
g46
I2
sg47
Nsg48
g49
(g50
(I0
tp1011
g52
tp1012
Rp1013
(I1
(I3
I3
tp1014
g59
I00
S'\x00\x00\x00\x00\x00\x00\xf0?\x00\x00\x00\x00\x00\x00\x00\x00\x00\x00\x00\x00\x00\x00\x00\x00\x00\x00\x00\x00\x00\x00\x00\x00\x00\x00\x00\x00\x00\x00\xf0?\x00\x00\x00\x00\x00\x00\x00\x00\x00\x00\x00\x00\x00\x00\x00\x00\x00\x00\x00\x00\x00\x00\x00\x00\x00\x00\x00\x00\x00\x00\xf0?'
p1015
tp1016
bsg64
g7
sg65
(dp1017
I140468196661264
g980
ssbsg65
(dp1018
I140468196662480
g977
ssg64
g7
sbsg188
I2
sg189
g88
sg65
(dp1019
I140468196662352
g0
(g91
g2
Ntp1020
Rp1021
(dp1022
g46
I2
sg95
g0
(g96
g2
Ntp1023
Rp1024
(dp1025
g46
I1
sg100
g49
(g50
(I0
tp1026
g52
tp1027
Rp1028
(I1
(I2
tp1029
g59
I00
S'\x00\x00\x00\x00\x00\x00\xf0\x7f\x00\x00\x00\x00\x00\x00\xf0\x7f'
p1030
tp1031
bsg65
(dp1032
I140468196662352
g1021
ssg108
g49
(g50
(I0
tp1033
g52
tp1034
Rp1035
(I1
(I2
I2
tp1036
g59
I00
S'\x00\x00\x00\x00\x00\x00\x00\x00\x00\x00\x00\x00\x00\x00\x00\x00\x00\x00\x00\x00\x00\x00\xf0?\x00\x00\x00\x00\x00\x00\xf0?'
p1037
tp1038
bsg115
g49
(g50
(I0
tp1039
g52
tp1040
Rp1041
(I1
(I2
I2
tp1042
g59
I00
S'\x00\x00\x00\x00\x00\x00\x00\x00\x00\x00\x00\x00\x00\x00\x00\x00\x00\x00\x00\x00\x00\x00\xf0?\x00\x00\x00\x00\x00\x00\xf0?'
p1043
tp1044
bsg122
I01
sg64
g7
sbsg123
g977
sg115
Nsg65
(dp1045
sg64
g7
sbssg64
g7
sbsI140468195253072
g0
(g75
g2
Ntp1046
Rp1047
(dp1048
g46
I2
sg79
I2
sg80
g0
(g75
g2
Ntp1049
Rp1050
(dp1051
g46
I1
sg79
I2
sg80
g0
(g86
g2
Ntp1052
Rp1053
(dp1054
g46
I1
sg48
Nsg47
Nsg90
g0
(g96
g2
Ntp1055
Rp1056
(dp1057
g46
I1
sg100
g49
(g50
(I0
tp1058
g52
tp1059
Rp1060
(I1
(I2
tp1061
g59
I00
S'\x00\x00\x00\x00\x00\x00\xf0\x7f\x00\x00\x00\x00\x00\x00\xf0\x7f'
p1062
tp1063
bsg65
(dp1064
I140468203924432
g1053
ssg108
g49
(g50
(I0
tp1065
g52
tp1066
Rp1067
(I1
(I2
I2
tp1068
g59
I00
S'\x00\x00\x00\x00\x00\x00\x00\x00\x00\x00\x00\x00\x00\x00\x00\x00\x00\x00\x00\x00\x00\x00\xf0?\x00\x00\x00\x00\x00\x00\xf0?'
p1069
tp1070
bsg115
g49
(g50
(I0
tp1071
g52
tp1072
Rp1073
(I1
(I2
I2
tp1074
g59
I00
S'\x00\x00\x00\x00\x00\x00\x00\x00\x00\x00\x00\x00\x00\x00\x00\x00\x00\x00\x00\x00\x00\x00\xf0?\x00\x00\x00\x00\x00\x00\xf0?'
p1075
tp1076
bsg122
I01
sg64
g7
sbsg65
(dp1077
I140468203923536
g1050
ssg64
g7
sbsg188
I2
sg189
g0
(g42
g2
Ntp1078
Rp1079
(dp1080
g46
I2
sg47
Nsg48
g49
(g50
(I0
tp1081
g52
tp1082
Rp1083
(I1
(I3
I3
tp1084
g59
I00
S'\x00\x00\x00\x00\x00\x00\xf0?\x00\x00\x00\x00\x00\x00\x00\x00\x00\x00\x00\x00\x00\x00\x00\x00\x00\x00\x00\x00\x00\x00\x00\x00\x00\x00\x00\x00\x00\x00\xf0?\x00\x00\x00\x00\x00\x00\x00\x00\x00\x00\x00\x00\x00\x00\x00\x00\x00\x00\x00\x00\x00\x00\x00\x00\x00\x00\x00\x00\x00\x00\xf0?'
p1085
tp1086
bsg64
g7
sg65
(dp1087
I140468203923536
g1050
ssbsg65
(dp1088
I140468195253072
g1047
ssg64
g7
sbsg188
I2
sg189
g88
sg65
(dp1089
I140468195254032
g0
(g91
g2
Ntp1090
Rp1091
(dp1092
g46
I2
sg95
g0
(g96
g2
Ntp1093
Rp1094
(dp1095
g46
I1
sg100
g49
(g50
(I0
tp1096
g52
tp1097
Rp1098
(I1
(I2
tp1099
g59
I00
S'\x00\x00\x00\x00\x00\x00\xf0\x7f\x00\x00\x00\x00\x00\x00\xf0\x7f'
p1100
tp1101
bsg65
(dp1102
I140468195254032
g1091
ssg108
g49
(g50
(I0
tp1103
g52
tp1104
Rp1105
(I1
(I2
I2
tp1106
g59
I00
S'\x00\x00\x00\x00\x00\x00\x00\x00\x00\x00\x00\x00\x00\x00\x00\x00\x00\x00\x00\x00\x00\x00\xf0?\x00\x00\x00\x00\x00\x00\xf0?'
p1107
tp1108
bsg115
g49
(g50
(I0
tp1109
g52
tp1110
Rp1111
(I1
(I2
I2
tp1112
g59
I00
S'\x00\x00\x00\x00\x00\x00\x00\x00\x00\x00\x00\x00\x00\x00\x00\x00\x00\x00\x00\x00\x00\x00\xf0?\x00\x00\x00\x00\x00\x00\xf0?'
p1113
tp1114
bsg122
I01
sg64
g7
sbsg123
g1047
sg115
Nsg65
(dp1115
sg64
g7
sbssg64
g7
sbsI140468194336144
g0
(g75
g2
Ntp1116
Rp1117
(dp1118
g46
I2
sg79
I2
sg80
g0
(g75
g2
Ntp1119
Rp1120
(dp1121
g46
I1
sg79
I2
sg80
g0
(g86
g2
Ntp1122
Rp1123
(dp1124
g46
I1
sg48
Nsg47
Nsg90
g0
(g96
g2
Ntp1125
Rp1126
(dp1127
g46
I1
sg100
g49
(g50
(I0
tp1128
g52
tp1129
Rp1130
(I1
(I2
tp1131
g59
I00
S'\x00\x00\x00\x00\x00\x00\xf0\x7f\x00\x00\x00\x00\x00\x00\xf0\x7f'
p1132
tp1133
bsg65
(dp1134
I140468194335632
g1123
ssg108
g49
(g50
(I0
tp1135
g52
tp1136
Rp1137
(I1
(I2
I2
tp1138
g59
I00
S'\x00\x00\x00\x00\x00\x00\x00\x00\x00\x00\x00\x00\x00\x00\x00\x00\x00\x00\x00\x00\x00\x00\xf0?\x00\x00\x00\x00\x00\x00\xf0?'
p1139
tp1140
bsg115
g49
(g50
(I0
tp1141
g52
tp1142
Rp1143
(I1
(I2
I2
tp1144
g59
I00
S'\x00\x00\x00\x00\x00\x00\x00\x00\x00\x00\x00\x00\x00\x00\x00\x00\x00\x00\x00\x00\x00\x00\xf0?\x00\x00\x00\x00\x00\x00\xf0?'
p1145
tp1146
bsg122
I01
sg64
g7
sbsg65
(dp1147
I140468194336272
g1120
ssg64
g7
sbsg188
I2
sg189
g0
(g42
g2
Ntp1148
Rp1149
(dp1150
g46
I2
sg47
Nsg48
g49
(g50
(I0
tp1151
g52
tp1152
Rp1153
(I1
(I3
I3
tp1154
g59
I00
S'\x00\x00\x00\x00\x00\x00\xf0?\x00\x00\x00\x00\x00\x00\x00\x00\x00\x00\x00\x00\x00\x00\x00\x00\x00\x00\x00\x00\x00\x00\x00\x00\x00\x00\x00\x00\x00\x00\xf0?\x00\x00\x00\x00\x00\x00\x00\x00\x00\x00\x00\x00\x00\x00\x00\x00\x00\x00\x00\x00\x00\x00\x00\x00\x00\x00\x00\x00\x00\x00\xf0?'
p1155
tp1156
bsg64
g7
sg65
(dp1157
I140468194336272
g1120
ssbsg65
(dp1158
I140468194336144
g1117
ssg64
g7
sbsg188
I2
sg189
g88
sg65
(dp1159
I140468205295056
g0
(g91
g2
Ntp1160
Rp1161
(dp1162
g46
I2
sg95
g0
(g96
g2
Ntp1163
Rp1164
(dp1165
g46
I1
sg100
g49
(g50
(I0
tp1166
g52
tp1167
Rp1168
(I1
(I2
tp1169
g59
I00
S'\x00\x00\x00\x00\x00\x00\xf0\x7f\x00\x00\x00\x00\x00\x00\xf0\x7f'
p1170
tp1171
bsg65
(dp1172
I140468205295056
g1161
ssg108
g49
(g50
(I0
tp1173
g52
tp1174
Rp1175
(I1
(I2
I2
tp1176
g59
I00
S'\x00\x00\x00\x00\x00\x00\x00\x00\x00\x00\x00\x00\x00\x00\x00\x00\x00\x00\x00\x00\x00\x00\xf0?\x00\x00\x00\x00\x00\x00\xf0?'
p1177
tp1178
bsg115
g49
(g50
(I0
tp1179
g52
tp1180
Rp1181
(I1
(I2
I2
tp1182
g59
I00
S'\x00\x00\x00\x00\x00\x00\x00\x00\x00\x00\x00\x00\x00\x00\x00\x00\x00\x00\x00\x00\x00\x00\xf0?\x00\x00\x00\x00\x00\x00\xf0?'
p1183
tp1184
bsg122
I01
sg64
g7
sbsg123
g1117
sg115
Nsg65
(dp1185
sg64
g7
sbssg64
g7
sbsI140468205727184
g0
(g489
g2
Ntp1186
Rp1187
(dp1188
g46
I2
sg48
Nsg85
g0
(g499
g2
Ntp1189
Rp1190
(dp1191
g46
I1
sg47
Nsg64
g7
sg65
(dp1192
I140468205727184
g1187
ssbsg504
g88
sg47
Nsg64
g7
sg65
(dp1193
sbsI140468204082512
g602
sI140468192229072
g0
(g75
g2
Ntp1194
Rp1195
(dp1196
g46
I2
sg79
I2
sg80
g0
(g75
g2
Ntp1197
Rp1198
(dp1199
g46
I1
sg79
I2
sg80
g0
(g86
g2
Ntp1200
Rp1201
(dp1202
g46
I1
sg48
Nsg47
Nsg90
g0
(g96
g2
Ntp1203
Rp1204
(dp1205
g46
I1
sg100
g49
(g50
(I0
tp1206
g52
tp1207
Rp1208
(I1
(I2
tp1209
g59
I00
S'\x00\x00\x00\x00\x00\x00\xf0\x7f\x00\x00\x00\x00\x00\x00\xf0\x7f'
p1210
tp1211
bsg65
(dp1212
I140468192230544
g1201
ssg108
g49
(g50
(I0
tp1213
g52
tp1214
Rp1215
(I1
(I2
I2
tp1216
g59
I00
S'\x00\x00\x00\x00\x00\x00\x00\x00\x00\x00\x00\x00\x00\x00\x00\x00\x00\x00\x00\x00\x00\x00\xf0?\x00\x00\x00\x00\x00\x00\xf0?'
p1217
tp1218
bsg115
g49
(g50
(I0
tp1219
g52
tp1220
Rp1221
(I1
(I2
I2
tp1222
g59
I00
S'\x00\x00\x00\x00\x00\x00\x00\x00\x00\x00\x00\x00\x00\x00\x00\x00\x00\x00\x00\x00\x00\x00\xf0?\x00\x00\x00\x00\x00\x00\xf0?'
p1223
tp1224
bsg122
I01
sg64
g7
sbsg65
(dp1225
I140468192228048
g1198
ssg64
g7
sbsg188
I2
sg189
g0
(g42
g2
Ntp1226
Rp1227
(dp1228
g46
I2
sg47
Nsg48
g49
(g50
(I0
tp1229
g52
tp1230
Rp1231
(I1
(I3
I3
tp1232
g59
I00
S'\x00\x00\x00\x00\x00\x00\xf0?\x00\x00\x00\x00\x00\x00\x00\x00\x00\x00\x00\x00\x00\x00\x00\x00\x00\x00\x00\x00\x00\x00\x00\x00\x00\x00\x00\x00\x00\x00\xf0?\x00\x00\x00\x00\x00\x00\x00\x00\x00\x00\x00\x00\x00\x00\x00\x00\x00\x00\x00\x00\x00\x00\x00\x00\x00\x00\x00\x00\x00\x00\xf0?'
p1233
tp1234
bsg64
g7
sg65
(dp1235
I140468192228048
g1198
ssbsg65
(dp1236
I140468192229072
g1195
ssg64
g7
sbsg188
I2
sg189
g88
sg65
(dp1237
I140468203922768
g0
(g91
g2
Ntp1238
Rp1239
(dp1240
g46
I2
sg95
g0
(g96
g2
Ntp1241
Rp1242
(dp1243
g46
I1
sg100
g49
(g50
(I0
tp1244
g52
tp1245
Rp1246
(I1
(I2
tp1247
g59
I00
S'\x00\x00\x00\x00\x00\x00\xf0\x7f\x00\x00\x00\x00\x00\x00\xf0\x7f'
p1248
tp1249
bsg65
(dp1250
I140468203922768
g1239
ssg108
g49
(g50
(I0
tp1251
g52
tp1252
Rp1253
(I1
(I2
I2
tp1254
g59
I00
S'\x00\x00\x00\x00\x00\x00\x00\x00\x00\x00\x00\x00\x00\x00\x00\x00\x00\x00\x00\x00\x00\x00\xf0?\x00\x00\x00\x00\x00\x00\xf0?'
p1255
tp1256
bsg115
g49
(g50
(I0
tp1257
g52
tp1258
Rp1259
(I1
(I2
I2
tp1260
g59
I00
S'\x00\x00\x00\x00\x00\x00\x00\x00\x00\x00\x00\x00\x00\x00\x00\x00\x00\x00\x00\x00\x00\x00\xf0?\x00\x00\x00\x00\x00\x00\xf0?'
p1261
tp1262
bsg122
I01
sg64
g7
sbsg123
g1195
sg115
Nsg65
(dp1263
sg64
g7
sbssg64
g7
sbsI140468191998160
g0
(g75
g2
Ntp1264
Rp1265
(dp1266
g46
I2
sg79
I2
sg80
g0
(g75
g2
Ntp1267
Rp1268
(dp1269
g46
I1
sg79
I2
sg80
g0
(g86
g2
Ntp1270
Rp1271
(dp1272
g46
I1
sg48
Nsg47
Nsg90
g0
(g96
g2
Ntp1273
Rp1274
(dp1275
g46
I1
sg100
g49
(g50
(I0
tp1276
g52
tp1277
Rp1278
(I1
(I2
tp1279
g59
I00
S'\x00\x00\x00\x00\x00\x00\xf0\x7f\x00\x00\x00\x00\x00\x00\xf0\x7f'
p1280
tp1281
bsg65
(dp1282
I140468192001168
g1271
ssg108
g49
(g50
(I0
tp1283
g52
tp1284
Rp1285
(I1
(I2
I2
tp1286
g59
I00
S'\x00\x00\x00\x00\x00\x00\x00\x00\x00\x00\x00\x00\x00\x00\x00\x00\x00\x00\x00\x00\x00\x00\xf0?\x00\x00\x00\x00\x00\x00\xf0?'
p1287
tp1288
bsg115
g49
(g50
(I0
tp1289
g52
tp1290
Rp1291
(I1
(I2
I2
tp1292
g59
I00
S'\x00\x00\x00\x00\x00\x00\x00\x00\x00\x00\x00\x00\x00\x00\x00\x00\x00\x00\x00\x00\x00\x00\xf0?\x00\x00\x00\x00\x00\x00\xf0?'
p1293
tp1294
bsg122
I01
sg64
g7
sbsg65
(dp1295
I140468191998416
g1268
ssg64
g7
sbsg188
I2
sg189
g0
(g42
g2
Ntp1296
Rp1297
(dp1298
g46
I2
sg47
Nsg48
g49
(g50
(I0
tp1299
g52
tp1300
Rp1301
(I1
(I3
I3
tp1302
g59
I00
S'\x00\x00\x00\x00\x00\x00\xf0?\x00\x00\x00\x00\x00\x00\x00\x00\x00\x00\x00\x00\x00\x00\x00\x00\x00\x00\x00\x00\x00\x00\x00\x00\x00\x00\x00\x00\x00\x00\xf0?\x00\x00\x00\x00\x00\x00\x00\x00\x00\x00\x00\x00\x00\x00\x00\x00\x00\x00\x00\x00\x00\x00\x00\x00\x00\x00\x00\x00\x00\x00\xf0?'
p1303
tp1304
bsg64
g7
sg65
(dp1305
I140468191998416
g1268
ssbsg65
(dp1306
I140468191998160
g1265
ssg64
g7
sbsg188
I2
sg189
g88
sg65
(dp1307
I140468194336464
g0
(g91
g2
Ntp1308
Rp1309
(dp1310
g46
I2
sg95
g0
(g96
g2
Ntp1311
Rp1312
(dp1313
g46
I1
sg100
g49
(g50
(I0
tp1314
g52
tp1315
Rp1316
(I1
(I2
tp1317
g59
I00
S'\x00\x00\x00\x00\x00\x00\xf0\x7f\x00\x00\x00\x00\x00\x00\xf0\x7f'
p1318
tp1319
bsg65
(dp1320
I140468194336464
g1309
ssg108
g49
(g50
(I0
tp1321
g52
tp1322
Rp1323
(I1
(I2
I2
tp1324
g59
I00
S'\x00\x00\x00\x00\x00\x00\x00\x00\x00\x00\x00\x00\x00\x00\x00\x00\x00\x00\x00\x00\x00\x00\xf0?\x00\x00\x00\x00\x00\x00\xf0?'
p1325
tp1326
bsg115
g49
(g50
(I0
tp1327
g52
tp1328
Rp1329
(I1
(I2
I2
tp1330
g59
I00
S'\x00\x00\x00\x00\x00\x00\x00\x00\x00\x00\x00\x00\x00\x00\x00\x00\x00\x00\x00\x00\x00\x00\xf0?\x00\x00\x00\x00\x00\x00\xf0?'
p1331
tp1332
bsg122
I01
sg64
g7
sbsg123
g1265
sg115
Nsg65
(dp1333
sg64
g7
sbssg64
g7
sbsI140468196663184
g0
(g75
g2
Ntp1334
Rp1335
(dp1336
g46
I2
sg79
I2
sg80
g0
(g75
g2
Ntp1337
Rp1338
(dp1339
g46
I1
sg79
I2
sg80
g0
(g86
g2
Ntp1340
Rp1341
(dp1342
g46
I1
sg48
Nsg47
Nsg90
g0
(g96
g2
Ntp1343
Rp1344
(dp1345
g46
I1
sg100
g49
(g50
(I0
tp1346
g52
tp1347
Rp1348
(I1
(I2
tp1349
g59
I00
S'\x00\x00\x00\x00\x00\x00\xf0\x7f\x00\x00\x00\x00\x00\x00\xf0\x7f'
p1350
tp1351
bsg65
(dp1352
I140468196661776
g1341
ssg108
g49
(g50
(I0
tp1353
g52
tp1354
Rp1355
(I1
(I2
I2
tp1356
g59
I00
S'\x00\x00\x00\x00\x00\x00\x00\x00\x00\x00\x00\x00\x00\x00\x00\x00\x00\x00\x00\x00\x00\x00\xf0?\x00\x00\x00\x00\x00\x00\xf0?'
p1357
tp1358
bsg115
g49
(g50
(I0
tp1359
g52
tp1360
Rp1361
(I1
(I2
I2
tp1362
g59
I00
S'\x00\x00\x00\x00\x00\x00\x00\x00\x00\x00\x00\x00\x00\x00\x00\x00\x00\x00\x00\x00\x00\x00\xf0?\x00\x00\x00\x00\x00\x00\xf0?'
p1363
tp1364
bsg122
I01
sg64
g7
sbsg65
(dp1365
I140468196662608
g1338
ssg64
g7
sbsg188
I2
sg189
g0
(g42
g2
Ntp1366
Rp1367
(dp1368
g46
I2
sg47
Nsg48
g49
(g50
(I0
tp1369
g52
tp1370
Rp1371
(I1
(I3
I3
tp1372
g59
I00
S'\x00\x00\x00\x00\x00\x00\xf0?\x00\x00\x00\x00\x00\x00\x00\x00\x00\x00\x00\x00\x00\x00\x00\x00\x00\x00\x00\x00\x00\x00\x00\x00\x00\x00\x00\x00\x00\x00\xf0?\x00\x00\x00\x00\x00\x00\x00\x00\x00\x00\x00\x00\x00\x00\x00\x00\x00\x00\x00\x00\x00\x00\x00\x00\x00\x00\x00\x00\x00\x00\xf0?'
p1373
tp1374
bsg64
g7
sg65
(dp1375
I140468196662608
g1338
ssbsg65
(dp1376
I140468196663184
g1335
ssg64
g7
sbsg188
I2
sg189
g88
sg65
(dp1377
I140468196659408
g0
(g91
g2
Ntp1378
Rp1379
(dp1380
g46
I2
sg95
g0
(g96
g2
Ntp1381
Rp1382
(dp1383
g46
I1
sg100
g49
(g50
(I0
tp1384
g52
tp1385
Rp1386
(I1
(I2
tp1387
g59
I00
S'\x00\x00\x00\x00\x00\x00\xf0\x7f\x00\x00\x00\x00\x00\x00\xf0\x7f'
p1388
tp1389
bsg65
(dp1390
I140468196659408
g1379
ssg108
g49
(g50
(I0
tp1391
g52
tp1392
Rp1393
(I1
(I2
I2
tp1394
g59
I00
S'\x00\x00\x00\x00\x00\x00\x00\x00\x00\x00\x00\x00\x00\x00\x00\x00\x00\x00\x00\x00\x00\x00\xf0?\x00\x00\x00\x00\x00\x00\xf0?'
p1395
tp1396
bsg115
g49
(g50
(I0
tp1397
g52
tp1398
Rp1399
(I1
(I2
I2
tp1400
g59
I00
S'\x00\x00\x00\x00\x00\x00\x00\x00\x00\x00\x00\x00\x00\x00\x00\x00\x00\x00\x00\x00\x00\x00\xf0?\x00\x00\x00\x00\x00\x00\xf0?'
p1401
tp1402
bsg122
I01
sg64
g7
sbsg123
g1335
sg115
Nsg65
(dp1403
sg64
g7
sbssg64
g7
sbsI140468205293648
g0
(g75
g2
Ntp1404
Rp1405
(dp1406
g46
I2
sg79
I2
sg80
g0
(g75
g2
Ntp1407
Rp1408
(dp1409
g46
I1
sg79
I2
sg80
g0
(g86
g2
Ntp1410
Rp1411
(dp1412
g46
I1
sg48
Nsg47
Nsg90
g0
(g96
g2
Ntp1413
Rp1414
(dp1415
g46
I1
sg100
g49
(g50
(I0
tp1416
g52
tp1417
Rp1418
(I1
(I2
tp1419
g59
I00
S'\x00\x00\x00\x00\x00\x00\xf0\x7f\x00\x00\x00\x00\x00\x00\xf0\x7f'
p1420
tp1421
bsg65
(dp1422
I140468205294864
g1411
ssg108
g49
(g50
(I0
tp1423
g52
tp1424
Rp1425
(I1
(I2
I2
tp1426
g59
I00
S'\x00\x00\x00\x00\x00\x00\x00\x00\x00\x00\x00\x00\x00\x00\x00\x00\x00\x00\x00\x00\x00\x00\xf0?\x00\x00\x00\x00\x00\x00\xf0?'
p1427
tp1428
bsg115
g49
(g50
(I0
tp1429
g52
tp1430
Rp1431
(I1
(I2
I2
tp1432
g59
I00
S'\x00\x00\x00\x00\x00\x00\x00\x00\x00\x00\x00\x00\x00\x00\x00\x00\x00\x00\x00\x00\x00\x00\xf0?\x00\x00\x00\x00\x00\x00\xf0?'
p1433
tp1434
bsg122
I01
sg64
g7
sbsg65
(dp1435
I140468205294544
g1408
ssg64
g7
sbsg188
I2
sg189
g0
(g42
g2
Ntp1436
Rp1437
(dp1438
g46
I2
sg47
Nsg48
g49
(g50
(I0
tp1439
g52
tp1440
Rp1441
(I1
(I3
I3
tp1442
g59
I00
S'\x00\x00\x00\x00\x00\x00\xf0?\x00\x00\x00\x00\x00\x00\x00\x00\x00\x00\x00\x00\x00\x00\x00\x00\x00\x00\x00\x00\x00\x00\x00\x00\x00\x00\x00\x00\x00\x00\xf0?\x00\x00\x00\x00\x00\x00\x00\x00\x00\x00\x00\x00\x00\x00\x00\x00\x00\x00\x00\x00\x00\x00\x00\x00\x00\x00\x00\x00\x00\x00\xf0?'
p1443
tp1444
bsg64
g7
sg65
(dp1445
I140468205294544
g1408
ssbsg65
(dp1446
I140468205293648
g1405
ssg64
g7
sbsg188
I2
sg189
g88
sg65
(dp1447
I140468205294480
g0
(g91
g2
Ntp1448
Rp1449
(dp1450
g46
I2
sg95
g0
(g96
g2
Ntp1451
Rp1452
(dp1453
g46
I1
sg100
g49
(g50
(I0
tp1454
g52
tp1455
Rp1456
(I1
(I2
tp1457
g59
I00
S'\x00\x00\x00\x00\x00\x00\xf0\x7f\x00\x00\x00\x00\x00\x00\xf0\x7f'
p1458
tp1459
bsg65
(dp1460
I140468205294480
g1449
ssg108
g49
(g50
(I0
tp1461
g52
tp1462
Rp1463
(I1
(I2
I2
tp1464
g59
I00
S'\x00\x00\x00\x00\x00\x00\x00\x00\x00\x00\x00\x00\x00\x00\x00\x00\x00\x00\x00\x00\x00\x00\xf0?\x00\x00\x00\x00\x00\x00\xf0?'
p1465
tp1466
bsg115
g49
(g50
(I0
tp1467
g52
tp1468
Rp1469
(I1
(I2
I2
tp1470
g59
I00
S'\x00\x00\x00\x00\x00\x00\x00\x00\x00\x00\x00\x00\x00\x00\x00\x00\x00\x00\x00\x00\x00\x00\xf0?\x00\x00\x00\x00\x00\x00\xf0?'
p1471
tp1472
bsg122
I01
sg64
g7
sbsg123
g1405
sg115
Nsg65
(dp1473
sg64
g7
sbssg64
g7
sbsI140468196661200
g0
(g75
g2
Ntp1474
Rp1475
(dp1476
g46
I2
sg79
I2
sg80
g0
(g75
g2
Ntp1477
Rp1478
(dp1479
g46
I1
sg79
I2
sg80
g0
(g86
g2
Ntp1480
Rp1481
(dp1482
g46
I1
sg48
Nsg47
Nsg90
g0
(g96
g2
Ntp1483
Rp1484
(dp1485
g46
I1
sg100
g49
(g50
(I0
tp1486
g52
tp1487
Rp1488
(I1
(I2
tp1489
g59
I00
S'\x00\x00\x00\x00\x00\x00\xf0\x7f\x00\x00\x00\x00\x00\x00\xf0\x7f'
p1490
tp1491
bsg65
(dp1492
I140468196661968
g1481
ssg108
g49
(g50
(I0
tp1493
g52
tp1494
Rp1495
(I1
(I2
I2
tp1496
g59
I00
S'\x00\x00\x00\x00\x00\x00\x00\x00\x00\x00\x00\x00\x00\x00\x00\x00\x00\x00\x00\x00\x00\x00\xf0?\x00\x00\x00\x00\x00\x00\xf0?'
p1497
tp1498
bsg115
g49
(g50
(I0
tp1499
g52
tp1500
Rp1501
(I1
(I2
I2
tp1502
g59
I00
S'\x00\x00\x00\x00\x00\x00\x00\x00\x00\x00\x00\x00\x00\x00\x00\x00\x00\x00\x00\x00\x00\x00\xf0?\x00\x00\x00\x00\x00\x00\xf0?'
p1503
tp1504
bsg122
I01
sg64
g7
sbsg65
(dp1505
I140468196660048
g1478
ssg64
g7
sbsg188
I2
sg189
g0
(g42
g2
Ntp1506
Rp1507
(dp1508
g46
I2
sg47
Nsg48
g49
(g50
(I0
tp1509
g52
tp1510
Rp1511
(I1
(I3
I3
tp1512
g59
I00
S'\x00\x00\x00\x00\x00\x00\xf0?\x00\x00\x00\x00\x00\x00\x00\x00\x00\x00\x00\x00\x00\x00\x00\x00\x00\x00\x00\x00\x00\x00\x00\x00\x00\x00\x00\x00\x00\x00\xf0?\x00\x00\x00\x00\x00\x00\x00\x00\x00\x00\x00\x00\x00\x00\x00\x00\x00\x00\x00\x00\x00\x00\x00\x00\x00\x00\x00\x00\x00\x00\xf0?'
p1513
tp1514
bsg64
g7
sg65
(dp1515
I140468196660048
g1478
ssbsg65
(dp1516
I140468196661200
g1475
ssg64
g7
sbsg188
I2
sg189
g88
sg65
(dp1517
I140468196661648
g0
(g91
g2
Ntp1518
Rp1519
(dp1520
g46
I2
sg95
g0
(g96
g2
Ntp1521
Rp1522
(dp1523
g46
I1
sg100
g49
(g50
(I0
tp1524
g52
tp1525
Rp1526
(I1
(I2
tp1527
g59
I00
S'\x00\x00\x00\x00\x00\x00\xf0\x7f\x00\x00\x00\x00\x00\x00\xf0\x7f'
p1528
tp1529
bsg65
(dp1530
I140468196661648
g1519
ssg108
g49
(g50
(I0
tp1531
g52
tp1532
Rp1533
(I1
(I2
I2
tp1534
g59
I00
S'\x00\x00\x00\x00\x00\x00\x00\x00\x00\x00\x00\x00\x00\x00\x00\x00\x00\x00\x00\x00\x00\x00\xf0?\x00\x00\x00\x00\x00\x00\xf0?'
p1535
tp1536
bsg115
g49
(g50
(I0
tp1537
g52
tp1538
Rp1539
(I1
(I2
I2
tp1540
g59
I00
S'\x00\x00\x00\x00\x00\x00\x00\x00\x00\x00\x00\x00\x00\x00\x00\x00\x00\x00\x00\x00\x00\x00\xf0?\x00\x00\x00\x00\x00\x00\xf0?'
p1541
tp1542
bsg122
I01
sg64
g7
sbsg123
g1475
sg115
Nsg65
(dp1543
sg64
g7
sbssg64
g7
sbsI140468202467536
g83
sI140468197976848
g0
(g75
g2
Ntp1544
Rp1545
(dp1546
g46
I2
sg79
I2
sg80
g0
(g75
g2
Ntp1547
Rp1548
(dp1549
g46
I1
sg79
I2
sg80
g0
(g86
g2
Ntp1550
Rp1551
(dp1552
g46
I1
sg48
Nsg47
Nsg90
g0
(g96
g2
Ntp1553
Rp1554
(dp1555
g46
I1
sg100
g49
(g50
(I0
tp1556
g52
tp1557
Rp1558
(I1
(I2
tp1559
g59
I00
S'\x00\x00\x00\x00\x00\x00\xf0\x7f\x00\x00\x00\x00\x00\x00\xf0\x7f'
p1560
tp1561
bsg65
(dp1562
I140468196662032
g1551
ssg108
g49
(g50
(I0
tp1563
g52
tp1564
Rp1565
(I1
(I2
I2
tp1566
g59
I00
S'\x00\x00\x00\x00\x00\x00\x00\x00\x00\x00\x00\x00\x00\x00\x00\x00\x00\x00\x00\x00\x00\x00\xf0?\x00\x00\x00\x00\x00\x00\xf0?'
p1567
tp1568
bsg115
g49
(g50
(I0
tp1569
g52
tp1570
Rp1571
(I1
(I2
I2
tp1572
g59
I00
S'\x00\x00\x00\x00\x00\x00\x00\x00\x00\x00\x00\x00\x00\x00\x00\x00\x00\x00\x00\x00\x00\x00\xf0?\x00\x00\x00\x00\x00\x00\xf0?'
p1573
tp1574
bsg122
I01
sg64
g7
sbsg65
(dp1575
I140468196659984
g1548
ssg64
g7
sbsg188
I2
sg189
g0
(g42
g2
Ntp1576
Rp1577
(dp1578
g46
I2
sg47
Nsg48
g49
(g50
(I0
tp1579
g52
tp1580
Rp1581
(I1
(I3
I3
tp1582
g59
I00
S'\x00\x00\x00\x00\x00\x00\xf0?\x00\x00\x00\x00\x00\x00\x00\x00\x00\x00\x00\x00\x00\x00\x00\x00\x00\x00\x00\x00\x00\x00\x00\x00\x00\x00\x00\x00\x00\x00\xf0?\x00\x00\x00\x00\x00\x00\x00\x00\x00\x00\x00\x00\x00\x00\x00\x00\x00\x00\x00\x00\x00\x00\x00\x00\x00\x00\x00\x00\x00\x00\xf0?'
p1583
tp1584
bsg64
g7
sg65
(dp1585
I140468196659984
g1548
ssbsg65
(dp1586
I140468197976848
g1545
ssg64
g7
sbsg188
I2
sg189
g88
sg65
(dp1587
I140468197975952
g0
(g91
g2
Ntp1588
Rp1589
(dp1590
g46
I2
sg95
g0
(g96
g2
Ntp1591
Rp1592
(dp1593
g46
I1
sg100
g49
(g50
(I0
tp1594
g52
tp1595
Rp1596
(I1
(I2
tp1597
g59
I00
S'\x00\x00\x00\x00\x00\x00\xf0\x7f\x00\x00\x00\x00\x00\x00\xf0\x7f'
p1598
tp1599
bsg65
(dp1600
I140468197975952
g1589
ssg108
g49
(g50
(I0
tp1601
g52
tp1602
Rp1603
(I1
(I2
I2
tp1604
g59
I00
S'\x00\x00\x00\x00\x00\x00\x00\x00\x00\x00\x00\x00\x00\x00\x00\x00\x00\x00\x00\x00\x00\x00\xf0?\x00\x00\x00\x00\x00\x00\xf0?'
p1605
tp1606
bsg115
g49
(g50
(I0
tp1607
g52
tp1608
Rp1609
(I1
(I2
I2
tp1610
g59
I00
S'\x00\x00\x00\x00\x00\x00\x00\x00\x00\x00\x00\x00\x00\x00\x00\x00\x00\x00\x00\x00\x00\x00\xf0?\x00\x00\x00\x00\x00\x00\xf0?'
p1611
tp1612
bsg122
I01
sg64
g7
sbsg123
g1545
sg115
Nsg65
(dp1613
sg64
g7
sbssg64
g7
sbsI140468170940944
g0
(g75
g2
Ntp1614
Rp1615
(dp1616
g46
I2
sg79
I2
sg80
g0
(g75
g2
Ntp1617
Rp1618
(dp1619
g46
I1
sg79
I2
sg80
g0
(g86
g2
Ntp1620
Rp1621
(dp1622
g46
I1
sg48
Nsg47
Nsg90
g0
(g96
g2
Ntp1623
Rp1624
(dp1625
g46
I1
sg100
g49
(g50
(I0
tp1626
g52
tp1627
Rp1628
(I1
(I2
tp1629
g59
I00
S'\x00\x00\x00\x00\x00\x00\xf0\x7f\x00\x00\x00\x00\x00\x00\xf0\x7f'
p1630
tp1631
bsg65
(dp1632
I140468170940560
g1621
ssg108
g49
(g50
(I0
tp1633
g52
tp1634
Rp1635
(I1
(I2
I2
tp1636
g59
I00
S'\x00\x00\x00\x00\x00\x00\x00\x00\x00\x00\x00\x00\x00\x00\x00\x00\x00\x00\x00\x00\x00\x00\xf0?\x00\x00\x00\x00\x00\x00\xf0?'
p1637
tp1638
bsg115
g49
(g50
(I0
tp1639
g52
tp1640
Rp1641
(I1
(I2
I2
tp1642
g59
I00
S'\x00\x00\x00\x00\x00\x00\x00\x00\x00\x00\x00\x00\x00\x00\x00\x00\x00\x00\x00\x00\x00\x00\xf0?\x00\x00\x00\x00\x00\x00\xf0?'
p1643
tp1644
bsg122
I01
sg64
g7
sbsg65
(dp1645
I140468170941968
g1618
ssg64
g7
sbsg188
I2
sg189
g0
(g42
g2
Ntp1646
Rp1647
(dp1648
g46
I2
sg47
Nsg48
g49
(g50
(I0
tp1649
g52
tp1650
Rp1651
(I1
(I3
I3
tp1652
g59
I00
S'\x00\x00\x00\x00\x00\x00\xf0?\x00\x00\x00\x00\x00\x00\x00\x00\x00\x00\x00\x00\x00\x00\x00\x00\x00\x00\x00\x00\x00\x00\x00\x00\x00\x00\x00\x00\x00\x00\xf0?\x00\x00\x00\x00\x00\x00\x00\x00\x00\x00\x00\x00\x00\x00\x00\x00\x00\x00\x00\x00\x00\x00\x00\x00\x00\x00\x00\x00\x00\x00\xf0?'
p1653
tp1654
bsg64
g7
sg65
(dp1655
I140468170941968
g1618
ssbsg65
(dp1656
I140468170940944
g1615
ssg64
g7
sbsg188
I2
sg189
g88
sg65
(dp1657
I140468170942800
g0
(g91
g2
Ntp1658
Rp1659
(dp1660
g46
I2
sg95
g0
(g96
g2
Ntp1661
Rp1662
(dp1663
g46
I1
sg100
g49
(g50
(I0
tp1664
g52
tp1665
Rp1666
(I1
(I2
tp1667
g59
I00
S'\x00\x00\x00\x00\x00\x00\xf0\x7f\x00\x00\x00\x00\x00\x00\xf0\x7f'
p1668
tp1669
bsg65
(dp1670
I140468170942800
g1659
ssg108
g49
(g50
(I0
tp1671
g52
tp1672
Rp1673
(I1
(I2
I2
tp1674
g59
I00
S'\x00\x00\x00\x00\x00\x00\x00\x00\x00\x00\x00\x00\x00\x00\x00\x00\x00\x00\x00\x00\x00\x00\xf0?\x00\x00\x00\x00\x00\x00\xf0?'
p1675
tp1676
bsg115
g49
(g50
(I0
tp1677
g52
tp1678
Rp1679
(I1
(I2
I2
tp1680
g59
I00
S'\x00\x00\x00\x00\x00\x00\x00\x00\x00\x00\x00\x00\x00\x00\x00\x00\x00\x00\x00\x00\x00\x00\xf0?\x00\x00\x00\x00\x00\x00\xf0?'
p1681
tp1682
bsg122
I01
sg64
g7
sbsg123
g1615
sg115
Nsg65
(dp1683
sg64
g7
sbssg64
g7
sbsI140468204081744
g606
sI140468197974800
g0
(g75
g2
Ntp1684
Rp1685
(dp1686
g46
I2
sg79
I2
sg80
g0
(g75
g2
Ntp1687
Rp1688
(dp1689
g46
I1
sg79
I2
sg80
g0
(g86
g2
Ntp1690
Rp1691
(dp1692
g46
I1
sg48
Nsg47
Nsg90
g0
(g96
g2
Ntp1693
Rp1694
(dp1695
g46
I1
sg100
g49
(g50
(I0
tp1696
g52
tp1697
Rp1698
(I1
(I2
tp1699
g59
I00
S'\x00\x00\x00\x00\x00\x00\xf0\x7f\x00\x00\x00\x00\x00\x00\xf0\x7f'
p1700
tp1701
bsg65
(dp1702
I140468197976208
g1691
ssg108
g49
(g50
(I0
tp1703
g52
tp1704
Rp1705
(I1
(I2
I2
tp1706
g59
I00
S'\x00\x00\x00\x00\x00\x00\x00\x00\x00\x00\x00\x00\x00\x00\x00\x00\x00\x00\x00\x00\x00\x00\xf0?\x00\x00\x00\x00\x00\x00\xf0?'
p1707
tp1708
bsg115
g49
(g50
(I0
tp1709
g52
tp1710
Rp1711
(I1
(I2
I2
tp1712
g59
I00
S'\x00\x00\x00\x00\x00\x00\x00\x00\x00\x00\x00\x00\x00\x00\x00\x00\x00\x00\x00\x00\x00\x00\xf0?\x00\x00\x00\x00\x00\x00\xf0?'
p1713
tp1714
bsg122
I01
sg64
g7
sbsg65
(dp1715
I140468197974096
g1688
ssg64
g7
sbsg188
I2
sg189
g0
(g42
g2
Ntp1716
Rp1717
(dp1718
g46
I2
sg47
Nsg48
g49
(g50
(I0
tp1719
g52
tp1720
Rp1721
(I1
(I3
I3
tp1722
g59
I00
S'\x00\x00\x00\x00\x00\x00\xf0?\x00\x00\x00\x00\x00\x00\x00\x00\x00\x00\x00\x00\x00\x00\x00\x00\x00\x00\x00\x00\x00\x00\x00\x00\x00\x00\x00\x00\x00\x00\xf0?\x00\x00\x00\x00\x00\x00\x00\x00\x00\x00\x00\x00\x00\x00\x00\x00\x00\x00\x00\x00\x00\x00\x00\x00\x00\x00\x00\x00\x00\x00\xf0?'
p1723
tp1724
bsg64
g7
sg65
(dp1725
I140468197974096
g1688
ssbsg65
(dp1726
I140468197974800
g1685
ssg64
g7
sbsg188
I2
sg189
g88
sg65
(dp1727
I140468197977616
g0
(g91
g2
Ntp1728
Rp1729
(dp1730
g46
I2
sg95
g0
(g96
g2
Ntp1731
Rp1732
(dp1733
g46
I1
sg100
g49
(g50
(I0
tp1734
g52
tp1735
Rp1736
(I1
(I2
tp1737
g59
I00
S'\x00\x00\x00\x00\x00\x00\xf0\x7f\x00\x00\x00\x00\x00\x00\xf0\x7f'
p1738
tp1739
bsg65
(dp1740
I140468197977616
g1729
ssg108
g49
(g50
(I0
tp1741
g52
tp1742
Rp1743
(I1
(I2
I2
tp1744
g59
I00
S'\x00\x00\x00\x00\x00\x00\x00\x00\x00\x00\x00\x00\x00\x00\x00\x00\x00\x00\x00\x00\x00\x00\xf0?\x00\x00\x00\x00\x00\x00\xf0?'
p1745
tp1746
bsg115
g49
(g50
(I0
tp1747
g52
tp1748
Rp1749
(I1
(I2
I2
tp1750
g59
I00
S'\x00\x00\x00\x00\x00\x00\x00\x00\x00\x00\x00\x00\x00\x00\x00\x00\x00\x00\x00\x00\x00\x00\xf0?\x00\x00\x00\x00\x00\x00\xf0?'
p1751
tp1752
bsg122
I01
sg64
g7
sbsg123
g1685
sg115
Nsg65
(dp1753
sg64
g7
sbssg64
g7
sbssg64
g7
sbsg504
g442
sg511
Nsg65
(dp1754
I140468192228240
g77
sI140468192228368
g0
(g75
g2
Ntp1755
Rp1756
(dp1757
g46
I2
sg79
I2
sg80
g83
sg188
I2
sg189
g0
(g67
g2
Ntp1758
Rp1759
(dp1760
g46
I1
sg48
Nsg71
g44
sg47
Nsg72
(I0
F-0.04861111111111111
tp1761
sg64
g7
sg65
(dp1762
I140468192228368
g1756
ssbsg65
(dp1763
sg64
g7
sbsI140468194333840
NsI140468204082384
NsI140468194333968
NsI140468194335632
NsI140468204082768
g0
(g75
g2
Ntp1764
Rp1765
(dp1766
g46
I2
sg79
I2
sg80
g83
sg188
I2
sg189
g0
(g67
g2
Ntp1767
Rp1768
(dp1769
g46
I1
sg48
Nsg71
g44
sg47
Nsg72
(I0
F-0.04722222222222222
tp1770
sg64
g7
sg65
(dp1771
I140468204082768
g1765
ssbsg65
(dp1772
sg64
g7
sbsI140468192229136
NsI140468205295696
NsI140468205295760
NsI140468205295888
NsI140468205295952
NsI140468204082320
NsI140468204083984
g0
(g75
g2
Ntp1773
Rp1774
(dp1775
g46
I2
sg79
I2
sg80
g83
sg188
I2
sg189
g0
(g67
g2
Ntp1776
Rp1777
(dp1778
g46
I1
sg48
Nsg71
g44
sg47
Nsg72
(I0
F-0.04861111111111111
tp1779
sg64
g7
sg65
(dp1780
I140468204083984
g1774
ssbsg65
(dp1781
sg64
g7
sbsI140468192000912
NsI140468192230352
g0
(g75
g2
Ntp1782
Rp1783
(dp1784
g46
I2
sg79
I2
sg80
g83
sg188
I2
sg189
g0
(g67
g2
Ntp1785
Rp1786
(dp1787
g46
I1
sg48
Nsg71
g44
sg47
Nsg72
(I0
F0.04861111111111111
tp1788
sg64
g7
sg65
(dp1789
I140468192230352
g1783
ssbsg65
(dp1790
sg64
g7
sbsI140468204084880
g0
(g75
g2
Ntp1791
Rp1792
(dp1793
g46
I2
sg79
I2
sg80
g83
sg188
I2
sg189
g0
(g67
g2
Ntp1794
Rp1795
(dp1796
g46
I1
sg48
Nsg71
g44
sg47
Nsg72
(I0
F0.04861111111111111
tp1797
sg64
g7
sg65
(dp1798
I140468204084880
g1792
ssbsg65
(dp1799
sg64
g7
sbsI140468194336016
NsI140468192000848
NsI140468192230992
NsI140468194336400
NsI140468194336464
NsI140468192228304
NsI140468192227600
NsI140468204081488
g0
(g75
g2
Ntp1800
Rp1801
(dp1802
g46
I2
sg79
I2
sg80
g83
sg188
I2
sg189
g0
(g67
g2
Ntp1803
Rp1804
(dp1805
g46
I1
sg48
Nsg71
g44
sg47
Nsg72
(I0
F0.04722222222222222
tp1806
sg64
g7
sg65
(dp1807
I140468204081488
g1801
ssbsg65
(dp1808
sg64
g7
sbsI140468191998416
NsI140468192228112
g0
(g75
g2
Ntp1809
Rp1810
(dp1811
g46
I2
sg79
I2
sg80
g83
sg188
I2
sg189
g0
(g67
g2
Ntp1812
Rp1813
(dp1814
g46
I1
sg48
Nsg71
g44
sg47
Nsg72
(I0
F0.04722222222222222
tp1815
sg64
g7
sg65
(dp1816
I140468192228112
g1810
ssbsg65
(dp1817
sg64
g7
sbssg64
g7
sbsg188
I2
sg189
g69
sg65
(dp1818
sg64
g7
sbssbsI140468192229840
g1759
sI140468203922576
g544
sI140468203921808
g571
sI140468192231056
NsI140468204082576
g1768
sI140468205295056
NsI140468170941968
NsI140468205295184
NsI140468195253520
NsI140468170943952
NsI140468192229136
g1786
sI140468194334672
NsI140468204083216
g597
sI140468203923600
g580
sI140468205294928
NsI140468194334288
NsI140468194334992
NsI140468205295952
NsI140468191998416
NsI140468205296080
NsI140468192000720
NsI140468170943312
NsI140468203922000
g535
sI140468192000912
NsI140468192230352
NsI140468192228944
g562
sI140468205296720
NsI140468192001168
NsI140468170942416
NsI140468170942288
g553
sI140468203923728
NsI140468205296336
NsI140468204084688
NsI140468194336272
NsI140468192228240
NsI140468192230992
g1813
sI140468205295120
NsI140468204084176
NsI140468194336464
NsI140468194336016
NsI140468204085072
g1777
sI140468203922384
NsI140468203925456
NsI140468204084240
g1804
sI140468170940496
NsI140468204081296
g1795
sI140468203922960
g517
sI140468203921616
NsI140468191998224
NsI140468170941008
g526
sI140468170940816
NsI140468194333136
NsI140468170940944
NsI140468194333264
NsI140468170943504
NsI140468192228112
NsI140468206251984
g128
ssbsS'number'
p1819
I1
sS'callbacks'
p1820
g0
(cmatplotlib.cbook
CallbackRegistry
p1821
g2
Ntp1822
Rp1823
(dp1824
Vexception_handler
p1825
cmatplotlib.cbook
_exception_printer
p1826
sbsS'_snap'
p1827
NsS'_tight'
p1828
I00
sS'_stale'
p1829
I01
sS'bbox'
p1830
g128
sS'_sticky_edges'
p1831
g0
(cmatplotlib.artist
_XYPair
p1832
c__builtin__
tuple
p1833
((lp1834
(lp1835
tp1836
tp1837
Rp1838
sS'_oid'
p1839
I0
sS'patches'
p1840
(lp1841
sS'legends'
p1842
(lp1843
sS'suppressComposite'
p1844
NsS'_transformSet'
p1845
I00
sS'_alpha'
p1846
NsS'_axstack'
p1847
g0
(cmatplotlib.figure
AxesStack
p1848
g2
Ntp1849
Rp1850
(dp1851
S'_default'
p1852
NsS'_elements'
p1853
(lp1854
(((g0
(cmatplotlib.gridspec
SubplotSpec
p1855
g2
Ntp1856
Rp1857
(dp1858
S'num1'
p1859
I0
sS'num2'
p1860
I0
sS'_gridspec'
p1861
g0
(cmatplotlib.gridspec
GridSpec
p1862
g2
Ntp1863
Rp1864
(dp1865
S'_nrows'
p1866
I1
sS'right'
p1867
NsS'_col_width_ratios'
p1868
NsS'bottom'
p1869
NsS'top'
p1870
NsS'wspace'
p1871
NsS'_ncols'
p1872
I1
sS'hspace'
p1873
NsS'_row_height_ratios'
p1874
NsS'left'
p1875
Nsbsbtp1876
((Vsharey
p1877
Ntp1878
(Vsharex
p1879
Ntp1880
tp1881
tp1882
(I1
g0
(cmatplotlib.axes._subplots
_PicklableSubplotClassConstructor
p1883
g2
Ntp1884
Rp1885
(cmatplotlib.axes._axes
Axes
p1886
tp1887
Rp1888
(dp1889
S'transLimits'
p1890
g479
sS'_get_patches_for_fill'
p1891
g0
(cmatplotlib.axes._base
_process_plot_var_args
p1892
g2
Ntp1893
Rp1894
(dp1895
Vaxes
p1896
g1888
sVcommand
p1897
Vfill
p1898
sbsS'_xcid'
p1899
I1
sg6
g7
sS'legend_'
p1900
g0
(cmatplotlib.legend
Legend
p1901
g2
Ntp1902
Rp1903
(dp1904
g6
g7
sS'markerscale'
p1905
F1.0
sg9
g4
sS'legendHandles'
p1906
(lp1907
g0
(cmatplotlib.patches
Rectangle
p1908
g2
Ntp1909
Rp1910
(dp1911
g6
VControl
p1912
sS'_width'
p1913
F20.0
sS'_fill'
p1914
I00
sg9
g4
sg8
I01
sg10
Nsg35
Nsg17
g18
sS'_gid'
p1915
Nsg20
I01
sS'_combined_transform'
p1916
g0
(g499
g2
Ntp1917
Rp1918
(dp1919
g46
I1
sg47
Nsg64
g7
sg65
(dp1920
sbsS'_edgecolor'
p1921
(cnumpy.core.multiarray
scalar
p1922
(g59
S'\x10\x10\x10\x10\x10\x10\xe0?'
p1923
tp1924
Rp1925
g1922
(g59
S'\x10\x10\x10\x10\x10\x10\xe0?'
p1926
tp1927
Rp1928
g1922
(g59
S'\x10\x10\x10\x10\x10\x10\xe0?'
p1929
tp1930
Rp1931
g1922
(g59
S'\x00\x00\x00\x00\x00\x00\xf0?'
p1932
tp1933
Rp1934
tp1935
sS'angle'
p1936
F0.0
sg23
Nsg85
F-0.0
sg504
F-0.0
sg24
NsS'_original_edgecolor'
p1937
Nsg11
Nsg28
I00
sg29
I00
sg30
(dp1938
sS'_rect_transform'
p1939
g0
(g499
g2
Ntp1940
Rp1941
(dp1942
g46
I1
sg47
Nsg64
g7
sg65
(dp1943
sbsg32
I00
sS'_hatch'
p1944
Nsg1829
I01
sS'_linewidth'
p1945
F1.0
sg36
NsS'_height'
p1946
F7.0
sg33
NsS'_hatch_color'
p1947
g1935
sS'_dashes'
p1948
NsS'_antialiased'
p1949
I01
sS'_dashoffset'
p1950
NsS'_original_facecolor'
p1951
Nsg1827
NsS'_facecolor'
p1952
(g1922
(g59
S'\x10\x10\x10\x10\x10\x10\xe0?'
p1953
tp1954
Rp1955
g1922
(g59
S'\x10\x10\x10\x10\x10\x10\xe0?'
p1956
tp1957
Rp1958
g1922
(g59
S'\x10\x10\x10\x10\x10\x10\xe0?'
p1959
tp1960
Rp1961
I0
tp1962
sS'_joinstyle'
p1963
Vmiter
p1964
sS'_linestyle'
p1965
Vsolid
p1966
sg1831
g0
(g1832
g1833
((lp1967
(lp1968
I0
atp1969
tp1970
Rp1971
sg1839
I0
sg1845
I01
sg1846
Nsg123
g0
(cmatplotlib.transforms
CompositeAffine2D
p1972
g2
Ntp1973
Rp1974
(dp1975
g46
I1
sg79
I2
sg47
Nsg64
g7
sg48
Nsg65
(dp1976
sg188
I2
sg189
g0
(g42
g2
Ntp1977
Rp1978
(dp1979
g46
I2
sg47
Nsg48
g49
(g50
(I0
tp1980
g52
tp1981
Rp1982
(I1
(I3
I3
tp1983
g59
I00
S'\x00\x00\x00\x00\x00\x00\xf0?\x00\x00\x00\x00\x00\x00\x00\x00\x00\x00\x00\x00\x00\x00\x00\x00\x00\x00\x00\x00\x00\x00\x00\x00\x00\x00\x00\x00\x00\x00\xf0?\x00\x00\x00\x00\x00\x00\x00\x00\x00\x00\x00\x00\x00\x00\x00\x00\x00\x00\x00\x00\x00\x00\x00\x00\x00\x00\x00\x00\x00\x00\xf0?'
p1984
tp1985
bsg64
g7
sg65
(dp1986
I140468194618896
g1974
ssbsg80
g0
(g42
g2
Ntp1987
Rp1988
(dp1989
g46
I0
sg47
Nsg48
g49
(g50
(I0
tp1990
g52
tp1991
Rp1992
(I1
(I3
I3
tp1993
g59
I00
S'\x00\x00\x00\x00\x00\x00\xf0?\x00\x00\x00\x00\x00\x00\x00\x00\x00\x00\x00\x00\x00\x00\x00\x00\x00\x00\x00\x00\x00\x00\x00\x00\x00\x00\x00\x00\x00\x00\xf0?\x00\x00\x00\x00\x00\x00\x00\x00\x00\x00\x00\x00\x00\x00\x00\x00\x00\x00\x00\x00\x00\x00\x00\x00\x00\x00\x00\x00\x00\x00\xf0?'
p1994
tp1995
bsg64
g7
sg65
(dp1996
I140468194618896
g1974
ssbsbsS'_us_dashes'
p1997
(NNtp1998
sS'_capstyle'
p1999
Vbutt
p2000
sS'_url'
p2001
Nsg25
NsS'_axes'
p2002
g1888
sg34
Nsbag0
(g1908
g2
Ntp2003
Rp2004
(dp2005
g6
VGABAzine
p2006
sg1913
F20.0
sg1914
I00
sg9
g4
sg8
I01
sg10
Nsg35
Nsg17
g18
sg1915
Nsg20
I01
sg1916
g0
(g499
g2
Ntp2007
Rp2008
(dp2009
g46
I1
sg47
Nsg64
g7
sg65
(dp2010
sbsg1921
(g1922
(g59
S'\x00\x00\x00\x00\x00\x00\xf0?'
p2011
tp2012
Rp2013
g1922
(g59
S'\x00\x00\x00\x00\x00\x00\x00\x00'
p2014
tp2015
Rp2016
g1922
(g59
S'\x00\x00\x00\x00\x00\x00\x00\x00'
p2017
tp2018
Rp2019
g1922
(g59
S'\x00\x00\x00\x00\x00\x00\xf0?'
p2020
tp2021
Rp2022
tp2023
sg1936
F0.0
sg23
Nsg85
F-0.0
sg504
F-0.0
sg24
Nsg1937
Nsg11
Nsg28
I00
sg29
I00
sg30
(dp2024
sg1939
g0
(g499
g2
Ntp2025
Rp2026
(dp2027
g46
I1
sg47
Nsg64
g7
sg65
(dp2028
sbsg32
I00
sg1944
Nsg1829
I01
sg1945
F1.0
sg36
Nsg1946
F7.0
sg33
Nsg1947
g2023
sg1948
Nsg1949
I01
sg1950
Nsg1951
Nsg1827
Nsg1952
(g1922
(g59
S'\x00\x00\x00\x00\x00\x00\xf0?'
p2029
tp2030
Rp2031
g1922
(g59
S'\x00\x00\x00\x00\x00\x00\x00\x00'
p2032
tp2033
Rp2034
g1922
(g59
S'\x00\x00\x00\x00\x00\x00\x00\x00'
p2035
tp2036
Rp2037
I0
tp2038
sg1963
g1964
sg1965
g1966
sg1831
g0
(g1832
g1833
((lp2039
(lp2040
I0
atp2041
tp2042
Rp2043
sg1839
I0
sg1845
I01
sg1846
Nsg123
g0
(g1972
g2
Ntp2044
Rp2045
(dp2046
g46
I1
sg79
I2
sg47
Nsg64
g7
sg48
Nsg65
(dp2047
sg188
I2
sg189
g0
(g42
g2
Ntp2048
Rp2049
(dp2050
g46
I2
sg47
Nsg48
g49
(g50
(I0
tp2051
g52
tp2052
Rp2053
(I1
(I3
I3
tp2054
g59
I00
S'\x00\x00\x00\x00\x00\x00\xf0?\x00\x00\x00\x00\x00\x00\x00\x00\x00\x00\x00\x00\x00\x00\x00\x00\x00\x00\x00\x00\x00\x00\x00\x00\x00\x00\x00\x00\x00\x00\xf0?\x00\x00\x00\x00\x00\x00\x00\x00\x00\x00\x00\x00\x00\x00\x00\x00\x00\x00\x00\x00\x00\x00\x00\x00\x00\x00\x00\x00\x00\x00\xf0?'
p2055
tp2056
bsg64
g7
sg65
(dp2057
I140468194616976
g2045
ssbsg80
g0
(g42
g2
Ntp2058
Rp2059
(dp2060
g46
I0
sg47
Nsg48
g49
(g50
(I0
tp2061
g52
tp2062
Rp2063
(I1
(I3
I3
tp2064
g59
I00
S'\x00\x00\x00\x00\x00\x00\xf0?\x00\x00\x00\x00\x00\x00\x00\x00\x00\x00\x00\x00\x00\x00\x00\x00\x00\x00\x00\x00\x00\x00\x00\x00\x00\x00\x00\x00\x00\x00\xf0?\x00\x00\x00\x00\x00\x00\x00\x00\x00\x00\x00\x00\x00\x00\x00\x00\x00\x00\x00\x00\x00\x00\x00\x00\x00\x00\x00\x00\x00\x00\xf0?'
p2065
tp2066
bsg64
g7
sg65
(dp2067
I140468194616976
g2045
ssbsbsg1997
(NNtp2068
sg1999
g2000
sg2001
Nsg25
Nsg2002
g1888
sg34
NsbasS'_legend_title_box'
p2069
g0
(cmatplotlib.offsetbox
TextArea
p2070
g2
Ntp2071
Rp2072
(dp2073
g6
g7
sg8
I00
sg9
g4
sS'_children'
p2074
(lp2075
g0
(cmatplotlib.text
Text
p2076
g2
Ntp2077
Rp2078
(dp2079
g6
g7
sg8
I01
sg9
g4
sg10
NsS'_fontproperties'
p2080
g0
(cmatplotlib.font_manager
FontProperties
p2081
g2
Ntp2082
Rp2083
(dp2084
S'_family'
p2085
(lp2086
Vsans-serif
p2087
asS'_file'
p2088
NsS'_variant'
p2089
Vnormal
p2090
sS'_slant'
p2091
g2090
sS'_size'
p2092
F10.0
sS'_weight'
p2093
g2090
sS'_stretch'
p2094
g2090
sbsg35
Nsg17
g18
sS'_multialignment'
p2095
Nsg20
I01
sg23
Nsg85
I0
sg504
I0
sg24
Nsg25
Nsg11
Nsg28
I00
sg29
I00
sg30
(dp2096
sS'_renderer'
p2097
Nsg32
I00
sg2002
Nsg36
Nsg2001
NsS'_rotation_mode'
p2098
Nsg33
Nsg1827
Nsg1829
I01
sS'_verticalalignment'
p2099
Vbaseline
p2100
sS'_text'
p2101
VNone
p2102
sS'_bbox_patch'
p2103
Nsg1831
g0
(g1832
g1833
((lp2104
(lp2105
tp2106
tp2107
Rp2108
sg1839
I0
sS'_rotation'
p2109
Nsg1845
I01
sg1846
NsS'_linespacing'
p2110
F1.2
sg123
g0
(g1972
g2
Ntp2111
Rp2112
(dp2113
g46
I1
sg79
I2
sg47
Nsg64
g7
sg48
Nsg65
(dp2114
sg188
I2
sg189
g0
(g42
g2
Ntp2115
Rp2116
(dp2117
g46
I0
sg47
Nsg48
g49
(g50
(I0
tp2118
g52
tp2119
Rp2120
(I1
(I3
I3
tp2121
g59
I00
S'\x00\x00\x00\x00\x00\x00\xf0?\x00\x00\x00\x00\x00\x00\x00\x00\x00\x00\x00\x00\x00\x00\x00\x00\x00\x00\x00\x00\x00\x00\x00\x00\x00\x00\x00\x00\x00\x00\xf0?\x00\x00\x00\x00\x00\x00\x00\x00\x00\x00\x00\x00\x00\x00\x00\x00\x00\x00\x00\x00\x00\x00\x00\x00\x00\x00\x00\x00\x00\x00\xf0?'
p2122
tp2123
bsg64
g7
sg65
(dp2124
I140468194617936
g2112
ssbsg80
g0
(g42
g2
Ntp2125
Rp2126
(dp2127
g46
I2
sg47
Nsg48
g49
(g50
(I0
tp2128
g52
tp2129
Rp2130
(I1
(I3
I3
tp2131
g59
I00
S'\x00\x00\x00\x00\x00\x00\xf0?\x00\x00\x00\x00\x00\x00\x00\x00\x00\x00\x00\x00\x00\x00\x00\x00\x00\x00\x00\x00\x00\x00\x00\x00\x00\x00\x00\x00\x00\x00\xf0?\x00\x00\x00\x00\x00\x00\x00\x00\x00\x00\x00\x00\x00\x00\x00\x00\x00\x00\x00\x00\x00\x00\x00\x00\x00\x00\x00\x00\x00\x00\xf0?'
p2132
tp2133
bsg64
g7
sg65
(dp2134
I140468194617936
g2112
ssbsbsS'_usetex'
p2135
I00
sS'_wrap'
p2136
I00
sg1915
NsS'_color'
p2137
V0.
p2138
sS'_horizontalalignment'
p2139
Vleft
p2140
sg34
Nsbasg2101
g2078
sg10
Nsg35
NsS'_minimumdescent'
p2141
I01
sg17
g18
sg20
I00
sg23
Nsg24
Nsg25
Nsg11
Nsg28
I00
sg2002
Nsg30
(dp2142
sg32
I00
sg29
I00
sg36
Nsg33
Nsg1827
Nsg1829
I01
sS'_multilinebaseline'
p2143
Nsg1831
g0
(g1832
g1833
((lp2144
(lp2145
tp2146
tp2147
Rp2148
sg1839
I0
sS'offset_transform'
p2149
g2126
sg1845
I00
sg1846
NsS'_baseline_transform'
p2150
g2116
sg123
NsS'_offset'
p2151
(I0
I0
tp2152
sg1915
Nsg2001
Nsg34
Nsbsg8
I01
sS'_fontsize'
p2153
F10.0
sg10
NsS'_draggable'
p2154
Nsg11
NsS'columnspacing'
p2155
F2.0
sg12
(lp2156
g0
(g2076
g2
Ntp2157
Rp2158
(dp2159
g6
g7
sg8
I01
sg9
g4
sg10
Nsg2080
g0
(g2081
g2
Ntp2160
Rp2161
(dp2162
g2085
(lp2163
g2087
asg2088
Nsg2089
g2090
sg2091
g2090
sg2092
F10.0
sg2093
g2090
sg2094
g2090
sbsg35
Nsg17
g18
sg2095
Nsg20
I01
sg23
Nsg85
I0
sg504
I0
sg24
Nsg25
Nsg11
Nsg28
I00
sg29
I00
sg30
(dp2164
sg2097
Nsg32
I00
sg2002
Nsg36
Nsg2001
Nsg2098
Nsg33
Nsg1827
Nsg1829
I01
sg2099
g2100
sg2101
VControl
p2165
sg2103
Nsg1831
g0
(g1832
g1833
((lp2166
(lp2167
tp2168
tp2169
Rp2170
sg1839
I0
sg2109
Nsg1845
I01
sg1846
Nsg2110
F1.2
sg123
g0
(g1972
g2
Ntp2171
Rp2172
(dp2173
g46
I1
sg79
I2
sg47
Nsg64
g7
sg48
Nsg65
(dp2174
sg188
I2
sg189
g0
(g42
g2
Ntp2175
Rp2176
(dp2177
g46
I0
sg47
Nsg48
g49
(g50
(I0
tp2178
g52
tp2179
Rp2180
(I1
(I3
I3
tp2181
g59
I00
S'\x00\x00\x00\x00\x00\x00\xf0?\x00\x00\x00\x00\x00\x00\x00\x00\x00\x00\x00\x00\x00\x00\x00\x00\x00\x00\x00\x00\x00\x00\x00\x00\x00\x00\x00\x00\x00\x00\xf0?\x00\x00\x00\x00\x00\x00\x00\x00\x00\x00\x00\x00\x00\x00\x00\x00\x00\x00\x00\x00\x00\x00\x00\x00\x00\x00\x00\x00\x00\x00\xf0?'
p2182
tp2183
bsg64
g7
sg65
(dp2184
I140468197976016
g2172
ssbsg80
g0
(g42
g2
Ntp2185
Rp2186
(dp2187
g46
I2
sg47
Nsg48
g49
(g50
(I0
tp2188
g52
tp2189
Rp2190
(I1
(I3
I3
tp2191
g59
I00
S'\x00\x00\x00\x00\x00\x00\xf0?\x00\x00\x00\x00\x00\x00\x00\x00\x00\x00\x00\x00\x00\x00\x00\x00\x00\x00\x00\x00\x00\x00\x00\x00\x00\x00\x00\x00\x00\x00\xf0?\x00\x00\x00\x00\x00\x00\x00\x00\x00\x00\x00\x00\x00\x00\x00\x00\x00\x00\x00\x00\x00\x00\x00\x00\x00\x00\x00\x00\x00\x00\xf0?'
p2192
tp2193
bsg64
g7
sg65
(dp2194
I140468197976016
g2172
ssbsbsg2135
I00
sg2136
I00
sg1915
Nsg2137
g2138
sg2139
Vleft
p2195
sg34
Nsbag0
(g2076
g2
Ntp2196
Rp2197
(dp2198
g6
g7
sg8
I01
sg9
g4
sg10
Nsg2080
g2161
sg35
Nsg17
g18
sg2095
Nsg20
I01
sg23
Nsg85
I0
sg504
I0
sg24
Nsg25
Nsg11
Nsg28
I00
sg29
I00
sg30
(dp2199
sg2097
Nsg32
I00
sg2002
Nsg36
Nsg2001
Nsg2098
Nsg33
Nsg1827
Nsg1829
I01
sg2099
g2100
sg2101
VGABAzine
p2200
sg2103
Nsg1831
g0
(g1832
g1833
((lp2201
(lp2202
tp2203
tp2204
Rp2205
sg1839
I0
sg2109
Nsg1845
I01
sg1846
Nsg2110
F1.2
sg123
g0
(g1972
g2
Ntp2206
Rp2207
(dp2208
g46
I1
sg79
I2
sg47
Nsg64
g7
sg48
Nsg65
(dp2209
sg188
I2
sg189
g0
(g42
g2
Ntp2210
Rp2211
(dp2212
g46
I0
sg47
Nsg48
g49
(g50
(I0
tp2213
g52
tp2214
Rp2215
(I1
(I3
I3
tp2216
g59
I00
S'\x00\x00\x00\x00\x00\x00\xf0?\x00\x00\x00\x00\x00\x00\x00\x00\x00\x00\x00\x00\x00\x00\x00\x00\x00\x00\x00\x00\x00\x00\x00\x00\x00\x00\x00\x00\x00\x00\xf0?\x00\x00\x00\x00\x00\x00\x00\x00\x00\x00\x00\x00\x00\x00\x00\x00\x00\x00\x00\x00\x00\x00\x00\x00\x00\x00\x00\x00\x00\x00\xf0?'
p2217
tp2218
bsg64
g7
sg65
(dp2219
I140468194619088
g2207
ssbsg80
g0
(g42
g2
Ntp2220
Rp2221
(dp2222
g46
I2
sg47
Nsg48
g49
(g50
(I0
tp2223
g52
tp2224
Rp2225
(I1
(I3
I3
tp2226
g59
I00
S'\x00\x00\x00\x00\x00\x00\xf0?\x00\x00\x00\x00\x00\x00\x00\x00\x00\x00\x00\x00\x00\x00\x00\x00\x00\x00\x00\x00\x00\x00\x00\x00\x00\x00\x00\x00\x00\x00\xf0?\x00\x00\x00\x00\x00\x00\x00\x00\x00\x00\x00\x00\x00\x00\x00\x00\x00\x00\x00\x00\x00\x00\x00\x00\x00\x00\x00\x00\x00\x00\xf0?'
p2227
tp2228
bsg64
g7
sg65
(dp2229
I140468194619088
g2207
ssbsbsg2135
I00
sg2136
I00
sg1915
Nsg2137
g2138
sg2139
g2195
sg34
NsbasS'handletextpad'
p2230
F0.8
sS'borderaxespad'
p2231
F0.5
sg17
g18
sS'_legend_handle_box'
p2232
g0
(cmatplotlib.offsetbox
HPacker
p2233
g2
Ntp2234
Rp2235
(dp2236
g6
g7
sg8
I01
sg9
g4
sg2074
(lp2237
g0
(cmatplotlib.offsetbox
VPacker
p2238
g2
Ntp2239
Rp2240
(dp2241
g6
g7
sg8
I01
sg9
g4
sg2074
(lp2242
g0
(g2233
g2
Ntp2243
Rp2244
(dp2245
g6
g7
sg8
I01
sg9
g4
sg2074
(lp2246
g0
(cmatplotlib.offsetbox
DrawingArea
p2247
g2
Ntp2248
Rp2249
(dp2250
g6
g7
sg8
I01
sg9
g4
sg2074
(lp2251
g1910
asg10
NsS'height'
p2252
F7.0
sg35
Nsg17
g18
sg20
I00
sg23
Nsg24
Nsg25
NsS'dpi_transform'
p2253
g1988
sg11
NsS'_clip_children'
p2254
I00
sg28
I00
sS'width'
p2255
F20.0
sg29
I00
sg30
(dp2256
sg32
I00
sg2002
Nsg36
NsS'ydescent'
p2257
F0.0
sg33
Nsg1827
Nsg1829
I01
sg1831
g0
(g1832
g1833
((lp2258
(lp2259
tp2260
tp2261
Rp2262
sg1839
I0
sg2149
g1978
sg1845
I00
sg1846
Nsg123
Nsg2151
g2152
sS'xdescent'
p2263
F0.0
sg1915
Nsg2001
Nsg34
Nsbag0
(g2070
g2
Ntp2264
Rp2265
(dp2266
g6
g7
sg8
I01
sg9
g4
sg2074
(lp2267
g2158
asg2101
g2158
sg10
Nsg35
Nsg2141
I01
sg17
g18
sg20
I00
sg23
Nsg24
Nsg25
Nsg11
Nsg28
I00
sg2002
Nsg30
(dp2268
sg32
I00
sg29
I00
sg36
Nsg33
Nsg1827
Nsg1829
I01
sg2143
I01
sg1831
g0
(g1832
g1833
((lp2269
(lp2270
tp2271
tp2272
Rp2273
sg1839
I0
sg2149
g2186
sg1845
I00
sg1846
Nsg2150
g2176
sg123
Nsg2151
g2152
sg1915
Nsg2001
Nsg34
Nsbasg10
Nsg2252
Nsg35
Nsg17
g18
sg20
I00
sg23
Nsg24
Nsg25
NsS'sep'
p2274
F8.0
sg11
Nsg28
I00
sg2255
NsS'pad'
p2275
I0
sg29
I00
sg30
(dp2276
sg32
I00
sg2002
Nsg36
Nsg33
Nsg1827
Nsg1829
I01
sg1831
g0
(g1832
g1833
((lp2277
(lp2278
tp2279
tp2280
Rp2281
sg1839
I0
sg1845
I00
sg1846
NsS'align'
p2282
Vbaseline
p2283
sg123
Nsg2151
g2152
sg1915
Nsg2001
NsS'mode'
p2284
Vfixed
p2285
sg34
Nsbag0
(g2233
g2
Ntp2286
Rp2287
(dp2288
g6
g7
sg8
I01
sg9
g4
sg2074
(lp2289
g0
(g2247
g2
Ntp2290
Rp2291
(dp2292
g6
g7
sg8
I01
sg9
g4
sg2074
(lp2293
g2004
asg10
Nsg2252
F7.0
sg35
Nsg17
g18
sg20
I00
sg23
Nsg24
Nsg25
Nsg2253
g2059
sg11
Nsg2254
I00
sg28
I00
sg2255
F20.0
sg29
I00
sg30
(dp2294
sg32
I00
sg2002
Nsg36
Nsg2257
F0.0
sg33
Nsg1827
Nsg1829
I01
sg1831
g0
(g1832
g1833
((lp2295
(lp2296
tp2297
tp2298
Rp2299
sg1839
I0
sg2149
g2049
sg1845
I00
sg1846
Nsg123
Nsg2151
g2152
sg2263
F0.0
sg1915
Nsg2001
Nsg34
Nsbag0
(g2070
g2
Ntp2300
Rp2301
(dp2302
g6
g7
sg8
I01
sg9
g4
sg2074
(lp2303
g2197
asg2101
g2197
sg10
Nsg35
Nsg2141
I00
sg17
g18
sg20
I00
sg23
Nsg24
Nsg25
Nsg11
Nsg28
I00
sg2002
Nsg30
(dp2304
sg32
I00
sg29
I00
sg36
Nsg33
Nsg1827
Nsg1829
I01
sg2143
I01
sg1831
g0
(g1832
g1833
((lp2305
(lp2306
tp2307
tp2308
Rp2309
sg1839
I0
sg2149
g2221
sg1845
I00
sg1846
Nsg2150
g2211
sg123
Nsg2151
g2152
sg1915
Nsg2001
Nsg34
Nsbasg10
Nsg2252
Nsg35
Nsg17
g18
sg20
I00
sg23
Nsg24
Nsg25
Nsg2274
F8.0
sg11
Nsg28
I00
sg2255
Nsg2275
I0
sg29
I00
sg30
(dp2310
sg32
I00
sg2002
Nsg36
Nsg33
Nsg1827
Nsg1829
I01
sg1831
g0
(g1832
g1833
((lp2311
(lp2312
tp2313
tp2314
Rp2315
sg1839
I0
sg1845
I00
sg1846
Nsg2282
g2283
sg123
Nsg2151
g2152
sg1915
Nsg2001
Nsg2284
g2285
sg34
Nsbasg10
Nsg2252
Nsg35
Nsg17
g18
sg20
I00
sg23
Nsg24
Nsg25
Nsg2274
F5.0
sg11
Nsg28
I00
sg2255
Nsg2275
I0
sg29
I00
sg30
(dp2316
sg32
I00
sg2002
Nsg36
Nsg33
Nsg1827
Nsg1829
I01
sg1831
g0
(g1832
g1833
((lp2317
(lp2318
tp2319
tp2320
Rp2321
sg1839
I0
sg1845
I00
sg1846
Nsg2282
g2283
sg123
Nsg2151
g2152
sg1915
Nsg2001
Nsg2284
Vfixed
p2322
sg34
Nsbasg10
Nsg2252
Nsg35
Nsg17
g18
sg20
I00
sg23
Nsg24
Nsg25
Nsg2274
F20.0
sg11
Nsg28
I00
sg2255
Nsg2275
I0
sg29
I00
sg30
(dp2323
sg32
I00
sg2002
Nsg36
Nsg33
Nsg1827
Nsg1829
I01
sg1831
g0
(g1832
g1833
((lp2324
(lp2325
tp2326
tp2327
Rp2328
sg1839
I0
sg1845
I00
sg1846
Nsg2282
g2283
sg123
Nsg2151
g2152
sg1915
Nsg2001
Nsg2284
Vfixed
p2329
sg34
Nsbsg20
I01
sg28
I00
sg23
Nsg24
Nsg25
NsS'_mode'
p2330
NsS'numpoints'
p2331
I1
sS'_bbox_to_anchor'
p2332
NsS'prop'
p2333
g2161
sS'_scatteryoffsets'
p2334
g49
(g50
(I0
tp2335
g52
tp2336
Rp2337
(I1
(I1
tp2338
g59
I00
S'\x00\x00\x00\x00\x00\x00\xd8?'
p2339
tp2340
bsS'_custom_handler_map'
p2341
Nsg29
I00
sg30
(dp2342
sS'_drawFrame'
p2343
I00
sg32
I00
sS'handlelength'
p2344
F2.0
sg2002
g1888
sg35
Nsg36
NsS'parent'
p2345
g1888
sS'legendPatch'
p2346
g0
(cmatplotlib.patches
FancyBboxPatch
p2347
g2
Ntp2348
Rp2349
(dp2350
g6
g7
sg1913
F1.0
sg1914
I01
sg9
g4
sS'_mutation_aspect'
p2351
Nsg10
Nsg35
Nsg17
g18
sg1965
g1966
sg1915
Nsg20
I01
sg1916
g0
(g499
g2
Ntp2352
Rp2353
(dp2354
g46
I1
sg47
Nsg64
g7
sg65
(dp2355
sbsg1921
(F0.8
F0.8
F0.8
F0.8
tp2356
sg23
Nsg85
F0.0
sg504
F0.0
sg24
Nsg1937
V0.8
p2357
sg11
Nsg28
I00
sg29
I00
sg30
(dp2358
sg32
I00
sg1944
Nsg1829
I01
sg1945
F1.0
sg36
Nsg1946
F1.0
sg33
Nsg1947
g2356
sg1948
Nsg1949
I01
sg1950
Nsg1951
Vwhite
p2359
sg1827
I01
sg1952
(F1.0
F1.0
F1.0
F0.8
tp2360
sg1963
g1964
sS'_bbox_transmuter'
p2361
g0
(cmatplotlib.cbook
_NestedClassGetter
p2362
g2
Ntp2363
Rp2364
(cmatplotlib.patches
BoxStyle
p2365
S'Round'
p2366
tp2367
Rp2368
(dp2369
S'rounding_size'
p2370
F0.2
sg2275
I0
sbsS'_mutation_scale'
p2371
F10.0
sg1831
g0
(g1832
g1833
((lp2372
(lp2373
tp2374
tp2375
Rp2376
sg1839
I0
sg1845
I01
sg1846
F0.8
sg123
g0
(g499
g2
Ntp2377
Rp2378
(dp2379
g46
I1
sg47
Nsg64
g7
sg65
(dp2380
sbsg8
I01
sg1997
(NNtp2381
sg1999
g2000
sg2001
Nsg25
Nsg2002
g1888
sg34
Nsbsg33
NsS'scatterpoints'
p2382
I1
sS'labelspacing'
p2383
F0.5
sg1827
Nsg1829
I01
sS'_legend_box'
p2384
g0
(g2238
g2
Ntp2385
Rp2386
(dp2387
g6
g7
sg8
I01
sg9
g4
sg2074
(lp2388
g2072
ag2235
asg10
Nsg2252
Nsg35
Nsg17
g18
sg20
I00
sg23
Nsg24
Nsg25
Nsg2274
F5.0
sg11
Nsg28
I00
sg2255
Nsg2275
F4.0
sg29
I00
sg30
(dp2389
sg32
I00
sg2002
Nsg36
Nsg33
Nsg1827
Nsg1829
I01
sg1831
g0
(g1832
g1833
((lp2390
(lp2391
tp2392
tp2393
Rp2394
sg1839
I0
sg1845
I00
sg1846
Nsg2282
Vcenter
p2395
sg123
Nsg2151
g0
(cmatplotlib.cbook
_InstanceMethodPickler
p2396
g2
Ntp2397
Rp2398
(dp2399
S'parent_obj'
p2400
g1903
sS'instancemethod_name'
p2401
S'_findoffset'
p2402
sbsg1915
Nsg2001
Nsg2284
g2322
sg34
NsbsS'shadow'
p2403
I00
sg1831
g0
(g1832
g1833
((lp2404
(lp2405
tp2406
tp2407
Rp2408
sg1839
I0
sg1846
NsS'isaxes'
p2409
I01
sS'handleheight'
p2410
F0.7
sg1845
I00
sS'_last_fontsize_points'
p2411
F10.0
sS'borderpad'
p2412
F0.4
sS'_ncol'
p2413
I1
sg123
g2378
sS'_loc_real'
p2414
I0
sg1915
Nsg2001
Nsg34
Nsbsg12
(lp2415
sS'_frameon'
p2416
I01
sS'_autoscaleYon'
p2417
I01
sg14
I01
sg15
(lp2418
sg20
I01
sS'tables'
p2419
(lp2420
sg1840
(lp2421
g0
(cmatplotlib.patches
Polygon
p2422
g2
Ntp2423
Rp2424
(dp2425
g6
g1912
sg8
I01
sg1914
I00
sg9
g4
sS'_closed'
p2426
I00
sg10
Nsg35
Nsg17
g18
sg1915
Nsg20
I01
sg1916
g0
(g499
g2
Ntp2427
Rp2428
(dp2429
g46
I1
sg47
Nsg64
g7
sg65
(dp2430
sbsg1921
g1935
sg23
Nsg24
Nsg1937
g49
(g50
(I0
tp2431
g52
tp2432
Rp2433
(I1
(I4
tp2434
g59
I00
S'\x10\x10\x10\x10\x10\x10\xe0?\x10\x10\x10\x10\x10\x10\xe0?\x10\x10\x10\x10\x10\x10\xe0?\x00\x00\x00\x00\x00\x00\xf0?'
p2435
tp2436
bsg11
Nsg28
I00
sg29
I00
sg30
(dp2437
sg32
I00
sg1944
Nsg1829
I01
sg1945
F1.0
sg36
g1729
sg33
Nsg1947
g1935
sg1948
Nsg1949
I01
sg1950
Nsg1951
g2433
sg1827
Nsg1952
g1962
sg1963
g1964
sg1965
g1966
sg1831
g0
(g1832
g1833
((lp2438
(lp2439
I0
atp2440
tp2441
Rp2442
sg1839
I0
sg1845
I01
sg1846
Nsg123
g442
sg1997
g1998
sg1999
g2000
sg2001
Nsg25
Nsg2002
g1888
sg34
NsS'_path'
p2443
g0
(cmatplotlib.path
Path
p2444
g2
Ntp2445
Rp2446
(dp2447
S'_should_simplify'
p2448
I00
sS'_codes'
p2449
NsS'_vertices'
p2450
g49
(g50
(I0
tp2451
g52
tp2452
Rp2453
(I1
(I60
I2
tp2454
g59
I00
S'\x82\xdf4\x8d\xc6\x01\xa6?\x00\x00\x00\x00\x00\x00\x00\x00\x82\xdf4\x8d\xc6\x01\xa6?\x00\x00\x00\x00\x00\x00 @\xaa0[\xbe\xe9\xeb\xdd?\x00\x00\x00\x00\x00\x00 @\xaa0[\xbe\xe9\xeb\xdd?\x00\x00\x00\x00\x00\x80H@\xb2\xe2\x87U\xcd\x8b\xec?\x00\x00\x00\x00\x00\x80H@\xb2\xe2\x87U\xcd\x8b\xec?\x00\x00\x00\x00\x00\x00@@\x88\x16\xf1\xe5\xd2\x10\xf5?\x00\x00\x00\x00\x00\x00@@\x88\x16\xf1\xe5\xd2\x10\xf5?\x00\x00\x00\x00\x00\x004@\xb6;\x1e!\xbf\xdb\xfb?\x00\x00\x00\x00\x00\x004@\xb6;\x1e!\xbf\xdb\xfb?\x00\x00\x00\x00\x00\x00<@r\xb0%\xaeUS\x01@\x00\x00\x00\x00\x00\x00<@r\xb0%\xaeUS\x01@\x00\x00\x00\x00\x00\x002@\nC\xbc\xcb\xcb\xb8\x04@\x00\x00\x00\x00\x00\x002@\nC\xbc\xcb\xcb\xb8\x04@\x00\x00\x00\x00\x00\x008@\xa1\xd5R\xe9A\x1e\x08@\x00\x00\x00\x00\x00\x008@\xa1\xd5R\xe9A\x1e\x08@\x00\x00\x00\x00\x00\x00;@8h\xe9\x06\xb8\x83\x0b@\x00\x00\x00\x00\x00\x00;@8h\xe9\x06\xb8\x83\x0b@\x00\x00\x00\x00\x00\x00B@\xcf\xfa\x7f$.\xe9\x0e@\x00\x00\x00\x00\x00\x00B@\xcf\xfa\x7f$.\xe9\x0e@\x00\x00\x00\x00\x00\x003@\xb3F\x0b!R\'\x11@\x00\x00\x00\x00\x00\x003@\xb3F\x0b!R\'\x11@\x00\x00\x00\x00\x00\x001@\xff\x8f\xd6/\r\xda\x12@\x00\x00\x00\x00\x00\x001@\xff\x8f\xd6/\r\xda\x12@\x00\x00\x00\x00\x00\x006@K\xd9\xa1>\xc8\x8c\x14@\x00\x00\x00\x00\x00\x006@K\xd9\xa1>\xc8\x8c\x14@\x00\x00\x00\x00\x00\x004@\x96"mM\x83?\x16@\x00\x00\x00\x00\x00\x004@\x96"mM\x83?\x16@\x00\x00\x00\x00\x00\x00"@\xe2k8\\>\xf2\x17@\x00\x00\x00\x00\x00\x00"@\xe2k8\\>\xf2\x17@\x00\x00\x00\x00\x00\x000@-\xb5\x03k\xf9\xa4\x19@\x00\x00\x00\x00\x00\x000@-\xb5\x03k\xf9\xa4\x19@\x00\x00\x00\x00\x00\x00*@y\xfe\xcey\xb4W\x1b@\x00\x00\x00\x00\x00\x00*@y\xfe\xcey\xb4W\x1b@\x00\x00\x00\x00\x00\x00\x10@\xc5G\x9a\x88o\n\x1d@\x00\x00\x00\x00\x00\x00\x10@\xc5G\x9a\x88o\n\x1d@\x00\x00\x00\x00\x00\x00"@\x10\x91e\x97*\xbd\x1e@\x00\x00\x00\x00\x00\x00"@\x10\x91e\x97*\xbd\x1e@\x00\x00\x00\x00\x00\x00(@.m\x18\xd3\xf27 @\x00\x00\x00\x00\x00\x00(@.m\x18\xd3\xf27 @\x00\x00\x00\x00\x00\x00\x10@\xd4\x11~ZP\x11!@\x00\x00\x00\x00\x00\x00\x10@\xd4\x11~ZP\x11!@\x00\x00\x00\x00\x00\x00\x1c@z\xb6\xe3\xe1\xad\xea!@\x00\x00\x00\x00\x00\x00\x1c@z\xb6\xe3\xe1\xad\xea!@\x00\x00\x00\x00\x00\x00\x08@ [Ii\x0b\xc4"@\x00\x00\x00\x00\x00\x00\x08@ [Ii\x0b\xc4"@\x00\x00\x00\x00\x00\x00\x00@\xc6\xff\xae\xf0h\x9d#@\x00\x00\x00\x00\x00\x00\x00@\xc6\xff\xae\xf0h\x9d#@\x00\x00\x00\x00\x00\x00\xf0?l\xa4\x14x\xc6v$@\x00\x00\x00\x00\x00\x00\xf0?l\xa4\x14x\xc6v$@\x00\x00\x00\x00\x00\x00\x00@\x11Iz\xff#P%@\x00\x00\x00\x00\x00\x00\x00@\x11Iz\xff#P%@\x00\x00\x00\x00\x00\x00\x00\x00\xb7\xed\xdf\x86\x81)&@\x00\x00\x00\x00\x00\x00\x00\x00\xb7\xed\xdf\x86\x81)&@\x00\x00\x00\x00\x00\x00\x00\x00]\x92E\x0e\xdf\x02\'@\x00\x00\x00\x00\x00\x00\x00\x00]\x92E\x0e\xdf\x02\'@\x00\x00\x00\x00\x00\x00\x00\x00\x037\xab\x95<\xdc\'@\x00\x00\x00\x00\x00\x00\x00\x00\x037\xab\x95<\xdc\'@\x00\x00\x00\x00\x00\x00\x00\x00\xa9\xdb\x10\x1d\x9a\xb5(@\x00\x00\x00\x00\x00\x00\x00\x00\xa9\xdb\x10\x1d\x9a\xb5(@\x00\x00\x00\x00\x00\x00\x00\x00'
p2455
tp2456
bsS'_readonly'
p2457
I00
sS'_simplify_threshold'
p2458
F0.1111111111111111
sS'_interpolation_steps'
p2459
I1
sS'_has_nonfinite'
p2460
I00
sbsbag0
(g2422
g2
Ntp2461
Rp2462
(dp2463
g6
g2006
sg8
I01
sg1914
I00
sg9
g4
sg2426
I00
sg10
Nsg35
Nsg17
g18
sg1915
Nsg20
I01
sg1916
g0
(g499
g2
Ntp2464
Rp2465
(dp2466
g46
I1
sg47
Nsg64
g7
sg65
(dp2467
sbsg1921
g2023
sg23
Nsg24
Nsg1937
g49
(g50
(I0
tp2468
g52
tp2469
Rp2470
(I1
(I4
tp2471
g59
I00
S'\x00\x00\x00\x00\x00\x00\xf0?\x00\x00\x00\x00\x00\x00\x00\x00\x00\x00\x00\x00\x00\x00\x00\x00\x00\x00\x00\x00\x00\x00\xf0?'
p2472
tp2473
bsg11
Nsg28
I00
sg29
I00
sg30
(dp2474
sg32
I00
sg1944
Nsg1829
I01
sg1945
F1.0
sg36
g203
sg33
Nsg1947
g2023
sg1948
Nsg1949
I01
sg1950
Nsg1951
g2470
sg1827
Nsg1952
g2038
sg1963
g1964
sg1965
g1966
sg1831
g0
(g1832
g1833
((lp2475
(lp2476
I0
atp2477
tp2478
Rp2479
sg1839
I0
sg1845
I01
sg1846
Nsg123
g442
sg1997
g2068
sg1999
g2000
sg2001
Nsg25
Nsg2002
g1888
sg34
Nsg2443
g0
(g2444
g2
Ntp2480
Rp2481
(dp2482
g2448
I00
sg2449
Nsg2450
g49
(g50
(I0
tp2483
g52
tp2484
Rp2485
(I1
(I60
I2
tp2486
g59
I00
S'\x82\xdf4\x8d\xc6\x01\xa6?\x00\x00\x00\x00\x00\x00\x00\x00\x82\xdf4\x8d\xc6\x01\xa6?\x00\x00\x00\x00\x00\x00\x00\x00\xaa0[\xbe\xe9\xeb\xdd?\x00\x00\x00\x00\x00\x00\x00\x00\xaa0[\xbe\xe9\xeb\xdd?\x00\x00\x00\x00\x00\x00\xf0?\xb2\xe2\x87U\xcd\x8b\xec?\x00\x00\x00\x00\x00\x00\xf0?\xb2\xe2\x87U\xcd\x8b\xec?\x00\x00\x00\x00\x00\x00&@\x88\x16\xf1\xe5\xd2\x10\xf5?\x00\x00\x00\x00\x00\x00&@\x88\x16\xf1\xe5\xd2\x10\xf5?\x00\x00\x00\x00\x00\x00<@\xb6;\x1e!\xbf\xdb\xfb?\x00\x00\x00\x00\x00\x00<@\xb6;\x1e!\xbf\xdb\xfb?\x00\x00\x00\x00\x00\x00;@r\xb0%\xaeUS\x01@\x00\x00\x00\x00\x00\x00;@r\xb0%\xaeUS\x01@\x00\x00\x00\x00\x00\x006@\nC\xbc\xcb\xcb\xb8\x04@\x00\x00\x00\x00\x00\x006@\nC\xbc\xcb\xcb\xb8\x04@\x00\x00\x00\x00\x00\x003@\xa1\xd5R\xe9A\x1e\x08@\x00\x00\x00\x00\x00\x003@\xa1\xd5R\xe9A\x1e\x08@\x00\x00\x00\x00\x00\x001@8h\xe9\x06\xb8\x83\x0b@\x00\x00\x00\x00\x00\x001@8h\xe9\x06\xb8\x83\x0b@\x00\x00\x00\x00\x00\x00,@\xcf\xfa\x7f$.\xe9\x0e@\x00\x00\x00\x00\x00\x00,@\xcf\xfa\x7f$.\xe9\x0e@\x00\x00\x00\x00\x00\x00.@\xb3F\x0b!R\'\x11@\x00\x00\x00\x00\x00\x00.@\xb3F\x0b!R\'\x11@\x00\x00\x00\x00\x00\x001@\xff\x8f\xd6/\r\xda\x12@\x00\x00\x00\x00\x00\x001@\xff\x8f\xd6/\r\xda\x12@\x00\x00\x00\x00\x00\x004@K\xd9\xa1>\xc8\x8c\x14@\x00\x00\x00\x00\x00\x004@K\xd9\xa1>\xc8\x8c\x14@\x00\x00\x00\x00\x00\x00;@\x96"mM\x83?\x16@\x00\x00\x00\x00\x00\x00;@\x96"mM\x83?\x16@\x00\x00\x00\x00\x00\x004@\xe2k8\\>\xf2\x17@\x00\x00\x00\x00\x00\x004@\xe2k8\\>\xf2\x17@\x00\x00\x00\x00\x00\x002@-\xb5\x03k\xf9\xa4\x19@\x00\x00\x00\x00\x00\x002@-\xb5\x03k\xf9\xa4\x19@\x00\x00\x00\x00\x00\x003@y\xfe\xcey\xb4W\x1b@\x00\x00\x00\x00\x00\x003@y\xfe\xcey\xb4W\x1b@\x00\x00\x00\x00\x00\x001@\xc5G\x9a\x88o\n\x1d@\x00\x00\x00\x00\x00\x001@\xc5G\x9a\x88o\n\x1d@\x00\x00\x00\x00\x00\x00"@\x10\x91e\x97*\xbd\x1e@\x00\x00\x00\x00\x00\x00"@\x10\x91e\x97*\xbd\x1e@\x00\x00\x00\x00\x00\x00\x10@.m\x18\xd3\xf27 @\x00\x00\x00\x00\x00\x00\x10@.m\x18\xd3\xf27 @\x00\x00\x00\x00\x00\x00\x1c@\xd4\x11~ZP\x11!@\x00\x00\x00\x00\x00\x00\x1c@\xd4\x11~ZP\x11!@\x00\x00\x00\x00\x00\x00\x14@z\xb6\xe3\xe1\xad\xea!@\x00\x00\x00\x00\x00\x00\x14@z\xb6\xe3\xe1\xad\xea!@\x00\x00\x00\x00\x00\x00\x08@ [Ii\x0b\xc4"@\x00\x00\x00\x00\x00\x00\x08@ [Ii\x0b\xc4"@\x00\x00\x00\x00\x00\x00\xf0?\xc6\xff\xae\xf0h\x9d#@\x00\x00\x00\x00\x00\x00\xf0?\xc6\xff\xae\xf0h\x9d#@\x00\x00\x00\x00\x00\x00\x14@l\xa4\x14x\xc6v$@\x00\x00\x00\x00\x00\x00\x14@l\xa4\x14x\xc6v$@\x00\x00\x00\x00\x00\x00\xf0?\x11Iz\xff#P%@\x00\x00\x00\x00\x00\x00\xf0?\x11Iz\xff#P%@\x00\x00\x00\x00\x00\x00\xf0?\xb7\xed\xdf\x86\x81)&@\x00\x00\x00\x00\x00\x00\xf0?\xb7\xed\xdf\x86\x81)&@\x00\x00\x00\x00\x00\x00\xf0?]\x92E\x0e\xdf\x02\'@\x00\x00\x00\x00\x00\x00\xf0?]\x92E\x0e\xdf\x02\'@\x00\x00\x00\x00\x00\x00\x00\x00\x037\xab\x95<\xdc\'@\x00\x00\x00\x00\x00\x00\x00\x00\x037\xab\x95<\xdc\'@\x00\x00\x00\x00\x00\x00\x00@\xa9\xdb\x10\x1d\x9a\xb5(@\x00\x00\x00\x00\x00\x00\x00@\xa9\xdb\x10\x1d\x9a\xb5(@\x00\x00\x00\x00\x00\x00\x00\x00'
p2487
tp2488
bsg2457
I00
sg2458
F0.1111111111111111
sg2459
I1
sg2460
I00
sbsbasS'title'
p2489
g0
(g2076
g2
Ntp2490
Rp2491
(dp2492
g6
g7
sg8
I01
sg9
g4
sg10
Nsg2080
g0
(g2081
g2
Ntp2493
Rp2494
(dp2495
g2085
(lp2496
g2087
asg2088
Nsg2089
g2090
sg2091
g2090
sg2092
F12.0
sg2093
g2090
sg2094
g2090
sbsg35
Nsg17
g18
sg2095
Nsg20
I01
sg23
Nsg85
F1.0
sg504
F0.5
sg24
Nsg25
Nsg11
Nsg28
I00
sg29
I00
sg30
(dp2497
sg2097
Nsg32
I00
sg2002
g1888
sg36
Nsg2001
Nsg2098
Nsg33
Nsg1827
Nsg1829
I01
sg2099
Vbaseline
p2498
sg2101
V
p2499
sg2103
Nsg1831
g0
(g1832
g1833
((lp2500
(lp2501
tp2502
tp2503
Rp2504
sg1839
I0
sg2109
Nsg1845
I01
sg1846
Nsg2110
F1.2
sg123
g602
sg2135
I00
sg2136
I00
sg1915
Nsg2137
g2138
sg2139
Vcenter
p2505
sg34
NsbsS'_current_image'
p2506
NsS'mouseover_set'
p2507
c__builtin__
set
p2508
((lp2509
tp2510
Rp2511
sg11
NsS'numRows'
p2512
I1
sS'collections'
p2513
(lp2514
sg2002
g1888
sg30
(dp2515
sg32
I00
sS'containers'
p2516
(lp2517
sg29
I00
sg36
NsS'_get_lines'
p2518
g0
(g1892
g2
Ntp2519
Rp2520
(dp2521
g1896
g1888
sg1897
Vplot
p2522
sbsS'_aspect'
p2523
Vauto
p2524
sS'fmt_xdata'
p2525
Nsg1820
g0
(g1821
g2
Ntp2526
Rp2527
(dp2528
g1825
g1826
sbsg1827
Nsg1952
g2359
sg1829
I01
sg1830
g93
sS'ignore_existing_data_limits'
p2529
I00
sg24
Nsg1839
I0
sg1845
I00
sS'_left_title'
p2530
g0
(g2076
g2
Ntp2531
Rp2532
(dp2533
g6
g7
sg8
I01
sg9
g4
sg10
Nsg2080
g0
(g2081
g2
Ntp2534
Rp2535
(dp2536
g2085
g2496
sg2088
Nsg2089
g2090
sg2091
g2090
sg2092
F12.0
sg2093
g2090
sg2094
g2090
sbsg35
Nsg17
g18
sg2095
Nsg20
I01
sg23
Nsg85
F1.0
sg504
F0.0
sg24
Nsg25
Nsg11
Nsg28
I00
sg29
I00
sg30
(dp2537
sg2097
Nsg32
I00
sg2002
g1888
sg36
Nsg2001
Nsg2098
Nsg33
Nsg1827
Nsg1829
I01
sg2099
Vbaseline
p2538
sg2101
V
p2539
sg2103
Nsg1831
g0
(g1832
g1833
((lp2540
(lp2541
tp2542
tp2543
Rp2544
sg1839
I0
sg2109
Nsg1845
I01
sg1846
Nsg2110
F1.2
sg123
g606
sg2135
I00
sg2136
I00
sg1915
Nsg2137
g2138
sg2139
Vleft
p2545
sg34
NsbsS'_right_title'
p2546
g0
(g2076
g2
Ntp2547
Rp2548
(dp2549
g6
g7
sg8
I01
sg9
g4
sg10
Nsg2080
g0
(g2081
g2
Ntp2550
Rp2551
(dp2552
g2085
g2496
sg2088
Nsg2089
g2090
sg2091
g2090
sg2092
F12.0
sg2093
g2090
sg2094
g2090
sbsg35
Nsg17
g18
sg2095
Nsg20
I01
sg23
Nsg85
F1.0
sg504
F1.0
sg24
Nsg25
Nsg11
Nsg28
I00
sg29
I00
sg30
(dp2553
sg2097
Nsg32
I00
sg2002
g1888
sg36
Nsg2001
Nsg2098
Nsg33
Nsg1827
Nsg1829
I01
sg2099
g2538
sg2101
V
p2554
sg2103
Nsg1831
g0
(g1832
g1833
((lp2555
(lp2556
tp2557
tp2558
Rp2559
sg1839
I0
sg2109
Nsg1845
I01
sg1846
Nsg2110
F1.2
sg123
g594
sg2135
I00
sg2136
I00
sg1915
Nsg2137
g2138
sg2139
Vright
p2560
sg34
NsbsS'transScale'
p2561
g446
sg123
NsS'axison'
p2562
I01
sS'patch'
p2563
g0
(g1908
g2
Ntp2564
Rp2565
(dp2566
g6
g7
sg1913
F1.0
sg1914
I01
sg9
g4
sg8
I01
sg10
Nsg35
Nsg17
g18
sg1915
Nsg20
I01
sg1916
g0
(g499
g2
Ntp2567
Rp2568
(dp2569
g46
I1
sg47
Nsg64
g7
sg65
(dp2570
sbsg1921
(F0.0
F0.0
F0.0
F0.0
tp2571
sg1936
F0.0
sg23
Nsg85
F0.0
sg504
F0.0
sg24
Nsg1937
VNone
p2572
sg11
Nsg28
I00
sg29
I00
sg30
(dp2573
sg1939
g160
sg32
I00
sg1944
Nsg1829
I01
sg1945
F0.0
sg36
Nsg1946
F1.0
sg33
Nsg1947
g2571
sg1948
Nsg1949
I01
sg1950
Nsg1951
g2359
sg1827
Nsg1952
(F1.0
F1.0
F1.0
F1.0
tp2574
sg1963
g1964
sg1965
g1966
sg1831
g0
(g1832
g1833
((lp2575
(lp2576
tp2577
tp2578
Rp2579
sg1839
I0
sg1845
I01
sg1846
Nsg123
g88
sg1997
(NNtp2580
sg1999
g2000
sg2001
Nsg25
Nsg2002
Nsg34
NsbsS'viewLim'
p2581
g455
sg17
g18
sS'_subplotspec'
p2582
g1857
sS'_adjustable'
p2583
Vbox
p2584
sg9
g4
sS'titleOffsetTrans'
p2585
g597
sS'_yaxis_transform'
p2586
g439
sS'_gridOn'
p2587
I00
sg10
NsS'colNum'
p2588
I0
sg35
Nsg38
(lp2589
sS'_autoscaleXon'
p2590
I01
sS'_xmargin'
p2591
F0.05
sS'rowNum'
p2592
I0
sS'_position'
p2593
g98
sS'_rasterization_zorder'
p2594
NsS'_cachedRenderer'
p2595
NsS'_navigate'
p2596
I01
sg23
NsS'_originalPosition'
p2597
g0
(g96
g2
Ntp2598
Rp2599
(dp2600
g46
I1
sg100
g49
(g50
(I0
tp2601
g52
tp2602
Rp2603
(I1
(I2
tp2604
g59
I00
S'\x00\x00\x00\x00\x00\x00\xf0\x7f\x00\x00\x00\x00\x00\x00\xf0\x7f'
p2605
tp2606
bsg65
(dp2607
sg108
g49
(g50
(I0
tp2608
g52
tp2609
Rp2610
(I1
(I2
I2
tp2611
g59
I00
S'\x00\x00\x00\x00\x00\x00\xc0?\x00\x00\x00\x00\x00\x00\xc0?\xcd\xcc\xcc\xcc\xcc\xcc\xec?)\\\x8f\xc2\xf5(\xec?'
p2612
tp2613
bsg115
g49
(g50
(I0
tp2614
g52
tp2615
Rp2616
(I1
(I2
I2
tp2617
g59
I00
S'\x00\x00\x00\x00\x00\x00\xc0?\x00\x00\x00\x00\x00\x00\xc0?\xcd\xcc\xcc\xcc\xcc\xcc\xec?)\\\x8f\xc2\xf5(\xec?'
p2618
tp2619
bsg122
I01
sg64
g7
sbsg25
NsS'_xaxis_transform'
p2620
g83
sg28
I00
sS'figbox'
p2621
g98
sS'xaxis'
p2622
g0
(cmatplotlib.axis
XAxis
p2623
g2
Ntp2624
Rp2625
(dp2626
g6
g7
sS'major'
p2627
g0
(cmatplotlib.axis
Ticker
p2628
g2
Ntp2629
Rp2630
(dp2631
S'locator'
p2632
g0
(cmatplotlib.ticker
AutoLocator
p2633
g2
Ntp2634
Rp2635
(dp2636
S'_min_n_ticks'
p2637
I2
sS'_symmetric'
p2638
I00
sS'_nbins'
p2639
Vauto
p2640
sS'_steps'
p2641
g49
(g50
(I0
tp2642
g52
tp2643
Rp2644
(I1
(I5
tp2645
g59
I00
S'\x00\x00\x00\x00\x00\x00\xf0?\x00\x00\x00\x00\x00\x00\x00@\x00\x00\x00\x00\x00\x00\x04@\x00\x00\x00\x00\x00\x00\x14@\x00\x00\x00\x00\x00\x00$@'
p2646
tp2647
bsS'_prune'
p2648
NsS'_extended_steps'
p2649
g49
(g50
(I0
tp2650
g52
tp2651
Rp2652
(I1
(I10
tp2653
g59
I00
S'\x9a\x99\x99\x99\x99\x99\xb9?\x9a\x99\x99\x99\x99\x99\xc9?\x00\x00\x00\x00\x00\x00\xd0?\x00\x00\x00\x00\x00\x00\xe0?\x00\x00\x00\x00\x00\x00\xf0?\x00\x00\x00\x00\x00\x00\x00@\x00\x00\x00\x00\x00\x00\x04@\x00\x00\x00\x00\x00\x00\x14@\x00\x00\x00\x00\x00\x00$@\x00\x00\x00\x00\x00\x004@'
p2654
tp2655
bsS'_integer'
p2656
I00
sS'axis'
p2657
g2625
sbsS'formatter'
p2658
g0
(cmatplotlib.ticker
ScalarFormatter
p2659
g2
Ntp2660
Rp2661
(dp2662
S'_powerlimits'
p2663
(lp2664
I-7
aI7
asS'orderOfMagnitude'
p2665
I0
sS'_useOffset'
p2666
I01
sS'_useLocale'
p2667
I00
sS'format'
p2668
g7
sS'_useMathText'
p2669
I00
sS'_offset_threshold'
p2670
I4
sS'offset'
p2671
I0
sg2135
I00
sS'_scientific'
p2672
I01
sg2657
g2625
sbsbsS'isDefault_label'
p2673
I00
sS'_scale'
p2674
g0
(cmatplotlib.scale
LinearScale
p2675
g2
Ntp2676
Rp2677
sg9
g4
sg8
I01
sS'_gridOnMinor'
p2678
I00
sg10
Nsg35
NsS'_smart_bounds'
p2679
I00
sg17
g18
sg20
I01
sg23
NsS'offsetText'
p2680
g0
(g2076
g2
Ntp2681
Rp2682
(dp2683
g6
g7
sg8
I01
sg9
g4
sg10
Nsg2080
g0
(g2081
g2
Ntp2684
Rp2685
(dp2686
g2085
(lp2687
g2087
asg2088
Nsg2089
g2090
sg2091
g2090
sg2092
F8.0
sg2093
g2090
sg2094
g2090
sbsg35
Nsg17
g18
sg2095
Nsg20
I01
sg23
Nsg85
I0
sg504
I1
sg24
Nsg25
Nsg11
Nsg28
I00
sg29
I00
sg30
(dp2688
sg2097
Nsg32
I00
sg2002
Nsg36
Nsg2001
Nsg2098
Nsg33
Nsg1827
Nsg1829
I01
sg2099
Vtop
p2689
sg2101
V
p2690
sg2103
Nsg1831
g0
(g1832
g1833
((lp2691
(lp2692
tp2693
tp2694
Rp2695
sg1839
I0
sg2109
Nsg1845
I01
sg1846
Nsg2110
F1.2
sg123
g586
sg2135
I00
sg2136
I00
sg1915
Nsg2137
V0.
p2696
sg2139
Vright
p2697
sg34
Nsbsg24
Nsg25
Nsg11
NsS'label'
p2698
g0
(g2076
g2
Ntp2699
Rp2700
(dp2701
g6
g7
sg8
I01
sg9
g4
sg10
Nsg2080
g0
(g2081
g2
Ntp2702
Rp2703
(dp2704
g2085
(lp2705
g2087
asg2088
Nsg2089
g2090
sg2091
g2090
sg2092
F10.0
sg2093
g2090
sg2094
g2090
sbsg35
Nsg17
g18
sg2095
Nsg20
I01
sg23
Nsg85
I0
sg504
F0.5
sg24
Nsg25
Nsg11
Nsg28
I00
sg29
I00
sg30
(dp2706
sg2097
Nsg32
I00
sg2002
Nsg36
Nsg2001
Nsg2098
Nsg33
Nsg1827
Nsg1829
I01
sg2099
Vtop
p2707
sg2101
VPSP Amplitude (mV)
p2708
sg2103
Nsg1831
g0
(g1832
g1833
((lp2709
(lp2710
tp2711
tp2712
Rp2713
sg1839
I0
sg2109
Nsg1845
I01
sg1846
Nsg2110
F1.2
sg123
g1187
sg2135
I00
sg2136
I00
sg1915
Nsg2137
V0.
p2714
sg2139
Vcenter
p2715
sg34
Nsbsg28
I00
sS'isDefault_majfmt'
p2716
I01
sg29
I00
sg30
(dp2717
sS'units'
p2718
Nsg32
I00
sS'minor'
p2719
g0
(g2628
g2
Ntp2720
Rp2721
(dp2722
g2632
g0
(cmatplotlib.ticker
NullLocator
p2723
g2
Ntp2724
Rp2725
(dp2726
g2657
g2625
sbsg2658
g0
(cmatplotlib.ticker
NullFormatter
p2727
g2
Ntp2728
Rp2729
(dp2730
g2657
g2625
sbsbsg2002
g1888
sS'_major_tick_kw'
p2731
(dp2732
Vlabel1On
p2733
I01
sVgridOn
p2734
I00
sVlabel2On
p2735
I00
sVtick1On
p2736
I01
sVtick2On
p2737
I00
ssS'isDefault_minloc'
p2738
I01
sg36
g733
sg33
NsS'_gridOnMajor'
p2739
I00
sS'_lastNumMinorTicks'
p2740
I1
sS'labelpad'
p2741
F4.0
sS'majorTicks'
p2742
(lp2743
g0
(cmatplotlib.axis
XTick
p2744
g2
Ntp2745
Rp2746
(dp2747
g6
g7
sg1913
F0.8
sg9
g4
sS'tick1On'
p2748
I01
sg8
I01
sg10
Nsg1839
I0
sg35
NsS'_pad'
p2749
F3.5
sS'_labelcolor'
p2750
g2696
sS'gridOn'
p2751
I00
sg2092
F0.0
sg17
g18
sS'_tickdir'
p2752
Vout
p2753
sg2698
g0
(g2076
g2
Ntp2754
Rp2755
(dp2756
g6
g7
sg8
I01
sg9
g4
sg10
Nsg2080
g0
(g2081
g2
Ntp2757
Rp2758
(dp2759
g2085
(lp2760
g2087
asg2088
Nsg2089
g2090
sg2091
g2090
sg2092
F8.0
sg2093
g2090
sg2094
g2090
sbsg35
Nsg17
g18
sg2095
Nsg20
I01
sg23
Nsg85
I0
sg504
I0
sg24
Nsg25
Nsg11
Nsg28
I00
sg29
I00
sg30
(dp2761
sg2097
Nsg32
I00
sg2002
Nsg36
Nsg2001
Nsg2098
Nsg33
Nsg1827
Nsg1829
I01
sg2099
Vtop
p2762
sg2101
V
p2763
sg2103
Nsg1831
g0
(g1832
g1833
((lp2764
(lp2765
tp2766
tp2767
Rp2768
sg1839
I0
sg2109
Nsg1845
I01
sg1846
Nsg2110
F1.2
sg123
g1756
sg2135
I00
sg2136
I00
sg1915
Nsg2137
g2696
sg2139
Vcenter
p2769
sg34
Nsbsg20
I01
sg23
NsS'label2On'
p2770
I00
sg24
Nsg25
Nsg11
NsS'tick2On'
p2771
I00
sg28
I00
sg29
I00
sg30
(dp2772
sS'_tickmarkers'
p2773
(I3
I2
tp2774
sg32
I00
sS'_zorder'
p2775
F2.01
sg2002
g1888
sS'label1On'
p2776
I01
sg36
g1239
sg2001
NsS'label1'
p2777
g2755
sS'label2'
p2778
g0
(g2076
g2
Ntp2779
Rp2780
(dp2781
g6
g7
sg8
I01
sg9
g4
sg10
Nsg2080
g0
(g2081
g2
Ntp2782
Rp2783
(dp2784
g2085
(lp2785
g2087
asg2088
Nsg2089
g2090
sg2091
g2090
sg2092
F8.0
sg2093
g2090
sg2094
g2090
sbsg35
Nsg17
g18
sg2095
Nsg20
I01
sg23
Nsg85
I1
sg504
I0
sg24
Nsg25
Nsg11
Nsg28
I00
sg29
I00
sg30
(dp2786
sg2097
Nsg32
I00
sg2002
Nsg36
Nsg2001
Nsg2098
Nsg33
Nsg1827
Nsg1829
I01
sg2099
Vbottom
p2787
sg2101
V
p2788
sg2103
Nsg1831
g0
(g1832
g1833
((lp2789
(lp2790
tp2791
tp2792
Rp2793
sg1839
I0
sg2109
Nsg1845
I01
sg1846
Nsg2110
F1.2
sg123
g1783
sg2135
I00
sg2136
I00
sg1915
Nsg2137
g2696
sg2139
g2769
sg34
Nsbsg1827
NsS'_loc'
p2794
I0
sg1829
I01
sg1831
g0
(g1832
g1833
((lp2795
(lp2796
tp2797
tp2798
Rp2799
sS'_base_pad'
p2800
F3.5
sS'tick1line'
p2801
g0
(cmatplotlib.lines
Line2D
p2802
g2
Ntp2803
Rp2804
(dp2805
g6
g7
sS'_dashcapstyle'
p2806
Vbutt
p2807
sS'_linestyles'
p2808
Nsg20
I01
sS'_x_filled'
p2809
NsS'ind_offset'
p2810
I0
sg85
Nsg504
Nsg24
Nsg11
Nsg29
I00
sg30
(dp2811
sg32
I00
sg2002
NsS'_markeredgewidth'
p2812
F0.8
sS'_dashSeq'
p2813
NsS'_markerfacecoloralt'
p2814
Vnone
p2815
sS'_markeredgecolor'
p2816
Vauto
p2817
sg1827
Nsg1829
I01
sS'_xorig'
p2818
(I0
tp2819
sg1839
I0
sg1845
I01
sS'_invalidy'
p2820
I01
sS'_invalidx'
p2821
I01
sg123
g83
sS'_us_dashSeq'
p2822
NsS'zorder'
p2823
F2.01
sg2137
g2696
sS'pickradius'
p2824
I5
sg9
g4
sS'verticalOffset'
p2825
Nsg10
Nsg35
Nsg17
g18
sS'_solidjoinstyle'
p2826
Vround
p2827
sg23
Nsg25
Nsg28
I00
sS'_markevery'
p2828
Nsg34
NsS'_transformed_path'
p2829
NsS'_marker'
p2830
g0
(cmatplotlib.markers
MarkerStyle
p2831
g2
Ntp2832
Rp2833
(dp2834
g2830
I3
sS'_alt_path'
p2835
NsS'_snap_threshold'
p2836
F1.0
sg123
g0
(g42
g2
Ntp2837
Rp2838
(dp2839
g46
I2
sg47
Nsg48
g49
(g50
(I0
tp2840
g52
tp2841
Rp2842
(I1
(I3
I3
tp2843
g59
I00
S'\x00\x00\x00\x00\x00\x00\xf0?\x00\x00\x00\x00\x00\x00\x00\x00\x00\x00\x00\x00\x00\x00\x00\x00\x00\x00\x00\x00\x00\x00\x00\x00\x00\x00\x00\x00\x00\x00\xf0\xbf\x00\x00\x00\x00\x00\x00\x00\x00\x00\x00\x00\x00\x00\x00\x00\x00\x00\x00\x00\x00\x00\x00\x00\x00\x00\x00\x00\x00\x00\x00\xf0?'
p2844
tp2845
bsg64
g7
sg65
(dp2846
sbsS'_filled'
p2847
I00
sS'_fillstyle'
p2848
Vfull
p2849
sS'_alt_transform'
p2850
Nsg1999
Vbutt
p2851
sg1963
Vround
p2852
sg2443
g0
(g2444
g2
Ntp2853
Rp2854
(dp2855
g2448
I00
sg2449
Nsg2450
g49
(g50
(I0
tp2856
g52
tp2857
Rp2858
(I1
(I2
I2
tp2859
g59
I00
S'\x00\x00\x00\x00\x00\x00\x00\x80\x00\x00\x00\x00\x00\x00\x00\x00\x00\x00\x00\x00\x00\x00\x00\x80\x00\x00\x00\x00\x00\x00\xf0?'
p2860
tp2861
bsg2457
I00
sg2458
F0.1111111111111111
sg2459
I1
sg2460
I00
sbsbsS'_markerfacecolor'
p2862
Vauto
p2863
sg36
Nsg33
Nsg1949
I01
sS'_xy'
p2864
Nsg1965
VNone
p2865
sg1831
g0
(g1832
g1833
((lp2866
(lp2867
tp2868
tp2869
Rp2870
sS'_subslice'
p2871
I00
sS'_drawstyle'
p2872
Vdefault
p2873
sS'_solidcapstyle'
p2874
g2827
sS'_us_dashOffset'
p2875
Nsg1846
NsS'_dashjoinstyle'
p2876
g2827
sS'_markersize'
p2877
F0.0
sg8
I01
sS'_dashOffset'
p2878
Nsg1915
Nsg2001
NsS'_yorig'
p2879
(I0
tp2880
sg1945
F0.5
sg2443
Nsbsg1845
I00
sS'gridline'
p2881
g0
(g2802
g2
Ntp2882
Rp2883
(dp2884
g6
g7
sg8
I01
sg2874
g2827
sg9
g4
sg2806
g2807
sg2808
Nsg10
Nsg35
Nsg17
g18
sg2826
g2827
sg20
I01
sg2809
Nsg23
Nsg85
g49
(g50
(I0
tp2885
g52
tp2886
Rp2887
(I1
(I2
tp2888
g59
I00
S'\x00\x00\x00\x00\x00\x00\x00\x00\x00\x00\x00\x00\x00\x00\xf0?'
p2889
tp2890
bsg504
g49
(g50
(I0
tp2891
g52
tp2892
Rp2893
(I1
(I2
tp2894
g59
I00
S'\x00\x00\x00\x00\x00\x00\x00\x00\x00\x00\x00\x00\x00\x00\x00\x00'
p2895
tp2896
bsg24
Nsg25
Nsg11
Nsg2818
(F0.0
F0.0
tp2897
sg28
I00
sg2828
Nsg29
I00
sg30
(dp2898
sg2825
Nsg32
I00
sg2871
I00
sg2002
Nsg2829
Nsg2812
F1.0
sg2862
g2863
sg2813
Nsg2137
V.8
p2899
sg2830
g0
(g2831
g2
Ntp2900
Rp2901
(dp2902
g2830
VNone
p2903
sg2835
Nsg2836
Nsg123
g0
(g499
g2
Ntp2904
Rp2905
(dp2906
g46
I1
sg47
Nsg64
g7
sg65
(dp2907
sbsg2847
I00
sg2848
g2849
sg2850
Nsg1999
g2851
sg1963
g2852
sg2443
g0
(g2444
g2
Ntp2908
Rp2909
(dp2910
g2448
I00
sg2449
Nsg2450
g49
(g50
(I0
tp2911
g52
tp2912
Rp2913
(I1
(I0
I2
tp2914
g59
I00
S''
p2915
tp2916
bsg2457
I00
sg2458
F0.1111111111111111
sg2459
I1
sg2460
I00
sbsbsg33
Nsg2814
g2815
sg1949
I01
sg2816
g2817
sg1827
Nsg2877
F0.0
sg1829
I01
sg2864
g49
(g50
(I0
tp2917
g52
tp2918
Rp2919
(I1
(I2
I2
tp2920
g59
I00
S'\x00\x00\x00\x00\x00\x00\x00\x00\x00\x00\x00\x00\x00\x00\x00\x00\x00\x00\x00\x00\x00\x00\x00\x00\x00\x00\x00\x00\x00\x00\xf0?'
p2921
tp2922
bsg1965
V-
p2923
sg1831
g0
(g1832
g1833
((lp2924
(lp2925
tp2926
tp2927
Rp2928
sg1839
I0
sg2872
g2873
sg2810
I0
sg2875
Nsg2824
I5
sg1845
I01
sg1846
F1.0
sg2876
g2827
sg2821
I00
sg123
g83
sg2878
Nsg2822
Nsg2820
I00
sg1915
Nsg2001
Nsg2879
(I0
F1.0
tp2929
sg36
g1091
sg1945
F0.8
sg34
Nsg2443
g0
(g2444
g2
Ntp2930
Rp2931
(dp2932
g2448
I00
sg2449
Nsg2450
g49
(g50
(I0
tp2933
g52
tp2934
Rp2935
(I1
(I2
I2
tp2936
g59
I01
S'\x00\x00\x00\x00\x00\x00\x00\x00\x00\x00\x00\x00\x00\x00\x00\x00\x00\x00\x00\x00\x00\x00\x00\x00\x00\x00\x00\x00\x00\x00\xf0?'
p2937
tp2938
bsg2457
I00
sg2458
F0.1111111111111111
sg2459
I180
sg2460
I00
sbsbsg1846
Nsg33
NsS'tick2line'
p2939
g0
(g2802
g2
Ntp2940
Rp2941
(dp2942
g6
g7
sg2806
g2807
sg2808
Nsg20
I01
sg2809
Nsg2810
I0
sg85
Nsg504
Nsg24
Nsg11
Nsg29
I00
sg30
(dp2943
sg32
I00
sg2002
Nsg2812
F0.8
sg2813
Nsg2814
g2815
sg2816
g2817
sg1827
Nsg1829
I01
sg2818
(I0
tp2944
sg1839
I0
sg1845
I01
sg2820
I01
sg2821
I01
sg123
g83
sg2822
Nsg2823
F2.01
sg2137
g2696
sg2824
I5
sg9
g4
sg2825
Nsg10
Nsg35
Nsg17
g18
sg2826
g2827
sg23
Nsg25
Nsg28
I00
sg2828
Nsg34
Nsg2829
Nsg2830
g0
(g2831
g2
Ntp2945
Rp2946
(dp2947
g2830
I2
sg2835
Nsg2836
F1.0
sg123
g0
(g42
g2
Ntp2948
Rp2949
(dp2950
g46
I2
sg47
Nsg48
g49
(g50
(I0
tp2951
g52
tp2952
Rp2953
(I1
(I3
I3
tp2954
g59
I00
S'\x00\x00\x00\x00\x00\x00\xf0?\x00\x00\x00\x00\x00\x00\x00\x00\x00\x00\x00\x00\x00\x00\x00\x00\x00\x00\x00\x00\x00\x00\x00\x00\x00\x00\x00\x00\x00\x00\xf0?\x00\x00\x00\x00\x00\x00\x00\x00\x00\x00\x00\x00\x00\x00\x00\x00\x00\x00\x00\x00\x00\x00\x00\x00\x00\x00\x00\x00\x00\x00\xf0?'
p2955
tp2956
bsg64
g7
sg65
(dp2957
sbsg2847
I00
sg2848
g2849
sg2850
Nsg1999
g2851
sg1963
g2852
sg2443
g2854
sbsg2862
g2863
sg36
Nsg33
Nsg1949
I01
sg2864
Nsg1965
VNone
p2958
sg1831
g0
(g1832
g1833
((lp2959
(lp2960
tp2961
tp2962
Rp2963
sg2871
I00
sg2872
g2873
sg2874
g2827
sg2875
Nsg1846
Nsg2876
g2827
sg2877
F0.0
sg8
I01
sg2878
Nsg1915
Nsg2001
Nsg2879
(I1
tp2964
sg1945
F0.5
sg2443
Nsbsg123
NsS'_labelsize'
p2965
F8.0
sS'_name'
p2966
Vxtick
p2967
sS'_labelrotation'
p2968
(Vdefault
p2969
I0
tp2970
sg1915
Nsg2137
g2696
sg34
Nsbag0
(g2744
g2
Ntp2971
Rp2972
(dp2973
g6
g7
sg1913
F0.8
sg9
g4
sg2748
I01
sg8
I01
sg10
Nsg1839
I0
sg35
Nsg2749
F3.5
sg2750
g2696
sg2751
I00
sg2092
F0.0
sg17
g18
sg2752
g2753
sg2698
g0
(g2076
g2
Ntp2974
Rp2975
(dp2976
g6
g7
sg8
I01
sg9
g4
sg10
Nsg2080
g0
(g2081
g2
Ntp2977
Rp2978
(dp2979
g2085
(lp2980
g2087
asg2088
Nsg2089
g2090
sg2091
g2090
sg2092
F8.0
sg2093
g2090
sg2094
g2090
sbsg35
Nsg17
g18
sg2095
Nsg20
I01
sg23
Nsg85
I0
sg504
I0
sg24
Nsg25
Nsg11
Nsg28
I00
sg29
I00
sg30
(dp2981
sg2097
Nsg32
I00
sg2002
Nsg36
Nsg2001
Nsg2098
Nsg33
Nsg1827
Nsg1829
I01
sg2099
g2762
sg2101
V
p2982
sg2103
Nsg1831
g0
(g1832
g1833
((lp2983
(lp2984
tp2985
tp2986
Rp2987
sg1839
I0
sg2109
Nsg1845
I01
sg1846
Nsg2110
F1.2
sg123
g1774
sg2135
I00
sg2136
I00
sg1915
Nsg2137
g2696
sg2139
g2769
sg34
Nsbsg20
I01
sg23
Nsg2770
I00
sg24
Nsg25
Nsg11
Nsg2771
I00
sg28
I00
sg29
I00
sg30
(dp2988
sg2773
(I3
I2
tp2989
sg32
I00
sg2775
F2.01
sg2002
g1888
sg2776
I01
sg36
g1309
sg2001
Nsg2777
g2975
sg2778
g0
(g2076
g2
Ntp2990
Rp2991
(dp2992
g6
g7
sg8
I01
sg9
g4
sg10
Nsg2080
g0
(g2081
g2
Ntp2993
Rp2994
(dp2995
g2085
(lp2996
g2087
asg2088
Nsg2089
g2090
sg2091
g2090
sg2092
F8.0
sg2093
g2090
sg2094
g2090
sbsg35
Nsg17
g18
sg2095
Nsg20
I01
sg23
Nsg85
I1
sg504
I0
sg24
Nsg25
Nsg11
Nsg28
I00
sg29
I00
sg30
(dp2997
sg2097
Nsg32
I00
sg2002
Nsg36
Nsg2001
Nsg2098
Nsg33
Nsg1827
Nsg1829
I01
sg2099
g2787
sg2101
V
p2998
sg2103
Nsg1831
g0
(g1832
g1833
((lp2999
(lp3000
tp3001
tp3002
Rp3003
sg1839
I0
sg2109
Nsg1845
I01
sg1846
Nsg2110
F1.2
sg123
g1792
sg2135
I00
sg2136
I00
sg1915
Nsg2137
g2696
sg2139
g2769
sg34
Nsbsg1827
Nsg2794
I0
sg1829
I01
sg1831
g0
(g1832
g1833
((lp3004
(lp3005
tp3006
tp3007
Rp3008
sg2800
F3.5
sg2801
g0
(g2802
g2
Ntp3009
Rp3010
(dp3011
g6
g7
sg2806
g2807
sg2808
Nsg20
I01
sg2809
Nsg2810
I0
sg85
Nsg504
Nsg24
Nsg11
Nsg29
I00
sg30
(dp3012
sg32
I00
sg2002
Nsg2812
F0.8
sg2813
Nsg2814
g2815
sg2816
g2817
sg1827
Nsg1829
I01
sg2818
(I0
tp3013
sg1839
I0
sg1845
I01
sg2820
I01
sg2821
I01
sg123
g83
sg2822
Nsg2823
F2.01
sg2137
g2696
sg2824
I5
sg9
g4
sg2825
Nsg10
Nsg35
Nsg17
g18
sg2826
g2827
sg23
Nsg25
Nsg28
I00
sg2828
Nsg34
Nsg2829
Nsg2830
g0
(g2831
g2
Ntp3014
Rp3015
(dp3016
g2830
I3
sg2835
Nsg2836
F1.0
sg123
g0
(g42
g2
Ntp3017
Rp3018
(dp3019
g46
I2
sg47
Nsg48
g49
(g50
(I0
tp3020
g52
tp3021
Rp3022
(I1
(I3
I3
tp3023
g59
I00
S'\x00\x00\x00\x00\x00\x00\xf0?\x00\x00\x00\x00\x00\x00\x00\x00\x00\x00\x00\x00\x00\x00\x00\x00\x00\x00\x00\x00\x00\x00\x00\x00\x00\x00\x00\x00\x00\x00\xf0\xbf\x00\x00\x00\x00\x00\x00\x00\x00\x00\x00\x00\x00\x00\x00\x00\x00\x00\x00\x00\x00\x00\x00\x00\x00\x00\x00\x00\x00\x00\x00\xf0?'
p3024
tp3025
bsg64
g7
sg65
(dp3026
sbsg2847
I00
sg2848
g2849
sg2850
Nsg1999
g2851
sg1963
g2852
sg2443
g2854
sbsg2862
g2863
sg36
Nsg33
Nsg1949
I01
sg2864
Nsg1965
g2865
sg1831
g0
(g1832
g1833
((lp3027
(lp3028
tp3029
tp3030
Rp3031
sg2871
I00
sg2872
g2873
sg2874
g2827
sg2875
Nsg1846
Nsg2876
g2827
sg2877
F0.0
sg8
I01
sg2878
Nsg1915
Nsg2001
Nsg2879
g2880
sg1945
F0.5
sg2443
Nsbsg1845
I00
sg2881
g0
(g2802
g2
Ntp3032
Rp3033
(dp3034
g6
g7
sg8
I01
sg2874
g2827
sg9
g4
sg2806
g2807
sg2808
Nsg10
Nsg35
Nsg17
g18
sg2826
g2827
sg20
I01
sg2809
Nsg23
Nsg85
g49
(g50
(I0
tp3035
g52
tp3036
Rp3037
(I1
(I2
tp3038
g59
I00
S'\x00\x00\x00\x00\x00\x00\x00\x00\x00\x00\x00\x00\x00\x00\xf0?'
p3039
tp3040
bsg504
g49
(g50
(I0
tp3041
g52
tp3042
Rp3043
(I1
(I2
tp3044
g59
I00
S'\x00\x00\x00\x00\x00\x00\x00\x00\x00\x00\x00\x00\x00\x00\x00\x00'
p3045
tp3046
bsg24
Nsg25
Nsg11
Nsg2818
g2897
sg28
I00
sg2828
Nsg29
I00
sg30
(dp3047
sg2825
Nsg32
I00
sg2871
I00
sg2002
Nsg2829
Nsg2812
F1.0
sg2862
g2863
sg2813
Nsg2137
g2899
sg2830
g0
(g2831
g2
Ntp3048
Rp3049
(dp3050
g2830
g2903
sg2835
Nsg2836
Nsg123
g0
(g499
g2
Ntp3051
Rp3052
(dp3053
g46
I1
sg47
Nsg64
g7
sg65
(dp3054
sbsg2847
I00
sg2848
g2849
sg2850
Nsg1999
g2851
sg1963
g2852
sg2443
g2909
sbsg33
Nsg2814
g2815
sg1949
I01
sg2816
g2817
sg1827
Nsg2877
F0.0
sg1829
I01
sg2864
g49
(g50
(I0
tp3055
g52
tp3056
Rp3057
(I1
(I2
I2
tp3058
g59
I00
S'\x00\x00\x00\x00\x00\x00\x00\x00\x00\x00\x00\x00\x00\x00\x00\x00\x00\x00\x00\x00\x00\x00\x00\x00\x00\x00\x00\x00\x00\x00\xf0?'
p3059
tp3060
bsg1965
g2923
sg1831
g0
(g1832
g1833
((lp3061
(lp3062
tp3063
tp3064
Rp3065
sg1839
I0
sg2872
g2873
sg2810
I0
sg2875
Nsg2824
I5
sg1845
I01
sg1846
F1.0
sg2876
g2827
sg2821
I00
sg123
g83
sg2878
Nsg2822
Nsg2820
I00
sg1915
Nsg2001
Nsg2879
g2929
sg36
g1161
sg1945
F0.8
sg34
Nsg2443
g0
(g2444
g2
Ntp3066
Rp3067
(dp3068
g2448
I00
sg2449
Nsg2450
g49
(g50
(I0
tp3069
g52
tp3070
Rp3071
(I1
(I2
I2
tp3072
g59
I01
S'\x00\x00\x00\x00\x00\x00\x00\x00\x00\x00\x00\x00\x00\x00\x00\x00\x00\x00\x00\x00\x00\x00\x00\x00\x00\x00\x00\x00\x00\x00\xf0?'
p3073
tp3074
bsg2457
I00
sg2458
F0.1111111111111111
sg2459
I180
sg2460
I00
sbsbsg1846
Nsg33
Nsg2939
g0
(g2802
g2
Ntp3075
Rp3076
(dp3077
g6
g7
sg2806
g2807
sg2808
Nsg20
I01
sg2809
Nsg2810
I0
sg85
Nsg504
Nsg24
Nsg11
Nsg29
I00
sg30
(dp3078
sg32
I00
sg2002
Nsg2812
F0.8
sg2813
Nsg2814
g2815
sg2816
g2817
sg1827
Nsg1829
I01
sg2818
(I0
tp3079
sg1839
I0
sg1845
I01
sg2820
I01
sg2821
I01
sg123
g83
sg2822
Nsg2823
F2.01
sg2137
g2696
sg2824
I5
sg9
g4
sg2825
Nsg10
Nsg35
Nsg17
g18
sg2826
g2827
sg23
Nsg25
Nsg28
I00
sg2828
Nsg34
Nsg2829
Nsg2830
g0
(g2831
g2
Ntp3080
Rp3081
(dp3082
g2830
I2
sg2835
Nsg2836
F1.0
sg123
g0
(g42
g2
Ntp3083
Rp3084
(dp3085
g46
I2
sg47
Nsg48
g49
(g50
(I0
tp3086
g52
tp3087
Rp3088
(I1
(I3
I3
tp3089
g59
I00
S'\x00\x00\x00\x00\x00\x00\xf0?\x00\x00\x00\x00\x00\x00\x00\x00\x00\x00\x00\x00\x00\x00\x00\x00\x00\x00\x00\x00\x00\x00\x00\x00\x00\x00\x00\x00\x00\x00\xf0?\x00\x00\x00\x00\x00\x00\x00\x00\x00\x00\x00\x00\x00\x00\x00\x00\x00\x00\x00\x00\x00\x00\x00\x00\x00\x00\x00\x00\x00\x00\xf0?'
p3090
tp3091
bsg64
g7
sg65
(dp3092
sbsg2847
I00
sg2848
g2849
sg2850
Nsg1999
g2851
sg1963
g2852
sg2443
g2854
sbsg2862
g2863
sg36
Nsg33
Nsg1949
I01
sg2864
Nsg1965
g2958
sg1831
g0
(g1832
g1833
((lp3093
(lp3094
tp3095
tp3096
Rp3097
sg2871
I00
sg2872
g2873
sg2874
g2827
sg2875
Nsg1846
Nsg2876
g2827
sg2877
F0.0
sg8
I01
sg2878
Nsg1915
Nsg2001
Nsg2879
g2964
sg1945
F0.5
sg2443
Nsbsg123
Nsg2965
F8.0
sg2966
g2967
sg2968
(g2969
I0
tp3098
sg1915
Nsg2137
g2696
sg34
NsbasS'isDefault_majloc'
p3099
I01
sg1820
g0
(g1821
g2
Ntp3100
Rp3101
(dp3102
g1825
g1826
sbsg1827
Nsg1829
I01
sS'_autolabelpos'
p3103
I01
sg1831
g0
(g1832
g1833
((lp3104
(lp3105
tp3106
tp3107
Rp3108
sg1839
I0
sS'_lastNumMajorTicks'
p3109
I1
sS'converter'
p3110
Nsg1845
I00
sg1846
NsS'offset_text_position'
p3111
Vbottom
p3112
sg123
NsS'_unit_data'
p3113
NsS'label_position'
p3114
Vbottom
p3115
sg1915
Nsg2001
Nsg2824
I15
sS'minorTicks'
p3116
(lp3117
g0
(g2744
g2
Ntp3118
Rp3119
(dp3120
g6
g7
sg1913
F0.6
sg9
g4
sg2748
I01
sg8
I01
sg10
Nsg1839
I0
sg35
Nsg2749
F3.4
sg2750
g2696
sg2751
I00
sg2092
F0.0
sg17
g18
sg2752
g2753
sg2698
g0
(g2076
g2
Ntp3121
Rp3122
(dp3123
g6
g7
sg8
I01
sg9
g4
sg10
Nsg2080
g0
(g2081
g2
Ntp3124
Rp3125
(dp3126
g2085
(lp3127
g2087
asg2088
Nsg2089
g2090
sg2091
g2090
sg2092
F8.0
sg2093
g2090
sg2094
g2090
sbsg35
Nsg17
g18
sg2095
Nsg20
I01
sg23
Nsg85
I0
sg504
I0
sg24
Nsg25
Nsg11
Nsg28
I00
sg29
I00
sg30
(dp3128
sg2097
Nsg32
I00
sg2002
Nsg36
Nsg2001
Nsg2098
Nsg33
Nsg1827
Nsg1829
I01
sg2099
g2762
sg2101
V
p3129
sg2103
Nsg1831
g0
(g1832
g1833
((lp3130
(lp3131
tp3132
tp3133
Rp3134
sg1839
I0
sg2109
Nsg1845
I01
sg1846
Nsg2110
F1.2
sg123
g77
sg2135
I00
sg2136
I00
sg1915
Nsg2137
g2696
sg2139
g2769
sg34
Nsbsg20
I01
sg23
Nsg2770
I00
sg24
Nsg25
Nsg11
Nsg2771
I00
sg28
I00
sg29
I00
sg30
(dp3135
sg2773
(I3
I2
tp3136
sg32
I00
sg2775
I2
sg2002
g1888
sg2776
I01
sg36
g951
sg2001
Nsg2777
g3122
sg2778
g0
(g2076
g2
Ntp3137
Rp3138
(dp3139
g6
g7
sg8
I01
sg9
g4
sg10
Nsg2080
g0
(g2081
g2
Ntp3140
Rp3141
(dp3142
g2085
(lp3143
g2087
asg2088
Nsg2089
g2090
sg2091
g2090
sg2092
F8.0
sg2093
g2090
sg2094
g2090
sbsg35
Nsg17
g18
sg2095
Nsg20
I01
sg23
Nsg85
I1
sg504
I0
sg24
Nsg25
Nsg11
Nsg28
I00
sg29
I00
sg30
(dp3144
sg2097
Nsg32
I00
sg2002
Nsg36
Nsg2001
Nsg2098
Nsg33
Nsg1827
Nsg1829
I01
sg2099
g2787
sg2101
V
p3145
sg2103
Nsg1831
g0
(g1832
g1833
((lp3146
(lp3147
tp3148
tp3149
Rp3150
sg1839
I0
sg2109
Nsg1845
I01
sg1846
Nsg2110
F1.2
sg123
g1810
sg2135
I00
sg2136
I00
sg1915
Nsg2137
g2696
sg2139
g2769
sg34
Nsbsg1827
Nsg2794
I0
sg1829
I01
sg1831
g0
(g1832
g1833
((lp3151
(lp3152
tp3153
tp3154
Rp3155
sg2800
F3.4
sg2801
g0
(g2802
g2
Ntp3156
Rp3157
(dp3158
g6
g7
sg2806
g2807
sg2808
Nsg20
I01
sg2809
Nsg2810
I0
sg85
Nsg504
Nsg24
Nsg11
Nsg29
I00
sg30
(dp3159
sg32
I00
sg2002
Nsg2812
F0.6
sg2813
Nsg2814
g2815
sg2816
g2817
sg1827
Nsg1829
I01
sg2818
(I0
tp3160
sg1839
I0
sg1845
I01
sg2820
I01
sg2821
I01
sg123
g83
sg2822
Nsg2823
I2
sg2137
g2696
sg2824
I5
sg9
g4
sg2825
Nsg10
Nsg35
Nsg17
g18
sg2826
g2827
sg23
Nsg25
Nsg28
I00
sg2828
Nsg34
Nsg2829
Nsg2830
g0
(g2831
g2
Ntp3161
Rp3162
(dp3163
g2830
I3
sg2835
Nsg2836
F1.0
sg123
g0
(g42
g2
Ntp3164
Rp3165
(dp3166
g46
I2
sg47
Nsg48
g49
(g50
(I0
tp3167
g52
tp3168
Rp3169
(I1
(I3
I3
tp3170
g59
I00
S'\x00\x00\x00\x00\x00\x00\xf0?\x00\x00\x00\x00\x00\x00\x00\x00\x00\x00\x00\x00\x00\x00\x00\x00\x00\x00\x00\x00\x00\x00\x00\x00\x00\x00\x00\x00\x00\x00\xf0\xbf\x00\x00\x00\x00\x00\x00\x00\x00\x00\x00\x00\x00\x00\x00\x00\x00\x00\x00\x00\x00\x00\x00\x00\x00\x00\x00\x00\x00\x00\x00\xf0?'
p3171
tp3172
bsg64
g7
sg65
(dp3173
sbsg2847
I00
sg2848
g2849
sg2850
Nsg1999
g2851
sg1963
g2852
sg2443
g2854
sbsg2862
g2863
sg36
Nsg33
Nsg1949
I01
sg2864
Nsg1965
g2865
sg1831
g0
(g1832
g1833
((lp3174
(lp3175
tp3176
tp3177
Rp3178
sg2871
I00
sg2872
g2873
sg2874
g2827
sg2875
Nsg1846
Nsg2876
g2827
sg2877
F0.0
sg8
I01
sg2878
Nsg1915
Nsg2001
Nsg2879
g2880
sg1945
F0.5
sg2443
Nsbsg1845
I00
sg2881
g0
(g2802
g2
Ntp3179
Rp3180
(dp3181
g6
g7
sg8
I01
sg2874
g2827
sg9
g4
sg2806
g2807
sg2808
Nsg10
Nsg35
Nsg17
g18
sg2826
g2827
sg20
I01
sg2809
Nsg23
Nsg85
g49
(g50
(I0
tp3182
g52
tp3183
Rp3184
(I1
(I2
tp3185
g59
I00
S'\x00\x00\x00\x00\x00\x00\x00\x00\x00\x00\x00\x00\x00\x00\xf0?'
p3186
tp3187
bsg504
g49
(g50
(I0
tp3188
g52
tp3189
Rp3190
(I1
(I2
tp3191
g59
I00
S'\x00\x00\x00\x00\x00\x00\x00\x00\x00\x00\x00\x00\x00\x00\x00\x00'
p3192
tp3193
bsg24
Nsg25
Nsg11
Nsg2818
g2897
sg28
I00
sg2828
Nsg29
I00
sg30
(dp3194
sg2825
Nsg32
I00
sg2871
I00
sg2002
Nsg2829
Nsg2812
F1.0
sg2862
g2863
sg2813
Nsg2137
g2899
sg2830
g0
(g2831
g2
Ntp3195
Rp3196
(dp3197
g2830
g2903
sg2835
Nsg2836
Nsg123
g0
(g499
g2
Ntp3198
Rp3199
(dp3200
g46
I1
sg47
Nsg64
g7
sg65
(dp3201
sbsg2847
I00
sg2848
g2849
sg2850
Nsg1999
g2851
sg1963
g2852
sg2443
g2909
sbsg33
Nsg2814
g2815
sg1949
I01
sg2816
g2817
sg1827
Nsg2877
F0.0
sg1829
I01
sg2864
g49
(g50
(I0
tp3202
g52
tp3203
Rp3204
(I1
(I2
I2
tp3205
g59
I00
S'\x00\x00\x00\x00\x00\x00\x00\x00\x00\x00\x00\x00\x00\x00\x00\x00\x00\x00\x00\x00\x00\x00\x00\x00\x00\x00\x00\x00\x00\x00\xf0?'
p3206
tp3207
bsg1965
g2923
sg1831
g0
(g1832
g1833
((lp3208
(lp3209
tp3210
tp3211
Rp3212
sg1839
I0
sg2872
g2873
sg2810
I0
sg2875
Nsg2824
I5
sg1845
I01
sg1846
F1.0
sg2876
g2827
sg2821
I00
sg123
g83
sg2878
Nsg2822
Nsg2820
I00
sg1915
Nsg2001
Nsg2879
g2929
sg36
g1449
sg1945
F0.8
sg34
Nsg2443
g0
(g2444
g2
Ntp3213
Rp3214
(dp3215
g2448
I00
sg2449
Nsg2450
g49
(g50
(I0
tp3216
g52
tp3217
Rp3218
(I1
(I2
I2
tp3219
g59
I01
S'\x00\x00\x00\x00\x00\x00\x00\x00\x00\x00\x00\x00\x00\x00\x00\x00\x00\x00\x00\x00\x00\x00\x00\x00\x00\x00\x00\x00\x00\x00\xf0?'
p3220
tp3221
bsg2457
I00
sg2458
F0.1111111111111111
sg2459
I180
sg2460
I00
sbsbsg1846
Nsg33
Nsg2939
g0
(g2802
g2
Ntp3222
Rp3223
(dp3224
g6
g7
sg2806
g2807
sg2808
Nsg20
I01
sg2809
Nsg2810
I0
sg85
Nsg504
Nsg24
Nsg11
Nsg29
I00
sg30
(dp3225
sg32
I00
sg2002
Nsg2812
F0.6
sg2813
Nsg2814
g2815
sg2816
g2817
sg1827
Nsg1829
I01
sg2818
(I0
tp3226
sg1839
I0
sg1845
I01
sg2820
I01
sg2821
I01
sg123
g83
sg2822
Nsg2823
I2
sg2137
g2696
sg2824
I5
sg9
g4
sg2825
Nsg10
Nsg35
Nsg17
g18
sg2826
g2827
sg23
Nsg25
Nsg28
I00
sg2828
Nsg34
Nsg2829
Nsg2830
g0
(g2831
g2
Ntp3227
Rp3228
(dp3229
g2830
I2
sg2835
Nsg2836
F1.0
sg123
g0
(g42
g2
Ntp3230
Rp3231
(dp3232
g46
I2
sg47
Nsg48
g49
(g50
(I0
tp3233
g52
tp3234
Rp3235
(I1
(I3
I3
tp3236
g59
I00
S'\x00\x00\x00\x00\x00\x00\xf0?\x00\x00\x00\x00\x00\x00\x00\x00\x00\x00\x00\x00\x00\x00\x00\x00\x00\x00\x00\x00\x00\x00\x00\x00\x00\x00\x00\x00\x00\x00\xf0?\x00\x00\x00\x00\x00\x00\x00\x00\x00\x00\x00\x00\x00\x00\x00\x00\x00\x00\x00\x00\x00\x00\x00\x00\x00\x00\x00\x00\x00\x00\xf0?'
p3237
tp3238
bsg64
g7
sg65
(dp3239
sbsg2847
I00
sg2848
g2849
sg2850
Nsg1999
g2851
sg1963
g2852
sg2443
g2854
sbsg2862
g2863
sg36
Nsg33
Nsg1949
I01
sg2864
Nsg1965
g2958
sg1831
g0
(g1832
g1833
((lp3240
(lp3241
tp3242
tp3243
Rp3244
sg2871
I00
sg2872
g2873
sg2874
g2827
sg2875
Nsg1846
Nsg2876
g2827
sg2877
F0.0
sg8
I01
sg2878
Nsg1915
Nsg2001
Nsg2879
g2964
sg1945
F0.5
sg2443
Nsbsg123
Nsg2965
F8.0
sg2966
g2967
sg2968
(g2969
I0
tp3245
sg1915
Nsg2137
g2696
sg34
Nsbag0
(g2744
g2
Ntp3246
Rp3247
(dp3248
g6
g7
sg1913
F0.6
sg9
g4
sg2748
I01
sg8
I01
sg10
Nsg1839
I0
sg35
Nsg2749
F3.4
sg2750
g2696
sg2751
I00
sg2092
F0.0
sg17
g18
sg2752
g2753
sg2698
g0
(g2076
g2
Ntp3249
Rp3250
(dp3251
g6
g7
sg8
I01
sg9
g4
sg10
Nsg2080
g0
(g2081
g2
Ntp3252
Rp3253
(dp3254
g2085
(lp3255
g2087
asg2088
Nsg2089
g2090
sg2091
g2090
sg2092
F8.0
sg2093
g2090
sg2094
g2090
sbsg35
Nsg17
g18
sg2095
Nsg20
I01
sg23
Nsg85
I0
sg504
I0
sg24
Nsg25
Nsg11
Nsg28
I00
sg29
I00
sg30
(dp3256
sg2097
Nsg32
I00
sg2002
Nsg36
Nsg2001
Nsg2098
Nsg33
Nsg1827
Nsg1829
I01
sg2099
g2762
sg2101
V
p3257
sg2103
Nsg1831
g0
(g1832
g1833
((lp3258
(lp3259
tp3260
tp3261
Rp3262
sg1839
I0
sg2109
Nsg1845
I01
sg1846
Nsg2110
F1.2
sg123
g1765
sg2135
I00
sg2136
I00
sg1915
Nsg2137
g2696
sg2139
g2769
sg34
Nsbsg20
I01
sg23
Nsg2770
I00
sg24
Nsg25
Nsg11
Nsg2771
I00
sg28
I00
sg29
I00
sg30
(dp3263
sg2773
(I3
I2
tp3264
sg32
I00
sg2775
I2
sg2002
g1888
sg2776
I01
sg36
g655
sg2001
Nsg2777
g3250
sg2778
g0
(g2076
g2
Ntp3265
Rp3266
(dp3267
g6
g7
sg8
I01
sg9
g4
sg10
Nsg2080
g0
(g2081
g2
Ntp3268
Rp3269
(dp3270
g2085
(lp3271
g2087
asg2088
Nsg2089
g2090
sg2091
g2090
sg2092
F8.0
sg2093
g2090
sg2094
g2090
sbsg35
Nsg17
g18
sg2095
Nsg20
I01
sg23
Nsg85
I1
sg504
I0
sg24
Nsg25
Nsg11
Nsg28
I00
sg29
I00
sg30
(dp3272
sg2097
Nsg32
I00
sg2002
Nsg36
Nsg2001
Nsg2098
Nsg33
Nsg1827
Nsg1829
I01
sg2099
g2787
sg2101
V
p3273
sg2103
Nsg1831
g0
(g1832
g1833
((lp3274
(lp3275
tp3276
tp3277
Rp3278
sg1839
I0
sg2109
Nsg1845
I01
sg1846
Nsg2110
F1.2
sg123
g1801
sg2135
I00
sg2136
I00
sg1915
Nsg2137
g2696
sg2139
g2769
sg34
Nsbsg1827
Nsg2794
I0
sg1829
I01
sg1831
g0
(g1832
g1833
((lp3279
(lp3280
tp3281
tp3282
Rp3283
sg2800
F3.4
sg2801
g0
(g2802
g2
Ntp3284
Rp3285
(dp3286
g6
g7
sg2806
g2807
sg2808
Nsg20
I01
sg2809
Nsg2810
I0
sg85
Nsg504
Nsg24
Nsg11
Nsg29
I00
sg30
(dp3287
sg32
I00
sg2002
Nsg2812
F0.6
sg2813
Nsg2814
g2815
sg2816
g2817
sg1827
Nsg1829
I01
sg2818
(I0
tp3288
sg1839
I0
sg1845
I01
sg2820
I01
sg2821
I01
sg123
g83
sg2822
Nsg2823
I2
sg2137
g2696
sg2824
I5
sg9
g4
sg2825
Nsg10
Nsg35
Nsg17
g18
sg2826
g2827
sg23
Nsg25
Nsg28
I00
sg2828
Nsg34
Nsg2829
Nsg2830
g0
(g2831
g2
Ntp3289
Rp3290
(dp3291
g2830
I3
sg2835
Nsg2836
F1.0
sg123
g0
(g42
g2
Ntp3292
Rp3293
(dp3294
g46
I2
sg47
Nsg48
g49
(g50
(I0
tp3295
g52
tp3296
Rp3297
(I1
(I3
I3
tp3298
g59
I00
S'\x00\x00\x00\x00\x00\x00\xf0?\x00\x00\x00\x00\x00\x00\x00\x00\x00\x00\x00\x00\x00\x00\x00\x00\x00\x00\x00\x00\x00\x00\x00\x00\x00\x00\x00\x00\x00\x00\xf0\xbf\x00\x00\x00\x00\x00\x00\x00\x00\x00\x00\x00\x00\x00\x00\x00\x00\x00\x00\x00\x00\x00\x00\x00\x00\x00\x00\x00\x00\x00\x00\xf0?'
p3299
tp3300
bsg64
g7
sg65
(dp3301
sbsg2847
I00
sg2848
g2849
sg2850
Nsg1999
g2851
sg1963
g2852
sg2443
g2854
sbsg2862
g2863
sg36
Nsg33
Nsg1949
I01
sg2864
Nsg1965
g2865
sg1831
g0
(g1832
g1833
((lp3302
(lp3303
tp3304
tp3305
Rp3306
sg2871
I00
sg2872
g2873
sg2874
g2827
sg2875
Nsg1846
Nsg2876
g2827
sg2877
F0.0
sg8
I01
sg2878
Nsg1915
Nsg2001
Nsg2879
g2880
sg1945
F0.5
sg2443
Nsbsg1845
I00
sg2881
g0
(g2802
g2
Ntp3307
Rp3308
(dp3309
g6
g7
sg8
I01
sg2874
g2827
sg9
g4
sg2806
g2807
sg2808
Nsg10
Nsg35
Nsg17
g18
sg2826
g2827
sg20
I01
sg2809
Nsg23
Nsg85
g49
(g50
(I0
tp3310
g52
tp3311
Rp3312
(I1
(I2
tp3313
g59
I00
S'\x00\x00\x00\x00\x00\x00\x00\x00\x00\x00\x00\x00\x00\x00\xf0?'
p3314
tp3315
bsg504
g49
(g50
(I0
tp3316
g52
tp3317
Rp3318
(I1
(I2
tp3319
g59
I00
S'\x00\x00\x00\x00\x00\x00\x00\x00\x00\x00\x00\x00\x00\x00\x00\x00'
p3320
tp3321
bsg24
Nsg25
Nsg11
Nsg2818
g2897
sg28
I00
sg2828
Nsg29
I00
sg30
(dp3322
sg2825
Nsg32
I00
sg2871
I00
sg2002
Nsg2829
Nsg2812
F1.0
sg2862
g2863
sg2813
Nsg2137
g2899
sg2830
g0
(g2831
g2
Ntp3323
Rp3324
(dp3325
g2830
g2903
sg2835
Nsg2836
Nsg123
g0
(g499
g2
Ntp3326
Rp3327
(dp3328
g46
I1
sg47
Nsg64
g7
sg65
(dp3329
sbsg2847
I00
sg2848
g2849
sg2850
Nsg1999
g2851
sg1963
g2852
sg2443
g2909
sbsg33
Nsg2814
g2815
sg1949
I01
sg2816
g2817
sg1827
Nsg2877
F0.0
sg1829
I01
sg2864
g49
(g50
(I0
tp3330
g52
tp3331
Rp3332
(I1
(I2
I2
tp3333
g59
I00
S'\x00\x00\x00\x00\x00\x00\x00\x00\x00\x00\x00\x00\x00\x00\x00\x00\x00\x00\x00\x00\x00\x00\x00\x00\x00\x00\x00\x00\x00\x00\xf0?'
p3334
tp3335
bsg1965
g2923
sg1831
g0
(g1832
g1833
((lp3336
(lp3337
tp3338
tp3339
Rp3340
sg1839
I0
sg2872
g2873
sg2810
I0
sg2875
Nsg2824
I5
sg1845
I01
sg1846
F1.0
sg2876
g2827
sg2821
I00
sg123
g83
sg2878
Nsg2822
Nsg2820
I00
sg1915
Nsg2001
Nsg2879
g2929
sg36
g1659
sg1945
F0.8
sg34
Nsg2443
g0
(g2444
g2
Ntp3341
Rp3342
(dp3343
g2448
I00
sg2449
Nsg2450
g49
(g50
(I0
tp3344
g52
tp3345
Rp3346
(I1
(I2
I2
tp3347
g59
I01
S'\x00\x00\x00\x00\x00\x00\x00\x00\x00\x00\x00\x00\x00\x00\x00\x00\x00\x00\x00\x00\x00\x00\x00\x00\x00\x00\x00\x00\x00\x00\xf0?'
p3348
tp3349
bsg2457
I00
sg2458
F0.1111111111111111
sg2459
I180
sg2460
I00
sbsbsg1846
Nsg33
Nsg2939
g0
(g2802
g2
Ntp3350
Rp3351
(dp3352
g6
g7
sg2806
g2807
sg2808
Nsg20
I01
sg2809
Nsg2810
I0
sg85
Nsg504
Nsg24
Nsg11
Nsg29
I00
sg30
(dp3353
sg32
I00
sg2002
Nsg2812
F0.6
sg2813
Nsg2814
g2815
sg2816
g2817
sg1827
Nsg1829
I01
sg2818
(I0
tp3354
sg1839
I0
sg1845
I01
sg2820
I01
sg2821
I01
sg123
g83
sg2822
Nsg2823
I2
sg2137
g2696
sg2824
I5
sg9
g4
sg2825
Nsg10
Nsg35
Nsg17
g18
sg2826
g2827
sg23
Nsg25
Nsg28
I00
sg2828
Nsg34
Nsg2829
Nsg2830
g0
(g2831
g2
Ntp3355
Rp3356
(dp3357
g2830
I2
sg2835
Nsg2836
F1.0
sg123
g0
(g42
g2
Ntp3358
Rp3359
(dp3360
g46
I2
sg47
Nsg48
g49
(g50
(I0
tp3361
g52
tp3362
Rp3363
(I1
(I3
I3
tp3364
g59
I00
S'\x00\x00\x00\x00\x00\x00\xf0?\x00\x00\x00\x00\x00\x00\x00\x00\x00\x00\x00\x00\x00\x00\x00\x00\x00\x00\x00\x00\x00\x00\x00\x00\x00\x00\x00\x00\x00\x00\xf0?\x00\x00\x00\x00\x00\x00\x00\x00\x00\x00\x00\x00\x00\x00\x00\x00\x00\x00\x00\x00\x00\x00\x00\x00\x00\x00\x00\x00\x00\x00\xf0?'
p3365
tp3366
bsg64
g7
sg65
(dp3367
sbsg2847
I00
sg2848
g2849
sg2850
Nsg1999
g2851
sg1963
g2852
sg2443
g2854
sbsg2862
g2863
sg36
Nsg33
Nsg1949
I01
sg2864
Nsg1965
g2958
sg1831
g0
(g1832
g1833
((lp3368
(lp3369
tp3370
tp3371
Rp3372
sg2871
I00
sg2872
g2873
sg2874
g2827
sg2875
Nsg1846
Nsg2876
g2827
sg2877
F0.0
sg8
I01
sg2878
Nsg1915
Nsg2001
Nsg2879
g2964
sg1945
F0.5
sg2443
Nsbsg123
Nsg2965
F8.0
sg2966
g2967
sg2968
(g2969
I0
tp3373
sg1915
Nsg2137
g2696
sg34
Nsbasg34
NsS'_minor_tick_kw'
p3374
(dp3375
g2733
I01
sg2735
I00
sg2736
I01
sg2737
I00
ssS'isDefault_minfmt'
p3376
I01
sbsS'_navigate_mode'
p3377
Nsg34
NsS'transAxes'
p3378
g88
sS'_connected'
p3379
(dp3380
sS'fmt_ydata'
p3381
NsS'dataLim'
p3382
g0
(g96
g2
Ntp3383
Rp3384
(dp3385
g46
I0
sg100
g49
(g50
(I0
tp3386
g52
tp3387
Rp3388
(I1
(I2
tp3389
g59
I00
S'\x82\xdf4\x8d\xc6\x01\xa6?\x00\x00\x00\x00\x00\x00\xf0?'
p3390
tp3391
bsg65
(dp3392
sg108
g49
(g50
(I0
tp3393
g52
tp3394
Rp3395
(I1
(I2
I2
tp3396
g59
I00
S'\x00\x00\x00\x00\x00\x00\xf0\x7f\x00\x00\x00\x00\x00\x00\xf0\x7f\x00\x00\x00\x00\x00\x00\xf0\xff\x00\x00\x00\x00\x00\x00\xf0\xff'
p3397
tp3398
bsg115
g49
(g50
(I0
tp3399
g52
tp3400
Rp3401
(I1
(I2
I2
tp3402
g59
I00
S'\x82\xdf4\x8d\xc6\x01\xa6?\x00\x00\x00\x00\x00\x00\x00\x00\xa9\xdb\x10\x1d\x9a\xb5(@\x00\x00\x00\x00\x00\x80H@'
p3403
tp3404
bsg122
I01
sg64
g7
sbsS'transData'
p3405
g442
sg33
NsS'_sharey'
p3406
NsS'_sharex'
p3407
NsS'_ymargin'
p3408
F0.05
sS'_axes_locator'
p3409
Nsg1831
g0
(g1832
g1833
((lp3410
(lp3411
tp3412
tp3413
Rp3414
sS'numCols'
p3415
I1
sg1846
Nsg1828
NsS'yaxis'
p3416
g0
(cmatplotlib.axis
YAxis
p3417
g2
Ntp3418
Rp3419
(dp3420
g6
g7
sg2627
g0
(g2628
g2
Ntp3421
Rp3422
(dp3423
g2632
g0
(g2633
g2
Ntp3424
Rp3425
(dp3426
g2637
I2
sg2638
I00
sg2639
g2640
sg2641
g49
(g50
(I0
tp3427
g52
tp3428
Rp3429
(I1
(I5
tp3430
g59
I00
S'\x00\x00\x00\x00\x00\x00\xf0?\x00\x00\x00\x00\x00\x00\x00@\x00\x00\x00\x00\x00\x00\x04@\x00\x00\x00\x00\x00\x00\x14@\x00\x00\x00\x00\x00\x00$@'
p3431
tp3432
bsg2648
Nsg2649
g49
(g50
(I0
tp3433
g52
tp3434
Rp3435
(I1
(I10
tp3436
g59
I00
S'\x9a\x99\x99\x99\x99\x99\xb9?\x9a\x99\x99\x99\x99\x99\xc9?\x00\x00\x00\x00\x00\x00\xd0?\x00\x00\x00\x00\x00\x00\xe0?\x00\x00\x00\x00\x00\x00\xf0?\x00\x00\x00\x00\x00\x00\x00@\x00\x00\x00\x00\x00\x00\x04@\x00\x00\x00\x00\x00\x00\x14@\x00\x00\x00\x00\x00\x00$@\x00\x00\x00\x00\x00\x004@'
p3437
tp3438
bsg2656
I00
sg2657
g3419
sbsg2658
g0
(g2659
g2
Ntp3439
Rp3440
(dp3441
g2663
g2664
sg2665
I0
sg2666
I01
sg2667
I00
sg2668
g7
sg2669
I00
sg2670
I4
sg2671
I0
sg2135
I00
sg2672
I01
sg2657
g3419
sbsbsg2673
I00
sg2674
g0
(g2675
g2
Ntp3442
Rp3443
sg9
g4
sg8
I01
sg2678
I00
sg10
Nsg35
Nsg2679
I00
sg17
g18
sg20
I01
sg23
Nsg2680
g0
(g2076
g2
Ntp3444
Rp3445
(dp3446
g6
g7
sg8
I01
sg9
g4
sg10
Nsg2080
g0
(g2081
g2
Ntp3447
Rp3448
(dp3449
g2085
(lp3450
g2087
asg2088
Nsg2089
g2090
sg2091
g2090
sg2092
F8.0
sg2093
g2090
sg2094
g2090
sbsg35
Nsg17
g18
sg2095
Nsg20
I01
sg23
Nsg85
F0.5
sg504
I0
sg24
Nsg25
Nsg11
Nsg28
I00
sg29
I00
sg30
(dp3451
sg2097
Nsg32
I00
sg2002
Nsg36
Nsg2001
Nsg2098
Nsg33
Nsg1827
Nsg1829
I01
sg2099
Vbaseline
p3452
sg2101
V
p3453
sg2103
Nsg1831
g0
(g1832
g1833
((lp3454
(lp3455
tp3456
tp3457
Rp3458
sg1839
I0
sg2109
Nsg1845
I01
sg1846
Nsg2110
F1.2
sg123
g829
sg2135
I00
sg2136
I00
sg1915
Nsg2137
V0.
p3459
sg2139
Vleft
p3460
sg34
Nsbsg24
Nsg25
Nsg11
Nsg2698
g0
(g2076
g2
Ntp3461
Rp3462
(dp3463
g6
g7
sg8
I01
sg9
g4
sg10
Nsg2080
g0
(g2081
g2
Ntp3464
Rp3465
(dp3466
g2085
(lp3467
g2087
asg2088
Nsg2089
g2090
sg2091
g2090
sg2092
F10.0
sg2093
g2090
sg2094
g2090
sbsg35
Nsg17
g18
sg2095
Nsg20
I01
sg23
Nsg85
F0.5
sg504
I0
sg24
Nsg25
Nsg11
Nsg28
I00
sg29
I00
sg30
(dp3468
sg2097
Nsg32
I00
sg2002
Nsg36
Nsg2001
Nsg2098
Vanchor
p3469
sg33
Nsg1827
Nsg1829
I01
sg2099
Vbottom
p3470
sg2101
V# recorded PSPs
p3471
sg2103
Nsg1831
g0
(g1832
g1833
((lp3472
(lp3473
tp3474
tp3475
Rp3476
sg1839
I0
sg2109
Vvertical
p3477
sg1845
I01
sg1846
Nsg2110
F1.2
sg123
g681
sg2135
I00
sg2136
I00
sg1915
Nsg2137
g2714
sg2139
Vcenter
p3478
sg34
Nsbsg28
I00
sg2716
I01
sg29
I00
sg30
(dp3479
sg2718
Nsg32
I00
sg2719
g0
(g2628
g2
Ntp3480
Rp3481
(dp3482
g2632
g0
(g2723
g2
Ntp3483
Rp3484
(dp3485
g2657
g3419
sbsg2658
g0
(g2727
g2
Ntp3486
Rp3487
(dp3488
g2657
g3419
sbsbsg2002
g1888
sg2731
(dp3489
g2733
I01
sg2734
I00
sg2735
I00
sg2736
I01
sg2737
I00
ssg2738
I01
sg36
g413
sg33
Nsg2739
I00
sg2740
I1
sg2741
F4.0
sg2742
(lp3490
g0
(cmatplotlib.axis
YTick
p3491
g2
Ntp3492
Rp3493
(dp3494
g6
g7
sg1913
F0.8
sg9
g4
sg2748
I01
sg8
I01
sg10
Nsg1839
I0
sg35
Nsg2749
F3.5
sg2750
g3459
sg2751
I00
sg2092
F0.0
sg17
g18
sg2752
Vout
p3495
sg2698
g0
(g2076
g2
Ntp3496
Rp3497
(dp3498
g6
g7
sg8
I01
sg9
g4
sg10
Nsg2080
g0
(g2081
g2
Ntp3499
Rp3500
(dp3501
g2085
(lp3502
g2087
asg2088
Nsg2089
g2090
sg2091
g2090
sg2092
F8.0
sg2093
g2090
sg2094
g2090
sbsg35
Nsg17
g18
sg2095
Nsg20
I01
sg23
Nsg85
I0
sg504
I0
sg24
Nsg25
Nsg11
Nsg28
I00
sg29
I00
sg30
(dp3503
sg2097
Nsg32
I00
sg2002
Nsg36
Nsg2001
Nsg2098
Nsg33
Nsg1827
Nsg1829
I01
sg2099
Vcenter_baseline
p3504
sg2101
V
p3505
sg2103
Nsg1831
g0
(g1832
g1833
((lp3506
(lp3507
tp3508
tp3509
Rp3510
sg1839
I0
sg2109
Nsg1845
I01
sg1846
Nsg2110
F1.2
sg123
g523
sg2135
I00
sg2136
I00
sg1915
Nsg2137
g3459
sg2139
Vright
p3511
sg34
Nsbsg20
I01
sg23
Nsg2770
I00
sg24
Nsg25
Nsg11
Nsg2771
I00
sg28
I00
sg29
I00
sg30
(dp3512
sg2773
(I0
I1
tp3513
sg32
I00
sg2775
F2.01
sg2002
g1888
sg2776
I01
sg36
g1519
sg2001
Nsg2777
g3497
sg2778
g0
(g2076
g2
Ntp3514
Rp3515
(dp3516
g6
g7
sg8
I01
sg9
g4
sg10
Nsg2080
g0
(g2081
g2
Ntp3517
Rp3518
(dp3519
g2085
(lp3520
g2087
asg2088
Nsg2089
g2090
sg2091
g2090
sg2092
F8.0
sg2093
g2090
sg2094
g2090
sbsg35
Nsg17
g18
sg2095
Nsg20
I01
sg23
Nsg85
I0
sg504
I1
sg24
Nsg25
Nsg11
Nsg28
I00
sg29
I00
sg30
(dp3521
sg2097
Nsg32
I00
sg2002
Nsg36
Nsg2001
Nsg2098
Nsg33
Nsg1827
Nsg1829
I01
sg2099
g3504
sg2101
V
p3522
sg2103
Nsg1831
g0
(g1832
g1833
((lp3523
(lp3524
tp3525
tp3526
Rp3527
sg1839
I0
sg2109
Nsg1845
I01
sg1846
Nsg2110
F1.2
sg123
g550
sg2135
I00
sg2136
I00
sg1915
Nsg2137
g3459
sg2139
Vleft
p3528
sg34
Nsbsg1827
Nsg2794
I0
sg1829
I01
sg1831
g0
(g1832
g1833
((lp3529
(lp3530
tp3531
tp3532
Rp3533
sg2800
F3.5
sg2801
g0
(g2802
g2
Ntp3534
Rp3535
(dp3536
g6
g7
sg2806
g2807
sg2808
Nsg20
I01
sg2809
Nsg2810
I0
sg85
Nsg504
Nsg24
Nsg11
Nsg29
I00
sg30
(dp3537
sg32
I00
sg2002
Nsg2812
F0.8
sg2813
Nsg2814
g2815
sg2816
g2817
sg1827
Nsg1829
I01
sg2818
(I0
tp3538
sg1839
I0
sg1845
I01
sg2820
I01
sg2821
I01
sg123
g439
sg2822
Nsg2823
F2.01
sg2137
g3459
sg2824
I5
sg9
g4
sg2825
Nsg10
Nsg35
Nsg17
g18
sg2826
g2827
sg23
Nsg25
Nsg28
I00
sg2828
Nsg34
Nsg2829
Nsg2830
g0
(g2831
g2
Ntp3539
Rp3540
(dp3541
g2830
I0
sg2835
Nsg2836
F1.0
sg123
g0
(g42
g2
Ntp3542
Rp3543
(dp3544
g46
I2
sg47
Nsg48
g49
(g50
(I0
tp3545
g52
tp3546
Rp3547
(I1
(I3
I3
tp3548
g59
I00
S'\x00\x00\x00\x00\x00\x00\xf0\xbf\x00\x00\x00\x00\x00\x00\x00\x00\x00\x00\x00\x00\x00\x00\x00\x00\x00\x00\x00\x00\x00\x00\x00\x00\x00\x00\x00\x00\x00\x00\xf0?\x00\x00\x00\x00\x00\x00\x00\x00\x00\x00\x00\x00\x00\x00\x00\x00\x00\x00\x00\x00\x00\x00\x00\x00\x00\x00\x00\x00\x00\x00\xf0?'
p3549
tp3550
bsg64
g7
sg65
(dp3551
sbsg2847
I00
sg2848
g2849
sg2850
Nsg1999
g2851
sg1963
g2852
sg2443
g0
(g2444
g2
Ntp3552
Rp3553
(dp3554
g2448
I00
sg2449
Nsg2450
g49
(g50
(I0
tp3555
g52
tp3556
Rp3557
(I1
(I2
I2
tp3558
g59
I00
S'\x00\x00\x00\x00\x00\x00\x00\x00\x00\x00\x00\x00\x00\x00\x00\x00\x00\x00\x00\x00\x00\x00\xf0?\x00\x00\x00\x00\x00\x00\x00\x00'
p3559
tp3560
bsg2457
I00
sg2458
F0.1111111111111111
sg2459
I1
sg2460
I00
sbsbsg2862
g2863
sg36
Nsg33
Nsg1949
I01
sg2864
Nsg1965
VNone
p3561
sg1831
g0
(g1832
g1833
((lp3562
(lp3563
tp3564
tp3565
Rp3566
sg2871
I00
sg2872
g2873
sg2874
g2827
sg2875
Nsg1846
Nsg2876
g2827
sg2877
F0.0
sg8
I01
sg2878
Nsg1915
Nsg2001
Nsg2879
(I0
tp3567
sg1945
F0.5
sg2443
Nsbsg1845
I00
sg2881
g0
(g2802
g2
Ntp3568
Rp3569
(dp3570
g6
g7
sg8
I01
sg2874
g2827
sg9
g4
sg2806
g2807
sg2808
Nsg10
Nsg35
Nsg17
g18
sg2826
g2827
sg20
I01
sg2809
Nsg23
Nsg85
g49
(g50
(I0
tp3571
g52
tp3572
Rp3573
(I1
(I2
tp3574
g59
I00
S'\x00\x00\x00\x00\x00\x00\x00\x00\x00\x00\x00\x00\x00\x00\x00\x00'
p3575
tp3576
bsg504
g49
(g50
(I0
tp3577
g52
tp3578
Rp3579
(I1
(I2
tp3580
g59
I00
S'\x00\x00\x00\x00\x00\x00\x00\x00\x00\x00\x00\x00\x00\x00\xf0?'
p3581
tp3582
bsg24
Nsg25
Nsg11
Nsg2818
(I0
I1
tp3583
sg28
I00
sg2828
Nsg29
I00
sg30
(dp3584
sg2825
Nsg32
I00
sg2871
I00
sg2002
Nsg2829
Nsg2812
F1.0
sg2862
g2863
sg2813
Nsg2137
g2899
sg2830
g0
(g2831
g2
Ntp3585
Rp3586
(dp3587
g2830
g2903
sg2835
Nsg2836
Nsg123
g0
(g499
g2
Ntp3588
Rp3589
(dp3590
g46
I1
sg47
Nsg64
g7
sg65
(dp3591
sbsg2847
I00
sg2848
g2849
sg2850
Nsg1999
g2851
sg1963
g2852
sg2443
g2909
sbsg33
Nsg2814
g2815
sg1949
I01
sg2816
g2817
sg1827
Nsg2877
F0.0
sg1829
I01
sg2864
g49
(g50
(I0
tp3592
g52
tp3593
Rp3594
(I1
(I2
I2
tp3595
g59
I00
S'\x00\x00\x00\x00\x00\x00\x00\x00\x00\x00\x00\x00\x00\x00\x00\x00\x00\x00\x00\x00\x00\x00\xf0?\x00\x00\x00\x00\x00\x00\x00\x00'
p3596
tp3597
bsg1965
g2923
sg1831
g0
(g1832
g1833
((lp3598
(lp3599
tp3600
tp3601
Rp3602
sg1839
I0
sg2872
g2873
sg2810
I0
sg2875
Nsg2824
I5
sg1845
I01
sg1846
F1.0
sg2876
g2827
sg2821
I00
sg123
g439
sg2878
Nsg2822
Nsg2820
I00
sg1915
Nsg2001
Nsg2879
(I0
I0
tp3603
sg36
g803
sg1945
F0.8
sg34
Nsg2443
g0
(g2444
g2
Ntp3604
Rp3605
(dp3606
g2448
I00
sg2449
Nsg2450
g49
(g50
(I0
tp3607
g52
tp3608
Rp3609
(I1
(I2
I2
tp3610
g59
I01
S'\x00\x00\x00\x00\x00\x00\x00\x00\x00\x00\x00\x00\x00\x00\xf0?\x00\x00\x00\x00\x00\x00\x00\x00\x00\x00\x00\x00\x00\x00\x00\x00'
p3611
tp3612
bsg2457
I00
sg2458
F0.1111111111111111
sg2459
I180
sg2460
I00
sbsbsg1846
Nsg33
Nsg2939
g0
(g2802
g2
Ntp3613
Rp3614
(dp3615
g6
g7
sg2806
g2807
sg2808
Nsg20
I01
sg2809
Nsg2810
I0
sg85
Nsg504
Nsg24
Nsg11
Nsg29
I00
sg30
(dp3616
sg32
I00
sg2002
Nsg2812
F0.8
sg2813
Nsg2814
g2815
sg2816
g2817
sg1827
Nsg1829
I01
sg2818
(I1
tp3617
sg1839
I0
sg1845
I01
sg2820
I01
sg2821
I01
sg123
g439
sg2822
Nsg2823
F2.01
sg2137
g3459
sg2824
I5
sg9
g4
sg2825
Nsg10
Nsg35
Nsg17
g18
sg2826
g2827
sg23
Nsg25
Nsg28
I00
sg2828
Nsg34
Nsg2829
Nsg2830
g0
(g2831
g2
Ntp3618
Rp3619
(dp3620
g2830
I1
sg2835
Nsg2836
F1.0
sg123
g0
(g42
g2
Ntp3621
Rp3622
(dp3623
g46
I2
sg47
Nsg48
g49
(g50
(I0
tp3624
g52
tp3625
Rp3626
(I1
(I3
I3
tp3627
g59
I00
S'\x00\x00\x00\x00\x00\x00\xf0?\x00\x00\x00\x00\x00\x00\x00\x00\x00\x00\x00\x00\x00\x00\x00\x00\x00\x00\x00\x00\x00\x00\x00\x00\x00\x00\x00\x00\x00\x00\xf0?\x00\x00\x00\x00\x00\x00\x00\x00\x00\x00\x00\x00\x00\x00\x00\x00\x00\x00\x00\x00\x00\x00\x00\x00\x00\x00\x00\x00\x00\x00\xf0?'
p3628
tp3629
bsg64
g7
sg65
(dp3630
sbsg2847
I00
sg2848
g2849
sg2850
Nsg1999
g2851
sg1963
g2852
sg2443
g3553
sbsg2862
g2863
sg36
Nsg33
Nsg1949
I01
sg2864
Nsg1965
VNone
p3631
sg1831
g0
(g1832
g1833
((lp3632
(lp3633
tp3634
tp3635
Rp3636
sg2871
I00
sg2872
g2873
sg2874
g2827
sg2875
Nsg1846
Nsg2876
g2827
sg2877
F0.0
sg8
I01
sg2878
Nsg1915
Nsg2001
Nsg2879
(I0
tp3637
sg1945
F0.5
sg2443
Nsbsg123
Nsg2965
F8.0
sg2966
Vytick
p3638
sg2968
(g2969
I0
tp3639
sg1915
Nsg2137
g3459
sg34
Nsbag0
(g3491
g2
Ntp3640
Rp3641
(dp3642
g6
g7
sg1913
F0.8
sg9
g4
sg2748
I01
sg8
I01
sg10
Nsg1839
I0
sg35
Nsg2749
F3.5
sg2750
g3459
sg2751
I00
sg2092
F0.0
sg17
g18
sg2752
g3495
sg2698
g0
(g2076
g2
Ntp3643
Rp3644
(dp3645
g6
g7
sg8
I01
sg9
g4
sg10
Nsg2080
g0
(g2081
g2
Ntp3646
Rp3647
(dp3648
g2085
(lp3649
g2087
asg2088
Nsg2089
g2090
sg2091
g2090
sg2092
F8.0
sg2093
g2090
sg2094
g2090
sbsg35
Nsg17
g18
sg2095
Nsg20
I01
sg23
Nsg85
I0
sg504
I0
sg24
Nsg25
Nsg11
Nsg28
I00
sg29
I00
sg30
(dp3650
sg2097
Nsg32
I00
sg2002
Nsg36
Nsg2001
Nsg2098
Nsg33
Nsg1827
Nsg1829
I01
sg2099
g3504
sg2101
V
p3651
sg2103
Nsg1831
g0
(g1832
g1833
((lp3652
(lp3653
tp3654
tp3655
Rp3656
sg1839
I0
sg2109
Nsg1845
I01
sg1846
Nsg2110
F1.2
sg123
g532
sg2135
I00
sg2136
I00
sg1915
Nsg2137
g3459
sg2139
g3511
sg34
Nsbsg20
I01
sg23
Nsg2770
I00
sg24
Nsg25
Nsg11
Nsg2771
I00
sg28
I00
sg29
I00
sg30
(dp3657
sg2773
(I0
I1
tp3658
sg32
I00
sg2775
F2.01
sg2002
g1888
sg2776
I01
sg36
g1379
sg2001
Nsg2777
g3644
sg2778
g0
(g2076
g2
Ntp3659
Rp3660
(dp3661
g6
g7
sg8
I01
sg9
g4
sg10
Nsg2080
g0
(g2081
g2
Ntp3662
Rp3663
(dp3664
g2085
(lp3665
g2087
asg2088
Nsg2089
g2090
sg2091
g2090
sg2092
F8.0
sg2093
g2090
sg2094
g2090
sbsg35
Nsg17
g18
sg2095
Nsg20
I01
sg23
Nsg85
I0
sg504
I1
sg24
Nsg25
Nsg11
Nsg28
I00
sg29
I00
sg30
(dp3666
sg2097
Nsg32
I00
sg2002
Nsg36
Nsg2001
Nsg2098
Nsg33
Nsg1827
Nsg1829
I01
sg2099
g3504
sg2101
V
p3667
sg2103
Nsg1831
g0
(g1832
g1833
((lp3668
(lp3669
tp3670
tp3671
Rp3672
sg1839
I0
sg2109
Nsg1845
I01
sg1846
Nsg2110
F1.2
sg123
g541
sg2135
I00
sg2136
I00
sg1915
Nsg2137
g3459
sg2139
g3528
sg34
Nsbsg1827
Nsg2794
I0
sg1829
I01
sg1831
g0
(g1832
g1833
((lp3673
(lp3674
tp3675
tp3676
Rp3677
sg2800
F3.5
sg2801
g0
(g2802
g2
Ntp3678
Rp3679
(dp3680
g6
g7
sg2806
g2807
sg2808
Nsg20
I01
sg2809
Nsg2810
I0
sg85
Nsg504
Nsg24
Nsg11
Nsg29
I00
sg30
(dp3681
sg32
I00
sg2002
Nsg2812
F0.8
sg2813
Nsg2814
g2815
sg2816
g2817
sg1827
Nsg1829
I01
sg2818
g3538
sg1839
I0
sg1845
I01
sg2820
I01
sg2821
I01
sg123
g439
sg2822
Nsg2823
F2.01
sg2137
g3459
sg2824
I5
sg9
g4
sg2825
Nsg10
Nsg35
Nsg17
g18
sg2826
g2827
sg23
Nsg25
Nsg28
I00
sg2828
Nsg34
Nsg2829
Nsg2830
g0
(g2831
g2
Ntp3682
Rp3683
(dp3684
g2830
I0
sg2835
Nsg2836
F1.0
sg123
g0
(g42
g2
Ntp3685
Rp3686
(dp3687
g46
I2
sg47
Nsg48
g49
(g50
(I0
tp3688
g52
tp3689
Rp3690
(I1
(I3
I3
tp3691
g59
I00
S'\x00\x00\x00\x00\x00\x00\xf0\xbf\x00\x00\x00\x00\x00\x00\x00\x00\x00\x00\x00\x00\x00\x00\x00\x00\x00\x00\x00\x00\x00\x00\x00\x00\x00\x00\x00\x00\x00\x00\xf0?\x00\x00\x00\x00\x00\x00\x00\x00\x00\x00\x00\x00\x00\x00\x00\x00\x00\x00\x00\x00\x00\x00\x00\x00\x00\x00\x00\x00\x00\x00\xf0?'
p3692
tp3693
bsg64
g7
sg65
(dp3694
sbsg2847
I00
sg2848
g2849
sg2850
Nsg1999
g2851
sg1963
g2852
sg2443
g3553
sbsg2862
g2863
sg36
Nsg33
Nsg1949
I01
sg2864
Nsg1965
g3561
sg1831
g0
(g1832
g1833
((lp3695
(lp3696
tp3697
tp3698
Rp3699
sg2871
I00
sg2872
g2873
sg2874
g2827
sg2875
Nsg1846
Nsg2876
g2827
sg2877
F0.0
sg8
I01
sg2878
Nsg1915
Nsg2001
Nsg2879
(I0
tp3700
sg1945
F0.5
sg2443
Nsbsg1845
I00
sg2881
g0
(g2802
g2
Ntp3701
Rp3702
(dp3703
g6
g7
sg8
I01
sg2874
g2827
sg9
g4
sg2806
g2807
sg2808
Nsg10
Nsg35
Nsg17
g18
sg2826
g2827
sg20
I01
sg2809
Nsg23
Nsg85
g49
(g50
(I0
tp3704
g52
tp3705
Rp3706
(I1
(I2
tp3707
g59
I00
S'\x00\x00\x00\x00\x00\x00\x00\x00\x00\x00\x00\x00\x00\x00\x00\x00'
p3708
tp3709
bsg504
g49
(g50
(I0
tp3710
g52
tp3711
Rp3712
(I1
(I2
tp3713
g59
I00
S'\x00\x00\x00\x00\x00\x00\x00\x00\x00\x00\x00\x00\x00\x00\xf0?'
p3714
tp3715
bsg24
Nsg25
Nsg11
Nsg2818
g3583
sg28
I00
sg2828
Nsg29
I00
sg30
(dp3716
sg2825
Nsg32
I00
sg2871
I00
sg2002
Nsg2829
Nsg2812
F1.0
sg2862
g2863
sg2813
Nsg2137
g2899
sg2830
g0
(g2831
g2
Ntp3717
Rp3718
(dp3719
g2830
g2903
sg2835
Nsg2836
Nsg123
g0
(g499
g2
Ntp3720
Rp3721
(dp3722
g46
I1
sg47
Nsg64
g7
sg65
(dp3723
sbsg2847
I00
sg2848
g2849
sg2850
Nsg1999
g2851
sg1963
g2852
sg2443
g2909
sbsg33
Nsg2814
g2815
sg1949
I01
sg2816
g2817
sg1827
Nsg2877
F0.0
sg1829
I01
sg2864
g49
(g50
(I0
tp3724
g52
tp3725
Rp3726
(I1
(I2
I2
tp3727
g59
I00
S'\x00\x00\x00\x00\x00\x00\x00\x00\x00\x00\x00\x00\x00\x00\x00\x00\x00\x00\x00\x00\x00\x00\xf0?\x00\x00\x00\x00\x00\x00\x00\x00'
p3728
tp3729
bsg1965
g2923
sg1831
g0
(g1832
g1833
((lp3730
(lp3731
tp3732
tp3733
Rp3734
sg1839
I0
sg2872
g2873
sg2810
I0
sg2875
Nsg2824
I5
sg1845
I01
sg1846
F1.0
sg2876
g2827
sg2821
I00
sg123
g439
sg2878
Nsg2822
Nsg2820
I00
sg1915
Nsg2001
Nsg2879
g3603
sg36
g1021
sg1945
F0.8
sg34
Nsg2443
g0
(g2444
g2
Ntp3735
Rp3736
(dp3737
g2448
I00
sg2449
Nsg2450
g49
(g50
(I0
tp3738
g52
tp3739
Rp3740
(I1
(I2
I2
tp3741
g59
I01
S'\x00\x00\x00\x00\x00\x00\x00\x00\x00\x00\x00\x00\x00\x00\xf0?\x00\x00\x00\x00\x00\x00\x00\x00\x00\x00\x00\x00\x00\x00\x00\x00'
p3742
tp3743
bsg2457
I00
sg2458
F0.1111111111111111
sg2459
I180
sg2460
I00
sbsbsg1846
Nsg33
Nsg2939
g0
(g2802
g2
Ntp3744
Rp3745
(dp3746
g6
g7
sg2806
g2807
sg2808
Nsg20
I01
sg2809
Nsg2810
I0
sg85
Nsg504
Nsg24
Nsg11
Nsg29
I00
sg30
(dp3747
sg32
I00
sg2002
Nsg2812
F0.8
sg2813
Nsg2814
g2815
sg2816
g2817
sg1827
Nsg1829
I01
sg2818
g3617
sg1839
I0
sg1845
I01
sg2820
I01
sg2821
I01
sg123
g439
sg2822
Nsg2823
F2.01
sg2137
g3459
sg2824
I5
sg9
g4
sg2825
Nsg10
Nsg35
Nsg17
g18
sg2826
g2827
sg23
Nsg25
Nsg28
I00
sg2828
Nsg34
Nsg2829
Nsg2830
g0
(g2831
g2
Ntp3748
Rp3749
(dp3750
g2830
I1
sg2835
Nsg2836
F1.0
sg123
g0
(g42
g2
Ntp3751
Rp3752
(dp3753
g46
I2
sg47
Nsg48
g49
(g50
(I0
tp3754
g52
tp3755
Rp3756
(I1
(I3
I3
tp3757
g59
I00
S'\x00\x00\x00\x00\x00\x00\xf0?\x00\x00\x00\x00\x00\x00\x00\x00\x00\x00\x00\x00\x00\x00\x00\x00\x00\x00\x00\x00\x00\x00\x00\x00\x00\x00\x00\x00\x00\x00\xf0?\x00\x00\x00\x00\x00\x00\x00\x00\x00\x00\x00\x00\x00\x00\x00\x00\x00\x00\x00\x00\x00\x00\x00\x00\x00\x00\x00\x00\x00\x00\xf0?'
p3758
tp3759
bsg64
g7
sg65
(dp3760
sbsg2847
I00
sg2848
g2849
sg2850
Nsg1999
g2851
sg1963
g2852
sg2443
g3553
sbsg2862
g2863
sg36
Nsg33
Nsg1949
I01
sg2864
Nsg1965
g3631
sg1831
g0
(g1832
g1833
((lp3761
(lp3762
tp3763
tp3764
Rp3765
sg2871
I00
sg2872
g2873
sg2874
g2827
sg2875
Nsg1846
Nsg2876
g2827
sg2877
F0.0
sg8
I01
sg2878
Nsg1915
Nsg2001
Nsg2879
(I0
tp3766
sg1945
F0.5
sg2443
Nsbsg123
Nsg2965
F8.0
sg2966
g3638
sg2968
(g2969
I0
tp3767
sg1915
Nsg2137
g3459
sg34
Nsbasg3099
I01
sg1820
g0
(g1821
g2
Ntp3768
Rp3769
(dp3770
g1825
g1826
sbsg1827
Nsg1829
I01
sg3103
I01
sg1831
g0
(g1832
g1833
((lp3771
(lp3772
tp3773
tp3774
Rp3775
sg1839
I0
sg3109
I1
sg3110
Nsg1845
I00
sg1846
Nsg3111
Vleft
p3776
sg123
Nsg3113
Nsg3114
Vleft
p3777
sg1915
Nsg2001
Nsg2824
I15
sg3116
(lp3778
g0
(g3491
g2
Ntp3779
Rp3780
(dp3781
g6
g7
sg1913
F0.6
sg9
g4
sg2748
I01
sg8
I01
sg10
Nsg1839
I0
sg35
Nsg2749
F3.4
sg2750
g3459
sg2751
I00
sg2092
F0.0
sg17
g18
sg2752
g3495
sg2698
g0
(g2076
g2
Ntp3782
Rp3783
(dp3784
g6
g7
sg8
I01
sg9
g4
sg10
Nsg2080
g0
(g2081
g2
Ntp3785
Rp3786
(dp3787
g2085
(lp3788
g2087
asg2088
Nsg2089
g2090
sg2091
g2090
sg2092
F8.0
sg2093
g2090
sg2094
g2090
sbsg35
Nsg17
g18
sg2095
Nsg20
I01
sg23
Nsg85
I0
sg504
I0
sg24
Nsg25
Nsg11
Nsg28
I00
sg29
I00
sg30
(dp3789
sg2097
Nsg32
I00
sg2002
Nsg36
Nsg2001
Nsg2098
Nsg33
Nsg1827
Nsg1829
I01
sg2099
g3504
sg2101
V
p3790
sg2103
Nsg1831
g0
(g1832
g1833
((lp3791
(lp3792
tp3793
tp3794
Rp3795
sg1839
I0
sg2109
Nsg1845
I01
sg1846
Nsg2110
F1.2
sg123
g577
sg2135
I00
sg2136
I00
sg1915
Nsg2137
g3459
sg2139
g3511
sg34
Nsbsg20
I01
sg23
Nsg2770
I00
sg24
Nsg25
Nsg11
Nsg2771
I00
sg28
I00
sg29
I00
sg30
(dp3796
sg2773
(I0
I1
tp3797
sg32
I00
sg2775
I2
sg2002
g1888
sg2776
I01
sg36
g881
sg2001
Nsg2777
g3783
sg2778
g0
(g2076
g2
Ntp3798
Rp3799
(dp3800
g6
g7
sg8
I01
sg9
g4
sg10
Nsg2080
g0
(g2081
g2
Ntp3801
Rp3802
(dp3803
g2085
(lp3804
g2087
asg2088
Nsg2089
g2090
sg2091
g2090
sg2092
F8.0
sg2093
g2090
sg2094
g2090
sbsg35
Nsg17
g18
sg2095
Nsg20
I01
sg23
Nsg85
I0
sg504
I1
sg24
Nsg25
Nsg11
Nsg28
I00
sg29
I00
sg30
(dp3805
sg2097
Nsg32
I00
sg2002
Nsg36
Nsg2001
Nsg2098
Nsg33
Nsg1827
Nsg1829
I01
sg2099
g3504
sg2101
V
p3806
sg2103
Nsg1831
g0
(g1832
g1833
((lp3807
(lp3808
tp3809
tp3810
Rp3811
sg1839
I0
sg2109
Nsg1845
I01
sg1846
Nsg2110
F1.2
sg123
g514
sg2135
I00
sg2136
I00
sg1915
Nsg2137
g3459
sg2139
g3528
sg34
Nsbsg1827
Nsg2794
I0
sg1829
I01
sg1831
g0
(g1832
g1833
((lp3812
(lp3813
tp3814
tp3815
Rp3816
sg2800
F3.4
sg2801
g0
(g2802
g2
Ntp3817
Rp3818
(dp3819
g6
g7
sg2806
g2807
sg2808
Nsg20
I01
sg2809
Nsg2810
I0
sg85
Nsg504
Nsg24
Nsg11
Nsg29
I00
sg30
(dp3820
sg32
I00
sg2002
Nsg2812
F0.6
sg2813
Nsg2814
g2815
sg2816
g2817
sg1827
Nsg1829
I01
sg2818
g3538
sg1839
I0
sg1845
I01
sg2820
I01
sg2821
I01
sg123
g439
sg2822
Nsg2823
I2
sg2137
g3459
sg2824
I5
sg9
g4
sg2825
Nsg10
Nsg35
Nsg17
g18
sg2826
g2827
sg23
Nsg25
Nsg28
I00
sg2828
Nsg34
Nsg2829
Nsg2830
g0
(g2831
g2
Ntp3821
Rp3822
(dp3823
g2830
I0
sg2835
Nsg2836
F1.0
sg123
g0
(g42
g2
Ntp3824
Rp3825
(dp3826
g46
I2
sg47
Nsg48
g49
(g50
(I0
tp3827
g52
tp3828
Rp3829
(I1
(I3
I3
tp3830
g59
I00
S'\x00\x00\x00\x00\x00\x00\xf0\xbf\x00\x00\x00\x00\x00\x00\x00\x00\x00\x00\x00\x00\x00\x00\x00\x00\x00\x00\x00\x00\x00\x00\x00\x00\x00\x00\x00\x00\x00\x00\xf0?\x00\x00\x00\x00\x00\x00\x00\x00\x00\x00\x00\x00\x00\x00\x00\x00\x00\x00\x00\x00\x00\x00\x00\x00\x00\x00\x00\x00\x00\x00\xf0?'
p3831
tp3832
bsg64
g7
sg65
(dp3833
sbsg2847
I00
sg2848
g2849
sg2850
Nsg1999
g2851
sg1963
g2852
sg2443
g3553
sbsg2862
g2863
sg36
Nsg33
Nsg1949
I01
sg2864
Nsg1965
g3561
sg1831
g0
(g1832
g1833
((lp3834
(lp3835
tp3836
tp3837
Rp3838
sg2871
I00
sg2872
g2873
sg2874
g2827
sg2875
Nsg1846
Nsg2876
g2827
sg2877
F0.0
sg8
I01
sg2878
Nsg1915
Nsg2001
Nsg2879
(I0
tp3839
sg1945
F0.5
sg2443
Nsbsg1845
I00
sg2881
g0
(g2802
g2
Ntp3840
Rp3841
(dp3842
g6
g7
sg8
I01
sg2874
g2827
sg9
g4
sg2806
g2807
sg2808
Nsg10
Nsg35
Nsg17
g18
sg2826
g2827
sg20
I01
sg2809
Nsg23
Nsg85
g49
(g50
(I0
tp3843
g52
tp3844
Rp3845
(I1
(I2
tp3846
g59
I00
S'\x00\x00\x00\x00\x00\x00\x00\x00\x00\x00\x00\x00\x00\x00\x00\x00'
p3847
tp3848
bsg504
g49
(g50
(I0
tp3849
g52
tp3850
Rp3851
(I1
(I2
tp3852
g59
I00
S'\x00\x00\x00\x00\x00\x00\x00\x00\x00\x00\x00\x00\x00\x00\xf0?'
p3853
tp3854
bsg24
Nsg25
Nsg11
Nsg2818
g3583
sg28
I00
sg2828
Nsg29
I00
sg30
(dp3855
sg2825
Nsg32
I00
sg2871
I00
sg2002
Nsg2829
Nsg2812
F1.0
sg2862
g2863
sg2813
Nsg2137
g2899
sg2830
g0
(g2831
g2
Ntp3856
Rp3857
(dp3858
g2830
g2903
sg2835
Nsg2836
Nsg123
g0
(g499
g2
Ntp3859
Rp3860
(dp3861
g46
I1
sg47
Nsg64
g7
sg65
(dp3862
sbsg2847
I00
sg2848
g2849
sg2850
Nsg1999
g2851
sg1963
g2852
sg2443
g2909
sbsg33
Nsg2814
g2815
sg1949
I01
sg2816
g2817
sg1827
Nsg2877
F0.0
sg1829
I01
sg2864
g49
(g50
(I0
tp3863
g52
tp3864
Rp3865
(I1
(I2
I2
tp3866
g59
I00
S'\x00\x00\x00\x00\x00\x00\x00\x00\x00\x00\x00\x00\x00\x00\x00\x00\x00\x00\x00\x00\x00\x00\xf0?\x00\x00\x00\x00\x00\x00\x00\x00'
p3867
tp3868
bsg1965
g2923
sg1831
g0
(g1832
g1833
((lp3869
(lp3870
tp3871
tp3872
Rp3873
sg1839
I0
sg2872
g2873
sg2810
I0
sg2875
Nsg2824
I5
sg1845
I01
sg1846
F1.0
sg2876
g2827
sg2821
I00
sg123
g439
sg2878
Nsg2822
Nsg2820
I00
sg1915
Nsg2001
Nsg2879
g3603
sg36
g343
sg1945
F0.8
sg34
Nsg2443
g0
(g2444
g2
Ntp3874
Rp3875
(dp3876
g2448
I00
sg2449
Nsg2450
g49
(g50
(I0
tp3877
g52
tp3878
Rp3879
(I1
(I2
I2
tp3880
g59
I01
S'\x00\x00\x00\x00\x00\x00\x00\x00\x00\x00\x00\x00\x00\x00\xf0?\x00\x00\x00\x00\x00\x00\x00\x00\x00\x00\x00\x00\x00\x00\x00\x00'
p3881
tp3882
bsg2457
I00
sg2458
F0.1111111111111111
sg2459
I180
sg2460
I00
sbsbsg1846
Nsg33
Nsg2939
g0
(g2802
g2
Ntp3883
Rp3884
(dp3885
g6
g7
sg2806
g2807
sg2808
Nsg20
I01
sg2809
Nsg2810
I0
sg85
Nsg504
Nsg24
Nsg11
Nsg29
I00
sg30
(dp3886
sg32
I00
sg2002
Nsg2812
F0.6
sg2813
Nsg2814
g2815
sg2816
g2817
sg1827
Nsg1829
I01
sg2818
g3617
sg1839
I0
sg1845
I01
sg2820
I01
sg2821
I01
sg123
g439
sg2822
Nsg2823
I2
sg2137
g3459
sg2824
I5
sg9
g4
sg2825
Nsg10
Nsg35
Nsg17
g18
sg2826
g2827
sg23
Nsg25
Nsg28
I00
sg2828
Nsg34
Nsg2829
Nsg2830
g0
(g2831
g2
Ntp3887
Rp3888
(dp3889
g2830
I1
sg2835
Nsg2836
F1.0
sg123
g0
(g42
g2
Ntp3890
Rp3891
(dp3892
g46
I2
sg47
Nsg48
g49
(g50
(I0
tp3893
g52
tp3894
Rp3895
(I1
(I3
I3
tp3896
g59
I00
S'\x00\x00\x00\x00\x00\x00\xf0?\x00\x00\x00\x00\x00\x00\x00\x00\x00\x00\x00\x00\x00\x00\x00\x00\x00\x00\x00\x00\x00\x00\x00\x00\x00\x00\x00\x00\x00\x00\xf0?\x00\x00\x00\x00\x00\x00\x00\x00\x00\x00\x00\x00\x00\x00\x00\x00\x00\x00\x00\x00\x00\x00\x00\x00\x00\x00\x00\x00\x00\x00\xf0?'
p3897
tp3898
bsg64
g7
sg65
(dp3899
sbsg2847
I00
sg2848
g2849
sg2850
Nsg1999
g2851
sg1963
g2852
sg2443
g3553
sbsg2862
g2863
sg36
Nsg33
Nsg1949
I01
sg2864
Nsg1965
g3631
sg1831
g0
(g1832
g1833
((lp3900
(lp3901
tp3902
tp3903
Rp3904
sg2871
I00
sg2872
g2873
sg2874
g2827
sg2875
Nsg1846
Nsg2876
g2827
sg2877
F0.0
sg8
I01
sg2878
Nsg1915
Nsg2001
Nsg2879
(I0
tp3905
sg1945
F0.5
sg2443
Nsbsg123
Nsg2965
F8.0
sg2966
g3638
sg2968
(g2969
I0
tp3906
sg1915
Nsg2137
g3459
sg34
Nsbag0
(g3491
g2
Ntp3907
Rp3908
(dp3909
g6
g7
sg1913
F0.6
sg9
g4
sg2748
I01
sg8
I01
sg10
Nsg1839
I0
sg35
Nsg2749
F3.4
sg2750
g3459
sg2751
I00
sg2092
F0.0
sg17
g18
sg2752
g3495
sg2698
g0
(g2076
g2
Ntp3910
Rp3911
(dp3912
g6
g7
sg8
I01
sg9
g4
sg10
Nsg2080
g0
(g2081
g2
Ntp3913
Rp3914
(dp3915
g2085
(lp3916
g2087
asg2088
Nsg2089
g2090
sg2091
g2090
sg2092
F8.0
sg2093
g2090
sg2094
g2090
sbsg35
Nsg17
g18
sg2095
Nsg20
I01
sg23
Nsg85
I0
sg504
I0
sg24
Nsg25
Nsg11
Nsg28
I00
sg29
I00
sg30
(dp3917
sg2097
Nsg32
I00
sg2002
Nsg36
Nsg2001
Nsg2098
Nsg33
Nsg1827
Nsg1829
I01
sg2099
g3504
sg2101
V
p3918
sg2103
Nsg1831
g0
(g1832
g1833
((lp3919
(lp3920
tp3921
tp3922
Rp3923
sg1839
I0
sg2109
Nsg1845
I01
sg1846
Nsg2110
F1.2
sg123
g568
sg2135
I00
sg2136
I00
sg1915
Nsg2137
g3459
sg2139
g3511
sg34
Nsbsg20
I01
sg23
Nsg2770
I00
sg24
Nsg25
Nsg11
Nsg2771
I00
sg28
I00
sg29
I00
sg30
(dp3924
sg2773
(I0
I1
tp3925
sg32
I00
sg2775
I2
sg2002
g1888
sg2776
I01
sg36
g1589
sg2001
Nsg2777
g3911
sg2778
g0
(g2076
g2
Ntp3926
Rp3927
(dp3928
g6
g7
sg8
I01
sg9
g4
sg10
Nsg2080
g0
(g2081
g2
Ntp3929
Rp3930
(dp3931
g2085
(lp3932
g2087
asg2088
Nsg2089
g2090
sg2091
g2090
sg2092
F8.0
sg2093
g2090
sg2094
g2090
sbsg35
Nsg17
g18
sg2095
Nsg20
I01
sg23
Nsg85
I0
sg504
I1
sg24
Nsg25
Nsg11
Nsg28
I00
sg29
I00
sg30
(dp3933
sg2097
Nsg32
I00
sg2002
Nsg36
Nsg2001
Nsg2098
Nsg33
Nsg1827
Nsg1829
I01
sg2099
g3504
sg2101
V
p3934
sg2103
Nsg1831
g0
(g1832
g1833
((lp3935
(lp3936
tp3937
tp3938
Rp3939
sg1839
I0
sg2109
Nsg1845
I01
sg1846
Nsg2110
F1.2
sg123
g559
sg2135
I00
sg2136
I00
sg1915
Nsg2137
g3459
sg2139
g3528
sg34
Nsbsg1827
Nsg2794
I0
sg1829
I01
sg1831
g0
(g1832
g1833
((lp3940
(lp3941
tp3942
tp3943
Rp3944
sg2800
F3.4
sg2801
g0
(g2802
g2
Ntp3945
Rp3946
(dp3947
g6
g7
sg2806
g2807
sg2808
Nsg20
I01
sg2809
Nsg2810
I0
sg85
Nsg504
Nsg24
Nsg11
Nsg29
I00
sg30
(dp3948
sg32
I00
sg2002
Nsg2812
F0.6
sg2813
Nsg2814
g2815
sg2816
g2817
sg1827
Nsg1829
I01
sg2818
g3538
sg1839
I0
sg1845
I01
sg2820
I01
sg2821
I01
sg123
g439
sg2822
Nsg2823
I2
sg2137
g3459
sg2824
I5
sg9
g4
sg2825
Nsg10
Nsg35
Nsg17
g18
sg2826
g2827
sg23
Nsg25
Nsg28
I00
sg2828
Nsg34
Nsg2829
Nsg2830
g0
(g2831
g2
Ntp3949
Rp3950
(dp3951
g2830
I0
sg2835
Nsg2836
F1.0
sg123
g0
(g42
g2
Ntp3952
Rp3953
(dp3954
g46
I2
sg47
Nsg48
g49
(g50
(I0
tp3955
g52
tp3956
Rp3957
(I1
(I3
I3
tp3958
g59
I00
S'\x00\x00\x00\x00\x00\x00\xf0\xbf\x00\x00\x00\x00\x00\x00\x00\x00\x00\x00\x00\x00\x00\x00\x00\x00\x00\x00\x00\x00\x00\x00\x00\x00\x00\x00\x00\x00\x00\x00\xf0?\x00\x00\x00\x00\x00\x00\x00\x00\x00\x00\x00\x00\x00\x00\x00\x00\x00\x00\x00\x00\x00\x00\x00\x00\x00\x00\x00\x00\x00\x00\xf0?'
p3959
tp3960
bsg64
g7
sg65
(dp3961
sbsg2847
I00
sg2848
g2849
sg2850
Nsg1999
g2851
sg1963
g2852
sg2443
g3553
sbsg2862
g2863
sg36
Nsg33
Nsg1949
I01
sg2864
Nsg1965
g3561
sg1831
g0
(g1832
g1833
((lp3962
(lp3963
tp3964
tp3965
Rp3966
sg2871
I00
sg2872
g2873
sg2874
g2827
sg2875
Nsg1846
Nsg2876
g2827
sg2877
F0.0
sg8
I01
sg2878
Nsg1915
Nsg2001
Nsg2879
(I0
tp3967
sg1945
F0.5
sg2443
Nsbsg1845
I00
sg2881
g0
(g2802
g2
Ntp3968
Rp3969
(dp3970
g6
g7
sg8
I01
sg2874
g2827
sg9
g4
sg2806
g2807
sg2808
Nsg10
Nsg35
Nsg17
g18
sg2826
g2827
sg20
I01
sg2809
Nsg23
Nsg85
g49
(g50
(I0
tp3971
g52
tp3972
Rp3973
(I1
(I2
tp3974
g59
I00
S'\x00\x00\x00\x00\x00\x00\x00\x00\x00\x00\x00\x00\x00\x00\x00\x00'
p3975
tp3976
bsg504
g49
(g50
(I0
tp3977
g52
tp3978
Rp3979
(I1
(I2
tp3980
g59
I00
S'\x00\x00\x00\x00\x00\x00\x00\x00\x00\x00\x00\x00\x00\x00\xf0?'
p3981
tp3982
bsg24
Nsg25
Nsg11
Nsg2818
g3583
sg28
I00
sg2828
Nsg29
I00
sg30
(dp3983
sg2825
Nsg32
I00
sg2871
I00
sg2002
Nsg2829
Nsg2812
F1.0
sg2862
g2863
sg2813
Nsg2137
g2899
sg2830
g0
(g2831
g2
Ntp3984
Rp3985
(dp3986
g2830
g2903
sg2835
Nsg2836
Nsg123
g0
(g499
g2
Ntp3987
Rp3988
(dp3989
g46
I1
sg47
Nsg64
g7
sg65
(dp3990
sbsg2847
I00
sg2848
g2849
sg2850
Nsg1999
g2851
sg1963
g2852
sg2443
g2909
sbsg33
Nsg2814
g2815
sg1949
I01
sg2816
g2817
sg1827
Nsg2877
F0.0
sg1829
I01
sg2864
g49
(g50
(I0
tp3991
g52
tp3992
Rp3993
(I1
(I2
I2
tp3994
g59
I00
S'\x00\x00\x00\x00\x00\x00\x00\x00\x00\x00\x00\x00\x00\x00\x00\x00\x00\x00\x00\x00\x00\x00\xf0?\x00\x00\x00\x00\x00\x00\x00\x00'
p3995
tp3996
bsg1965
g2923
sg1831
g0
(g1832
g1833
((lp3997
(lp3998
tp3999
tp4000
Rp4001
sg1839
I0
sg2872
g2873
sg2810
I0
sg2875
Nsg2824
I5
sg1845
I01
sg1846
F1.0
sg2876
g2827
sg2821
I00
sg123
g439
sg2878
Nsg2822
Nsg2820
I00
sg1915
Nsg2001
Nsg2879
g3603
sg36
g273
sg1945
F0.8
sg34
Nsg2443
g0
(g2444
g2
Ntp4002
Rp4003
(dp4004
g2448
I00
sg2449
Nsg2450
g49
(g50
(I0
tp4005
g52
tp4006
Rp4007
(I1
(I2
I2
tp4008
g59
I01
S'\x00\x00\x00\x00\x00\x00\x00\x00\x00\x00\x00\x00\x00\x00\xf0?\x00\x00\x00\x00\x00\x00\x00\x00\x00\x00\x00\x00\x00\x00\x00\x00'
p4009
tp4010
bsg2457
I00
sg2458
F0.1111111111111111
sg2459
I180
sg2460
I00
sbsbsg1846
Nsg33
Nsg2939
g0
(g2802
g2
Ntp4011
Rp4012
(dp4013
g6
g7
sg2806
g2807
sg2808
Nsg20
I01
sg2809
Nsg2810
I0
sg85
Nsg504
Nsg24
Nsg11
Nsg29
I00
sg30
(dp4014
sg32
I00
sg2002
Nsg2812
F0.6
sg2813
Nsg2814
g2815
sg2816
g2817
sg1827
Nsg1829
I01
sg2818
g3617
sg1839
I0
sg1845
I01
sg2820
I01
sg2821
I01
sg123
g439
sg2822
Nsg2823
I2
sg2137
g3459
sg2824
I5
sg9
g4
sg2825
Nsg10
Nsg35
Nsg17
g18
sg2826
g2827
sg23
Nsg25
Nsg28
I00
sg2828
Nsg34
Nsg2829
Nsg2830
g0
(g2831
g2
Ntp4015
Rp4016
(dp4017
g2830
I1
sg2835
Nsg2836
F1.0
sg123
g0
(g42
g2
Ntp4018
Rp4019
(dp4020
g46
I2
sg47
Nsg48
g49
(g50
(I0
tp4021
g52
tp4022
Rp4023
(I1
(I3
I3
tp4024
g59
I00
S'\x00\x00\x00\x00\x00\x00\xf0?\x00\x00\x00\x00\x00\x00\x00\x00\x00\x00\x00\x00\x00\x00\x00\x00\x00\x00\x00\x00\x00\x00\x00\x00\x00\x00\x00\x00\x00\x00\xf0?\x00\x00\x00\x00\x00\x00\x00\x00\x00\x00\x00\x00\x00\x00\x00\x00\x00\x00\x00\x00\x00\x00\x00\x00\x00\x00\x00\x00\x00\x00\xf0?'
p4025
tp4026
bsg64
g7
sg65
(dp4027
sbsg2847
I00
sg2848
g2849
sg2850
Nsg1999
g2851
sg1963
g2852
sg2443
g3553
sbsg2862
g2863
sg36
Nsg33
Nsg1949
I01
sg2864
Nsg1965
g3631
sg1831
g0
(g1832
g1833
((lp4028
(lp4029
tp4030
tp4031
Rp4032
sg2871
I00
sg2872
g2873
sg2874
g2827
sg2875
Nsg1846
Nsg2876
g2827
sg2877
F0.0
sg8
I01
sg2878
Nsg1915
Nsg2001
Nsg2879
(I0
tp4033
sg1945
F0.5
sg2443
Nsbsg123
Nsg2965
F8.0
sg2966
g3638
sg2968
(g2969
I0
tp4034
sg1915
Nsg2137
g3459
sg34
Nsbasg34
Nsg3374
(dp4035
g2733
I01
sg2735
I00
sg2736
I01
sg2737
I00
ssg3376
I01
sbsS'_axisbelow'
p4036
I00
sg8
I01
sS'lines'
p4037
(lp4038
sS'_ycid'
p4039
I1
sS'spines'
p4040
ccollections
OrderedDict
p4041
((lp4042
(lp4043
Vleft
p4044
ag0
(cmatplotlib.spines
Spine
p4045
g2
Ntp4046
Rp4047
(dp4048
g6
g7
sg2679
I00
sg1914
I01
sg9
g4
sS'_bounds'
p4049
Nsg8
I01
sg10
Nsg35
Nsg17
g18
sg1915
Nsg20
I01
sg2657
g3419
sg1916
g0
(g499
g2
Ntp4050
Rp4051
(dp4052
g46
I1
sg47
Nsg64
g7
sg65
(dp4053
sbsg1921
(F0.0
F0.0
F0.0
F1.0
tp4054
sg23
Nsg24
Nsg1937
V0.
p4055
sg11
Nsg28
I00
sg29
I00
sg30
(dp4056
sg1997
(NNtp4057
sg2593
(Voutward
p4058
F0.0
tp4059
sg32
I00
sg1944
Nsg1829
I01
sg1945
F1.0
sS'_patch_type'
p4060
Vline
p4061
sg33
Nsg1947
g4054
sg1948
Nsg1949
I01
sg1950
Nsg1951
Vnone
p4062
sg1827
Nsg1952
g2571
sg1963
g1964
sS'_patch_transform'
p4063
g0
(g499
g2
Ntp4064
Rp4065
(dp4066
g46
I1
sg47
Nsg64
g7
sg65
(dp4067
sbsg1965
g1966
sg1831
g0
(g1832
g1833
((lp4068
(lp4069
tp4070
tp4071
Rp4072
sg1839
I0
sS'_spine_transform'
p4073
(Videntity
p4074
g0
(g499
g2
Ntp4075
Rp4076
(dp4077
g46
I1
sg47
Nsg64
g7
sg65
(dp4078
sbtp4079
sg1845
I01
sg1846
NsS'spine_type'
p4080
g4044
sg123
g439
sg36
Nsg2823
F2.5
sg1999
Vprojecting
p4081
sg2001
Nsg25
Nsg2002
g1888
sg34
Nsg2443
g0
(g2444
g2
Ntp4082
Rp4083
(dp4084
g2448
I00
sg2449
Nsg2450
g49
(g50
(I0
tp4085
g52
tp4086
Rp4087
(I1
(I2
I2
tp4088
g59
I00
S'\x00\x00\x00\x00\x00\x00\x00\x00\x00\x00\x00\x00\x00\x00*@\x00\x00\x00\x00\x00\x00\x00\x00\x00\x00\x00\x00\x00\x00*@'
p4089
tp4090
bsg2457
I00
sg2458
F0.1111111111111111
sg2459
I1
sg2460
I00
sbsbaa(lp4091
Vright
p4092
ag0
(g4045
g2
Ntp4093
Rp4094
(dp4095
g6
g7
sg2679
I00
sg1914
I01
sg9
g4
sg4049
Nsg8
I00
sg10
Nsg35
Nsg17
g18
sg1915
Nsg20
I01
sg2657
g3419
sg1916
g0
(g499
g2
Ntp4096
Rp4097
(dp4098
g46
I1
sg47
Nsg64
g7
sg65
(dp4099
sbsg1921
g4054
sg23
Nsg24
Nsg1937
g4055
sg11
Nsg28
I00
sg29
I00
sg30
(dp4100
sg1997
(NNtp4101
sg2593
g4059
sg32
I00
sg1944
Nsg1829
I01
sg1945
F1.0
sg4060
g4061
sg33
Nsg1947
g4054
sg1948
Nsg1949
I01
sg1950
Nsg1951
g4062
sg1827
Nsg1952
g2571
sg1963
g1964
sg4063
g0
(g499
g2
Ntp4102
Rp4103
(dp4104
g46
I1
sg47
Nsg64
g7
sg65
(dp4105
sbsg1965
g1966
sg1831
g0
(g1832
g1833
((lp4106
(lp4107
tp4108
tp4109
Rp4110
sg1839
I0
sg4073
(g4074
g0
(g499
g2
Ntp4111
Rp4112
(dp4113
g46
I1
sg47
Nsg64
g7
sg65
(dp4114
sbtp4115
sg1845
I01
sg1846
Nsg4080
g4092
sg123
g439
sg36
Nsg2823
F2.5
sg1999
g4081
sg2001
Nsg25
Nsg2002
g1888
sg34
Nsg2443
g0
(g2444
g2
Ntp4116
Rp4117
(dp4118
g2448
I00
sg2449
Nsg2450
g49
(g50
(I0
tp4119
g52
tp4120
Rp4121
(I1
(I2
I2
tp4122
g59
I00
S'\x00\x00\x00\x00\x00\x00\xf0?\x00\x00\x00\x00\x00\x00*@\x00\x00\x00\x00\x00\x00\xf0?\x00\x00\x00\x00\x00\x00*@'
p4123
tp4124
bsg2457
I00
sg2458
F0.1111111111111111
sg2459
I1
sg2460
I00
sbsbaa(lp4125
Vbottom
p4126
ag0
(g4045
g2
Ntp4127
Rp4128
(dp4129
g6
g7
sg2679
I00
sg1914
I01
sg9
g4
sg4049
Nsg8
I01
sg10
Nsg35
Nsg17
g18
sg1915
Nsg20
I01
sg2657
g2625
sg1916
g0
(g499
g2
Ntp4130
Rp4131
(dp4132
g46
I1
sg47
Nsg64
g7
sg65
(dp4133
sbsg1921
g4054
sg23
Nsg24
Nsg1937
g4055
sg11
Nsg28
I00
sg29
I00
sg30
(dp4134
sg1997
(NNtp4135
sg2593
g4059
sg32
I00
sg1944
Nsg1829
I01
sg1945
F1.0
sg4060
g4061
sg33
Nsg1947
g4054
sg1948
Nsg1949
I01
sg1950
Nsg1951
g4062
sg1827
Nsg1952
g2571
sg1963
g1964
sg4063
g0
(g499
g2
Ntp4136
Rp4137
(dp4138
g46
I1
sg47
Nsg64
g7
sg65
(dp4139
sbsg1965
g1966
sg1831
g0
(g1832
g1833
((lp4140
(lp4141
tp4142
tp4143
Rp4144
sg1839
I0
sg4073
(g4074
g0
(g499
g2
Ntp4145
Rp4146
(dp4147
g46
I1
sg47
Nsg64
g7
sg65
(dp4148
sbtp4149
sg1845
I01
sg1846
Nsg4080
g4126
sg123
g83
sg36
Nsg2823
F2.5
sg1999
g4081
sg2001
Nsg25
Nsg2002
g1888
sg34
Nsg2443
g0
(g2444
g2
Ntp4150
Rp4151
(dp4152
g2448
I00
sg2449
Nsg2450
g49
(g50
(I0
tp4153
g52
tp4154
Rp4155
(I1
(I2
I2
tp4156
g59
I00
S'\x00\x00\x00\x00\x00\x00*@\x00\x00\x00\x00\x00\x00\x00\x00\x00\x00\x00\x00\x00\x00*@\x00\x00\x00\x00\x00\x00\x00\x00'
p4157
tp4158
bsg2457
I00
sg2458
F0.1111111111111111
sg2459
I1
sg2460
I00
sbsbaa(lp4159
Vtop
p4160
ag0
(g4045
g2
Ntp4161
Rp4162
(dp4163
g6
g7
sg2679
I00
sg1914
I01
sg9
g4
sg4049
Nsg8
I00
sg10
Nsg35
Nsg17
g18
sg1915
Nsg20
I01
sg2657
g2625
sg1916
g0
(g499
g2
Ntp4164
Rp4165
(dp4166
g46
I1
sg47
Nsg64
g7
sg65
(dp4167
sbsg1921
g4054
sg23
Nsg24
Nsg1937
g4055
sg11
Nsg28
I00
sg29
I00
sg30
(dp4168
sg1997
(NNtp4169
sg2593
g4059
sg32
I00
sg1944
Nsg1829
I01
sg1945
F1.0
sg4060
g4061
sg33
Nsg1947
g4054
sg1948
Nsg1949
I01
sg1950
Nsg1951
g4062
sg1827
Nsg1952
g2571
sg1963
g1964
sg4063
g0
(g499
g2
Ntp4170
Rp4171
(dp4172
g46
I1
sg47
Nsg64
g7
sg65
(dp4173
sbsg1965
g1966
sg1831
g0
(g1832
g1833
((lp4174
(lp4175
tp4176
tp4177
Rp4178
sg1839
I0
sg4073
(g4074
g0
(g499
g2
Ntp4179
Rp4180
(dp4181
g46
I1
sg47
Nsg64
g7
sg65
(dp4182
sbtp4183
sg1845
I01
sg1846
Nsg4080
g4160
sg123
g83
sg36
Nsg2823
F2.5
sg1999
g4081
sg2001
Nsg25
Nsg2002
g1888
sg34
Nsg2443
g0
(g2444
g2
Ntp4184
Rp4185
(dp4186
g2448
I00
sg2449
Nsg2450
g49
(g50
(I0
tp4187
g52
tp4188
Rp4189
(I1
(I2
I2
tp4190
g59
I00
S'\x00\x00\x00\x00\x00\x00*@\x00\x00\x00\x00\x00\x00\xf0?\x00\x00\x00\x00\x00\x00*@\x00\x00\x00\x00\x00\x00\xf0?'
p4191
tp4192
bsg2457
I00
sg2458
F0.1111111111111111
sg2459
I1
sg2460
I00
sbsbaatp4193
Rp4194
sS'_anchor'
p4195
VC
p4196
sg1915
Nsg2001
NsS'_use_sticky_edges'
p4197
I01
sbtp4198
tp4199
asS'_ind'
p4200
I1
sS'_pos'
p4201
I0
sbsg123
Nsg4037
(lp4202
sg2563
g0
(g1908
g2
Ntp4203
Rp4204
(dp4205
g6
g7
sg1913
I1
sg1914
I01
sg9
g4
sg8
I01
sg10
Nsg35
Nsg17
g18
sg1915
Nsg20
I01
sg1916
g0
(g499
g2
Ntp4206
Rp4207
(dp4208
g46
I1
sg47
Nsg64
g7
sg65
(dp4209
sbsg1921
(g1922
(g59
S'\x00\x00\x00\x00\x00\x00\xf0?'
p4210
tp4211
Rp4212
g1922
(g59
S'\x00\x00\x00\x00\x00\x00\xf0?'
p4213
tp4214
Rp4215
g1922
(g59
S'\x00\x00\x00\x00\x00\x00\xf0?'
p4216
tp4217
Rp4218
g1922
(g59
S'\x00\x00\x00\x00\x00\x00\x00\x00'
p4219
tp4220
Rp4221
tp4222
sg1936
F0.0
sg23
Nsg85
I0
sg504
I0
sg24
Nsg1937
(I1
I1
I1
I0
tp4223
sg11
Nsg28
I00
sg29
I00
sg30
(dp4224
sg1939
g0
(g499
g2
Ntp4225
Rp4226
(dp4227
g46
I1
sg47
Nsg64
g7
sg65
(dp4228
sbsg32
I00
sg1944
Nsg1829
I01
sg1945
F0.0
sg36
Nsg1946
I1
sg33
Nsg1947
g4222
sg1948
Nsg1949
I00
sg1950
Nsg1951
(I1
I1
I1
I0
tp4229
sg1827
Nsg1952
g4222
sg1963
g1964
sg1965
g1966
sg1831
g0
(g1832
g1833
((lp4230
(lp4231
tp4232
tp4233
Rp4234
sg1839
I0
sg1845
I01
sg1846
Nsg123
g125
sg1997
(NNtp4235
sg1999
g2000
sg2001
Nsg25
Nsg2002
Nsg34
NsbsS'subplotpars'
p4236
g0
(cmatplotlib.figure
SubplotParams
p4237
g2
Ntp4238
Rp4239
(dp4240
g1867
F0.9
sg1869
F0.125
sg1870
F0.88
sg1871
F0.2
sS'validate'
p4241
I01
sg1873
F0.2
sg1875
F0.125
sbsg1915
Nsg2001
NsS'bbox_inches'
p4242
g131
sS'transFigure'
p4243
g125
sS'_dpi'
p4244
F72.0
sb.