ccopy_reg
_reconstructor
p0
(cmatplotlib.figure
Figure
p1
c__builtin__
object
p2
Ntp3
Rp4
(dp5
S'_label'
p6
V
p7
sS'_visible'
p8
I01
sS'figure'
p9
NsS'stale_callback'
p10
NsS'_rasterized'
p11
NsS'texts'
p12
(lp13
sS'_hold'
p14
I01
sS'artists'
p15
(lp16
sS'_path_effects'
p17
(lp18
sS'frameon'
p19
I01
sS'_clipon'
p20
I01
sV__mpl_version__
p21
S'2.1.1'
p22
sS'_clippath'
p23
NsS'_sketch'
p24
NsS'_contains'
p25
NsS'_tight_parameters'
p26
(dp27
sS'_mouseover'
p28
I00
sS'_animated'
p29
I00
sS'_propobservers'
p30
(dp31
sS'eventson'
p32
I00
sS'_picker'
p33
NsS'_remove_method'
p34
NsS'_agg_filter'
p35
NsS'clipbox'
p36
NsV_restore_to_pylab
p37
I01
sS'images'
p38
(lp39
sS'_suptitle'
p40
NsS'dpi_scale_trans'
p41
g0
(cmatplotlib.transforms
Affine2D
p42
g2
Ntp43
Rp44
(dp45
S'_invalid'
p46
I2
sS'_inverted'
p47
NsS'_mtx'
p48
cnumpy.core.multiarray
_reconstruct
p49
(cnumpy
ndarray
p50
(I0
tp51
S'b'
p52
tp53
Rp54
(I1
(I3
I3
tp55
cnumpy
dtype
p56
(S'f8'
p57
I0
I1
tp58
Rp59
(I3
S'<'
p60
NNNI-1
I-1
I0
tp61
bI00
S'\x00\x00\x00\x00\x00\x00R@\x00\x00\x00\x00\x00\x00\x00\x00\x00\x00\x00\x00\x00\x00\x00\x00\x00\x00\x00\x00\x00\x00\x00\x00\x00\x00\x00\x00\x00\x00R@\x00\x00\x00\x00\x00\x00\x00\x00\x00\x00\x00\x00\x00\x00\x00\x00\x00\x00\x00\x00\x00\x00\x00\x00\x00\x00\x00\x00\x00\x00\xf0?'
p62
tp63
bsS'_shorthand_name'
p64
g7
sS'_parents'
p65
(dp66
I140468193191632
g0
(cmatplotlib.transforms
ScaledTranslation
p67
g2
Ntp68
Rp69
(dp70
g46
I1
sg48
NsS'_scale_trans'
p71
g44
sg47
NsS'_t'
p72
(F0.04722222222222222
I0
tp73
sg64
g7
sg65
(dp74
I140468193192784
g0
(cmatplotlib.transforms
CompositeGenericTransform
p75
g2
Ntp76
Rp77
(dp78
g46
I2
sS'input_dims'
p79
I2
sS'_a'
p80
g0
(cmatplotlib.transforms
BlendedGenericTransform
p81
g2
Ntp82
Rp83
(dp84
g46
I2
sS'_y'
p85
g0
(g75
g2
Ntp86
Rp87
(dp88
g46
I2
sg79
I2
sg80
g0
(cmatplotlib.transforms
TransformWrapper
p89
g2
Ntp90
Rp91
(dp92
Voutput_dims
p93
I2
sVparents
p94
(dp95
I140468192000272
g0
(cmatplotlib.transforms
TransformedBbox
p96
g2
Ntp97
Rp98
(dp99
g46
I2
sS'_bbox'
p100
g0
(cmatplotlib.transforms
Bbox
p101
g2
Ntp102
Rp103
(dp104
g46
I2
sS'_minpos'
p105
g49
(g50
(I0
tp106
g52
tp107
Rp108
(I1
(I2
tp109
g59
I00
S'\x00\x00\x00\x00\x00\x00\xf0\x7f\x00\x00\x00\x00\x00\x00\xf0\x7f'
p110
tp111
bsg65
(dp112
I140468192000272
g98
ssS'_points_orig'
p113
g49
(g50
(I0
tp114
g52
tp115
Rp116
(I1
(I2
I2
tp117
g59
I00
S'\x00\x00\x00\x00\x00\x00\x00\x00\x00\x00\x00\x00\x00\x00\x00\x00\x00\x00\x00\x00\x00\x00\xf0?\x00\x00\x00\x00\x00\x00\xf0?'
p118
tp119
bsS'_points'
p120
g49
(g50
(I0
tp121
g52
tp122
Rp123
(I1
(I2
I2
tp124
g59
I00
S'\x82\x91\x80\xeeK%\xdd\xbf\x00\x00\x00\x00\x00\x00\x00\x00hP\x1ao\xce\x1e)@\x9a\x99\x99\x99\x99yD@'
p125
tp126
bsS'_ignore'
p127
I01
sg64
g7
sbsS'_transform'
p128
g91
sg120
Nsg65
(dp129
I140468192000912
g0
(cmatplotlib.transforms
BboxTransformFrom
p130
g2
Ntp131
Rp132
(dp133
g46
I2
sS'_boxin'
p134
g98
sg48
Nsg47
Nsg64
g7
sg65
(dp135
I140468204021776
g0
(g75
g2
Ntp136
Rp137
(dp138
g46
I2
sg79
I2
sg80
g132
sS'output_dims'
p139
I2
sS'_b'
p140
g0
(cmatplotlib.transforms
BboxTransformTo
p141
g2
Ntp142
Rp143
(dp144
g46
I2
sg48
Nsg47
NsS'_boxout'
p145
g0
(g96
g2
Ntp146
Rp147
(dp148
g46
I2
sg100
g0
(g101
g2
Ntp149
Rp150
(dp151
g46
I0
sg105
g49
(g50
(I0
tp152
g52
tp153
Rp154
(I1
(I2
tp155
g59
I00
S'\x00\x00\x00\x00\x00\x00\xf0\x7f\x00\x00\x00\x00\x00\x00\xf0\x7f'
p156
tp157
bsg65
(dp158
I140468191998928
g147
ssg113
g49
(g50
(I0
tp159
g52
tp160
Rp161
(I1
(I2
I2
tp162
g59
I00
S'\x00\x00\x00\x00\x00\x00\xc0?\x00\x00\x00\x00\x00\x00\xc0?\xcd\xcc\xcc\xcc\xcc\xcc\xec?)\\\x8f\xc2\xf5(\xec?'
p163
tp164
bsg120
g49
(g50
(I0
tp165
g52
tp166
Rp167
(I1
(I2
I2
tp168
g59
I00
S'\x00\x00\x00\x00\x00\x00\xc0?\x00\x00\x00\x00\x00\x00\xc0?\xcd\xcc\xcc\xcc\xcc\xcc\xec?)\\\x8f\xc2\xf5(\xec?'
p169
tp170
bsg127
I01
sg64
g7
sbsg128
g0
(g141
g2
Ntp171
Rp172
(dp173
g46
I2
sg48
Nsg47
Nsg145
g0
(g96
g2
Ntp174
Rp175
(dp176
g46
I2
sg100
g0
(g101
g2
Ntp177
Rp178
(dp179
g46
I2
sg105
g49
(g50
(I0
tp180
g52
tp181
Rp182
(I1
(I2
tp183
g59
I00
S'\x00\x00\x00\x00\x00\x00\xf0\x7f\x00\x00\x00\x00\x00\x00\xf0\x7f'
p184
tp185
bsg65
(dp186
I140468203924688
g175
ssg113
g49
(g50
(I0
tp187
g52
tp188
Rp189
(I1
(I2
I2
tp190
g59
I00
S'\x00\x00\x00\x00\x00\x00\x00\x00\x00\x00\x00\x00\x00\x00\x00\x00\x00\x00\x00\x00\x00\x00\x18@\x00\x00\x00\x00\x00\x00\x10@'
p191
tp192
bsg120
g49
(g50
(I0
tp193
g52
tp194
Rp195
(I1
(I2
I2
tp196
g59
I00
S'\x00\x00\x00\x00\x00\x00\x00\x00\x00\x00\x00\x00\x00\x00\x00\x00\x00\x00\x00\x00\x00\x00\xf8?\x00\x00\x00\x00\x00\x00\xf8?'
p197
tp198
bsg127
I01
sg64
g7
sbsg128
g44
sg120
Nsg65
(dp199
I140468170944016
g172
ssg64
g7
sbsg65
(dp200
I140468191998928
g147
ssg64
g7
sbsg120
Nsg65
(dp201
I140468191998800
g143
ssg64
g7
sbsg65
(dp202
I140468135978064
g0
(g75
g2
Ntp203
Rp204
(dp205
g46
I2
sg79
I2
sg80
g0
(g75
g2
Ntp206
Rp207
(dp208
g46
I1
sg79
I2
sg80
g0
(g141
g2
Ntp209
Rp210
(dp211
g46
I1
sg48
Nsg47
Nsg145
g0
(g101
g2
Ntp212
Rp213
(dp214
g46
I1
sg105
g49
(g50
(I0
tp215
g52
tp216
Rp217
(I1
(I2
tp218
g59
I00
S'\x00\x00\x00\x00\x00\x00\xf0\x7f\x00\x00\x00\x00\x00\x00\xf0\x7f'
p219
tp220
bsg65
(dp221
I140468135977936
g210
ssg113
g49
(g50
(I0
tp222
g52
tp223
Rp224
(I1
(I2
I2
tp225
g59
I00
S'\x00\x00\x00\x00\x00\x00\x00\x00\x00\x00\x00\x00\x00\x00\x00\x00\x00\x00\x00\x00\x00\x00\xf0?\x00\x00\x00\x00\x00\x00\xf0?'
p226
tp227
bsg120
g49
(g50
(I0
tp228
g52
tp229
Rp230
(I1
(I2
I2
tp231
g59
I00
S'\x00\x00\x00\x00\x00\x00\x00\x00\x00\x00\x00\x00\x00\x00\x00\x00\x00\x00\x00\x00\x00\x00\xf0?\x00\x00\x00\x00\x00\x00\xf0?'
p232
tp233
bsg127
I01
sg64
g7
sbsg65
(dp234
I140468135978000
g207
ssg64
g7
sbsg139
I2
sg140
g0
(g42
g2
Ntp235
Rp236
(dp237
g46
I2
sg47
Nsg48
g49
(g50
(I0
tp238
g52
tp239
Rp240
(I1
(I3
I3
tp241
g59
I00
S'\x00\x00\x00\x00\x00\x00\xf0?\x00\x00\x00\x00\x00\x00\x00\x00\x00\x00\x00\x00\x00\x00\x00\x00\x00\x00\x00\x00\x00\x00\x00\x00\x00\x00\x00\x00\x00\x00\xf0?\x00\x00\x00\x00\x00\x00\x00\x00\x00\x00\x00\x00\x00\x00\x00\x00\x00\x00\x00\x00\x00\x00\x00\x00\x00\x00\x00\x00\x00\x00\xf0?'
p242
tp243
bsg64
g7
sg65
(dp244
I140468135978000
g207
ssbsg65
(dp245
I140468135978064
g204
ssg64
g7
sbsg139
I2
sg140
g143
sg65
(dp246
I140468135978128
g0
(g96
g2
Ntp247
Rp248
(dp249
g46
I2
sg100
g0
(g101
g2
Ntp250
Rp251
(dp252
g46
I1
sg105
g49
(g50
(I0
tp253
g52
tp254
Rp255
(I1
(I2
tp256
g59
I00
S'\x00\x00\x00\x00\x00\x00\xf0\x7f\x00\x00\x00\x00\x00\x00\xf0\x7f'
p257
tp258
bsg65
(dp259
I140468135978128
g248
ssg113
g49
(g50
(I0
tp260
g52
tp261
Rp262
(I1
(I2
I2
tp263
g59
I00
S'\x00\x00\x00\x00\x00\x00\x00\x00\x00\x00\x00\x00\x00\x00\x00\x00\x00\x00\x00\x00\x00\x00\xf0?\x00\x00\x00\x00\x00\x00\xf0?'
p264
tp265
bsg120
g49
(g50
(I0
tp266
g52
tp267
Rp268
(I1
(I2
I2
tp269
g59
I00
S'\x00\x00\x00\x00\x00\x00\x00\x00\x00\x00\x00\x00\x00\x00\x00\x00\x00\x00\x00\x00\x00\x00\xf0?\x00\x00\x00\x00\x00\x00\xf0?'
p270
tp271
bsg127
I01
sg64
g7
sbsg128
g204
sg120
Nsg65
(dp272
sg64
g7
sbssg64
g7
sbsI140468203734544
g0
(g75
g2
Ntp273
Rp274
(dp275
g46
I2
sg79
I2
sg80
g0
(g75
g2
Ntp276
Rp277
(dp278
g46
I1
sg79
I2
sg80
g0
(g141
g2
Ntp279
Rp280
(dp281
g46
I1
sg48
Nsg47
Nsg145
g0
(g101
g2
Ntp282
Rp283
(dp284
g46
I1
sg105
g49
(g50
(I0
tp285
g52
tp286
Rp287
(I1
(I2
tp288
g59
I00
S'\x00\x00\x00\x00\x00\x00\xf0\x7f\x00\x00\x00\x00\x00\x00\xf0\x7f'
p289
tp290
bsg65
(dp291
I140468203733584
g280
ssg113
g49
(g50
(I0
tp292
g52
tp293
Rp294
(I1
(I2
I2
tp295
g59
I00
S'\x00\x00\x00\x00\x00\x00\x00\x00\x00\x00\x00\x00\x00\x00\x00\x00\x00\x00\x00\x00\x00\x00\xf0?\x00\x00\x00\x00\x00\x00\xf0?'
p296
tp297
bsg120
g49
(g50
(I0
tp298
g52
tp299
Rp300
(I1
(I2
I2
tp301
g59
I00
S'\x00\x00\x00\x00\x00\x00\x00\x00\x00\x00\x00\x00\x00\x00\x00\x00\x00\x00\x00\x00\x00\x00\xf0?\x00\x00\x00\x00\x00\x00\xf0?'
p302
tp303
bsg127
I01
sg64
g7
sbsg65
(dp304
I140468203734736
g277
ssg64
g7
sbsg139
I2
sg140
g0
(g42
g2
Ntp305
Rp306
(dp307
g46
I2
sg47
Nsg48
g49
(g50
(I0
tp308
g52
tp309
Rp310
(I1
(I3
I3
tp311
g59
I00
S'\x00\x00\x00\x00\x00\x00\xf0?\x00\x00\x00\x00\x00\x00\x00\x00\x00\x00\x00\x00\x00\x00\x00\x00\x00\x00\x00\x00\x00\x00\x00\x00\x00\x00\x00\x00\x00\x00\xf0?\x00\x00\x00\x00\x00\x00\x00\x00\x00\x00\x00\x00\x00\x00\x00\x00\x00\x00\x00\x00\x00\x00\x00\x00\x00\x00\x00\x00\x00\x00\xf0?'
p312
tp313
bsg64
g7
sg65
(dp314
I140468203734736
g277
ssbsg65
(dp315
I140468203734544
g274
ssg64
g7
sbsg139
I2
sg140
g143
sg65
(dp316
I140468193191184
g0
(g96
g2
Ntp317
Rp318
(dp319
g46
I2
sg100
g0
(g101
g2
Ntp320
Rp321
(dp322
g46
I1
sg105
g49
(g50
(I0
tp323
g52
tp324
Rp325
(I1
(I2
tp326
g59
I00
S'\x00\x00\x00\x00\x00\x00\xf0\x7f\x00\x00\x00\x00\x00\x00\xf0\x7f'
p327
tp328
bsg65
(dp329
I140468193191184
g318
ssg113
g49
(g50
(I0
tp330
g52
tp331
Rp332
(I1
(I2
I2
tp333
g59
I00
S'\x00\x00\x00\x00\x00\x00\x00\x00\x00\x00\x00\x00\x00\x00\x00\x00\x00\x00\x00\x00\x00\x00\xf0?\x00\x00\x00\x00\x00\x00\xf0?'
p334
tp335
bsg120
g49
(g50
(I0
tp336
g52
tp337
Rp338
(I1
(I2
I2
tp339
g59
I00
S'\x00\x00\x00\x00\x00\x00\x00\x00\x00\x00\x00\x00\x00\x00\x00\x00\x00\x00\x00\x00\x00\x00\xf0?\x00\x00\x00\x00\x00\x00\xf0?'
p340
tp341
bsg127
I01
sg64
g7
sbsg128
g274
sg120
Nsg65
(dp342
sg64
g7
sbssg64
g7
sbsI140468135978512
g0
(g75
g2
Ntp343
Rp344
(dp345
g46
I2
sg79
I2
sg80
g0
(g75
g2
Ntp346
Rp347
(dp348
g46
I1
sg79
I2
sg80
g0
(g141
g2
Ntp349
Rp350
(dp351
g46
I1
sg48
Nsg47
Nsg145
g0
(g101
g2
Ntp352
Rp353
(dp354
g46
I1
sg105
g49
(g50
(I0
tp355
g52
tp356
Rp357
(I1
(I2
tp358
g59
I00
S'\x00\x00\x00\x00\x00\x00\xf0\x7f\x00\x00\x00\x00\x00\x00\xf0\x7f'
p359
tp360
bsg65
(dp361
I140468135978384
g350
ssg113
g49
(g50
(I0
tp362
g52
tp363
Rp364
(I1
(I2
I2
tp365
g59
I00
S'\x00\x00\x00\x00\x00\x00\x00\x00\x00\x00\x00\x00\x00\x00\x00\x00\x00\x00\x00\x00\x00\x00\xf0?\x00\x00\x00\x00\x00\x00\xf0?'
p366
tp367
bsg120
g49
(g50
(I0
tp368
g52
tp369
Rp370
(I1
(I2
I2
tp371
g59
I00
S'\x00\x00\x00\x00\x00\x00\x00\x00\x00\x00\x00\x00\x00\x00\x00\x00\x00\x00\x00\x00\x00\x00\xf0?\x00\x00\x00\x00\x00\x00\xf0?'
p372
tp373
bsg127
I01
sg64
g7
sbsg65
(dp374
I140468135978448
g347
ssg64
g7
sbsg139
I2
sg140
g0
(g42
g2
Ntp375
Rp376
(dp377
g46
I2
sg47
Nsg48
g49
(g50
(I0
tp378
g52
tp379
Rp380
(I1
(I3
I3
tp381
g59
I00
S'\x00\x00\x00\x00\x00\x00\xf0?\x00\x00\x00\x00\x00\x00\x00\x00\x00\x00\x00\x00\x00\x00\x00\x00\x00\x00\x00\x00\x00\x00\x00\x00\x00\x00\x00\x00\x00\x00\xf0?\x00\x00\x00\x00\x00\x00\x00\x00\x00\x00\x00\x00\x00\x00\x00\x00\x00\x00\x00\x00\x00\x00\x00\x00\x00\x00\x00\x00\x00\x00\xf0?'
p382
tp383
bsg64
g7
sg65
(dp384
I140468135978448
g347
ssbsg65
(dp385
I140468135978512
g344
ssg64
g7
sbsg139
I2
sg140
g143
sg65
(dp386
I140468135978576
g0
(g96
g2
Ntp387
Rp388
(dp389
g46
I2
sg100
g0
(g101
g2
Ntp390
Rp391
(dp392
g46
I1
sg105
g49
(g50
(I0
tp393
g52
tp394
Rp395
(I1
(I2
tp396
g59
I00
S'\x00\x00\x00\x00\x00\x00\xf0\x7f\x00\x00\x00\x00\x00\x00\xf0\x7f'
p397
tp398
bsg65
(dp399
I140468135978576
g388
ssg113
g49
(g50
(I0
tp400
g52
tp401
Rp402
(I1
(I2
I2
tp403
g59
I00
S'\x00\x00\x00\x00\x00\x00\x00\x00\x00\x00\x00\x00\x00\x00\x00\x00\x00\x00\x00\x00\x00\x00\xf0?\x00\x00\x00\x00\x00\x00\xf0?'
p404
tp405
bsg120
g49
(g50
(I0
tp406
g52
tp407
Rp408
(I1
(I2
I2
tp409
g59
I00
S'\x00\x00\x00\x00\x00\x00\x00\x00\x00\x00\x00\x00\x00\x00\x00\x00\x00\x00\x00\x00\x00\x00\xf0?\x00\x00\x00\x00\x00\x00\xf0?'
p410
tp411
bsg127
I01
sg64
g7
sbsg128
g344
sg120
Nsg65
(dp412
sg64
g7
sbssg64
g7
sbsI140468201690896
g83
sI140468194617232
g0
(g75
g2
Ntp413
Rp414
(dp415
g46
I2
sg79
I2
sg80
g0
(g75
g2
Ntp416
Rp417
(dp418
g46
I1
sg79
I2
sg80
g0
(g141
g2
Ntp419
Rp420
(dp421
g46
I1
sg48
Nsg47
Nsg145
g0
(g101
g2
Ntp422
Rp423
(dp424
g46
I1
sg105
g49
(g50
(I0
tp425
g52
tp426
Rp427
(I1
(I2
tp428
g59
I00
S'\x00\x00\x00\x00\x00\x00\xf0\x7f\x00\x00\x00\x00\x00\x00\xf0\x7f'
p429
tp430
bsg65
(dp431
I140468194617872
g420
ssg113
g49
(g50
(I0
tp432
g52
tp433
Rp434
(I1
(I2
I2
tp435
g59
I00
S'\x00\x00\x00\x00\x00\x00\x00\x00\x00\x00\x00\x00\x00\x00\x00\x00\x00\x00\x00\x00\x00\x00\xf0?\x00\x00\x00\x00\x00\x00\xf0?'
p436
tp437
bsg120
g49
(g50
(I0
tp438
g52
tp439
Rp440
(I1
(I2
I2
tp441
g59
I00
S'\x00\x00\x00\x00\x00\x00\x00\x00\x00\x00\x00\x00\x00\x00\x00\x00\x00\x00\x00\x00\x00\x00\xf0?\x00\x00\x00\x00\x00\x00\xf0?'
p442
tp443
bsg127
I01
sg64
g7
sbsg65
(dp444
I140468194616528
g417
ssg64
g7
sbsg139
I2
sg140
g0
(g42
g2
Ntp445
Rp446
(dp447
g46
I2
sg47
Nsg48
g49
(g50
(I0
tp448
g52
tp449
Rp450
(I1
(I3
I3
tp451
g59
I00
S'\x00\x00\x00\x00\x00\x00\xf0?\x00\x00\x00\x00\x00\x00\x00\x00\x00\x00\x00\x00\x00\x00\x00\x00\x00\x00\x00\x00\x00\x00\x00\x00\x00\x00\x00\x00\x00\x00\xf0?\x00\x00\x00\x00\x00\x00\x00\x00\x00\x00\x00\x00\x00\x00\x00\x00\x00\x00\x00\x00\x00\x00\x00\x00\x00\x00\x00\x00\x00\x00\xf0?'
p452
tp453
bsg64
g7
sg65
(dp454
I140468194616528
g417
ssbsg65
(dp455
I140468194617232
g414
ssg64
g7
sbsg139
I2
sg140
g143
sg65
(dp456
I140468194618576
g0
(g96
g2
Ntp457
Rp458
(dp459
g46
I2
sg100
g0
(g101
g2
Ntp460
Rp461
(dp462
g46
I1
sg105
g49
(g50
(I0
tp463
g52
tp464
Rp465
(I1
(I2
tp466
g59
I00
S'\x00\x00\x00\x00\x00\x00\xf0\x7f\x00\x00\x00\x00\x00\x00\xf0\x7f'
p467
tp468
bsg65
(dp469
I140468194618576
g458
ssg113
g49
(g50
(I0
tp470
g52
tp471
Rp472
(I1
(I2
I2
tp473
g59
I00
S'\x00\x00\x00\x00\x00\x00\x00\x00\x00\x00\x00\x00\x00\x00\x00\x00\x00\x00\x00\x00\x00\x00\xf0?\x00\x00\x00\x00\x00\x00\xf0?'
p474
tp475
bsg120
g49
(g50
(I0
tp476
g52
tp477
Rp478
(I1
(I2
I2
tp479
g59
I00
S'\x00\x00\x00\x00\x00\x00\x00\x00\x00\x00\x00\x00\x00\x00\x00\x00\x00\x00\x00\x00\x00\x00\xf0?\x00\x00\x00\x00\x00\x00\xf0?'
p480
tp481
bsg127
I01
sg64
g7
sbsg128
g414
sg120
Nsg65
(dp482
sg64
g7
sbssg64
g7
sbsI140468204021776
g137
sI140468135979408
g0
(g75
g2
Ntp483
Rp484
(dp485
g46
I2
sg79
I2
sg80
g0
(g75
g2
Ntp486
Rp487
(dp488
g46
I1
sg79
I2
sg80
g0
(g141
g2
Ntp489
Rp490
(dp491
g46
I1
sg48
Nsg47
Nsg145
g0
(g101
g2
Ntp492
Rp493
(dp494
g46
I1
sg105
g49
(g50
(I0
tp495
g52
tp496
Rp497
(I1
(I2
tp498
g59
I00
S'\x00\x00\x00\x00\x00\x00\xf0\x7f\x00\x00\x00\x00\x00\x00\xf0\x7f'
p499
tp500
bsg65
(dp501
I140468135979280
g490
ssg113
g49
(g50
(I0
tp502
g52
tp503
Rp504
(I1
(I2
I2
tp505
g59
I00
S'\x00\x00\x00\x00\x00\x00\x00\x00\x00\x00\x00\x00\x00\x00\x00\x00\x00\x00\x00\x00\x00\x00\xf0?\x00\x00\x00\x00\x00\x00\xf0?'
p506
tp507
bsg120
g49
(g50
(I0
tp508
g52
tp509
Rp510
(I1
(I2
I2
tp511
g59
I00
S'\x00\x00\x00\x00\x00\x00\x00\x00\x00\x00\x00\x00\x00\x00\x00\x00\x00\x00\x00\x00\x00\x00\xf0?\x00\x00\x00\x00\x00\x00\xf0?'
p512
tp513
bsg127
I01
sg64
g7
sbsg65
(dp514
I140468135979344
g487
ssg64
g7
sbsg139
I2
sg140
g0
(g42
g2
Ntp515
Rp516
(dp517
g46
I2
sg47
Nsg48
g49
(g50
(I0
tp518
g52
tp519
Rp520
(I1
(I3
I3
tp521
g59
I00
S'\x00\x00\x00\x00\x00\x00\xf0?\x00\x00\x00\x00\x00\x00\x00\x00\x00\x00\x00\x00\x00\x00\x00\x00\x00\x00\x00\x00\x00\x00\x00\x00\x00\x00\x00\x00\x00\x00\xf0?\x00\x00\x00\x00\x00\x00\x00\x00\x00\x00\x00\x00\x00\x00\x00\x00\x00\x00\x00\x00\x00\x00\x00\x00\x00\x00\x00\x00\x00\x00\xf0?'
p522
tp523
bsg64
g7
sg65
(dp524
I140468135979344
g487
ssbsg65
(dp525
I140468135979408
g484
ssg64
g7
sbsg139
I2
sg140
g143
sg65
(dp526
I140468135979472
g0
(g96
g2
Ntp527
Rp528
(dp529
g46
I2
sg100
g0
(g101
g2
Ntp530
Rp531
(dp532
g46
I1
sg105
g49
(g50
(I0
tp533
g52
tp534
Rp535
(I1
(I2
tp536
g59
I00
S'\x00\x00\x00\x00\x00\x00\xf0\x7f\x00\x00\x00\x00\x00\x00\xf0\x7f'
p537
tp538
bsg65
(dp539
I140468135979472
g528
ssg113
g49
(g50
(I0
tp540
g52
tp541
Rp542
(I1
(I2
I2
tp543
g59
I00
S'\x00\x00\x00\x00\x00\x00\x00\x00\x00\x00\x00\x00\x00\x00\x00\x00\x00\x00\x00\x00\x00\x00\xf0?\x00\x00\x00\x00\x00\x00\xf0?'
p544
tp545
bsg120
g49
(g50
(I0
tp546
g52
tp547
Rp548
(I1
(I2
I2
tp549
g59
I00
S'\x00\x00\x00\x00\x00\x00\x00\x00\x00\x00\x00\x00\x00\x00\x00\x00\x00\x00\x00\x00\x00\x00\xf0?\x00\x00\x00\x00\x00\x00\xf0?'
p550
tp551
bsg127
I01
sg64
g7
sbsg128
g484
sg120
Nsg65
(dp552
sg64
g7
sbssg64
g7
sbsI140468196907472
g0
(g75
g2
Ntp553
Rp554
(dp555
g46
I2
sg79
I2
sg80
g0
(g75
g2
Ntp556
Rp557
(dp558
g46
I1
sg79
I2
sg80
g0
(g141
g2
Ntp559
Rp560
(dp561
g46
I1
sg48
Nsg47
Nsg145
g0
(g101
g2
Ntp562
Rp563
(dp564
g46
I1
sg105
g49
(g50
(I0
tp565
g52
tp566
Rp567
(I1
(I2
tp568
g59
I00
S'\x00\x00\x00\x00\x00\x00\xf0\x7f\x00\x00\x00\x00\x00\x00\xf0\x7f'
p569
tp570
bsg65
(dp571
I140468196907664
g560
ssg113
g49
(g50
(I0
tp572
g52
tp573
Rp574
(I1
(I2
I2
tp575
g59
I00
S'\x00\x00\x00\x00\x00\x00\x00\x00\x00\x00\x00\x00\x00\x00\x00\x00\x00\x00\x00\x00\x00\x00\xf0?\x00\x00\x00\x00\x00\x00\xf0?'
p576
tp577
bsg120
g49
(g50
(I0
tp578
g52
tp579
Rp580
(I1
(I2
I2
tp581
g59
I00
S'\x00\x00\x00\x00\x00\x00\x00\x00\x00\x00\x00\x00\x00\x00\x00\x00\x00\x00\x00\x00\x00\x00\xf0?\x00\x00\x00\x00\x00\x00\xf0?'
p582
tp583
bsg127
I01
sg64
g7
sbsg65
(dp584
I140468196905488
g557
ssg64
g7
sbsg139
I2
sg140
g0
(g42
g2
Ntp585
Rp586
(dp587
g46
I2
sg47
Nsg48
g49
(g50
(I0
tp588
g52
tp589
Rp590
(I1
(I3
I3
tp591
g59
I00
S'\x00\x00\x00\x00\x00\x00\xf0?\x00\x00\x00\x00\x00\x00\x00\x00\x00\x00\x00\x00\x00\x00\x00\x00\x00\x00\x00\x00\x00\x00\x00\x00\x00\x00\x00\x00\x00\x00\xf0?\x00\x00\x00\x00\x00\x00\x00\x00\x00\x00\x00\x00\x00\x00\x00\x00\x00\x00\x00\x00\x00\x00\x00\x00\x00\x00\x00\x00\x00\x00\xf0?'
p592
tp593
bsg64
g7
sg65
(dp594
I140468196905488
g557
ssbsg65
(dp595
I140468196907472
g554
ssg64
g7
sbsg139
I2
sg140
g143
sg65
(dp596
I140468196905232
g0
(g96
g2
Ntp597
Rp598
(dp599
g46
I2
sg100
g0
(g101
g2
Ntp600
Rp601
(dp602
g46
I1
sg105
g49
(g50
(I0
tp603
g52
tp604
Rp605
(I1
(I2
tp606
g59
I00
S'\x00\x00\x00\x00\x00\x00\xf0\x7f\x00\x00\x00\x00\x00\x00\xf0\x7f'
p607
tp608
bsg65
(dp609
I140468196905232
g598
ssg113
g49
(g50
(I0
tp610
g52
tp611
Rp612
(I1
(I2
I2
tp613
g59
I00
S'\x00\x00\x00\x00\x00\x00\x00\x00\x00\x00\x00\x00\x00\x00\x00\x00\x00\x00\x00\x00\x00\x00\xf0?\x00\x00\x00\x00\x00\x00\xf0?'
p614
tp615
bsg120
g49
(g50
(I0
tp616
g52
tp617
Rp618
(I1
(I2
I2
tp619
g59
I00
S'\x00\x00\x00\x00\x00\x00\x00\x00\x00\x00\x00\x00\x00\x00\x00\x00\x00\x00\x00\x00\x00\x00\xf0?\x00\x00\x00\x00\x00\x00\xf0?'
p620
tp621
bsg127
I01
sg64
g7
sbsg128
g554
sg120
Nsg65
(dp622
sg64
g7
sbssg64
g7
sbsI140468205341328
g0
(cmatplotlib.transforms
BlendedAffine2D
p623
g2
Ntp624
Rp625
(dp626
g46
I2
sg48
Nsg85
g0
(cmatplotlib.transforms
IdentityTransform
p627
g2
Ntp628
Rp629
(dp630
g46
I1
sg47
Nsg64
g7
sg65
(dp631
I140468205341328
g625
ssbsS'_x'
p632
g143
sg47
Nsg64
g7
sg65
(dp633
sbsI140468203735824
g0
(g75
g2
Ntp634
Rp635
(dp636
g46
I2
sg79
I2
sg80
g0
(g75
g2
Ntp637
Rp638
(dp639
g46
I1
sg79
I2
sg80
g0
(g141
g2
Ntp640
Rp641
(dp642
g46
I1
sg48
Nsg47
Nsg145
g0
(g101
g2
Ntp643
Rp644
(dp645
g46
I1
sg105
g49
(g50
(I0
tp646
g52
tp647
Rp648
(I1
(I2
tp649
g59
I00
S'\x00\x00\x00\x00\x00\x00\xf0\x7f\x00\x00\x00\x00\x00\x00\xf0\x7f'
p650
tp651
bsg65
(dp652
I140468203733392
g641
ssg113
g49
(g50
(I0
tp653
g52
tp654
Rp655
(I1
(I2
I2
tp656
g59
I00
S'\x00\x00\x00\x00\x00\x00\x00\x00\x00\x00\x00\x00\x00\x00\x00\x00\x00\x00\x00\x00\x00\x00\xf0?\x00\x00\x00\x00\x00\x00\xf0?'
p657
tp658
bsg120
g49
(g50
(I0
tp659
g52
tp660
Rp661
(I1
(I2
I2
tp662
g59
I00
S'\x00\x00\x00\x00\x00\x00\x00\x00\x00\x00\x00\x00\x00\x00\x00\x00\x00\x00\x00\x00\x00\x00\xf0?\x00\x00\x00\x00\x00\x00\xf0?'
p663
tp664
bsg127
I01
sg64
g7
sbsg65
(dp665
I140468203736784
g638
ssg64
g7
sbsg139
I2
sg140
g0
(g42
g2
Ntp666
Rp667
(dp668
g46
I2
sg47
Nsg48
g49
(g50
(I0
tp669
g52
tp670
Rp671
(I1
(I3
I3
tp672
g59
I00
S'\x00\x00\x00\x00\x00\x00\xf0?\x00\x00\x00\x00\x00\x00\x00\x00\x00\x00\x00\x00\x00\x00\x00\x00\x00\x00\x00\x00\x00\x00\x00\x00\x00\x00\x00\x00\x00\x00\xf0?\x00\x00\x00\x00\x00\x00\x00\x00\x00\x00\x00\x00\x00\x00\x00\x00\x00\x00\x00\x00\x00\x00\x00\x00\x00\x00\x00\x00\x00\x00\xf0?'
p673
tp674
bsg64
g7
sg65
(dp675
I140468203736784
g638
ssbsg65
(dp676
I140468203735824
g635
ssg64
g7
sbsg139
I2
sg140
g143
sg65
(dp677
I140468203733200
g0
(g96
g2
Ntp678
Rp679
(dp680
g46
I2
sg100
g0
(g101
g2
Ntp681
Rp682
(dp683
g46
I1
sg105
g49
(g50
(I0
tp684
g52
tp685
Rp686
(I1
(I2
tp687
g59
I00
S'\x00\x00\x00\x00\x00\x00\xf0\x7f\x00\x00\x00\x00\x00\x00\xf0\x7f'
p688
tp689
bsg65
(dp690
I140468203733200
g679
ssg113
g49
(g50
(I0
tp691
g52
tp692
Rp693
(I1
(I2
I2
tp694
g59
I00
S'\x00\x00\x00\x00\x00\x00\x00\x00\x00\x00\x00\x00\x00\x00\x00\x00\x00\x00\x00\x00\x00\x00\xf0?\x00\x00\x00\x00\x00\x00\xf0?'
p695
tp696
bsg120
g49
(g50
(I0
tp697
g52
tp698
Rp699
(I1
(I2
I2
tp700
g59
I00
S'\x00\x00\x00\x00\x00\x00\x00\x00\x00\x00\x00\x00\x00\x00\x00\x00\x00\x00\x00\x00\x00\x00\xf0?\x00\x00\x00\x00\x00\x00\xf0?'
p701
tp702
bsg127
I01
sg64
g7
sbsg128
g635
sg120
Nsg65
(dp703
sg64
g7
sbssg64
g7
sbsI140468135979856
g0
(g75
g2
Ntp704
Rp705
(dp706
g46
I2
sg79
I2
sg80
g0
(g75
g2
Ntp707
Rp708
(dp709
g46
I1
sg79
I2
sg80
g0
(g141
g2
Ntp710
Rp711
(dp712
g46
I1
sg48
Nsg47
Nsg145
g0
(g101
g2
Ntp713
Rp714
(dp715
g46
I1
sg105
g49
(g50
(I0
tp716
g52
tp717
Rp718
(I1
(I2
tp719
g59
I00
S'\x00\x00\x00\x00\x00\x00\xf0\x7f\x00\x00\x00\x00\x00\x00\xf0\x7f'
p720
tp721
bsg65
(dp722
I140468135979728
g711
ssg113
g49
(g50
(I0
tp723
g52
tp724
Rp725
(I1
(I2
I2
tp726
g59
I00
S'\x00\x00\x00\x00\x00\x00\x00\x00\x00\x00\x00\x00\x00\x00\x00\x00\x00\x00\x00\x00\x00\x00\xf0?\x00\x00\x00\x00\x00\x00\xf0?'
p727
tp728
bsg120
g49
(g50
(I0
tp729
g52
tp730
Rp731
(I1
(I2
I2
tp732
g59
I00
S'\x00\x00\x00\x00\x00\x00\x00\x00\x00\x00\x00\x00\x00\x00\x00\x00\x00\x00\x00\x00\x00\x00\xf0?\x00\x00\x00\x00\x00\x00\xf0?'
p733
tp734
bsg127
I01
sg64
g7
sbsg65
(dp735
I140468135979792
g708
ssg64
g7
sbsg139
I2
sg140
g0
(g42
g2
Ntp736
Rp737
(dp738
g46
I2
sg47
Nsg48
g49
(g50
(I0
tp739
g52
tp740
Rp741
(I1
(I3
I3
tp742
g59
I00
S'\x00\x00\x00\x00\x00\x00\xf0?\x00\x00\x00\x00\x00\x00\x00\x00\x00\x00\x00\x00\x00\x00\x00\x00\x00\x00\x00\x00\x00\x00\x00\x00\x00\x00\x00\x00\x00\x00\xf0?\x00\x00\x00\x00\x00\x00\x00\x00\x00\x00\x00\x00\x00\x00\x00\x00\x00\x00\x00\x00\x00\x00\x00\x00\x00\x00\x00\x00\x00\x00\xf0?'
p743
tp744
bsg64
g7
sg65
(dp745
I140468135979792
g708
ssbsg65
(dp746
I140468135979856
g705
ssg64
g7
sbsg139
I2
sg140
g143
sg65
(dp747
I140468135979920
g0
(g96
g2
Ntp748
Rp749
(dp750
g46
I2
sg100
g0
(g101
g2
Ntp751
Rp752
(dp753
g46
I1
sg105
g49
(g50
(I0
tp754
g52
tp755
Rp756
(I1
(I2
tp757
g59
I00
S'\x00\x00\x00\x00\x00\x00\xf0\x7f\x00\x00\x00\x00\x00\x00\xf0\x7f'
p758
tp759
bsg65
(dp760
I140468135979920
g749
ssg113
g49
(g50
(I0
tp761
g52
tp762
Rp763
(I1
(I2
I2
tp764
g59
I00
S'\x00\x00\x00\x00\x00\x00\x00\x00\x00\x00\x00\x00\x00\x00\x00\x00\x00\x00\x00\x00\x00\x00\xf0?\x00\x00\x00\x00\x00\x00\xf0?'
p765
tp766
bsg120
g49
(g50
(I0
tp767
g52
tp768
Rp769
(I1
(I2
I2
tp770
g59
I00
S'\x00\x00\x00\x00\x00\x00\x00\x00\x00\x00\x00\x00\x00\x00\x00\x00\x00\x00\x00\x00\x00\x00\xf0?\x00\x00\x00\x00\x00\x00\xf0?'
p771
tp772
bsg127
I01
sg64
g7
sbsg128
g705
sg120
Nsg65
(dp773
sg64
g7
sbssg64
g7
sbsI140468195187600
g0
(g75
g2
Ntp774
Rp775
(dp776
g46
I2
sg79
I2
sg80
g0
(g75
g2
Ntp777
Rp778
(dp779
g46
I1
sg79
I2
sg80
g0
(g141
g2
Ntp780
Rp781
(dp782
g46
I1
sg48
Nsg47
Nsg145
g0
(g101
g2
Ntp783
Rp784
(dp785
g46
I1
sg105
g49
(g50
(I0
tp786
g52
tp787
Rp788
(I1
(I2
tp789
g59
I00
S'\x00\x00\x00\x00\x00\x00\xf0\x7f\x00\x00\x00\x00\x00\x00\xf0\x7f'
p790
tp791
bsg65
(dp792
I140468195184976
g781
ssg113
g49
(g50
(I0
tp793
g52
tp794
Rp795
(I1
(I2
I2
tp796
g59
I00
S'\x00\x00\x00\x00\x00\x00\x00\x00\x00\x00\x00\x00\x00\x00\x00\x00\x00\x00\x00\x00\x00\x00\xf0?\x00\x00\x00\x00\x00\x00\xf0?'
p797
tp798
bsg120
g49
(g50
(I0
tp799
g52
tp800
Rp801
(I1
(I2
I2
tp802
g59
I00
S'\x00\x00\x00\x00\x00\x00\x00\x00\x00\x00\x00\x00\x00\x00\x00\x00\x00\x00\x00\x00\x00\x00\xf0?\x00\x00\x00\x00\x00\x00\xf0?'
p803
tp804
bsg127
I01
sg64
g7
sbsg65
(dp805
I140468195186000
g778
ssg64
g7
sbsg139
I2
sg140
g0
(g42
g2
Ntp806
Rp807
(dp808
g46
I2
sg47
Nsg48
g49
(g50
(I0
tp809
g52
tp810
Rp811
(I1
(I3
I3
tp812
g59
I00
S'\x00\x00\x00\x00\x00\x00\xf0?\x00\x00\x00\x00\x00\x00\x00\x00\x00\x00\x00\x00\x00\x00\x00\x00\x00\x00\x00\x00\x00\x00\x00\x00\x00\x00\x00\x00\x00\x00\xf0?\x00\x00\x00\x00\x00\x00\x00\x00\x00\x00\x00\x00\x00\x00\x00\x00\x00\x00\x00\x00\x00\x00\x00\x00\x00\x00\x00\x00\x00\x00\xf0?'
p813
tp814
bsg64
g7
sg65
(dp815
I140468195186000
g778
ssbsg65
(dp816
I140468195187600
g775
ssg64
g7
sbsg139
I2
sg140
g143
sg65
(dp817
I140468195185424
g0
(g96
g2
Ntp818
Rp819
(dp820
g46
I2
sg100
g0
(g101
g2
Ntp821
Rp822
(dp823
g46
I1
sg105
g49
(g50
(I0
tp824
g52
tp825
Rp826
(I1
(I2
tp827
g59
I00
S'\x00\x00\x00\x00\x00\x00\xf0\x7f\x00\x00\x00\x00\x00\x00\xf0\x7f'
p828
tp829
bsg65
(dp830
I140468195185424
g819
ssg113
g49
(g50
(I0
tp831
g52
tp832
Rp833
(I1
(I2
I2
tp834
g59
I00
S'\x00\x00\x00\x00\x00\x00\x00\x00\x00\x00\x00\x00\x00\x00\x00\x00\x00\x00\x00\x00\x00\x00\xf0?\x00\x00\x00\x00\x00\x00\xf0?'
p835
tp836
bsg120
g49
(g50
(I0
tp837
g52
tp838
Rp839
(I1
(I2
I2
tp840
g59
I00
S'\x00\x00\x00\x00\x00\x00\x00\x00\x00\x00\x00\x00\x00\x00\x00\x00\x00\x00\x00\x00\x00\x00\xf0?\x00\x00\x00\x00\x00\x00\xf0?'
p841
tp842
bsg127
I01
sg64
g7
sbsg128
g775
sg120
Nsg65
(dp843
sg64
g7
sbssg64
g7
sbsI140468195187664
g0
(g75
g2
Ntp844
Rp845
(dp846
g46
I2
sg79
I2
sg80
g0
(g75
g2
Ntp847
Rp848
(dp849
g46
I1
sg79
I2
sg80
g0
(g141
g2
Ntp850
Rp851
(dp852
g46
I1
sg48
Nsg47
Nsg145
g0
(g101
g2
Ntp853
Rp854
(dp855
g46
I1
sg105
g49
(g50
(I0
tp856
g52
tp857
Rp858
(I1
(I2
tp859
g59
I00
S'\x00\x00\x00\x00\x00\x00\xf0\x7f\x00\x00\x00\x00\x00\x00\xf0\x7f'
p860
tp861
bsg65
(dp862
I140468195188688
g851
ssg113
g49
(g50
(I0
tp863
g52
tp864
Rp865
(I1
(I2
I2
tp866
g59
I00
S'\x00\x00\x00\x00\x00\x00\x00\x00\x00\x00\x00\x00\x00\x00\x00\x00\x00\x00\x00\x00\x00\x00\xf0?\x00\x00\x00\x00\x00\x00\xf0?'
p867
tp868
bsg120
g49
(g50
(I0
tp869
g52
tp870
Rp871
(I1
(I2
I2
tp872
g59
I00
S'\x00\x00\x00\x00\x00\x00\x00\x00\x00\x00\x00\x00\x00\x00\x00\x00\x00\x00\x00\x00\x00\x00\xf0?\x00\x00\x00\x00\x00\x00\xf0?'
p873
tp874
bsg127
I01
sg64
g7
sbsg65
(dp875
I140468195185808
g848
ssg64
g7
sbsg139
I2
sg140
g0
(g42
g2
Ntp876
Rp877
(dp878
g46
I2
sg47
Nsg48
g49
(g50
(I0
tp879
g52
tp880
Rp881
(I1
(I3
I3
tp882
g59
I00
S'\x00\x00\x00\x00\x00\x00\xf0?\x00\x00\x00\x00\x00\x00\x00\x00\x00\x00\x00\x00\x00\x00\x00\x00\x00\x00\x00\x00\x00\x00\x00\x00\x00\x00\x00\x00\x00\x00\xf0?\x00\x00\x00\x00\x00\x00\x00\x00\x00\x00\x00\x00\x00\x00\x00\x00\x00\x00\x00\x00\x00\x00\x00\x00\x00\x00\x00\x00\x00\x00\xf0?'
p883
tp884
bsg64
g7
sg65
(dp885
I140468195185808
g848
ssbsg65
(dp886
I140468195187664
g845
ssg64
g7
sbsg139
I2
sg140
g143
sg65
(dp887
I140468195188304
g0
(g96
g2
Ntp888
Rp889
(dp890
g46
I2
sg100
g0
(g101
g2
Ntp891
Rp892
(dp893
g46
I1
sg105
g49
(g50
(I0
tp894
g52
tp895
Rp896
(I1
(I2
tp897
g59
I00
S'\x00\x00\x00\x00\x00\x00\xf0\x7f\x00\x00\x00\x00\x00\x00\xf0\x7f'
p898
tp899
bsg65
(dp900
I140468195188304
g889
ssg113
g49
(g50
(I0
tp901
g52
tp902
Rp903
(I1
(I2
I2
tp904
g59
I00
S'\x00\x00\x00\x00\x00\x00\x00\x00\x00\x00\x00\x00\x00\x00\x00\x00\x00\x00\x00\x00\x00\x00\xf0?\x00\x00\x00\x00\x00\x00\xf0?'
p905
tp906
bsg120
g49
(g50
(I0
tp907
g52
tp908
Rp909
(I1
(I2
I2
tp910
g59
I00
S'\x00\x00\x00\x00\x00\x00\x00\x00\x00\x00\x00\x00\x00\x00\x00\x00\x00\x00\x00\x00\x00\x00\xf0?\x00\x00\x00\x00\x00\x00\xf0?'
p911
tp912
bsg127
I01
sg64
g7
sbsg128
g845
sg120
Nsg65
(dp913
sg64
g7
sbssg64
g7
sbsI140468198898704
g0
(g75
g2
Ntp914
Rp915
(dp916
g46
I2
sg79
I2
sg80
g0
(g75
g2
Ntp917
Rp918
(dp919
g46
I1
sg79
I2
sg80
g0
(g141
g2
Ntp920
Rp921
(dp922
g46
I1
sg48
Nsg47
Nsg145
g0
(g101
g2
Ntp923
Rp924
(dp925
g46
I1
sg105
g49
(g50
(I0
tp926
g52
tp927
Rp928
(I1
(I2
tp929
g59
I00
S'\x00\x00\x00\x00\x00\x00\xf0\x7f\x00\x00\x00\x00\x00\x00\xf0\x7f'
p930
tp931
bsg65
(dp932
I140468198896464
g921
ssg113
g49
(g50
(I0
tp933
g52
tp934
Rp935
(I1
(I2
I2
tp936
g59
I00
S'\x00\x00\x00\x00\x00\x00\x00\x00\x00\x00\x00\x00\x00\x00\x00\x00\x00\x00\x00\x00\x00\x00\xf0?\x00\x00\x00\x00\x00\x00\xf0?'
p937
tp938
bsg120
g49
(g50
(I0
tp939
g52
tp940
Rp941
(I1
(I2
I2
tp942
g59
I00
S'\x00\x00\x00\x00\x00\x00\x00\x00\x00\x00\x00\x00\x00\x00\x00\x00\x00\x00\x00\x00\x00\x00\xf0?\x00\x00\x00\x00\x00\x00\xf0?'
p943
tp944
bsg127
I01
sg64
g7
sbsg65
(dp945
I140468198899024
g918
ssg64
g7
sbsg139
I2
sg140
g0
(g42
g2
Ntp946
Rp947
(dp948
g46
I2
sg47
Nsg48
g49
(g50
(I0
tp949
g52
tp950
Rp951
(I1
(I3
I3
tp952
g59
I00
S'\x00\x00\x00\x00\x00\x00\xf0?\x00\x00\x00\x00\x00\x00\x00\x00\x00\x00\x00\x00\x00\x00\x00\x00\x00\x00\x00\x00\x00\x00\x00\x00\x00\x00\x00\x00\x00\x00\xf0?\x00\x00\x00\x00\x00\x00\x00\x00\x00\x00\x00\x00\x00\x00\x00\x00\x00\x00\x00\x00\x00\x00\x00\x00\x00\x00\x00\x00\x00\x00\xf0?'
p953
tp954
bsg64
g7
sg65
(dp955
I140468198899024
g918
ssbsg65
(dp956
I140468198898704
g915
ssg64
g7
sbsg139
I2
sg140
g143
sg65
(dp957
I140468198896912
g0
(g96
g2
Ntp958
Rp959
(dp960
g46
I2
sg100
g0
(g101
g2
Ntp961
Rp962
(dp963
g46
I1
sg105
g49
(g50
(I0
tp964
g52
tp965
Rp966
(I1
(I2
tp967
g59
I00
S'\x00\x00\x00\x00\x00\x00\xf0\x7f\x00\x00\x00\x00\x00\x00\xf0\x7f'
p968
tp969
bsg65
(dp970
I140468198896912
g959
ssg113
g49
(g50
(I0
tp971
g52
tp972
Rp973
(I1
(I2
I2
tp974
g59
I00
S'\x00\x00\x00\x00\x00\x00\x00\x00\x00\x00\x00\x00\x00\x00\x00\x00\x00\x00\x00\x00\x00\x00\xf0?\x00\x00\x00\x00\x00\x00\xf0?'
p975
tp976
bsg120
g49
(g50
(I0
tp977
g52
tp978
Rp979
(I1
(I2
I2
tp980
g59
I00
S'\x00\x00\x00\x00\x00\x00\x00\x00\x00\x00\x00\x00\x00\x00\x00\x00\x00\x00\x00\x00\x00\x00\xf0?\x00\x00\x00\x00\x00\x00\xf0?'
p981
tp982
bsg127
I01
sg64
g7
sbsg128
g915
sg120
Nsg65
(dp983
sg64
g7
sbssg64
g7
sbsI140468187487376
g0
(g623
g2
Ntp984
Rp985
(dp986
g46
I2
sg48
Nsg85
g0
(g627
g2
Ntp987
Rp988
(dp989
g46
I1
sg47
Nsg64
g7
sg65
(dp990
I140468187487376
g985
ssbsg632
g143
sg47
Nsg64
g7
sg65
(dp991
sbsI140468171119824
g0
(g75
g2
Ntp992
Rp993
(dp994
g46
I2
sg79
I2
sg80
g143
sg139
I2
sg140
g0
(g67
g2
Ntp995
Rp996
(dp997
g46
I1
sg48
Nsg71
g44
sg47
Nsg72
(F0.0
F0.08333333333333333
tp998
sg64
g7
sg65
(dp999
I140468171119824
g993
sI140468171119888
g0
(g75
g2
Ntp1000
Rp1001
(dp1002
g46
I2
sg79
I2
sg80
g143
sg139
I2
sg140
g996
sg65
(dp1003
sg64
g7
sbsI140468171119952
g0
(g75
g2
Ntp1004
Rp1005
(dp1006
g46
I2
sg79
I2
sg80
g143
sg139
I2
sg140
g996
sg65
(dp1007
sg64
g7
sbssbsg65
(dp1008
sg64
g7
sbsI140468171119888
g1001
sI140468135978960
g0
(g75
g2
Ntp1009
Rp1010
(dp1011
g46
I2
sg79
I2
sg80
g0
(g75
g2
Ntp1012
Rp1013
(dp1014
g46
I1
sg79
I2
sg80
g0
(g141
g2
Ntp1015
Rp1016
(dp1017
g46
I1
sg48
Nsg47
Nsg145
g0
(g101
g2
Ntp1018
Rp1019
(dp1020
g46
I1
sg105
g49
(g50
(I0
tp1021
g52
tp1022
Rp1023
(I1
(I2
tp1024
g59
I00
S'\x00\x00\x00\x00\x00\x00\xf0\x7f\x00\x00\x00\x00\x00\x00\xf0\x7f'
p1025
tp1026
bsg65
(dp1027
I140468135978832
g1016
ssg113
g49
(g50
(I0
tp1028
g52
tp1029
Rp1030
(I1
(I2
I2
tp1031
g59
I00
S'\x00\x00\x00\x00\x00\x00\x00\x00\x00\x00\x00\x00\x00\x00\x00\x00\x00\x00\x00\x00\x00\x00\xf0?\x00\x00\x00\x00\x00\x00\xf0?'
p1032
tp1033
bsg120
g49
(g50
(I0
tp1034
g52
tp1035
Rp1036
(I1
(I2
I2
tp1037
g59
I00
S'\x00\x00\x00\x00\x00\x00\x00\x00\x00\x00\x00\x00\x00\x00\x00\x00\x00\x00\x00\x00\x00\x00\xf0?\x00\x00\x00\x00\x00\x00\xf0?'
p1038
tp1039
bsg127
I01
sg64
g7
sbsg65
(dp1040
I140468135978896
g1013
ssg64
g7
sbsg139
I2
sg140
g0
(g42
g2
Ntp1041
Rp1042
(dp1043
g46
I2
sg47
Nsg48
g49
(g50
(I0
tp1044
g52
tp1045
Rp1046
(I1
(I3
I3
tp1047
g59
I00
S'\x00\x00\x00\x00\x00\x00\xf0?\x00\x00\x00\x00\x00\x00\x00\x00\x00\x00\x00\x00\x00\x00\x00\x00\x00\x00\x00\x00\x00\x00\x00\x00\x00\x00\x00\x00\x00\x00\xf0?\x00\x00\x00\x00\x00\x00\x00\x00\x00\x00\x00\x00\x00\x00\x00\x00\x00\x00\x00\x00\x00\x00\x00\x00\x00\x00\x00\x00\x00\x00\xf0?'
p1048
tp1049
bsg64
g7
sg65
(dp1050
I140468135978896
g1013
ssbsg65
(dp1051
I140468135978960
g1010
ssg64
g7
sbsg139
I2
sg140
g143
sg65
(dp1052
I140468135979024
g0
(g96
g2
Ntp1053
Rp1054
(dp1055
g46
I2
sg100
g0
(g101
g2
Ntp1056
Rp1057
(dp1058
g46
I1
sg105
g49
(g50
(I0
tp1059
g52
tp1060
Rp1061
(I1
(I2
tp1062
g59
I00
S'\x00\x00\x00\x00\x00\x00\xf0\x7f\x00\x00\x00\x00\x00\x00\xf0\x7f'
p1063
tp1064
bsg65
(dp1065
I140468135979024
g1054
ssg113
g49
(g50
(I0
tp1066
g52
tp1067
Rp1068
(I1
(I2
I2
tp1069
g59
I00
S'\x00\x00\x00\x00\x00\x00\x00\x00\x00\x00\x00\x00\x00\x00\x00\x00\x00\x00\x00\x00\x00\x00\xf0?\x00\x00\x00\x00\x00\x00\xf0?'
p1070
tp1071
bsg120
g49
(g50
(I0
tp1072
g52
tp1073
Rp1074
(I1
(I2
I2
tp1075
g59
I00
S'\x00\x00\x00\x00\x00\x00\x00\x00\x00\x00\x00\x00\x00\x00\x00\x00\x00\x00\x00\x00\x00\x00\xf0?\x00\x00\x00\x00\x00\x00\xf0?'
p1076
tp1077
bsg127
I01
sg64
g7
sbsg128
g1010
sg120
Nsg65
(dp1078
sg64
g7
sbssg64
g7
sbsI140468201692624
g0
(g81
g2
Ntp1079
Rp1080
(dp1081
g46
I2
sg85
g143
sg632
g87
sS'_affine'
p1082
Nsg65
(dp1083
I140468194616208
NsI140468194616336
NsI140468196906064
NsI140468194617232
NsI140468203733648
NsI140468195187152
NsI140468203735056
g0
(g75
g2
Ntp1084
Rp1085
(dp1086
g46
I2
sg79
I2
sg80
g1080
sg139
I2
sg140
g0
(g67
g2
Ntp1087
Rp1088
(dp1089
g46
I1
sg48
Nsg71
g44
sg47
Nsg72
(I0
F-0.04722222222222222
tp1090
sg64
g7
sg65
(dp1091
I140468203735056
g1085
ssbsg65
(dp1092
sg64
g7
sbsI140468203735184
NsI140468171118800
g0
(g75
g2
Ntp1093
Rp1094
(dp1095
g46
I2
sg79
I2
sg80
g1080
sg139
I2
sg140
g0
(g67
g2
Ntp1096
Rp1097
(dp1098
g46
I1
sg48
Nsg71
g44
sg47
Nsg72
(I0
F0.04722222222222222
tp1099
sg64
g7
sg65
(dp1100
I140468171118800
g1094
ssbsg65
(dp1101
sg64
g7
sbsI140468195185680
NsI140468194617872
NsI140468203735504
NsI140468195187472
NsI140468203735952
g0
(g75
g2
Ntp1102
Rp1103
(dp1104
g46
I2
sg79
I2
sg80
g1080
sg139
I2
sg140
g0
(g67
g2
Ntp1105
Rp1106
(dp1107
g46
I1
sg48
Nsg71
g44
sg47
Nsg72
(I0
F0.04722222222222222
tp1108
sg64
g7
sg65
(dp1109
I140468203735952
g1103
ssbsg65
(dp1110
sg64
g7
sbsI140468205341648
NsI140468195187728
NsI140468171117520
NsI140468203734032
g0
(g75
g2
Ntp1111
Rp1112
(dp1113
g46
I2
sg79
I2
sg80
g1080
sg139
I2
sg140
g0
(g67
g2
Ntp1114
Rp1115
(dp1116
g46
I1
sg48
Nsg71
g44
sg47
Nsg72
(I0
F0.04861111111111111
tp1117
sg64
g7
sg65
(dp1118
I140468203734032
g1112
ssbsg65
(dp1119
sg64
g7
sbsI140468196908624
NsI140468171118544
g0
(g75
g2
Ntp1120
Rp1121
(dp1122
g46
I2
sg79
I2
sg80
g1080
sg139
I2
sg140
g0
(g67
g2
Ntp1123
Rp1124
(dp1125
g46
I1
sg48
Nsg71
g44
sg47
Nsg72
(I0
F-0.04722222222222222
tp1126
sg64
g7
sg65
(dp1127
I140468171118544
g1121
ssbsg65
(dp1128
sg64
g7
sbsI140468196905232
NsI140468194617808
NsI140468171117008
g0
(g75
g2
Ntp1129
Rp1130
(dp1131
g46
I2
sg79
I2
sg80
g1080
sg139
I2
sg140
g0
(g67
g2
Ntp1132
Rp1133
(dp1134
g46
I1
sg48
Nsg71
g44
sg47
Nsg72
(I0
F-0.04861111111111111
tp1135
sg64
g7
sg65
(dp1136
I140468171117008
g1130
ssbsg65
(dp1137
sg64
g7
sbsI140468203733520
g0
(g75
g2
Ntp1138
Rp1139
(dp1140
g46
I2
sg79
I2
sg80
g1080
sg139
I2
sg140
g0
(g67
g2
Ntp1141
Rp1142
(dp1143
g46
I1
sg48
Nsg71
g44
sg47
Nsg72
(I0
F-0.04861111111111111
tp1144
sg64
g7
sg65
(dp1145
I140468203733520
g1139
ssbsg65
(dp1146
sg64
g7
sbsI140468195185232
NsI140468171117200
g0
(g75
g2
Ntp1147
Rp1148
(dp1149
g46
I2
sg79
I2
sg80
g1080
sg139
I2
sg140
g0
(g67
g2
Ntp1150
Rp1151
(dp1152
g46
I1
sg48
Nsg71
g44
sg47
Nsg72
(I0
F0.04861111111111111
tp1153
sg64
g7
sg65
(dp1154
I140468171117200
g1148
ssbsg65
(dp1155
sg64
g7
sbssg64
g7
sbsI140468195188240
g0
(g623
g2
Ntp1156
Rp1157
(dp1158
g46
I2
sg48
Nsg85
g143
sg632
g0
(g627
g2
Ntp1159
Rp1160
(dp1161
g46
I1
sg47
Nsg64
g7
sg65
(dp1162
I140468195188240
g1157
ssbsg47
Nsg64
g7
sg65
(dp1163
sbsI140468171119952
g1005
sI140468198899344
g0
(g75
g2
Ntp1164
Rp1165
(dp1166
g46
I2
sg79
I2
sg80
g0
(g75
g2
Ntp1167
Rp1168
(dp1169
g46
I1
sg79
I2
sg80
g0
(g141
g2
Ntp1170
Rp1171
(dp1172
g46
I1
sg48
Nsg47
Nsg145
g0
(g101
g2
Ntp1173
Rp1174
(dp1175
g46
I1
sg105
g49
(g50
(I0
tp1176
g52
tp1177
Rp1178
(I1
(I2
tp1179
g59
I00
S'\x00\x00\x00\x00\x00\x00\xf0\x7f\x00\x00\x00\x00\x00\x00\xf0\x7f'
p1180
tp1181
bsg65
(dp1182
I140468198897104
g1171
ssg113
g49
(g50
(I0
tp1183
g52
tp1184
Rp1185
(I1
(I2
I2
tp1186
g59
I00
S'\x00\x00\x00\x00\x00\x00\x00\x00\x00\x00\x00\x00\x00\x00\x00\x00\x00\x00\x00\x00\x00\x00\xf0?\x00\x00\x00\x00\x00\x00\xf0?'
p1187
tp1188
bsg120
g49
(g50
(I0
tp1189
g52
tp1190
Rp1191
(I1
(I2
I2
tp1192
g59
I00
S'\x00\x00\x00\x00\x00\x00\x00\x00\x00\x00\x00\x00\x00\x00\x00\x00\x00\x00\x00\x00\x00\x00\xf0?\x00\x00\x00\x00\x00\x00\xf0?'
p1193
tp1194
bsg127
I01
sg64
g7
sbsg65
(dp1195
I140468198897680
g1168
ssg64
g7
sbsg139
I2
sg140
g0
(g42
g2
Ntp1196
Rp1197
(dp1198
g46
I2
sg47
Nsg48
g49
(g50
(I0
tp1199
g52
tp1200
Rp1201
(I1
(I3
I3
tp1202
g59
I00
S'\x00\x00\x00\x00\x00\x00\xf0?\x00\x00\x00\x00\x00\x00\x00\x00\x00\x00\x00\x00\x00\x00\x00\x00\x00\x00\x00\x00\x00\x00\x00\x00\x00\x00\x00\x00\x00\x00\xf0?\x00\x00\x00\x00\x00\x00\x00\x00\x00\x00\x00\x00\x00\x00\x00\x00\x00\x00\x00\x00\x00\x00\x00\x00\x00\x00\x00\x00\x00\x00\xf0?'
p1203
tp1204
bsg64
g7
sg65
(dp1205
I140468198897680
g1168
ssbsg65
(dp1206
I140468198899344
g1165
ssg64
g7
sbsg139
I2
sg140
g143
sg65
(dp1207
I140468198899664
g0
(g96
g2
Ntp1208
Rp1209
(dp1210
g46
I2
sg100
g0
(g101
g2
Ntp1211
Rp1212
(dp1213
g46
I1
sg105
g49
(g50
(I0
tp1214
g52
tp1215
Rp1216
(I1
(I2
tp1217
g59
I00
S'\x00\x00\x00\x00\x00\x00\xf0\x7f\x00\x00\x00\x00\x00\x00\xf0\x7f'
p1218
tp1219
bsg65
(dp1220
I140468198899664
g1209
ssg113
g49
(g50
(I0
tp1221
g52
tp1222
Rp1223
(I1
(I2
I2
tp1224
g59
I00
S'\x00\x00\x00\x00\x00\x00\x00\x00\x00\x00\x00\x00\x00\x00\x00\x00\x00\x00\x00\x00\x00\x00\xf0?\x00\x00\x00\x00\x00\x00\xf0?'
p1225
tp1226
bsg120
g49
(g50
(I0
tp1227
g52
tp1228
Rp1229
(I1
(I2
I2
tp1230
g59
I00
S'\x00\x00\x00\x00\x00\x00\x00\x00\x00\x00\x00\x00\x00\x00\x00\x00\x00\x00\x00\x00\x00\x00\xf0?\x00\x00\x00\x00\x00\x00\xf0?'
p1231
tp1232
bsg127
I01
sg64
g7
sbsg128
g1165
sg120
Nsg65
(dp1233
sg64
g7
sbssg64
g7
sbsI140468171120336
g0
(g75
g2
Ntp1234
Rp1235
(dp1236
g46
I2
sg79
I2
sg80
g0
(g75
g2
Ntp1237
Rp1238
(dp1239
g46
I1
sg79
I2
sg80
g0
(g141
g2
Ntp1240
Rp1241
(dp1242
g46
I1
sg48
Nsg47
Nsg145
g0
(g101
g2
Ntp1243
Rp1244
(dp1245
g46
I1
sg105
g49
(g50
(I0
tp1246
g52
tp1247
Rp1248
(I1
(I2
tp1249
g59
I00
S'\x00\x00\x00\x00\x00\x00\xf0\x7f\x00\x00\x00\x00\x00\x00\xf0\x7f'
p1250
tp1251
bsg65
(dp1252
I140468171120208
g1241
ssg113
g49
(g50
(I0
tp1253
g52
tp1254
Rp1255
(I1
(I2
I2
tp1256
g59
I00
S'\x00\x00\x00\x00\x00\x00\x00\x00\x00\x00\x00\x00\x00\x00\x00\x00\x00\x00\x00\x00\x00\x00\xf0?\x00\x00\x00\x00\x00\x00\xf0?'
p1257
tp1258
bsg120
g49
(g50
(I0
tp1259
g52
tp1260
Rp1261
(I1
(I2
I2
tp1262
g59
I00
S'\x00\x00\x00\x00\x00\x00\x00\x00\x00\x00\x00\x00\x00\x00\x00\x00\x00\x00\x00\x00\x00\x00\xf0?\x00\x00\x00\x00\x00\x00\xf0?'
p1263
tp1264
bsg127
I01
sg64
g7
sbsg65
(dp1265
I140468171120272
g1238
ssg64
g7
sbsg139
I2
sg140
g0
(g42
g2
Ntp1266
Rp1267
(dp1268
g46
I2
sg47
Nsg48
g49
(g50
(I0
tp1269
g52
tp1270
Rp1271
(I1
(I3
I3
tp1272
g59
I00
S'\x00\x00\x00\x00\x00\x00\xf0?\x00\x00\x00\x00\x00\x00\x00\x00\x00\x00\x00\x00\x00\x00\x00\x00\x00\x00\x00\x00\x00\x00\x00\x00\x00\x00\x00\x00\x00\x00\xf0?\x00\x00\x00\x00\x00\x00\x00\x00\x00\x00\x00\x00\x00\x00\x00\x00\x00\x00\x00\x00\x00\x00\x00\x00\x00\x00\x00\x00\x00\x00\xf0?'
p1273
tp1274
bsg64
g7
sg65
(dp1275
I140468171120272
g1238
ssbsg65
(dp1276
I140468171120336
g1235
ssg64
g7
sbsg139
I2
sg140
g143
sg65
(dp1277
I140468171120400
g0
(g96
g2
Ntp1278
Rp1279
(dp1280
g46
I2
sg100
g0
(g101
g2
Ntp1281
Rp1282
(dp1283
g46
I1
sg105
g49
(g50
(I0
tp1284
g52
tp1285
Rp1286
(I1
(I2
tp1287
g59
I00
S'\x00\x00\x00\x00\x00\x00\xf0\x7f\x00\x00\x00\x00\x00\x00\xf0\x7f'
p1288
tp1289
bsg65
(dp1290
I140468171120400
g1279
ssg113
g49
(g50
(I0
tp1291
g52
tp1292
Rp1293
(I1
(I2
I2
tp1294
g59
I00
S'\x00\x00\x00\x00\x00\x00\x00\x00\x00\x00\x00\x00\x00\x00\x00\x00\x00\x00\x00\x00\x00\x00\xf0?\x00\x00\x00\x00\x00\x00\xf0?'
p1295
tp1296
bsg120
g49
(g50
(I0
tp1297
g52
tp1298
Rp1299
(I1
(I2
I2
tp1300
g59
I00
S'\x00\x00\x00\x00\x00\x00\x00\x00\x00\x00\x00\x00\x00\x00\x00\x00\x00\x00\x00\x00\x00\x00\xf0?\x00\x00\x00\x00\x00\x00\xf0?'
p1301
tp1302
bsg127
I01
sg64
g7
sbsg128
g1235
sg120
Nsg65
(dp1303
sg64
g7
sbssg64
g7
sbsI140468135980752
g0
(g75
g2
Ntp1304
Rp1305
(dp1306
g46
I2
sg79
I2
sg80
g0
(g75
g2
Ntp1307
Rp1308
(dp1309
g46
I1
sg79
I2
sg80
g0
(g141
g2
Ntp1310
Rp1311
(dp1312
g46
I1
sg48
Nsg47
Nsg145
g0
(g101
g2
Ntp1313
Rp1314
(dp1315
g46
I1
sg105
g49
(g50
(I0
tp1316
g52
tp1317
Rp1318
(I1
(I2
tp1319
g59
I00
S'\x00\x00\x00\x00\x00\x00\xf0\x7f\x00\x00\x00\x00\x00\x00\xf0\x7f'
p1320
tp1321
bsg65
(dp1322
I140468135980624
g1311
ssg113
g49
(g50
(I0
tp1323
g52
tp1324
Rp1325
(I1
(I2
I2
tp1326
g59
I00
S'\x00\x00\x00\x00\x00\x00\x00\x00\x00\x00\x00\x00\x00\x00\x00\x00\x00\x00\x00\x00\x00\x00\xf0?\x00\x00\x00\x00\x00\x00\xf0?'
p1327
tp1328
bsg120
g49
(g50
(I0
tp1329
g52
tp1330
Rp1331
(I1
(I2
I2
tp1332
g59
I00
S'\x00\x00\x00\x00\x00\x00\x00\x00\x00\x00\x00\x00\x00\x00\x00\x00\x00\x00\x00\x00\x00\x00\xf0?\x00\x00\x00\x00\x00\x00\xf0?'
p1333
tp1334
bsg127
I01
sg64
g7
sbsg65
(dp1335
I140468135980688
g1308
ssg64
g7
sbsg139
I2
sg140
g0
(g42
g2
Ntp1336
Rp1337
(dp1338
g46
I2
sg47
Nsg48
g49
(g50
(I0
tp1339
g52
tp1340
Rp1341
(I1
(I3
I3
tp1342
g59
I00
S'\x00\x00\x00\x00\x00\x00\xf0?\x00\x00\x00\x00\x00\x00\x00\x00\x00\x00\x00\x00\x00\x00\x00\x00\x00\x00\x00\x00\x00\x00\x00\x00\x00\x00\x00\x00\x00\x00\xf0?\x00\x00\x00\x00\x00\x00\x00\x00\x00\x00\x00\x00\x00\x00\x00\x00\x00\x00\x00\x00\x00\x00\x00\x00\x00\x00\x00\x00\x00\x00\xf0?'
p1343
tp1344
bsg64
g7
sg65
(dp1345
I140468135980688
g1308
ssbsg65
(dp1346
I140468135980752
g1305
ssg64
g7
sbsg139
I2
sg140
g143
sg65
(dp1347
I140468135980816
g0
(g96
g2
Ntp1348
Rp1349
(dp1350
g46
I2
sg100
g0
(g101
g2
Ntp1351
Rp1352
(dp1353
g46
I1
sg105
g49
(g50
(I0
tp1354
g52
tp1355
Rp1356
(I1
(I2
tp1357
g59
I00
S'\x00\x00\x00\x00\x00\x00\xf0\x7f\x00\x00\x00\x00\x00\x00\xf0\x7f'
p1358
tp1359
bsg65
(dp1360
I140468135980816
g1349
ssg113
g49
(g50
(I0
tp1361
g52
tp1362
Rp1363
(I1
(I2
I2
tp1364
g59
I00
S'\x00\x00\x00\x00\x00\x00\x00\x00\x00\x00\x00\x00\x00\x00\x00\x00\x00\x00\x00\x00\x00\x00\xf0?\x00\x00\x00\x00\x00\x00\xf0?'
p1365
tp1366
bsg120
g49
(g50
(I0
tp1367
g52
tp1368
Rp1369
(I1
(I2
I2
tp1370
g59
I00
S'\x00\x00\x00\x00\x00\x00\x00\x00\x00\x00\x00\x00\x00\x00\x00\x00\x00\x00\x00\x00\x00\x00\xf0?\x00\x00\x00\x00\x00\x00\xf0?'
p1371
tp1372
bsg127
I01
sg64
g7
sbsg128
g1305
sg120
Nsg65
(dp1373
sg64
g7
sbssg64
g7
sbsI140468195187856
g0
(g623
g2
Ntp1374
Rp1375
(dp1376
g46
I2
sg48
Nsg85
g0
(g627
g2
Ntp1377
Rp1378
(dp1379
g46
I1
sg47
Nsg64
g7
sg65
(dp1380
I140468195187856
g1375
ssbsg632
g143
sg47
Nsg64
g7
sg65
(dp1381
sbsI140468193193936
g0
(g75
g2
Ntp1382
Rp1383
(dp1384
g46
I2
sg79
I2
sg80
g0
(g75
g2
Ntp1385
Rp1386
(dp1387
g46
I1
sg79
I2
sg80
g0
(g141
g2
Ntp1388
Rp1389
(dp1390
g46
I1
sg48
Nsg47
Nsg145
g0
(g101
g2
Ntp1391
Rp1392
(dp1393
g46
I1
sg105
g49
(g50
(I0
tp1394
g52
tp1395
Rp1396
(I1
(I2
tp1397
g59
I00
S'\x00\x00\x00\x00\x00\x00\xf0\x7f\x00\x00\x00\x00\x00\x00\xf0\x7f'
p1398
tp1399
bsg65
(dp1400
I140468193190864
g1389
ssg113
g49
(g50
(I0
tp1401
g52
tp1402
Rp1403
(I1
(I2
I2
tp1404
g59
I00
S'\x00\x00\x00\x00\x00\x00\x00\x00\x00\x00\x00\x00\x00\x00\x00\x00\x00\x00\x00\x00\x00\x00\xf0?\x00\x00\x00\x00\x00\x00\xf0?'
p1405
tp1406
bsg120
g49
(g50
(I0
tp1407
g52
tp1408
Rp1409
(I1
(I2
I2
tp1410
g59
I00
S'\x00\x00\x00\x00\x00\x00\x00\x00\x00\x00\x00\x00\x00\x00\x00\x00\x00\x00\x00\x00\x00\x00\xf0?\x00\x00\x00\x00\x00\x00\xf0?'
p1411
tp1412
bsg127
I01
sg64
g7
sbsg65
(dp1413
I140468193192912
g1386
ssg64
g7
sbsg139
I2
sg140
g0
(g42
g2
Ntp1414
Rp1415
(dp1416
g46
I2
sg47
Nsg48
g49
(g50
(I0
tp1417
g52
tp1418
Rp1419
(I1
(I3
I3
tp1420
g59
I00
S'\x00\x00\x00\x00\x00\x00\xf0?\x00\x00\x00\x00\x00\x00\x00\x00\x00\x00\x00\x00\x00\x00\x00\x00\x00\x00\x00\x00\x00\x00\x00\x00\x00\x00\x00\x00\x00\x00\xf0?\x00\x00\x00\x00\x00\x00\x00\x00\x00\x00\x00\x00\x00\x00\x00\x00\x00\x00\x00\x00\x00\x00\x00\x00\x00\x00\x00\x00\x00\x00\xf0?'
p1421
tp1422
bsg64
g7
sg65
(dp1423
I140468193192912
g1386
ssbsg65
(dp1424
I140468193193936
g1383
ssg64
g7
sbsg139
I2
sg140
g143
sg65
(dp1425
I140468205338704
g0
(g96
g2
Ntp1426
Rp1427
(dp1428
g46
I2
sg100
g0
(g101
g2
Ntp1429
Rp1430
(dp1431
g46
I1
sg105
g49
(g50
(I0
tp1432
g52
tp1433
Rp1434
(I1
(I2
tp1435
g59
I00
S'\x00\x00\x00\x00\x00\x00\xf0\x7f\x00\x00\x00\x00\x00\x00\xf0\x7f'
p1436
tp1437
bsg65
(dp1438
I140468205338704
g1427
ssg113
g49
(g50
(I0
tp1439
g52
tp1440
Rp1441
(I1
(I2
I2
tp1442
g59
I00
S'\x00\x00\x00\x00\x00\x00\x00\x00\x00\x00\x00\x00\x00\x00\x00\x00\x00\x00\x00\x00\x00\x00\xf0?\x00\x00\x00\x00\x00\x00\xf0?'
p1443
tp1444
bsg120
g49
(g50
(I0
tp1445
g52
tp1446
Rp1447
(I1
(I2
I2
tp1448
g59
I00
S'\x00\x00\x00\x00\x00\x00\x00\x00\x00\x00\x00\x00\x00\x00\x00\x00\x00\x00\x00\x00\x00\x00\xf0?\x00\x00\x00\x00\x00\x00\xf0?'
p1449
tp1450
bsg127
I01
sg64
g7
sbsg128
g1383
sg120
Nsg65
(dp1451
sg64
g7
sbssg64
g7
sbsI140468135977168
g0
(g75
g2
Ntp1452
Rp1453
(dp1454
g46
I2
sg79
I2
sg80
g0
(g75
g2
Ntp1455
Rp1456
(dp1457
g46
I1
sg79
I2
sg80
g0
(g141
g2
Ntp1458
Rp1459
(dp1460
g46
I1
sg48
Nsg47
Nsg145
g0
(g101
g2
Ntp1461
Rp1462
(dp1463
g46
I1
sg105
g49
(g50
(I0
tp1464
g52
tp1465
Rp1466
(I1
(I2
tp1467
g59
I00
S'\x00\x00\x00\x00\x00\x00\xf0\x7f\x00\x00\x00\x00\x00\x00\xf0\x7f'
p1468
tp1469
bsg65
(dp1470
I140468135977040
g1459
ssg113
g49
(g50
(I0
tp1471
g52
tp1472
Rp1473
(I1
(I2
I2
tp1474
g59
I00
S'\x00\x00\x00\x00\x00\x00\x00\x00\x00\x00\x00\x00\x00\x00\x00\x00\x00\x00\x00\x00\x00\x00\xf0?\x00\x00\x00\x00\x00\x00\xf0?'
p1475
tp1476
bsg120
g49
(g50
(I0
tp1477
g52
tp1478
Rp1479
(I1
(I2
I2
tp1480
g59
I00
S'\x00\x00\x00\x00\x00\x00\x00\x00\x00\x00\x00\x00\x00\x00\x00\x00\x00\x00\x00\x00\x00\x00\xf0?\x00\x00\x00\x00\x00\x00\xf0?'
p1481
tp1482
bsg127
I01
sg64
g7
sbsg65
(dp1483
I140468135977104
g1456
ssg64
g7
sbsg139
I2
sg140
g0
(g42
g2
Ntp1484
Rp1485
(dp1486
g46
I2
sg47
Nsg48
g49
(g50
(I0
tp1487
g52
tp1488
Rp1489
(I1
(I3
I3
tp1490
g59
I00
S'\x00\x00\x00\x00\x00\x00\xf0?\x00\x00\x00\x00\x00\x00\x00\x00\x00\x00\x00\x00\x00\x00\x00\x00\x00\x00\x00\x00\x00\x00\x00\x00\x00\x00\x00\x00\x00\x00\xf0?\x00\x00\x00\x00\x00\x00\x00\x00\x00\x00\x00\x00\x00\x00\x00\x00\x00\x00\x00\x00\x00\x00\x00\x00\x00\x00\x00\x00\x00\x00\xf0?'
p1491
tp1492
bsg64
g7
sg65
(dp1493
I140468135977104
g1456
ssbsg65
(dp1494
I140468135977168
g1453
ssg64
g7
sbsg139
I2
sg140
g143
sg65
(dp1495
I140468135977232
g0
(g96
g2
Ntp1496
Rp1497
(dp1498
g46
I2
sg100
g0
(g101
g2
Ntp1499
Rp1500
(dp1501
g46
I1
sg105
g49
(g50
(I0
tp1502
g52
tp1503
Rp1504
(I1
(I2
tp1505
g59
I00
S'\x00\x00\x00\x00\x00\x00\xf0\x7f\x00\x00\x00\x00\x00\x00\xf0\x7f'
p1506
tp1507
bsg65
(dp1508
I140468135977232
g1497
ssg113
g49
(g50
(I0
tp1509
g52
tp1510
Rp1511
(I1
(I2
I2
tp1512
g59
I00
S'\x00\x00\x00\x00\x00\x00\x00\x00\x00\x00\x00\x00\x00\x00\x00\x00\x00\x00\x00\x00\x00\x00\xf0?\x00\x00\x00\x00\x00\x00\xf0?'
p1513
tp1514
bsg120
g49
(g50
(I0
tp1515
g52
tp1516
Rp1517
(I1
(I2
I2
tp1518
g59
I00
S'\x00\x00\x00\x00\x00\x00\x00\x00\x00\x00\x00\x00\x00\x00\x00\x00\x00\x00\x00\x00\x00\x00\xf0?\x00\x00\x00\x00\x00\x00\xf0?'
p1519
tp1520
bsg127
I01
sg64
g7
sbsg128
g1453
sg120
Nsg65
(dp1521
sg64
g7
sbssg64
g7
sbsI140468198895952
g0
(g75
g2
Ntp1522
Rp1523
(dp1524
g46
I2
sg79
I2
sg80
g0
(g75
g2
Ntp1525
Rp1526
(dp1527
g46
I1
sg79
I2
sg80
g0
(g141
g2
Ntp1528
Rp1529
(dp1530
g46
I1
sg48
Nsg47
Nsg145
g0
(g101
g2
Ntp1531
Rp1532
(dp1533
g46
I1
sg105
g49
(g50
(I0
tp1534
g52
tp1535
Rp1536
(I1
(I2
tp1537
g59
I00
S'\x00\x00\x00\x00\x00\x00\xf0\x7f\x00\x00\x00\x00\x00\x00\xf0\x7f'
p1538
tp1539
bsg65
(dp1540
I140468198895696
g1529
ssg113
g49
(g50
(I0
tp1541
g52
tp1542
Rp1543
(I1
(I2
I2
tp1544
g59
I00
S'\x00\x00\x00\x00\x00\x00\x00\x00\x00\x00\x00\x00\x00\x00\x00\x00\x00\x00\x00\x00\x00\x00\xf0?\x00\x00\x00\x00\x00\x00\xf0?'
p1545
tp1546
bsg120
g49
(g50
(I0
tp1547
g52
tp1548
Rp1549
(I1
(I2
I2
tp1550
g59
I00
S'\x00\x00\x00\x00\x00\x00\x00\x00\x00\x00\x00\x00\x00\x00\x00\x00\x00\x00\x00\x00\x00\x00\xf0?\x00\x00\x00\x00\x00\x00\xf0?'
p1551
tp1552
bsg127
I01
sg64
g7
sbsg65
(dp1553
I140468198896720
g1526
ssg64
g7
sbsg139
I2
sg140
g0
(g42
g2
Ntp1554
Rp1555
(dp1556
g46
I2
sg47
Nsg48
g49
(g50
(I0
tp1557
g52
tp1558
Rp1559
(I1
(I3
I3
tp1560
g59
I00
S'\x00\x00\x00\x00\x00\x00\xf0?\x00\x00\x00\x00\x00\x00\x00\x00\x00\x00\x00\x00\x00\x00\x00\x00\x00\x00\x00\x00\x00\x00\x00\x00\x00\x00\x00\x00\x00\x00\xf0?\x00\x00\x00\x00\x00\x00\x00\x00\x00\x00\x00\x00\x00\x00\x00\x00\x00\x00\x00\x00\x00\x00\x00\x00\x00\x00\x00\x00\x00\x00\xf0?'
p1561
tp1562
bsg64
g7
sg65
(dp1563
I140468198896720
g1526
ssbsg65
(dp1564
I140468198895952
g1523
ssg64
g7
sbsg139
I2
sg140
g143
sg65
(dp1565
I140468198898128
g0
(g96
g2
Ntp1566
Rp1567
(dp1568
g46
I2
sg100
g0
(g101
g2
Ntp1569
Rp1570
(dp1571
g46
I1
sg105
g49
(g50
(I0
tp1572
g52
tp1573
Rp1574
(I1
(I2
tp1575
g59
I00
S'\x00\x00\x00\x00\x00\x00\xf0\x7f\x00\x00\x00\x00\x00\x00\xf0\x7f'
p1576
tp1577
bsg65
(dp1578
I140468198898128
g1567
ssg113
g49
(g50
(I0
tp1579
g52
tp1580
Rp1581
(I1
(I2
I2
tp1582
g59
I00
S'\x00\x00\x00\x00\x00\x00\x00\x00\x00\x00\x00\x00\x00\x00\x00\x00\x00\x00\x00\x00\x00\x00\xf0?\x00\x00\x00\x00\x00\x00\xf0?'
p1583
tp1584
bsg120
g49
(g50
(I0
tp1585
g52
tp1586
Rp1587
(I1
(I2
I2
tp1588
g59
I00
S'\x00\x00\x00\x00\x00\x00\x00\x00\x00\x00\x00\x00\x00\x00\x00\x00\x00\x00\x00\x00\x00\x00\xf0?\x00\x00\x00\x00\x00\x00\xf0?'
p1589
tp1590
bsg127
I01
sg64
g7
sbsg128
g1523
sg120
Nsg65
(dp1591
sg64
g7
sbssg64
g7
sbsI140468136030800
g0
(g75
g2
Ntp1592
Rp1593
(dp1594
g46
I2
sg79
I2
sg80
g0
(g75
g2
Ntp1595
Rp1596
(dp1597
g46
I1
sg79
I2
sg80
g0
(g141
g2
Ntp1598
Rp1599
(dp1600
g46
I1
sg48
Nsg47
Nsg145
g0
(g101
g2
Ntp1601
Rp1602
(dp1603
g46
I1
sg105
g49
(g50
(I0
tp1604
g52
tp1605
Rp1606
(I1
(I2
tp1607
g59
I00
S'\x00\x00\x00\x00\x00\x00\xf0\x7f\x00\x00\x00\x00\x00\x00\xf0\x7f'
p1608
tp1609
bsg65
(dp1610
I140468135981008
g1599
ssg113
g49
(g50
(I0
tp1611
g52
tp1612
Rp1613
(I1
(I2
I2
tp1614
g59
I00
S'\x00\x00\x00\x00\x00\x00\x00\x00\x00\x00\x00\x00\x00\x00\x00\x00\x00\x00\x00\x00\x00\x00\xf0?\x00\x00\x00\x00\x00\x00\xf0?'
p1615
tp1616
bsg120
g49
(g50
(I0
tp1617
g52
tp1618
Rp1619
(I1
(I2
I2
tp1620
g59
I00
S'\x00\x00\x00\x00\x00\x00\x00\x00\x00\x00\x00\x00\x00\x00\x00\x00\x00\x00\x00\x00\x00\x00\xf0?\x00\x00\x00\x00\x00\x00\xf0?'
p1621
tp1622
bsg127
I01
sg64
g7
sbsg65
(dp1623
I140468136030736
g1596
ssg64
g7
sbsg139
I2
sg140
g0
(g42
g2
Ntp1624
Rp1625
(dp1626
g46
I2
sg47
Nsg48
g49
(g50
(I0
tp1627
g52
tp1628
Rp1629
(I1
(I3
I3
tp1630
g59
I00
S'\x00\x00\x00\x00\x00\x00\xf0?\x00\x00\x00\x00\x00\x00\x00\x00\x00\x00\x00\x00\x00\x00\x00\x00\x00\x00\x00\x00\x00\x00\x00\x00\x00\x00\x00\x00\x00\x00\xf0?\x00\x00\x00\x00\x00\x00\x00\x00\x00\x00\x00\x00\x00\x00\x00\x00\x00\x00\x00\x00\x00\x00\x00\x00\x00\x00\x00\x00\x00\x00\xf0?'
p1631
tp1632
bsg64
g7
sg65
(dp1633
I140468136030736
g1596
ssbsg65
(dp1634
I140468136030800
g1593
ssg64
g7
sbsg139
I2
sg140
g143
sg65
(dp1635
I140468136030864
g0
(g96
g2
Ntp1636
Rp1637
(dp1638
g46
I2
sg100
g0
(g101
g2
Ntp1639
Rp1640
(dp1641
g46
I1
sg105
g49
(g50
(I0
tp1642
g52
tp1643
Rp1644
(I1
(I2
tp1645
g59
I00
S'\x00\x00\x00\x00\x00\x00\xf0\x7f\x00\x00\x00\x00\x00\x00\xf0\x7f'
p1646
tp1647
bsg65
(dp1648
I140468136030864
g1637
ssg113
g49
(g50
(I0
tp1649
g52
tp1650
Rp1651
(I1
(I2
I2
tp1652
g59
I00
S'\x00\x00\x00\x00\x00\x00\x00\x00\x00\x00\x00\x00\x00\x00\x00\x00\x00\x00\x00\x00\x00\x00\xf0?\x00\x00\x00\x00\x00\x00\xf0?'
p1653
tp1654
bsg120
g49
(g50
(I0
tp1655
g52
tp1656
Rp1657
(I1
(I2
I2
tp1658
g59
I00
S'\x00\x00\x00\x00\x00\x00\x00\x00\x00\x00\x00\x00\x00\x00\x00\x00\x00\x00\x00\x00\x00\x00\xf0?\x00\x00\x00\x00\x00\x00\xf0?'
p1659
tp1660
bsg127
I01
sg64
g7
sbsg128
g1593
sg120
Nsg65
(dp1661
sg64
g7
sbssg64
g7
sbsI140468135977616
g0
(g75
g2
Ntp1662
Rp1663
(dp1664
g46
I2
sg79
I2
sg80
g0
(g75
g2
Ntp1665
Rp1666
(dp1667
g46
I1
sg79
I2
sg80
g0
(g141
g2
Ntp1668
Rp1669
(dp1670
g46
I1
sg48
Nsg47
Nsg145
g0
(g101
g2
Ntp1671
Rp1672
(dp1673
g46
I1
sg105
g49
(g50
(I0
tp1674
g52
tp1675
Rp1676
(I1
(I2
tp1677
g59
I00
S'\x00\x00\x00\x00\x00\x00\xf0\x7f\x00\x00\x00\x00\x00\x00\xf0\x7f'
p1678
tp1679
bsg65
(dp1680
I140468135977488
g1669
ssg113
g49
(g50
(I0
tp1681
g52
tp1682
Rp1683
(I1
(I2
I2
tp1684
g59
I00
S'\x00\x00\x00\x00\x00\x00\x00\x00\x00\x00\x00\x00\x00\x00\x00\x00\x00\x00\x00\x00\x00\x00\xf0?\x00\x00\x00\x00\x00\x00\xf0?'
p1685
tp1686
bsg120
g49
(g50
(I0
tp1687
g52
tp1688
Rp1689
(I1
(I2
I2
tp1690
g59
I00
S'\x00\x00\x00\x00\x00\x00\x00\x00\x00\x00\x00\x00\x00\x00\x00\x00\x00\x00\x00\x00\x00\x00\xf0?\x00\x00\x00\x00\x00\x00\xf0?'
p1691
tp1692
bsg127
I01
sg64
g7
sbsg65
(dp1693
I140468135977552
g1666
ssg64
g7
sbsg139
I2
sg140
g0
(g42
g2
Ntp1694
Rp1695
(dp1696
g46
I2
sg47
Nsg48
g49
(g50
(I0
tp1697
g52
tp1698
Rp1699
(I1
(I3
I3
tp1700
g59
I00
S'\x00\x00\x00\x00\x00\x00\xf0?\x00\x00\x00\x00\x00\x00\x00\x00\x00\x00\x00\x00\x00\x00\x00\x00\x00\x00\x00\x00\x00\x00\x00\x00\x00\x00\x00\x00\x00\x00\xf0?\x00\x00\x00\x00\x00\x00\x00\x00\x00\x00\x00\x00\x00\x00\x00\x00\x00\x00\x00\x00\x00\x00\x00\x00\x00\x00\x00\x00\x00\x00\xf0?'
p1701
tp1702
bsg64
g7
sg65
(dp1703
I140468135977552
g1666
ssbsg65
(dp1704
I140468135977616
g1663
ssg64
g7
sbsg139
I2
sg140
g143
sg65
(dp1705
I140468135977680
g0
(g96
g2
Ntp1706
Rp1707
(dp1708
g46
I2
sg100
g0
(g101
g2
Ntp1709
Rp1710
(dp1711
g46
I1
sg105
g49
(g50
(I0
tp1712
g52
tp1713
Rp1714
(I1
(I2
tp1715
g59
I00
S'\x00\x00\x00\x00\x00\x00\xf0\x7f\x00\x00\x00\x00\x00\x00\xf0\x7f'
p1716
tp1717
bsg65
(dp1718
I140468135977680
g1707
ssg113
g49
(g50
(I0
tp1719
g52
tp1720
Rp1721
(I1
(I2
I2
tp1722
g59
I00
S'\x00\x00\x00\x00\x00\x00\x00\x00\x00\x00\x00\x00\x00\x00\x00\x00\x00\x00\x00\x00\x00\x00\xf0?\x00\x00\x00\x00\x00\x00\xf0?'
p1723
tp1724
bsg120
g49
(g50
(I0
tp1725
g52
tp1726
Rp1727
(I1
(I2
I2
tp1728
g59
I00
S'\x00\x00\x00\x00\x00\x00\x00\x00\x00\x00\x00\x00\x00\x00\x00\x00\x00\x00\x00\x00\x00\x00\xf0?\x00\x00\x00\x00\x00\x00\xf0?'
p1729
tp1730
bsg127
I01
sg64
g7
sbsg128
g1663
sg120
Nsg65
(dp1731
sg64
g7
sbssg64
g7
sbssg64
g7
sbsg65
(dp1732
I140468201689232
g87
sI140468135980944
NsI140468136030992
Nssg64
g7
sbssbssg64
g7
sbsI140468201689232
g87
sI140468135980944
NsI140468136030992
NssVinput_dims
p1733
I2
sVchild
p1734
g0
(g623
g2
Ntp1735
Rp1736
(dp1737
g46
I0
sg48
g49
(g50
(I0
tp1738
g52
tp1739
Rp1740
(I1
(I3
I3
tp1741
g59
I00
S'\x00\x00\x00\x00\x00\x00\xf0?\x00\x00\x00\x00\x00\x00\x00\x00\x00\x00\x00\x00\x00\x00\x00\x00\x00\x00\x00\x00\x00\x00\x00\x00\x00\x00\x00\x00\x00\x00\xf0?\x00\x00\x00\x00\x00\x00\x00\x00\x00\x00\x00\x00\x00\x00\x00\x00\x00\x00\x00\x00\x00\x00\x00\x00\x00\x00\x00\x00\x00\x00\xf0?'
p1742
tp1743
bsg85
g0
(g627
g2
Ntp1744
Rp1745
(dp1746
g46
I1
sg47
Nsg64
g7
sg65
(dp1747
I140468171119184
g1736
ssbsg632
g0
(g627
g2
Ntp1748
Rp1749
(dp1750
g46
I1
sg47
Nsg64
g7
sg65
(dp1751
I140468171119184
g1736
ssbsg47
Nsg64
g7
sg65
(dp1752
I140468204022736
g91
ssbsbsg139
I2
sg140
g137
sg65
(dp1753
I140468201692624
g1080
sI140468201690896
g83
ssg64
g7
sbsg632
g143
sg1082
Nsg65
(dp1754
I140468198896528
NsI140468198896912
NsI140468194617232
NsI140468198897040
NsI140468198899024
NsI140468198897424
NsI140468198897488
NsI140468198897616
NsI140468198896976
NsI140468193192208
NsI140468193192336
NsI140468198898128
NsI140468198898064
NsI140468194616656
g0
(g75
g2
Ntp1755
Rp1756
(dp1757
g46
I2
sg79
I2
sg80
g83
sg139
I2
sg140
g0
(g67
g2
Ntp1758
Rp1759
(dp1760
g46
I1
sg48
Nsg71
g44
sg47
Nsg72
(F-0.04861111111111111
I0
tp1761
sg64
g7
sg65
(dp1762
I140468194616656
g1756
ssbsg65
(dp1763
sg64
g7
sbsI140468193192848
g0
(g75
g2
Ntp1764
Rp1765
(dp1766
g46
I2
sg79
I2
sg80
g83
sg139
I2
sg140
g0
(g67
g2
Ntp1767
Rp1768
(dp1769
g46
I1
sg48
Nsg71
g44
sg47
Nsg72
(F-0.04722222222222222
I0
tp1770
sg64
g7
sg65
(dp1771
I140468193192848
g1765
ssbsg65
(dp1772
sg64
g7
sbsI140468196907984
NsI140468198898704
NsI140468196905232
NsI140468193193168
g0
(g75
g2
Ntp1773
Rp1774
(dp1775
g46
I2
sg79
I2
sg80
g83
sg139
I2
sg140
g0
(g67
g2
Ntp1776
Rp1777
(dp1778
g46
I1
sg48
Nsg71
g44
sg47
Nsg72
(F-0.04722222222222222
I0
tp1779
sg64
g7
sg65
(dp1780
I140468193193168
g1774
ssbsg65
(dp1781
sg64
g7
sbsI140468193193232
NsI140468193192784
g77
sI140468193193360
g0
(g75
g2
Ntp1782
Rp1783
(dp1784
g46
I2
sg79
I2
sg80
g83
sg139
I2
sg140
g0
(g67
g2
Ntp1785
Rp1786
(dp1787
g46
I1
sg48
Nsg71
g44
sg47
Nsg72
(F-0.04861111111111111
I0
tp1788
sg64
g7
sg65
(dp1789
I140468193193360
g1783
ssbsg65
(dp1790
sg64
g7
sbsI140468198899152
g0
(g75
g2
Ntp1791
Rp1792
(dp1793
g46
I2
sg79
I2
sg80
g83
sg139
I2
sg140
g0
(g67
g2
Ntp1794
Rp1795
(dp1796
g46
I1
sg48
Nsg71
g44
sg47
Nsg72
(F0.04861111111111111
I0
tp1797
sg64
g7
sg65
(dp1798
I140468198899152
g1792
ssbsg65
(dp1799
sg64
g7
sbsI140468205342416
NsI140468198896592
NsI140468193190160
g0
(g75
g2
Ntp1800
Rp1801
(dp1802
g46
I2
sg79
I2
sg80
g83
sg139
I2
sg140
g0
(g67
g2
Ntp1803
Rp1804
(dp1805
g46
I1
sg48
Nsg71
g44
sg47
Nsg72
(F0.04722222222222222
I0
tp1806
sg64
g7
sg65
(dp1807
I140468193190160
g1801
ssbsg65
(dp1808
sg64
g7
sbsI140468198895952
NsI140468198896144
NsI140468193190480
g0
(g75
g2
Ntp1809
Rp1810
(dp1811
g46
I2
sg79
I2
sg80
g83
sg139
I2
sg140
g0
(g67
g2
Ntp1812
Rp1813
(dp1814
g46
I1
sg48
Nsg71
g44
sg47
Nsg72
(F0.04861111111111111
I0
tp1815
sg64
g7
sg65
(dp1816
I140468193190480
g1810
ssbsg65
(dp1817
sg64
g7
sbsI140468195185296
Nssg64
g7
sbsg139
I2
sg140
g69
sg65
(dp1818
sg64
g7
sbssbsI140468198896784
NsI140468198896144
NsI140468193193296
NsI140468198896912
NsI140468203735184
g1115
sI140468198897168
NsI140468171118736
g1097
sI140468193191568
g1786
sI140468198897360
NsI140468198897424
NsI140468205342416
NsI140468194618128
NsI140468194617296
NsI140468193191952
g1777
sI140468195184784
NsI140468198897808
NsI140468194619024
NsI140468198898064
NsI140468195187152
NsI140468194617872
NsI140468198898256
NsI140468194616656
NsI140468195184912
NsI140468171119376
g996
sI140468196907856
NsI140468194618256
NsI140468198895696
NsI140468203736144
NsI140468195186640
NsI140468203924688
g175
sI140468198898960
NsI140468205341008
g1759
sI140468195184976
NsI140468196908432
NsI140468193193424
g1804
sI140468203734032
NsI140468194616848
NsI140468195188368
NsI140468196908752
NsI140468198899472
g1795
sI140468203734864
g1088
sI140468171118480
g1124
sI140468196908944
NsI140468198899152
NsI140468195186000
NsI140468171116624
NsI140468193190032
NsI140468193190096
g1813
sI140468195185232
NsI140468193193104
NsI140468203733328
g1106
sI140468171116944
g1133
sI140468203734224
NsI140468193190352
g1768
sI140468193192336
NsI140468203736720
NsI140468198896016
NsI140468171117136
g1151
sI140468203733648
g1142
sI140468196905552
NsI140468203733520
NssbsS'number'
p1819
I1
sS'callbacks'
p1820
g0
(cmatplotlib.cbook
CallbackRegistry
p1821
g2
Ntp1822
Rp1823
(dp1824
Vexception_handler
p1825
cmatplotlib.cbook
_exception_printer
p1826
sbsS'_snap'
p1827
NsS'_tight'
p1828
I00
sS'_stale'
p1829
I01
sS'bbox'
p1830
g175
sS'_sticky_edges'
p1831
g0
(cmatplotlib.artist
_XYPair
p1832
c__builtin__
tuple
p1833
((lp1834
(lp1835
tp1836
tp1837
Rp1838
sS'_oid'
p1839
I0
sS'patches'
p1840
(lp1841
sS'legends'
p1842
(lp1843
sS'suppressComposite'
p1844
NsS'_transformSet'
p1845
I00
sS'_alpha'
p1846
NsS'_axstack'
p1847
g0
(cmatplotlib.figure
AxesStack
p1848
g2
Ntp1849
Rp1850
(dp1851
S'_default'
p1852
NsS'_elements'
p1853
(lp1854
(((g0
(cmatplotlib.gridspec
SubplotSpec
p1855
g2
Ntp1856
Rp1857
(dp1858
S'num1'
p1859
I0
sS'num2'
p1860
I0
sS'_gridspec'
p1861
g0
(cmatplotlib.gridspec
GridSpec
p1862
g2
Ntp1863
Rp1864
(dp1865
S'_nrows'
p1866
I1
sS'right'
p1867
NsS'_col_width_ratios'
p1868
NsS'bottom'
p1869
NsS'top'
p1870
NsS'wspace'
p1871
NsS'_ncols'
p1872
I1
sS'hspace'
p1873
NsS'_row_height_ratios'
p1874
NsS'left'
p1875
Nsbsbtp1876
((Vsharey
p1877
Ntp1878
(Vsharex
p1879
Ntp1880
tp1881
tp1882
(I1
g0
(cmatplotlib.axes._subplots
_PicklableSubplotClassConstructor
p1883
g2
Ntp1884
Rp1885
(cmatplotlib.axes._axes
Axes
p1886
tp1887
Rp1888
(dp1889
S'transLimits'
p1890
g132
sS'_get_patches_for_fill'
p1891
g0
(cmatplotlib.axes._base
_process_plot_var_args
p1892
g2
Ntp1893
Rp1894
(dp1895
Vaxes
p1896
g1888
sVcommand
p1897
Vfill
p1898
sbsS'_xcid'
p1899
I1
sg6
g7
sS'legend_'
p1900
g0
(cmatplotlib.legend
Legend
p1901
g2
Ntp1902
Rp1903
(dp1904
g6
g7
sS'markerscale'
p1905
F1.0
sg9
g4
sS'legendHandles'
p1906
(lp1907
g0
(cmatplotlib.patches
Rectangle
p1908
g2
Ntp1909
Rp1910
(dp1911
g6
VControl
p1912
sS'_width'
p1913
F20.0
sS'_fill'
p1914
I00
sg9
g4
sg8
I01
sg10
Nsg35
Nsg17
g18
sS'_gid'
p1915
Nsg20
I01
sS'_combined_transform'
p1916
g0
(g627
g2
Ntp1917
Rp1918
(dp1919
g46
I1
sg47
Nsg64
g7
sg65
(dp1920
sbsS'_edgecolor'
p1921
(cnumpy.core.multiarray
scalar
p1922
(g59
S'\x10\x10\x10\x10\x10\x10\xe0?'
p1923
tp1924
Rp1925
g1922
(g59
S'\x10\x10\x10\x10\x10\x10\xe0?'
p1926
tp1927
Rp1928
g1922
(g59
S'\x10\x10\x10\x10\x10\x10\xe0?'
p1929
tp1930
Rp1931
g1922
(g59
S'\x00\x00\x00\x00\x00\x00\xf0?'
p1932
tp1933
Rp1934
tp1935
sS'angle'
p1936
F0.0
sg23
Nsg85
F-0.0
sg632
F-0.0
sg24
NsS'_original_edgecolor'
p1937
Nsg11
Nsg28
I00
sg29
I00
sg30
(dp1938
sS'_rect_transform'
p1939
g0
(g627
g2
Ntp1940
Rp1941
(dp1942
g46
I1
sg47
Nsg64
g7
sg65
(dp1943
sbsg32
I00
sS'_hatch'
p1944
Nsg1829
I01
sS'_linewidth'
p1945
F1.0
sg36
NsS'_height'
p1946
F7.0
sg33
NsS'_hatch_color'
p1947
g1935
sS'_dashes'
p1948
NsS'_antialiased'
p1949
I01
sS'_dashoffset'
p1950
NsS'_original_facecolor'
p1951
Nsg1827
NsS'_facecolor'
p1952
(g1922
(g59
S'\x10\x10\x10\x10\x10\x10\xe0?'
p1953
tp1954
Rp1955
g1922
(g59
S'\x10\x10\x10\x10\x10\x10\xe0?'
p1956
tp1957
Rp1958
g1922
(g59
S'\x10\x10\x10\x10\x10\x10\xe0?'
p1959
tp1960
Rp1961
I0
tp1962
sS'_joinstyle'
p1963
Vmiter
p1964
sS'_linestyle'
p1965
Vsolid
p1966
sg1831
g0
(g1832
g1833
((lp1967
(lp1968
I0
atp1969
tp1970
Rp1971
sg1839
I0
sg1845
I01
sg1846
Nsg128
g0
(cmatplotlib.transforms
CompositeAffine2D
p1972
g2
Ntp1973
Rp1974
(dp1975
g46
I1
sg79
I2
sg47
Nsg64
g7
sg48
Nsg65
(dp1976
sg139
I2
sg140
g0
(g42
g2
Ntp1977
Rp1978
(dp1979
g46
I2
sg47
Nsg48
g49
(g50
(I0
tp1980
g52
tp1981
Rp1982
(I1
(I3
I3
tp1983
g59
I00
S'\x00\x00\x00\x00\x00\x00\xf0?\x00\x00\x00\x00\x00\x00\x00\x00\x00\x00\x00\x00\x00\x00\x00\x00\x00\x00\x00\x00\x00\x00\x00\x00\x00\x00\x00\x00\x00\x00\xf0?\x00\x00\x00\x00\x00\x00\x00\x00\x00\x00\x00\x00\x00\x00\x00\x00\x00\x00\x00\x00\x00\x00\x00\x00\x00\x00\x00\x00\x00\x00\xf0?'
p1984
tp1985
bsg64
g7
sg65
(dp1986
I140468136031696
g1974
ssbsg80
g0
(g42
g2
Ntp1987
Rp1988
(dp1989
g46
I0
sg47
Nsg48
g49
(g50
(I0
tp1990
g52
tp1991
Rp1992
(I1
(I3
I3
tp1993
g59
I00
S'\x00\x00\x00\x00\x00\x00\xf0?\x00\x00\x00\x00\x00\x00\x00\x00\x00\x00\x00\x00\x00\x00\x00\x00\x00\x00\x00\x00\x00\x00\x00\x00\x00\x00\x00\x00\x00\x00\xf0?\x00\x00\x00\x00\x00\x00\x00\x00\x00\x00\x00\x00\x00\x00\x00\x00\x00\x00\x00\x00\x00\x00\x00\x00\x00\x00\x00\x00\x00\x00\xf0?'
p1994
tp1995
bsg64
g7
sg65
(dp1996
I140468136031696
g1974
ssbsbsS'_us_dashes'
p1997
(NNtp1998
sS'_capstyle'
p1999
Vbutt
p2000
sS'_url'
p2001
Nsg25
NsS'_axes'
p2002
g1888
sg34
Nsbag0
(g1908
g2
Ntp2003
Rp2004
(dp2005
g6
VGABAzine
p2006
sg1913
F20.0
sg1914
I00
sg9
g4
sg8
I01
sg10
Nsg35
Nsg17
g18
sg1915
Nsg20
I01
sg1916
g0
(g627
g2
Ntp2007
Rp2008
(dp2009
g46
I1
sg47
Nsg64
g7
sg65
(dp2010
sbsg1921
(g1922
(g59
S'\x00\x00\x00\x00\x00\x00\xf0?'
p2011
tp2012
Rp2013
g1922
(g59
S'\x00\x00\x00\x00\x00\x00\x00\x00'
p2014
tp2015
Rp2016
g1922
(g59
S'\x00\x00\x00\x00\x00\x00\x00\x00'
p2017
tp2018
Rp2019
g1922
(g59
S'\x00\x00\x00\x00\x00\x00\xf0?'
p2020
tp2021
Rp2022
tp2023
sg1936
F0.0
sg23
Nsg85
F-0.0
sg632
F-0.0
sg24
Nsg1937
Nsg11
Nsg28
I00
sg29
I00
sg30
(dp2024
sg1939
g0
(g627
g2
Ntp2025
Rp2026
(dp2027
g46
I1
sg47
Nsg64
g7
sg65
(dp2028
sbsg32
I00
sg1944
Nsg1829
I01
sg1945
F1.0
sg36
Nsg1946
F7.0
sg33
Nsg1947
g2023
sg1948
Nsg1949
I01
sg1950
Nsg1951
Nsg1827
Nsg1952
(g1922
(g59
S'\x00\x00\x00\x00\x00\x00\xf0?'
p2029
tp2030
Rp2031
g1922
(g59
S'\x00\x00\x00\x00\x00\x00\x00\x00'
p2032
tp2033
Rp2034
g1922
(g59
S'\x00\x00\x00\x00\x00\x00\x00\x00'
p2035
tp2036
Rp2037
I0
tp2038
sg1963
g1964
sg1965
g1966
sg1831
g0
(g1832
g1833
((lp2039
(lp2040
I0
atp2041
tp2042
Rp2043
sg1839
I0
sg1845
I01
sg1846
Nsg128
g0
(g1972
g2
Ntp2044
Rp2045
(dp2046
g46
I1
sg79
I2
sg47
Nsg64
g7
sg48
Nsg65
(dp2047
sg139
I2
sg140
g0
(g42
g2
Ntp2048
Rp2049
(dp2050
g46
I2
sg47
Nsg48
g49
(g50
(I0
tp2051
g52
tp2052
Rp2053
(I1
(I3
I3
tp2054
g59
I00
S'\x00\x00\x00\x00\x00\x00\xf0?\x00\x00\x00\x00\x00\x00\x00\x00\x00\x00\x00\x00\x00\x00\x00\x00\x00\x00\x00\x00\x00\x00\x00\x00\x00\x00\x00\x00\x00\x00\xf0?\x00\x00\x00\x00\x00\x00\x00\x00\x00\x00\x00\x00\x00\x00\x00\x00\x00\x00\x00\x00\x00\x00\x00\x00\x00\x00\x00\x00\x00\x00\xf0?'
p2055
tp2056
bsg64
g7
sg65
(dp2057
I140468136032464
g2045
ssbsg80
g0
(g42
g2
Ntp2058
Rp2059
(dp2060
g46
I0
sg47
Nsg48
g49
(g50
(I0
tp2061
g52
tp2062
Rp2063
(I1
(I3
I3
tp2064
g59
I00
S'\x00\x00\x00\x00\x00\x00\xf0?\x00\x00\x00\x00\x00\x00\x00\x00\x00\x00\x00\x00\x00\x00\x00\x00\x00\x00\x00\x00\x00\x00\x00\x00\x00\x00\x00\x00\x00\x00\xf0?\x00\x00\x00\x00\x00\x00\x00\x00\x00\x00\x00\x00\x00\x00\x00\x00\x00\x00\x00\x00\x00\x00\x00\x00\x00\x00\x00\x00\x00\x00\xf0?'
p2065
tp2066
bsg64
g7
sg65
(dp2067
I140468136032464
g2045
ssbsbsg1997
(NNtp2068
sg1999
g2000
sg2001
Nsg25
Nsg2002
g1888
sg34
NsbasS'_legend_title_box'
p2069
g0
(cmatplotlib.offsetbox
TextArea
p2070
g2
Ntp2071
Rp2072
(dp2073
g6
g7
sg8
I00
sg9
g4
sS'_children'
p2074
(lp2075
g0
(cmatplotlib.text
Text
p2076
g2
Ntp2077
Rp2078
(dp2079
g6
g7
sg8
I01
sg9
g4
sg10
NsS'_fontproperties'
p2080
g0
(cmatplotlib.font_manager
FontProperties
p2081
g2
Ntp2082
Rp2083
(dp2084
S'_family'
p2085
(lp2086
Vsans-serif
p2087
asS'_file'
p2088
NsS'_variant'
p2089
Vnormal
p2090
sS'_slant'
p2091
g2090
sS'_size'
p2092
F10.0
sS'_weight'
p2093
g2090
sS'_stretch'
p2094
g2090
sbsg35
Nsg17
g18
sS'_multialignment'
p2095
Nsg20
I01
sg23
Nsg85
I0
sg632
I0
sg24
Nsg25
Nsg11
Nsg28
I00
sg29
I00
sg30
(dp2096
sS'_renderer'
p2097
Nsg32
I00
sg2002
Nsg36
Nsg2001
NsS'_rotation_mode'
p2098
Nsg33
Nsg1827
Nsg1829
I01
sS'_verticalalignment'
p2099
Vbaseline
p2100
sS'_text'
p2101
VNone
p2102
sS'_bbox_patch'
p2103
Nsg1831
g0
(g1832
g1833
((lp2104
(lp2105
tp2106
tp2107
Rp2108
sg1839
I0
sS'_rotation'
p2109
Nsg1845
I01
sg1846
NsS'_linespacing'
p2110
F1.2
sg128
g0
(g1972
g2
Ntp2111
Rp2112
(dp2113
g46
I1
sg79
I2
sg47
Nsg64
g7
sg48
Nsg65
(dp2114
sg139
I2
sg140
g0
(g42
g2
Ntp2115
Rp2116
(dp2117
g46
I0
sg47
Nsg48
g49
(g50
(I0
tp2118
g52
tp2119
Rp2120
(I1
(I3
I3
tp2121
g59
I00
S'\x00\x00\x00\x00\x00\x00\xf0?\x00\x00\x00\x00\x00\x00\x00\x00\x00\x00\x00\x00\x00\x00\x00\x00\x00\x00\x00\x00\x00\x00\x00\x00\x00\x00\x00\x00\x00\x00\xf0?\x00\x00\x00\x00\x00\x00\x00\x00\x00\x00\x00\x00\x00\x00\x00\x00\x00\x00\x00\x00\x00\x00\x00\x00\x00\x00\x00\x00\x00\x00\xf0?'
p2122
tp2123
bsg64
g7
sg65
(dp2124
I140468136033232
g2112
ssbsg80
g0
(g42
g2
Ntp2125
Rp2126
(dp2127
g46
I2
sg47
Nsg48
g49
(g50
(I0
tp2128
g52
tp2129
Rp2130
(I1
(I3
I3
tp2131
g59
I00
S'\x00\x00\x00\x00\x00\x00\xf0?\x00\x00\x00\x00\x00\x00\x00\x00\x00\x00\x00\x00\x00\x00\x00\x00\x00\x00\x00\x00\x00\x00\x00\x00\x00\x00\x00\x00\x00\x00\xf0?\x00\x00\x00\x00\x00\x00\x00\x00\x00\x00\x00\x00\x00\x00\x00\x00\x00\x00\x00\x00\x00\x00\x00\x00\x00\x00\x00\x00\x00\x00\xf0?'
p2132
tp2133
bsg64
g7
sg65
(dp2134
I140468136033232
g2112
ssbsbsS'_usetex'
p2135
I00
sS'_wrap'
p2136
I00
sg1915
NsS'_color'
p2137
V0.
p2138
sS'_horizontalalignment'
p2139
Vleft
p2140
sg34
Nsbasg2101
g2078
sg10
Nsg35
NsS'_minimumdescent'
p2141
I01
sg17
g18
sg20
I00
sg23
Nsg24
Nsg25
Nsg11
Nsg28
I00
sg2002
Nsg30
(dp2142
sg32
I00
sg29
I00
sg36
Nsg33
Nsg1827
Nsg1829
I01
sS'_multilinebaseline'
p2143
Nsg1831
g0
(g1832
g1833
((lp2144
(lp2145
tp2146
tp2147
Rp2148
sg1839
I0
sS'offset_transform'
p2149
g2126
sg1845
I00
sg1846
NsS'_baseline_transform'
p2150
g2116
sg128
NsS'_offset'
p2151
(I0
I0
tp2152
sg1915
Nsg2001
Nsg34
Nsbsg8
I01
sS'_fontsize'
p2153
F10.0
sg10
NsS'_draggable'
p2154
Nsg11
NsS'columnspacing'
p2155
F2.0
sg12
(lp2156
g0
(g2076
g2
Ntp2157
Rp2158
(dp2159
g6
g7
sg8
I01
sg9
g4
sg10
Nsg2080
g0
(g2081
g2
Ntp2160
Rp2161
(dp2162
g2085
(lp2163
g2087
asg2088
Nsg2089
g2090
sg2091
g2090
sg2092
F10.0
sg2093
g2090
sg2094
g2090
sbsg35
Nsg17
g18
sg2095
Nsg20
I01
sg23
Nsg85
I0
sg632
I0
sg24
Nsg25
Nsg11
Nsg28
I00
sg29
I00
sg30
(dp2164
sg2097
Nsg32
I00
sg2002
Nsg36
Nsg2001
Nsg2098
Nsg33
Nsg1827
Nsg1829
I01
sg2099
g2100
sg2101
VControl
p2165
sg2103
Nsg1831
g0
(g1832
g1833
((lp2166
(lp2167
tp2168
tp2169
Rp2170
sg1839
I0
sg2109
Nsg1845
I01
sg1846
Nsg2110
F1.2
sg128
g0
(g1972
g2
Ntp2171
Rp2172
(dp2173
g46
I1
sg79
I2
sg47
Nsg64
g7
sg48
Nsg65
(dp2174
sg139
I2
sg140
g0
(g42
g2
Ntp2175
Rp2176
(dp2177
g46
I0
sg47
Nsg48
g49
(g50
(I0
tp2178
g52
tp2179
Rp2180
(I1
(I3
I3
tp2181
g59
I00
S'\x00\x00\x00\x00\x00\x00\xf0?\x00\x00\x00\x00\x00\x00\x00\x00\x00\x00\x00\x00\x00\x00\x00\x00\x00\x00\x00\x00\x00\x00\x00\x00\x00\x00\x00\x00\x00\x00\xf0?\x00\x00\x00\x00\x00\x00\x00\x00\x00\x00\x00\x00\x00\x00\x00\x00\x00\x00\x00\x00\x00\x00\x00\x00\x00\x00\x00\x00\x00\x00\xf0?'
p2182
tp2183
bsg64
g7
sg65
(dp2184
I140468136031440
g2172
ssbsg80
g0
(g42
g2
Ntp2185
Rp2186
(dp2187
g46
I2
sg47
Nsg48
g49
(g50
(I0
tp2188
g52
tp2189
Rp2190
(I1
(I3
I3
tp2191
g59
I00
S'\x00\x00\x00\x00\x00\x00\xf0?\x00\x00\x00\x00\x00\x00\x00\x00\x00\x00\x00\x00\x00\x00\x00\x00\x00\x00\x00\x00\x00\x00\x00\x00\x00\x00\x00\x00\x00\x00\xf0?\x00\x00\x00\x00\x00\x00\x00\x00\x00\x00\x00\x00\x00\x00\x00\x00\x00\x00\x00\x00\x00\x00\x00\x00\x00\x00\x00\x00\x00\x00\xf0?'
p2192
tp2193
bsg64
g7
sg65
(dp2194
I140468136031440
g2172
ssbsbsg2135
I00
sg2136
I00
sg1915
Nsg2137
g2138
sg2139
Vleft
p2195
sg34
Nsbag0
(g2076
g2
Ntp2196
Rp2197
(dp2198
g6
g7
sg8
I01
sg9
g4
sg10
Nsg2080
g2161
sg35
Nsg17
g18
sg2095
Nsg20
I01
sg23
Nsg85
I0
sg632
I0
sg24
Nsg25
Nsg11
Nsg28
I00
sg29
I00
sg30
(dp2199
sg2097
Nsg32
I00
sg2002
Nsg36
Nsg2001
Nsg2098
Nsg33
Nsg1827
Nsg1829
I01
sg2099
g2100
sg2101
VGABAzine
p2200
sg2103
Nsg1831
g0
(g1832
g1833
((lp2201
(lp2202
tp2203
tp2204
Rp2205
sg1839
I0
sg2109
Nsg1845
I01
sg1846
Nsg2110
F1.2
sg128
g0
(g1972
g2
Ntp2206
Rp2207
(dp2208
g46
I1
sg79
I2
sg47
Nsg64
g7
sg48
Nsg65
(dp2209
sg139
I2
sg140
g0
(g42
g2
Ntp2210
Rp2211
(dp2212
g46
I0
sg47
Nsg48
g49
(g50
(I0
tp2213
g52
tp2214
Rp2215
(I1
(I3
I3
tp2216
g59
I00
S'\x00\x00\x00\x00\x00\x00\xf0?\x00\x00\x00\x00\x00\x00\x00\x00\x00\x00\x00\x00\x00\x00\x00\x00\x00\x00\x00\x00\x00\x00\x00\x00\x00\x00\x00\x00\x00\x00\xf0?\x00\x00\x00\x00\x00\x00\x00\x00\x00\x00\x00\x00\x00\x00\x00\x00\x00\x00\x00\x00\x00\x00\x00\x00\x00\x00\x00\x00\x00\x00\xf0?'
p2217
tp2218
bsg64
g7
sg65
(dp2219
I140468136032208
g2207
ssbsg80
g0
(g42
g2
Ntp2220
Rp2221
(dp2222
g46
I2
sg47
Nsg48
g49
(g50
(I0
tp2223
g52
tp2224
Rp2225
(I1
(I3
I3
tp2226
g59
I00
S'\x00\x00\x00\x00\x00\x00\xf0?\x00\x00\x00\x00\x00\x00\x00\x00\x00\x00\x00\x00\x00\x00\x00\x00\x00\x00\x00\x00\x00\x00\x00\x00\x00\x00\x00\x00\x00\x00\xf0?\x00\x00\x00\x00\x00\x00\x00\x00\x00\x00\x00\x00\x00\x00\x00\x00\x00\x00\x00\x00\x00\x00\x00\x00\x00\x00\x00\x00\x00\x00\xf0?'
p2227
tp2228
bsg64
g7
sg65
(dp2229
I140468136032208
g2207
ssbsbsg2135
I00
sg2136
I00
sg1915
Nsg2137
g2138
sg2139
g2195
sg34
NsbasS'handletextpad'
p2230
F0.8
sS'borderaxespad'
p2231
F0.5
sg17
g18
sS'_legend_handle_box'
p2232
g0
(cmatplotlib.offsetbox
HPacker
p2233
g2
Ntp2234
Rp2235
(dp2236
g6
g7
sg8
I01
sg9
g4
sg2074
(lp2237
g0
(cmatplotlib.offsetbox
VPacker
p2238
g2
Ntp2239
Rp2240
(dp2241
g6
g7
sg8
I01
sg9
g4
sg2074
(lp2242
g0
(g2233
g2
Ntp2243
Rp2244
(dp2245
g6
g7
sg8
I01
sg9
g4
sg2074
(lp2246
g0
(cmatplotlib.offsetbox
DrawingArea
p2247
g2
Ntp2248
Rp2249
(dp2250
g6
g7
sg8
I01
sg9
g4
sg2074
(lp2251
g1910
asg10
NsS'height'
p2252
F7.0
sg35
Nsg17
g18
sg20
I00
sg23
Nsg24
Nsg25
NsS'dpi_transform'
p2253
g1988
sg11
NsS'_clip_children'
p2254
I00
sg28
I00
sS'width'
p2255
F20.0
sg29
I00
sg30
(dp2256
sg32
I00
sg2002
Nsg36
NsS'ydescent'
p2257
F0.0
sg33
Nsg1827
Nsg1829
I01
sg1831
g0
(g1832
g1833
((lp2258
(lp2259
tp2260
tp2261
Rp2262
sg1839
I0
sg2149
g1978
sg1845
I00
sg1846
Nsg128
Nsg2151
g2152
sS'xdescent'
p2263
F0.0
sg1915
Nsg2001
Nsg34
Nsbag0
(g2070
g2
Ntp2264
Rp2265
(dp2266
g6
g7
sg8
I01
sg9
g4
sg2074
(lp2267
g2158
asg2101
g2158
sg10
Nsg35
Nsg2141
I01
sg17
g18
sg20
I00
sg23
Nsg24
Nsg25
Nsg11
Nsg28
I00
sg2002
Nsg30
(dp2268
sg32
I00
sg29
I00
sg36
Nsg33
Nsg1827
Nsg1829
I01
sg2143
I01
sg1831
g0
(g1832
g1833
((lp2269
(lp2270
tp2271
tp2272
Rp2273
sg1839
I0
sg2149
g2186
sg1845
I00
sg1846
Nsg2150
g2176
sg128
Nsg2151
g2152
sg1915
Nsg2001
Nsg34
Nsbasg10
Nsg2252
Nsg35
Nsg17
g18
sg20
I00
sg23
Nsg24
Nsg25
NsS'sep'
p2274
F8.0
sg11
Nsg28
I00
sg2255
NsS'pad'
p2275
I0
sg29
I00
sg30
(dp2276
sg32
I00
sg2002
Nsg36
Nsg33
Nsg1827
Nsg1829
I01
sg1831
g0
(g1832
g1833
((lp2277
(lp2278
tp2279
tp2280
Rp2281
sg1839
I0
sg1845
I00
sg1846
NsS'align'
p2282
Vbaseline
p2283
sg128
Nsg2151
g2152
sg1915
Nsg2001
NsS'mode'
p2284
Vfixed
p2285
sg34
Nsbag0
(g2233
g2
Ntp2286
Rp2287
(dp2288
g6
g7
sg8
I01
sg9
g4
sg2074
(lp2289
g0
(g2247
g2
Ntp2290
Rp2291
(dp2292
g6
g7
sg8
I01
sg9
g4
sg2074
(lp2293
g2004
asg10
Nsg2252
F7.0
sg35
Nsg17
g18
sg20
I00
sg23
Nsg24
Nsg25
Nsg2253
g2059
sg11
Nsg2254
I00
sg28
I00
sg2255
F20.0
sg29
I00
sg30
(dp2294
sg32
I00
sg2002
Nsg36
Nsg2257
F0.0
sg33
Nsg1827
Nsg1829
I01
sg1831
g0
(g1832
g1833
((lp2295
(lp2296
tp2297
tp2298
Rp2299
sg1839
I0
sg2149
g2049
sg1845
I00
sg1846
Nsg128
Nsg2151
g2152
sg2263
F0.0
sg1915
Nsg2001
Nsg34
Nsbag0
(g2070
g2
Ntp2300
Rp2301
(dp2302
g6
g7
sg8
I01
sg9
g4
sg2074
(lp2303
g2197
asg2101
g2197
sg10
Nsg35
Nsg2141
I00
sg17
g18
sg20
I00
sg23
Nsg24
Nsg25
Nsg11
Nsg28
I00
sg2002
Nsg30
(dp2304
sg32
I00
sg29
I00
sg36
Nsg33
Nsg1827
Nsg1829
I01
sg2143
I01
sg1831
g0
(g1832
g1833
((lp2305
(lp2306
tp2307
tp2308
Rp2309
sg1839
I0
sg2149
g2221
sg1845
I00
sg1846
Nsg2150
g2211
sg128
Nsg2151
g2152
sg1915
Nsg2001
Nsg34
Nsbasg10
Nsg2252
Nsg35
Nsg17
g18
sg20
I00
sg23
Nsg24
Nsg25
Nsg2274
F8.0
sg11
Nsg28
I00
sg2255
Nsg2275
I0
sg29
I00
sg30
(dp2310
sg32
I00
sg2002
Nsg36
Nsg33
Nsg1827
Nsg1829
I01
sg1831
g0
(g1832
g1833
((lp2311
(lp2312
tp2313
tp2314
Rp2315
sg1839
I0
sg1845
I00
sg1846
Nsg2282
g2283
sg128
Nsg2151
g2152
sg1915
Nsg2001
Nsg2284
g2285
sg34
Nsbasg10
Nsg2252
Nsg35
Nsg17
g18
sg20
I00
sg23
Nsg24
Nsg25
Nsg2274
F5.0
sg11
Nsg28
I00
sg2255
Nsg2275
I0
sg29
I00
sg30
(dp2316
sg32
I00
sg2002
Nsg36
Nsg33
Nsg1827
Nsg1829
I01
sg1831
g0
(g1832
g1833
((lp2317
(lp2318
tp2319
tp2320
Rp2321
sg1839
I0
sg1845
I00
sg1846
Nsg2282
g2283
sg128
Nsg2151
g2152
sg1915
Nsg2001
Nsg2284
Vfixed
p2322
sg34
Nsbasg10
Nsg2252
Nsg35
Nsg17
g18
sg20
I00
sg23
Nsg24
Nsg25
Nsg2274
F20.0
sg11
Nsg28
I00
sg2255
Nsg2275
I0
sg29
I00
sg30
(dp2323
sg32
I00
sg2002
Nsg36
Nsg33
Nsg1827
Nsg1829
I01
sg1831
g0
(g1832
g1833
((lp2324
(lp2325
tp2326
tp2327
Rp2328
sg1839
I0
sg1845
I00
sg1846
Nsg2282
g2283
sg128
Nsg2151
g2152
sg1915
Nsg2001
Nsg2284
Vfixed
p2329
sg34
Nsbsg20
I01
sg28
I00
sg23
Nsg24
Nsg25
NsS'_mode'
p2330
NsS'numpoints'
p2331
I1
sS'_bbox_to_anchor'
p2332
NsS'prop'
p2333
g2161
sS'_scatteryoffsets'
p2334
g49
(g50
(I0
tp2335
g52
tp2336
Rp2337
(I1
(I1
tp2338
g59
I00
S'\x00\x00\x00\x00\x00\x00\xd8?'
p2339
tp2340
bsS'_custom_handler_map'
p2341
Nsg29
I00
sg30
(dp2342
sS'_drawFrame'
p2343
I00
sg32
I00
sS'handlelength'
p2344
F2.0
sg2002
g1888
sg35
Nsg36
NsS'parent'
p2345
g1888
sS'legendPatch'
p2346
g0
(cmatplotlib.patches
FancyBboxPatch
p2347
g2
Ntp2348
Rp2349
(dp2350
g6
g7
sg1913
F1.0
sg1914
I01
sg9
g4
sS'_mutation_aspect'
p2351
Nsg10
Nsg35
Nsg17
g18
sg1965
g1966
sg1915
Nsg20
I01
sg1916
g0
(g627
g2
Ntp2352
Rp2353
(dp2354
g46
I1
sg47
Nsg64
g7
sg65
(dp2355
sbsg1921
(F0.8
F0.8
F0.8
F0.8
tp2356
sg23
Nsg85
F0.0
sg632
F0.0
sg24
Nsg1937
V0.8
p2357
sg11
Nsg28
I00
sg29
I00
sg30
(dp2358
sg32
I00
sg1944
Nsg1829
I01
sg1945
F1.0
sg36
Nsg1946
F1.0
sg33
Nsg1947
g2356
sg1948
Nsg1949
I01
sg1950
Nsg1951
Vwhite
p2359
sg1827
I01
sg1952
(F1.0
F1.0
F1.0
F0.8
tp2360
sg1963
g1964
sS'_bbox_transmuter'
p2361
g0
(cmatplotlib.cbook
_NestedClassGetter
p2362
g2
Ntp2363
Rp2364
(cmatplotlib.patches
BoxStyle
p2365
S'Round'
p2366
tp2367
Rp2368
(dp2369
S'rounding_size'
p2370
F0.2
sg2275
I0
sbsS'_mutation_scale'
p2371
F10.0
sg1831
g0
(g1832
g1833
((lp2372
(lp2373
tp2374
tp2375
Rp2376
sg1839
I0
sg1845
I01
sg1846
F0.8
sg128
g0
(g627
g2
Ntp2377
Rp2378
(dp2379
g46
I1
sg47
Nsg64
g7
sg65
(dp2380
sbsg8
I01
sg1997
(NNtp2381
sg1999
g2000
sg2001
Nsg25
Nsg2002
g1888
sg34
Nsbsg33
NsS'scatterpoints'
p2382
I1
sS'labelspacing'
p2383
F0.5
sg1827
Nsg1829
I01
sS'_legend_box'
p2384
g0
(g2238
g2
Ntp2385
Rp2386
(dp2387
g6
g7
sg8
I01
sg9
g4
sg2074
(lp2388
g2072
ag2235
asg10
Nsg2252
Nsg35
Nsg17
g18
sg20
I00
sg23
Nsg24
Nsg25
Nsg2274
F5.0
sg11
Nsg28
I00
sg2255
Nsg2275
F4.0
sg29
I00
sg30
(dp2389
sg32
I00
sg2002
Nsg36
Nsg33
Nsg1827
Nsg1829
I01
sg1831
g0
(g1832
g1833
((lp2390
(lp2391
tp2392
tp2393
Rp2394
sg1839
I0
sg1845
I00
sg1846
Nsg2282
Vcenter
p2395
sg128
Nsg2151
g0
(cmatplotlib.cbook
_InstanceMethodPickler
p2396
g2
Ntp2397
Rp2398
(dp2399
S'parent_obj'
p2400
g1903
sS'instancemethod_name'
p2401
S'_findoffset'
p2402
sbsg1915
Nsg2001
Nsg2284
g2322
sg34
NsbsS'shadow'
p2403
I00
sg1831
g0
(g1832
g1833
((lp2404
(lp2405
tp2406
tp2407
Rp2408
sg1839
I0
sg1846
NsS'isaxes'
p2409
I01
sS'handleheight'
p2410
F0.7
sg1845
I00
sS'_last_fontsize_points'
p2411
F10.0
sS'borderpad'
p2412
F0.4
sS'_ncol'
p2413
I1
sg128
g2378
sS'_loc_real'
p2414
I0
sg1915
Nsg2001
Nsg34
Nsbsg12
(lp2415
sS'_frameon'
p2416
I01
sS'_autoscaleYon'
p2417
I01
sg14
I01
sg15
(lp2418
sg20
I01
sS'tables'
p2419
(lp2420
sg1840
(lp2421
g0
(cmatplotlib.patches
Polygon
p2422
g2
Ntp2423
Rp2424
(dp2425
g6
g1912
sg8
I01
sg1914
I00
sg9
g4
sS'_closed'
p2426
I00
sg10
Nsg35
Nsg17
g18
sg1915
Nsg20
I01
sg1916
g0
(g627
g2
Ntp2427
Rp2428
(dp2429
g46
I1
sg47
Nsg64
g7
sg65
(dp2430
sbsg1921
g1935
sg23
Nsg24
Nsg1937
g49
(g50
(I0
tp2431
g52
tp2432
Rp2433
(I1
(I4
tp2434
g59
I00
S'\x10\x10\x10\x10\x10\x10\xe0?\x10\x10\x10\x10\x10\x10\xe0?\x10\x10\x10\x10\x10\x10\xe0?\x00\x00\x00\x00\x00\x00\xf0?'
p2435
tp2436
bsg11
Nsg28
I00
sg29
I00
sg30
(dp2437
sg32
I00
sg1944
Nsg1829
I01
sg1945
F1.0
sg36
g1349
sg33
Nsg1947
g1935
sg1948
Nsg1949
I01
sg1950
Nsg1951
g2433
sg1827
Nsg1952
g1962
sg1963
g1964
sg1965
g1966
sg1831
g0
(g1832
g1833
((lp2438
(lp2439
I0
atp2440
tp2441
Rp2442
sg1839
I0
sg1845
I01
sg1846
Nsg128
g87
sg1997
g1998
sg1999
g2000
sg2001
Nsg25
Nsg2002
g1888
sg34
NsS'_path'
p2443
g0
(cmatplotlib.path
Path
p2444
g2
Ntp2445
Rp2446
(dp2447
S'_should_simplify'
p2448
I00
sS'_codes'
p2449
NsS'_vertices'
p2450
g49
(g50
(I0
tp2451
g52
tp2452
Rp2453
(I1
(I60
I2
tp2454
g59
I00
S'71\xb4\xc1\x81o\xc1?\x00\x00\x00\x00\x00\x00\x00\x0071\xb4\xc1\x81o\xc1?\x00\x00\x00\x00\x00\x00\x18@\xa7#\x95\xc9Nj\xe1?\x00\x00\x00\x00\x00\x00\x18@\xa7#\x95\xc9Nj\xe1?\x00\x00\x00\x00\x00\x00>@\x01;\xbd"\xbdx\xee?\x00\x00\x00\x00\x00\x00>@\x01;\xbd"\xbdx\xee?\x00\x00\x00\x00\x00\x80C@-\xa9\xf2\xbd\x95\xc3\xf5?\x00\x00\x00\x00\x00\x80C@-\xa9\xf2\xbd\x95\xc3\xf5?\x00\x00\x00\x00\x00\x00(@\xda\xb4\x86\xea\xccJ\xfc?\x00\x00\x00\x00\x00\x00(@\xda\xb4\x86\xea\xccJ\xfc?\x00\x00\x00\x00\x00\x00$@C`\x8d\x0b\x02i\x01@\x00\x00\x00\x00\x00\x00$@C`\x8d\x0b\x02i\x01@\x00\x00\x00\x00\x00\x00&@\x19f\xd7\xa1\x9d\xac\x04@\x00\x00\x00\x00\x00\x00&@\x19f\xd7\xa1\x9d\xac\x04@\x00\x00\x00\x00\x00\x00,@\xf0k!89\xf0\x07@\x00\x00\x00\x00\x00\x00,@\xf0k!89\xf0\x07@\x00\x00\x00\x00\x00\x00 @\xc6qk\xce\xd43\x0b@\x00\x00\x00\x00\x00\x00 @\xc6qk\xce\xd43\x0b@\x00\x00\x00\x00\x00\x00 @\x9cw\xb5dpw\x0e@\x00\x00\x00\x00\x00\x00 @\x9cw\xb5dpw\x0e@\x00\x00\x00\x00\x00\x00\x08@\xba\xbe\x7f\xfd\x85\xdd\x10@\x00\x00\x00\x00\x00\x00\x08@\xba\xbe\x7f\xfd\x85\xdd\x10@\x00\x00\x00\x00\x00\x00\xf0?\xa5\xc1\xa4\xc8S\x7f\x12@\x00\x00\x00\x00\x00\x00\xf0?\xa5\xc1\xa4\xc8S\x7f\x12@\x00\x00\x00\x00\x00\x00\x00\x00\x90\xc4\xc9\x93!!\x14@\x00\x00\x00\x00\x00\x00\x00\x00\x90\xc4\xc9\x93!!\x14@\x00\x00\x00\x00\x00\x00\x00\x00{\xc7\xee^\xef\xc2\x15@\x00\x00\x00\x00\x00\x00\x00\x00{\xc7\xee^\xef\xc2\x15@\x00\x00\x00\x00\x00\x00\x00\x00g\xca\x13*\xbdd\x17@\x00\x00\x00\x00\x00\x00\x00\x00g\xca\x13*\xbdd\x17@\x00\x00\x00\x00\x00\x00\x00\x00R\xcd8\xf5\x8a\x06\x19@\x00\x00\x00\x00\x00\x00\x00\x00R\xcd8\xf5\x8a\x06\x19@\x00\x00\x00\x00\x00\x00\x00\x00=\xd0]\xc0X\xa8\x1a@\x00\x00\x00\x00\x00\x00\x00\x00=\xd0]\xc0X\xa8\x1a@\x00\x00\x00\x00\x00\x00\x00\x00(\xd3\x82\x8b&J\x1c@\x00\x00\x00\x00\x00\x00\x00\x00(\xd3\x82\x8b&J\x1c@\x00\x00\x00\x00\x00\x00\x00\x00\x13\xd6\xa7V\xf4\xeb\x1d@\x00\x00\x00\x00\x00\x00\x00\x00\x13\xd6\xa7V\xf4\xeb\x1d@\x00\x00\x00\x00\x00\x00\x00\x00\xff\xd8\xcc!\xc2\x8d\x1f@\x00\x00\x00\x00\x00\x00\x00\x00\xff\xd8\xcc!\xc2\x8d\x1f@\x00\x00\x00\x00\x00\x00\x00\x00\xf5\xedx\xf6\xc7\x97 @\x00\x00\x00\x00\x00\x00\x00\x00\xf5\xedx\xf6\xc7\x97 @\x00\x00\x00\x00\x00\x00\x00\x00jo\x0b\xdc\xaeh!@\x00\x00\x00\x00\x00\x00\x00\x00jo\x0b\xdc\xaeh!@\x00\x00\x00\x00\x00\x00\x00\x00\xe0\xf0\x9d\xc1\x959"@\x00\x00\x00\x00\x00\x00\x00\x00\xe0\xf0\x9d\xc1\x959"@\x00\x00\x00\x00\x00\x00\x00\x00Vr0\xa7|\n#@\x00\x00\x00\x00\x00\x00\x00\x00Vr0\xa7|\n#@\x00\x00\x00\x00\x00\x00\x00\x00\xcb\xf3\xc2\x8cc\xdb#@\x00\x00\x00\x00\x00\x00\x00\x00\xcb\xf3\xc2\x8cc\xdb#@\x00\x00\x00\x00\x00\x00\x00\x00AuUrJ\xac$@\x00\x00\x00\x00\x00\x00\x00\x00AuUrJ\xac$@\x00\x00\x00\x00\x00\x00\x00\x00\xb6\xf6\xe7W1}%@\x00\x00\x00\x00\x00\x00\x00\x00\xb6\xf6\xe7W1}%@\x00\x00\x00\x00\x00\x00\x00\x00,xz=\x18N&@\x00\x00\x00\x00\x00\x00\x00\x00,xz=\x18N&@\x00\x00\x00\x00\x00\x00\x00\x00\xa2\xf9\x0c#\xff\x1e\'@\x00\x00\x00\x00\x00\x00\x00\x00\xa2\xf9\x0c#\xff\x1e\'@\x00\x00\x00\x00\x00\x00\x00\x00\x17{\x9f\x08\xe6\xef\'@\x00\x00\x00\x00\x00\x00\x00\x00\x17{\x9f\x08\xe6\xef\'@\x00\x00\x00\x00\x00\x00\x00\x00'
p2455
tp2456
bsS'_readonly'
p2457
I00
sS'_simplify_threshold'
p2458
F0.1111111111111111
sS'_interpolation_steps'
p2459
I1
sS'_has_nonfinite'
p2460
I00
sbsbag0
(g2422
g2
Ntp2461
Rp2462
(dp2463
g6
g2006
sg8
I01
sg1914
I00
sg9
g4
sg2426
I00
sg10
Nsg35
Nsg17
g18
sg1915
Nsg20
I01
sg1916
g0
(g627
g2
Ntp2464
Rp2465
(dp2466
g46
I1
sg47
Nsg64
g7
sg65
(dp2467
sbsg1921
g2023
sg23
Nsg24
Nsg1937
g49
(g50
(I0
tp2468
g52
tp2469
Rp2470
(I1
(I4
tp2471
g59
I00
S'\x00\x00\x00\x00\x00\x00\xf0?\x00\x00\x00\x00\x00\x00\x00\x00\x00\x00\x00\x00\x00\x00\x00\x00\x00\x00\x00\x00\x00\x00\xf0?'
p2472
tp2473
bsg11
Nsg28
I00
sg29
I00
sg30
(dp2474
sg32
I00
sg1944
Nsg1829
I01
sg1945
F1.0
sg36
g1637
sg33
Nsg1947
g2023
sg1948
Nsg1949
I01
sg1950
Nsg1951
g2470
sg1827
Nsg1952
g2038
sg1963
g1964
sg1965
g1966
sg1831
g0
(g1832
g1833
((lp2475
(lp2476
I0
atp2477
tp2478
Rp2479
sg1839
I0
sg1845
I01
sg1846
Nsg128
g87
sg1997
g2068
sg1999
g2000
sg2001
Nsg25
Nsg2002
g1888
sg34
Nsg2443
g0
(g2444
g2
Ntp2480
Rp2481
(dp2482
g2448
I00
sg2449
Nsg2450
g49
(g50
(I0
tp2483
g52
tp2484
Rp2485
(I1
(I60
I2
tp2486
g59
I00
S'71\xb4\xc1\x81o\xc1?\x00\x00\x00\x00\x00\x00\x00\x0071\xb4\xc1\x81o\xc1?\x00\x00\x00\x00\x00\x00\x00\x00\xa7#\x95\xc9Nj\xe1?\x00\x00\x00\x00\x00\x00\x00\x00\xa7#\x95\xc9Nj\xe1?\x00\x00\x00\x00\x00\x00\x00\x00\x01;\xbd"\xbdx\xee?\x00\x00\x00\x00\x00\x00\x00\x00\x01;\xbd"\xbdx\xee?\x00\x00\x00\x00\x00\x00\x00\x00-\xa9\xf2\xbd\x95\xc3\xf5?\x00\x00\x00\x00\x00\x00\x00\x00-\xa9\xf2\xbd\x95\xc3\xf5?\x00\x00\x00\x00\x00\x00\x00\x00\xda\xb4\x86\xea\xccJ\xfc?\x00\x00\x00\x00\x00\x00\x00\x00\xda\xb4\x86\xea\xccJ\xfc?\x00\x00\x00\x00\x00\x00\x00\x00C`\x8d\x0b\x02i\x01@\x00\x00\x00\x00\x00\x00\x00\x00C`\x8d\x0b\x02i\x01@\x00\x00\x00\x00\x00\x00\x00\x00\x19f\xd7\xa1\x9d\xac\x04@\x00\x00\x00\x00\x00\x00\x00\x00\x19f\xd7\xa1\x9d\xac\x04@\x00\x00\x00\x00\x00\x00\x00\x00\xf0k!89\xf0\x07@\x00\x00\x00\x00\x00\x00\x00\x00\xf0k!89\xf0\x07@\x00\x00\x00\x00\x00\x00\xf0?\xc6qk\xce\xd43\x0b@\x00\x00\x00\x00\x00\x00\xf0?\xc6qk\xce\xd43\x0b@\x00\x00\x00\x00\x00\x00\x00@\x9cw\xb5dpw\x0e@\x00\x00\x00\x00\x00\x00\x00@\x9cw\xb5dpw\x0e@\x00\x00\x00\x00\x00\x00\x10@\xba\xbe\x7f\xfd\x85\xdd\x10@\x00\x00\x00\x00\x00\x00\x10@\xba\xbe\x7f\xfd\x85\xdd\x10@\x00\x00\x00\x00\x00\x00\x14@\xa5\xc1\xa4\xc8S\x7f\x12@\x00\x00\x00\x00\x00\x00\x14@\xa5\xc1\xa4\xc8S\x7f\x12@\x00\x00\x00\x00\x00\x00&@\x90\xc4\xc9\x93!!\x14@\x00\x00\x00\x00\x00\x00&@\x90\xc4\xc9\x93!!\x14@\x00\x00\x00\x00\x00\x00(@{\xc7\xee^\xef\xc2\x15@\x00\x00\x00\x00\x00\x00(@{\xc7\xee^\xef\xc2\x15@\x00\x00\x00\x00\x00\x00"@g\xca\x13*\xbdd\x17@\x00\x00\x00\x00\x00\x00"@g\xca\x13*\xbdd\x17@\x00\x00\x00\x00\x00\x00(@R\xcd8\xf5\x8a\x06\x19@\x00\x00\x00\x00\x00\x00(@R\xcd8\xf5\x8a\x06\x19@\x00\x00\x00\x00\x00\x00*@=\xd0]\xc0X\xa8\x1a@\x00\x00\x00\x00\x00\x00*@=\xd0]\xc0X\xa8\x1a@\x00\x00\x00\x00\x00\x00&@(\xd3\x82\x8b&J\x1c@\x00\x00\x00\x00\x00\x00&@(\xd3\x82\x8b&J\x1c@\x00\x00\x00\x00\x00\x00$@\x13\xd6\xa7V\xf4\xeb\x1d@\x00\x00\x00\x00\x00\x00$@\x13\xd6\xa7V\xf4\xeb\x1d@\x00\x00\x00\x00\x00\x00*@\xff\xd8\xcc!\xc2\x8d\x1f@\x00\x00\x00\x00\x00\x00*@\xff\xd8\xcc!\xc2\x8d\x1f@\x00\x00\x00\x00\x00\x00&@\xf5\xedx\xf6\xc7\x97 @\x00\x00\x00\x00\x00\x00&@\xf5\xedx\xf6\xc7\x97 @\x00\x00\x00\x00\x00\x00\x14@jo\x0b\xdc\xaeh!@\x00\x00\x00\x00\x00\x00\x14@jo\x0b\xdc\xaeh!@\x00\x00\x00\x00\x00\x00 @\xe0\xf0\x9d\xc1\x959"@\x00\x00\x00\x00\x00\x00 @\xe0\xf0\x9d\xc1\x959"@\x00\x00\x00\x00\x00\x00 @Vr0\xa7|\n#@\x00\x00\x00\x00\x00\x00 @Vr0\xa7|\n#@\x00\x00\x00\x00\x00\x00\x00@\xcb\xf3\xc2\x8cc\xdb#@\x00\x00\x00\x00\x00\x00\x00@\xcb\xf3\xc2\x8cc\xdb#@\x00\x00\x00\x00\x00\x00\xf0?AuUrJ\xac$@\x00\x00\x00\x00\x00\x00\xf0?AuUrJ\xac$@\x00\x00\x00\x00\x00\x00\xf0?\xb6\xf6\xe7W1}%@\x00\x00\x00\x00\x00\x00\xf0?\xb6\xf6\xe7W1}%@\x00\x00\x00\x00\x00\x00\x08@,xz=\x18N&@\x00\x00\x00\x00\x00\x00\x08@,xz=\x18N&@\x00\x00\x00\x00\x00\x00\x00\x00\xa2\xf9\x0c#\xff\x1e\'@\x00\x00\x00\x00\x00\x00\x00\x00\xa2\xf9\x0c#\xff\x1e\'@\x00\x00\x00\x00\x00\x00\x00@\x17{\x9f\x08\xe6\xef\'@\x00\x00\x00\x00\x00\x00\x00@\x17{\x9f\x08\xe6\xef\'@\x00\x00\x00\x00\x00\x00\x00\x00'
p2487
tp2488
bsg2457
I00
sg2458
F0.1111111111111111
sg2459
I1
sg2460
I00
sbsbasS'title'
p2489
g0
(g2076
g2
Ntp2490
Rp2491
(dp2492
g6
g7
sg8
I01
sg9
g4
sg10
Nsg2080
g0
(g2081
g2
Ntp2493
Rp2494
(dp2495
g2085
(lp2496
g2087
asg2088
Nsg2089
g2090
sg2091
g2090
sg2092
F12.0
sg2093
g2090
sg2094
g2090
sbsg35
Nsg17
g18
sg2095
Nsg20
I01
sg23
Nsg85
F1.0
sg632
F0.5
sg24
Nsg25
Nsg11
Nsg28
I00
sg29
I00
sg30
(dp2497
sg2097
Nsg32
I00
sg2002
g1888
sg36
Nsg2001
Nsg2098
Nsg33
Nsg1827
Nsg1829
I01
sg2099
Vbaseline
p2498
sg2101
V
p2499
sg2103
Nsg1831
g0
(g1832
g1833
((lp2500
(lp2501
tp2502
tp2503
Rp2504
sg1839
I0
sg2109
Nsg1845
I01
sg1846
Nsg2110
F1.2
sg128
g993
sg2135
I00
sg2136
I00
sg1915
Nsg2137
g2138
sg2139
Vcenter
p2505
sg34
NsbsS'_current_image'
p2506
NsS'mouseover_set'
p2507
c__builtin__
set
p2508
((lp2509
tp2510
Rp2511
sg11
NsS'numRows'
p2512
I1
sS'collections'
p2513
(lp2514
sg2002
g1888
sg30
(dp2515
sg32
I00
sS'containers'
p2516
(lp2517
sg29
I00
sg36
NsS'_get_lines'
p2518
g0
(g1892
g2
Ntp2519
Rp2520
(dp2521
g1896
g1888
sg1897
Vplot
p2522
sbsS'_aspect'
p2523
Vauto
p2524
sS'fmt_xdata'
p2525
Nsg1820
g0
(g1821
g2
Ntp2526
Rp2527
(dp2528
g1825
g1826
sbsg1827
Nsg1952
g2359
sg1829
I01
sg1830
g147
sS'ignore_existing_data_limits'
p2529
I00
sg24
Nsg1839
I0
sg1845
I00
sS'_left_title'
p2530
g0
(g2076
g2
Ntp2531
Rp2532
(dp2533
g6
g7
sg8
I01
sg9
g4
sg10
Nsg2080
g0
(g2081
g2
Ntp2534
Rp2535
(dp2536
g2085
g2496
sg2088
Nsg2089
g2090
sg2091
g2090
sg2092
F12.0
sg2093
g2090
sg2094
g2090
sbsg35
Nsg17
g18
sg2095
Nsg20
I01
sg23
Nsg85
F1.0
sg632
F0.0
sg24
Nsg25
Nsg11
Nsg28
I00
sg29
I00
sg30
(dp2537
sg2097
Nsg32
I00
sg2002
g1888
sg36
Nsg2001
Nsg2098
Nsg33
Nsg1827
Nsg1829
I01
sg2099
Vbaseline
p2538
sg2101
V
p2539
sg2103
Nsg1831
g0
(g1832
g1833
((lp2540
(lp2541
tp2542
tp2543
Rp2544
sg1839
I0
sg2109
Nsg1845
I01
sg1846
Nsg2110
F1.2
sg128
g1001
sg2135
I00
sg2136
I00
sg1915
Nsg2137
g2138
sg2139
Vleft
p2545
sg34
NsbsS'_right_title'
p2546
g0
(g2076
g2
Ntp2547
Rp2548
(dp2549
g6
g7
sg8
I01
sg9
g4
sg10
Nsg2080
g0
(g2081
g2
Ntp2550
Rp2551
(dp2552
g2085
g2496
sg2088
Nsg2089
g2090
sg2091
g2090
sg2092
F12.0
sg2093
g2090
sg2094
g2090
sbsg35
Nsg17
g18
sg2095
Nsg20
I01
sg23
Nsg85
F1.0
sg632
F1.0
sg24
Nsg25
Nsg11
Nsg28
I00
sg29
I00
sg30
(dp2553
sg2097
Nsg32
I00
sg2002
g1888
sg36
Nsg2001
Nsg2098
Nsg33
Nsg1827
Nsg1829
I01
sg2099
g2538
sg2101
V
p2554
sg2103
Nsg1831
g0
(g1832
g1833
((lp2555
(lp2556
tp2557
tp2558
Rp2559
sg1839
I0
sg2109
Nsg1845
I01
sg1846
Nsg2110
F1.2
sg128
g1005
sg2135
I00
sg2136
I00
sg1915
Nsg2137
g2138
sg2139
Vright
p2560
sg34
NsbsS'transScale'
p2561
g91
sg128
NsS'axison'
p2562
I01
sS'patch'
p2563
g0
(g1908
g2
Ntp2564
Rp2565
(dp2566
g6
g7
sg1913
F1.0
sg1914
I01
sg9
g4
sg8
I01
sg10
Nsg35
Nsg17
g18
sg1915
Nsg20
I01
sg1916
g0
(g627
g2
Ntp2567
Rp2568
(dp2569
g46
I1
sg47
Nsg64
g7
sg65
(dp2570
sbsg1921
(F0.0
F0.0
F0.0
F0.0
tp2571
sg1936
F0.0
sg23
Nsg85
F0.0
sg632
F0.0
sg24
Nsg1937
VNone
p2572
sg11
Nsg28
I00
sg29
I00
sg30
(dp2573
sg1939
g1596
sg32
I00
sg1944
Nsg1829
I01
sg1945
F0.0
sg36
Nsg1946
F1.0
sg33
Nsg1947
g2571
sg1948
Nsg1949
I01
sg1950
Nsg1951
g2359
sg1827
Nsg1952
(F1.0
F1.0
F1.0
F1.0
tp2574
sg1963
g1964
sg1965
g1966
sg1831
g0
(g1832
g1833
((lp2575
(lp2576
tp2577
tp2578
Rp2579
sg1839
I0
sg1845
I01
sg1846
Nsg128
g143
sg1997
(NNtp2580
sg1999
g2000
sg2001
Nsg25
Nsg2002
Nsg34
NsbsS'viewLim'
p2581
g103
sg17
g18
sS'_subplotspec'
p2582
g1857
sS'_adjustable'
p2583
Vbox
p2584
sg9
g4
sS'titleOffsetTrans'
p2585
g996
sS'_yaxis_transform'
p2586
g83
sS'_gridOn'
p2587
I00
sg10
NsS'colNum'
p2588
I0
sg35
Nsg38
(lp2589
sS'_autoscaleXon'
p2590
I01
sS'_xmargin'
p2591
F0.05
sS'rowNum'
p2592
I0
sS'_position'
p2593
g150
sS'_rasterization_zorder'
p2594
NsS'_cachedRenderer'
p2595
NsS'_navigate'
p2596
I01
sg23
NsS'_originalPosition'
p2597
g0
(g101
g2
Ntp2598
Rp2599
(dp2600
g46
I1
sg105
g49
(g50
(I0
tp2601
g52
tp2602
Rp2603
(I1
(I2
tp2604
g59
I00
S'\x00\x00\x00\x00\x00\x00\xf0\x7f\x00\x00\x00\x00\x00\x00\xf0\x7f'
p2605
tp2606
bsg65
(dp2607
sg113
g49
(g50
(I0
tp2608
g52
tp2609
Rp2610
(I1
(I2
I2
tp2611
g59
I00
S'\x00\x00\x00\x00\x00\x00\xc0?\x00\x00\x00\x00\x00\x00\xc0?\xcd\xcc\xcc\xcc\xcc\xcc\xec?)\\\x8f\xc2\xf5(\xec?'
p2612
tp2613
bsg120
g49
(g50
(I0
tp2614
g52
tp2615
Rp2616
(I1
(I2
I2
tp2617
g59
I00
S'\x00\x00\x00\x00\x00\x00\xc0?\x00\x00\x00\x00\x00\x00\xc0?\xcd\xcc\xcc\xcc\xcc\xcc\xec?)\\\x8f\xc2\xf5(\xec?'
p2618
tp2619
bsg127
I01
sg64
g7
sbsg25
NsS'_xaxis_transform'
p2620
g1080
sg28
I00
sS'figbox'
p2621
g150
sS'xaxis'
p2622
g0
(cmatplotlib.axis
XAxis
p2623
g2
Ntp2624
Rp2625
(dp2626
g6
g7
sS'major'
p2627
g0
(cmatplotlib.axis
Ticker
p2628
g2
Ntp2629
Rp2630
(dp2631
S'locator'
p2632
g0
(cmatplotlib.ticker
AutoLocator
p2633
g2
Ntp2634
Rp2635
(dp2636
S'_min_n_ticks'
p2637
I2
sS'_symmetric'
p2638
I00
sS'_nbins'
p2639
Vauto
p2640
sS'_steps'
p2641
g49
(g50
(I0
tp2642
g52
tp2643
Rp2644
(I1
(I5
tp2645
g59
I00
S'\x00\x00\x00\x00\x00\x00\xf0?\x00\x00\x00\x00\x00\x00\x00@\x00\x00\x00\x00\x00\x00\x04@\x00\x00\x00\x00\x00\x00\x14@\x00\x00\x00\x00\x00\x00$@'
p2646
tp2647
bsS'_prune'
p2648
NsS'_extended_steps'
p2649
g49
(g50
(I0
tp2650
g52
tp2651
Rp2652
(I1
(I10
tp2653
g59
I00
S'\x9a\x99\x99\x99\x99\x99\xb9?\x9a\x99\x99\x99\x99\x99\xc9?\x00\x00\x00\x00\x00\x00\xd0?\x00\x00\x00\x00\x00\x00\xe0?\x00\x00\x00\x00\x00\x00\xf0?\x00\x00\x00\x00\x00\x00\x00@\x00\x00\x00\x00\x00\x00\x04@\x00\x00\x00\x00\x00\x00\x14@\x00\x00\x00\x00\x00\x00$@\x00\x00\x00\x00\x00\x004@'
p2654
tp2655
bsS'_integer'
p2656
I00
sS'axis'
p2657
g2625
sbsS'formatter'
p2658
g0
(cmatplotlib.ticker
ScalarFormatter
p2659
g2
Ntp2660
Rp2661
(dp2662
S'_powerlimits'
p2663
(lp2664
I-7
aI7
asS'orderOfMagnitude'
p2665
I0
sS'_useOffset'
p2666
I01
sS'_useLocale'
p2667
I00
sS'format'
p2668
g7
sS'_useMathText'
p2669
I00
sS'_offset_threshold'
p2670
I4
sS'offset'
p2671
I0
sg2135
I00
sS'_scientific'
p2672
I01
sg2657
g2625
sbsbsS'isDefault_label'
p2673
I00
sS'_scale'
p2674
g0
(cmatplotlib.scale
LinearScale
p2675
g2
Ntp2676
Rp2677
sg9
g4
sg8
I01
sS'_gridOnMinor'
p2678
I00
sg10
Nsg35
NsS'_smart_bounds'
p2679
I00
sg17
g18
sg20
I01
sg23
NsS'offsetText'
p2680
g0
(g2076
g2
Ntp2681
Rp2682
(dp2683
g6
g7
sg8
I01
sg9
g4
sg10
Nsg2080
g0
(g2081
g2
Ntp2684
Rp2685
(dp2686
g2085
(lp2687
g2087
asg2088
Nsg2089
g2090
sg2091
g2090
sg2092
F8.0
sg2093
g2090
sg2094
g2090
sbsg35
Nsg17
g18
sg2095
Nsg20
I01
sg23
Nsg85
I0
sg632
I1
sg24
Nsg25
Nsg11
Nsg28
I00
sg29
I00
sg30
(dp2688
sg2097
Nsg32
I00
sg2002
Nsg36
Nsg2001
Nsg2098
Nsg33
Nsg1827
Nsg1829
I01
sg2099
Vtop
p2689
sg2101
V
p2690
sg2103
Nsg1831
g0
(g1832
g1833
((lp2691
(lp2692
tp2693
tp2694
Rp2695
sg1839
I0
sg2109
Nsg1845
I01
sg1846
Nsg2110
F1.2
sg128
g625
sg2135
I00
sg2136
I00
sg1915
Nsg2137
V0.
p2696
sg2139
Vright
p2697
sg34
Nsbsg24
Nsg25
Nsg11
NsS'label'
p2698
g0
(g2076
g2
Ntp2699
Rp2700
(dp2701
g6
g7
sg8
I01
sg9
g4
sg10
Nsg2080
g0
(g2081
g2
Ntp2702
Rp2703
(dp2704
g2085
(lp2705
g2087
asg2088
Nsg2089
g2090
sg2091
g2090
sg2092
F10.0
sg2093
g2090
sg2094
g2090
sbsg35
Nsg17
g18
sg2095
Nsg20
I01
sg23
Nsg85
I0
sg632
F0.5
sg24
Nsg25
Nsg11
Nsg28
I00
sg29
I00
sg30
(dp2706
sg2097
Nsg32
I00
sg2002
Nsg36
Nsg2001
Nsg2098
Nsg33
Nsg1827
Nsg1829
I01
sg2099
Vtop
p2707
sg2101
VPSP Amplitude (mV)
p2708
sg2103
Nsg1831
g0
(g1832
g1833
((lp2709
(lp2710
tp2711
tp2712
Rp2713
sg1839
I0
sg2109
Nsg1845
I01
sg1846
Nsg2110
F1.2
sg128
g985
sg2135
I00
sg2136
I00
sg1915
Nsg2137
V0.
p2714
sg2139
Vcenter
p2715
sg34
Nsbsg28
I00
sS'isDefault_majfmt'
p2716
I01
sg29
I00
sg30
(dp2717
sS'units'
p2718
Nsg32
I00
sS'minor'
p2719
g0
(g2628
g2
Ntp2720
Rp2721
(dp2722
g2632
g0
(cmatplotlib.ticker
NullLocator
p2723
g2
Ntp2724
Rp2725
(dp2726
g2657
g2625
sbsg2658
g0
(cmatplotlib.ticker
NullFormatter
p2727
g2
Ntp2728
Rp2729
(dp2730
g2657
g2625
sbsbsg2002
g1888
sS'_major_tick_kw'
p2731
(dp2732
Vlabel1On
p2733
I01
sVgridOn
p2734
I00
sVlabel2On
p2735
I00
sVtick1On
p2736
I01
sVtick2On
p2737
I00
ssS'isDefault_minloc'
p2738
I01
sg36
g679
sg33
NsS'_gridOnMajor'
p2739
I00
sS'_lastNumMinorTicks'
p2740
I1
sS'labelpad'
p2741
F4.0
sS'majorTicks'
p2742
(lp2743
g0
(cmatplotlib.axis
XTick
p2744
g2
Ntp2745
Rp2746
(dp2747
g6
g7
sg1913
F0.8
sg9
g4
sS'tick1On'
p2748
I01
sg8
I01
sg10
Nsg1839
I0
sg35
NsS'_pad'
p2749
F3.5
sS'_labelcolor'
p2750
g2696
sS'gridOn'
p2751
I00
sg2092
F0.0
sg17
g18
sS'_tickdir'
p2752
Vout
p2753
sg2698
g0
(g2076
g2
Ntp2754
Rp2755
(dp2756
g6
g7
sg8
I01
sg9
g4
sg10
Nsg2080
g0
(g2081
g2
Ntp2757
Rp2758
(dp2759
g2085
(lp2760
g2087
asg2088
Nsg2089
g2090
sg2091
g2090
sg2092
F8.0
sg2093
g2090
sg2094
g2090
sbsg35
Nsg17
g18
sg2095
Nsg20
I01
sg23
Nsg85
I0
sg632
I0
sg24
Nsg25
Nsg11
Nsg28
I00
sg29
I00
sg30
(dp2761
sg2097
Nsg32
I00
sg2002
Nsg36
Nsg2001
Nsg2098
Nsg33
Nsg1827
Nsg1829
I01
sg2099
Vtop
p2762
sg2101
V
p2763
sg2103
Nsg1831
g0
(g1832
g1833
((lp2764
(lp2765
tp2766
tp2767
Rp2768
sg1839
I0
sg2109
Nsg1845
I01
sg1846
Nsg2110
F1.2
sg128
g1139
sg2135
I00
sg2136
I00
sg1915
Nsg2137
g2696
sg2139
Vcenter
p2769
sg34
Nsbsg20
I01
sg23
NsS'label2On'
p2770
I00
sg24
Nsg25
Nsg11
NsS'tick2On'
p2771
I00
sg28
I00
sg29
I00
sg30
(dp2772
sS'_tickmarkers'
p2773
(I3
I2
tp2774
sg32
I00
sS'_zorder'
p2775
F2.01
sg2002
g1888
sS'label1On'
p2776
I01
sg36
g318
sg2001
NsS'label1'
p2777
g2755
sS'label2'
p2778
g0
(g2076
g2
Ntp2779
Rp2780
(dp2781
g6
g7
sg8
I01
sg9
g4
sg10
Nsg2080
g0
(g2081
g2
Ntp2782
Rp2783
(dp2784
g2085
(lp2785
g2087
asg2088
Nsg2089
g2090
sg2091
g2090
sg2092
F8.0
sg2093
g2090
sg2094
g2090
sbsg35
Nsg17
g18
sg2095
Nsg20
I01
sg23
Nsg85
I1
sg632
I0
sg24
Nsg25
Nsg11
Nsg28
I00
sg29
I00
sg30
(dp2786
sg2097
Nsg32
I00
sg2002
Nsg36
Nsg2001
Nsg2098
Nsg33
Nsg1827
Nsg1829
I01
sg2099
Vbottom
p2787
sg2101
V
p2788
sg2103
Nsg1831
g0
(g1832
g1833
((lp2789
(lp2790
tp2791
tp2792
Rp2793
sg1839
I0
sg2109
Nsg1845
I01
sg1846
Nsg2110
F1.2
sg128
g1112
sg2135
I00
sg2136
I00
sg1915
Nsg2137
g2696
sg2139
g2769
sg34
Nsbsg1827
NsS'_loc'
p2794
I0
sg1829
I01
sg1831
g0
(g1832
g1833
((lp2795
(lp2796
tp2797
tp2798
Rp2799
sS'_base_pad'
p2800
F3.5
sS'tick1line'
p2801
g0
(cmatplotlib.lines
Line2D
p2802
g2
Ntp2803
Rp2804
(dp2805
g6
g7
sS'_dashcapstyle'
p2806
Vbutt
p2807
sS'_linestyles'
p2808
Nsg20
I01
sS'_x_filled'
p2809
NsS'ind_offset'
p2810
I0
sg85
Nsg632
Nsg24
Nsg11
Nsg29
I00
sg30
(dp2811
sg32
I00
sg2002
NsS'_markeredgewidth'
p2812
F0.8
sS'_dashSeq'
p2813
NsS'_markerfacecoloralt'
p2814
Vnone
p2815
sS'_markeredgecolor'
p2816
Vauto
p2817
sg1827
Nsg1829
I01
sS'_xorig'
p2818
(I0
tp2819
sg1839
I0
sg1845
I01
sS'_invalidy'
p2820
I01
sS'_invalidx'
p2821
I01
sg128
g1080
sS'_us_dashSeq'
p2822
NsS'zorder'
p2823
F2.01
sg2137
g2696
sS'pickradius'
p2824
I5
sg9
g4
sS'verticalOffset'
p2825
Nsg10
Nsg35
Nsg17
g18
sS'_solidjoinstyle'
p2826
Vround
p2827
sg23
Nsg25
Nsg28
I00
sS'_markevery'
p2828
Nsg34
NsS'_transformed_path'
p2829
NsS'_marker'
p2830
g0
(cmatplotlib.markers
MarkerStyle
p2831
g2
Ntp2832
Rp2833
(dp2834
g2830
I3
sS'_alt_path'
p2835
NsS'_snap_threshold'
p2836
F1.0
sg128
g0
(g42
g2
Ntp2837
Rp2838
(dp2839
g46
I2
sg47
Nsg48
g49
(g50
(I0
tp2840
g52
tp2841
Rp2842
(I1
(I3
I3
tp2843
g59
I00
S'\x00\x00\x00\x00\x00\x00\xf0?\x00\x00\x00\x00\x00\x00\x00\x00\x00\x00\x00\x00\x00\x00\x00\x00\x00\x00\x00\x00\x00\x00\x00\x00\x00\x00\x00\x00\x00\x00\xf0\xbf\x00\x00\x00\x00\x00\x00\x00\x00\x00\x00\x00\x00\x00\x00\x00\x00\x00\x00\x00\x00\x00\x00\x00\x00\x00\x00\x00\x00\x00\x00\xf0?'
p2844
tp2845
bsg64
g7
sg65
(dp2846
sbsS'_filled'
p2847
I00
sS'_fillstyle'
p2848
Vfull
p2849
sS'_alt_transform'
p2850
Nsg1999
Vbutt
p2851
sg1963
Vround
p2852
sg2443
g0
(g2444
g2
Ntp2853
Rp2854
(dp2855
g2448
I00
sg2449
Nsg2450
g49
(g50
(I0
tp2856
g52
tp2857
Rp2858
(I1
(I2
I2
tp2859
g59
I00
S'\x00\x00\x00\x00\x00\x00\x00\x80\x00\x00\x00\x00\x00\x00\x00\x00\x00\x00\x00\x00\x00\x00\x00\x80\x00\x00\x00\x00\x00\x00\xf0?'
p2860
tp2861
bsg2457
I00
sg2458
F0.1111111111111111
sg2459
I1
sg2460
I00
sbsbsS'_markerfacecolor'
p2862
Vauto
p2863
sg36
Nsg33
Nsg1949
I01
sS'_xy'
p2864
Nsg1965
VNone
p2865
sg1831
g0
(g1832
g1833
((lp2866
(lp2867
tp2868
tp2869
Rp2870
sS'_subslice'
p2871
I00
sS'_drawstyle'
p2872
Vdefault
p2873
sS'_solidcapstyle'
p2874
g2827
sS'_us_dashOffset'
p2875
Nsg1846
NsS'_dashjoinstyle'
p2876
g2827
sS'_markersize'
p2877
F0.0
sg8
I01
sS'_dashOffset'
p2878
Nsg1915
Nsg2001
NsS'_yorig'
p2879
(I0
tp2880
sg1945
F0.5
sg2443
Nsbsg1845
I00
sS'gridline'
p2881
g0
(g2802
g2
Ntp2882
Rp2883
(dp2884
g6
g7
sg8
I01
sg2874
g2827
sg9
g4
sg2806
g2807
sg2808
Nsg10
Nsg35
Nsg17
g18
sg2826
g2827
sg20
I01
sg2809
Nsg23
Nsg85
g49
(g50
(I0
tp2885
g52
tp2886
Rp2887
(I1
(I2
tp2888
g59
I00
S'\x00\x00\x00\x00\x00\x00\x00\x00\x00\x00\x00\x00\x00\x00\xf0?'
p2889
tp2890
bsg632
g49
(g50
(I0
tp2891
g52
tp2892
Rp2893
(I1
(I2
tp2894
g59
I00
S'\x00\x00\x00\x00\x00\x00\x00\x00\x00\x00\x00\x00\x00\x00\x00\x00'
p2895
tp2896
bsg24
Nsg25
Nsg11
Nsg2818
(F0.0
F0.0
tp2897
sg28
I00
sg2828
Nsg29
I00
sg30
(dp2898
sg2825
Nsg32
I00
sg2871
I00
sg2002
Nsg2829
Nsg2812
F1.0
sg2862
g2863
sg2813
Nsg2137
V.8
p2899
sg2830
g0
(g2831
g2
Ntp2900
Rp2901
(dp2902
g2830
VNone
p2903
sg2835
Nsg2836
Nsg128
g0
(g627
g2
Ntp2904
Rp2905
(dp2906
g46
I1
sg47
Nsg64
g7
sg65
(dp2907
sbsg2847
I00
sg2848
g2849
sg2850
Nsg1999
g2851
sg1963
g2852
sg2443
g0
(g2444
g2
Ntp2908
Rp2909
(dp2910
g2448
I00
sg2449
Nsg2450
g49
(g50
(I0
tp2911
g52
tp2912
Rp2913
(I1
(I0
I2
tp2914
g59
I00
S''
p2915
tp2916
bsg2457
I00
sg2458
F0.1111111111111111
sg2459
I1
sg2460
I00
sbsbsg33
Nsg2814
g2815
sg1949
I01
sg2816
g2817
sg1827
Nsg2877
F0.0
sg1829
I01
sg2864
g49
(g50
(I0
tp2917
g52
tp2918
Rp2919
(I1
(I2
I2
tp2920
g59
I00
S'\x00\x00\x00\x00\x00\x00\x00\x00\x00\x00\x00\x00\x00\x00\x00\x00\x00\x00\x00\x00\x00\x00\x00\x00\x00\x00\x00\x00\x00\x00\xf0?'
p2921
tp2922
bsg1965
V-
p2923
sg1831
g0
(g1832
g1833
((lp2924
(lp2925
tp2926
tp2927
Rp2928
sg1839
I0
sg2872
g2873
sg2810
I0
sg2875
Nsg2824
I5
sg1845
I01
sg1846
F1.0
sg2876
g2827
sg2821
I00
sg128
g1080
sg2878
Nsg2822
Nsg2820
I00
sg1915
Nsg2001
Nsg2879
(I0
F1.0
tp2929
sg36
g1427
sg1945
F0.8
sg34
Nsg2443
g0
(g2444
g2
Ntp2930
Rp2931
(dp2932
g2448
I00
sg2449
Nsg2450
g49
(g50
(I0
tp2933
g52
tp2934
Rp2935
(I1
(I2
I2
tp2936
g59
I01
S'\x00\x00\x00\x00\x00\x00\x00\x00\x00\x00\x00\x00\x00\x00\x00\x00\x00\x00\x00\x00\x00\x00\x00\x00\x00\x00\x00\x00\x00\x00\xf0?'
p2937
tp2938
bsg2457
I00
sg2458
F0.1111111111111111
sg2459
I180
sg2460
I00
sbsbsg1846
Nsg33
NsS'tick2line'
p2939
g0
(g2802
g2
Ntp2940
Rp2941
(dp2942
g6
g7
sg2806
g2807
sg2808
Nsg20
I01
sg2809
Nsg2810
I0
sg85
Nsg632
Nsg24
Nsg11
Nsg29
I00
sg30
(dp2943
sg32
I00
sg2002
Nsg2812
F0.8
sg2813
Nsg2814
g2815
sg2816
g2817
sg1827
Nsg1829
I01
sg2818
(I0
tp2944
sg1839
I0
sg1845
I01
sg2820
I01
sg2821
I01
sg128
g1080
sg2822
Nsg2823
F2.01
sg2137
g2696
sg2824
I5
sg9
g4
sg2825
Nsg10
Nsg35
Nsg17
g18
sg2826
g2827
sg23
Nsg25
Nsg28
I00
sg2828
Nsg34
Nsg2829
Nsg2830
g0
(g2831
g2
Ntp2945
Rp2946
(dp2947
g2830
I2
sg2835
Nsg2836
F1.0
sg128
g0
(g42
g2
Ntp2948
Rp2949
(dp2950
g46
I2
sg47
Nsg48
g49
(g50
(I0
tp2951
g52
tp2952
Rp2953
(I1
(I3
I3
tp2954
g59
I00
S'\x00\x00\x00\x00\x00\x00\xf0?\x00\x00\x00\x00\x00\x00\x00\x00\x00\x00\x00\x00\x00\x00\x00\x00\x00\x00\x00\x00\x00\x00\x00\x00\x00\x00\x00\x00\x00\x00\xf0?\x00\x00\x00\x00\x00\x00\x00\x00\x00\x00\x00\x00\x00\x00\x00\x00\x00\x00\x00\x00\x00\x00\x00\x00\x00\x00\x00\x00\x00\x00\xf0?'
p2955
tp2956
bsg64
g7
sg65
(dp2957
sbsg2847
I00
sg2848
g2849
sg2850
Nsg1999
g2851
sg1963
g2852
sg2443
g2854
sbsg2862
g2863
sg36
Nsg33
Nsg1949
I01
sg2864
Nsg1965
VNone
p2958
sg1831
g0
(g1832
g1833
((lp2959
(lp2960
tp2961
tp2962
Rp2963
sg2871
I00
sg2872
g2873
sg2874
g2827
sg2875
Nsg1846
Nsg2876
g2827
sg2877
F0.0
sg8
I01
sg2878
Nsg1915
Nsg2001
Nsg2879
(I1
tp2964
sg1945
F0.5
sg2443
Nsbsg128
NsS'_labelsize'
p2965
F8.0
sS'_name'
p2966
Vxtick
p2967
sS'_labelrotation'
p2968
(Vdefault
p2969
I0
tp2970
sg1915
Nsg2137
g2696
sg34
Nsbag0
(g2744
g2
Ntp2971
Rp2972
(dp2973
g6
g7
sg1913
F0.8
sg9
g4
sg2748
I01
sg8
I01
sg10
Nsg1839
I0
sg35
Nsg2749
F3.5
sg2750
g2696
sg2751
I00
sg2092
F0.0
sg17
g18
sg2752
g2753
sg2698
g0
(g2076
g2
Ntp2974
Rp2975
(dp2976
g6
g7
sg8
I01
sg9
g4
sg10
Nsg2080
g0
(g2081
g2
Ntp2977
Rp2978
(dp2979
g2085
(lp2980
g2087
asg2088
Nsg2089
g2090
sg2091
g2090
sg2092
F8.0
sg2093
g2090
sg2094
g2090
sbsg35
Nsg17
g18
sg2095
Nsg20
I01
sg23
Nsg85
I0
sg632
I0
sg24
Nsg25
Nsg11
Nsg28
I00
sg29
I00
sg30
(dp2981
sg2097
Nsg32
I00
sg2002
Nsg36
Nsg2001
Nsg2098
Nsg33
Nsg1827
Nsg1829
I01
sg2099
g2762
sg2101
V
p2982
sg2103
Nsg1831
g0
(g1832
g1833
((lp2983
(lp2984
tp2985
tp2986
Rp2987
sg1839
I0
sg2109
Nsg1845
I01
sg1846
Nsg2110
F1.2
sg128
g1130
sg2135
I00
sg2136
I00
sg1915
Nsg2137
g2696
sg2139
g2769
sg34
Nsbsg20
I01
sg23
Nsg2770
I00
sg24
Nsg25
Nsg11
Nsg2771
I00
sg28
I00
sg29
I00
sg30
(dp2988
sg2773
(I3
I2
tp2989
sg32
I00
sg2775
F2.01
sg2002
g1888
sg2776
I01
sg36
g598
sg2001
Nsg2777
g2975
sg2778
g0
(g2076
g2
Ntp2990
Rp2991
(dp2992
g6
g7
sg8
I01
sg9
g4
sg10
Nsg2080
g0
(g2081
g2
Ntp2993
Rp2994
(dp2995
g2085
(lp2996
g2087
asg2088
Nsg2089
g2090
sg2091
g2090
sg2092
F8.0
sg2093
g2090
sg2094
g2090
sbsg35
Nsg17
g18
sg2095
Nsg20
I01
sg23
Nsg85
I1
sg632
I0
sg24
Nsg25
Nsg11
Nsg28
I00
sg29
I00
sg30
(dp2997
sg2097
Nsg32
I00
sg2002
Nsg36
Nsg2001
Nsg2098
Nsg33
Nsg1827
Nsg1829
I01
sg2099
g2787
sg2101
V
p2998
sg2103
Nsg1831
g0
(g1832
g1833
((lp2999
(lp3000
tp3001
tp3002
Rp3003
sg1839
I0
sg2109
Nsg1845
I01
sg1846
Nsg2110
F1.2
sg128
g1148
sg2135
I00
sg2136
I00
sg1915
Nsg2137
g2696
sg2139
g2769
sg34
Nsbsg1827
Nsg2794
I0
sg1829
I01
sg1831
g0
(g1832
g1833
((lp3004
(lp3005
tp3006
tp3007
Rp3008
sg2800
F3.5
sg2801
g0
(g2802
g2
Ntp3009
Rp3010
(dp3011
g6
g7
sg2806
g2807
sg2808
Nsg20
I01
sg2809
Nsg2810
I0
sg85
Nsg632
Nsg24
Nsg11
Nsg29
I00
sg30
(dp3012
sg32
I00
sg2002
Nsg2812
F0.8
sg2813
Nsg2814
g2815
sg2816
g2817
sg1827
Nsg1829
I01
sg2818
(I0
tp3013
sg1839
I0
sg1845
I01
sg2820
I01
sg2821
I01
sg128
g1080
sg2822
Nsg2823
F2.01
sg2137
g2696
sg2824
I5
sg9
g4
sg2825
Nsg10
Nsg35
Nsg17
g18
sg2826
g2827
sg23
Nsg25
Nsg28
I00
sg2828
Nsg34
Nsg2829
Nsg2830
g0
(g2831
g2
Ntp3014
Rp3015
(dp3016
g2830
I3
sg2835
Nsg2836
F1.0
sg128
g0
(g42
g2
Ntp3017
Rp3018
(dp3019
g46
I2
sg47
Nsg48
g49
(g50
(I0
tp3020
g52
tp3021
Rp3022
(I1
(I3
I3
tp3023
g59
I00
S'\x00\x00\x00\x00\x00\x00\xf0?\x00\x00\x00\x00\x00\x00\x00\x00\x00\x00\x00\x00\x00\x00\x00\x00\x00\x00\x00\x00\x00\x00\x00\x00\x00\x00\x00\x00\x00\x00\xf0\xbf\x00\x00\x00\x00\x00\x00\x00\x00\x00\x00\x00\x00\x00\x00\x00\x00\x00\x00\x00\x00\x00\x00\x00\x00\x00\x00\x00\x00\x00\x00\xf0?'
p3024
tp3025
bsg64
g7
sg65
(dp3026
sbsg2847
I00
sg2848
g2849
sg2850
Nsg1999
g2851
sg1963
g2852
sg2443
g2854
sbsg2862
g2863
sg36
Nsg33
Nsg1949
I01
sg2864
Nsg1965
g2865
sg1831
g0
(g1832
g1833
((lp3027
(lp3028
tp3029
tp3030
Rp3031
sg2871
I00
sg2872
g2873
sg2874
g2827
sg2875
Nsg1846
Nsg2876
g2827
sg2877
F0.0
sg8
I01
sg2878
Nsg1915
Nsg2001
Nsg2879
g2880
sg1945
F0.5
sg2443
Nsbsg1845
I00
sg2881
g0
(g2802
g2
Ntp3032
Rp3033
(dp3034
g6
g7
sg8
I01
sg2874
g2827
sg9
g4
sg2806
g2807
sg2808
Nsg10
Nsg35
Nsg17
g18
sg2826
g2827
sg20
I01
sg2809
Nsg23
Nsg85
g49
(g50
(I0
tp3035
g52
tp3036
Rp3037
(I1
(I2
tp3038
g59
I00
S'\x00\x00\x00\x00\x00\x00\x00\x00\x00\x00\x00\x00\x00\x00\xf0?'
p3039
tp3040
bsg632
g49
(g50
(I0
tp3041
g52
tp3042
Rp3043
(I1
(I2
tp3044
g59
I00
S'\x00\x00\x00\x00\x00\x00\x00\x00\x00\x00\x00\x00\x00\x00\x00\x00'
p3045
tp3046
bsg24
Nsg25
Nsg11
Nsg2818
g2897
sg28
I00
sg2828
Nsg29
I00
sg30
(dp3047
sg2825
Nsg32
I00
sg2871
I00
sg2002
Nsg2829
Nsg2812
F1.0
sg2862
g2863
sg2813
Nsg2137
g2899
sg2830
g0
(g2831
g2
Ntp3048
Rp3049
(dp3050
g2830
g2903
sg2835
Nsg2836
Nsg128
g0
(g627
g2
Ntp3051
Rp3052
(dp3053
g46
I1
sg47
Nsg64
g7
sg65
(dp3054
sbsg2847
I00
sg2848
g2849
sg2850
Nsg1999
g2851
sg1963
g2852
sg2443
g2909
sbsg33
Nsg2814
g2815
sg1949
I01
sg2816
g2817
sg1827
Nsg2877
F0.0
sg1829
I01
sg2864
g49
(g50
(I0
tp3055
g52
tp3056
Rp3057
(I1
(I2
I2
tp3058
g59
I00
S'\x00\x00\x00\x00\x00\x00\x00\x00\x00\x00\x00\x00\x00\x00\x00\x00\x00\x00\x00\x00\x00\x00\x00\x00\x00\x00\x00\x00\x00\x00\xf0?'
p3059
tp3060
bsg1965
g2923
sg1831
g0
(g1832
g1833
((lp3061
(lp3062
tp3063
tp3064
Rp3065
sg1839
I0
sg2872
g2873
sg2810
I0
sg2875
Nsg2824
I5
sg1845
I01
sg1846
F1.0
sg2876
g2827
sg2821
I00
sg128
g1080
sg2878
Nsg2822
Nsg2820
I00
sg1915
Nsg2001
Nsg2879
g2929
sg36
g458
sg1945
F0.8
sg34
Nsg2443
g0
(g2444
g2
Ntp3066
Rp3067
(dp3068
g2448
I00
sg2449
Nsg2450
g49
(g50
(I0
tp3069
g52
tp3070
Rp3071
(I1
(I2
I2
tp3072
g59
I01
S'\x00\x00\x00\x00\x00\x00\x00\x00\x00\x00\x00\x00\x00\x00\x00\x00\x00\x00\x00\x00\x00\x00\x00\x00\x00\x00\x00\x00\x00\x00\xf0?'
p3073
tp3074
bsg2457
I00
sg2458
F0.1111111111111111
sg2459
I180
sg2460
I00
sbsbsg1846
Nsg33
Nsg2939
g0
(g2802
g2
Ntp3075
Rp3076
(dp3077
g6
g7
sg2806
g2807
sg2808
Nsg20
I01
sg2809
Nsg2810
I0
sg85
Nsg632
Nsg24
Nsg11
Nsg29
I00
sg30
(dp3078
sg32
I00
sg2002
Nsg2812
F0.8
sg2813
Nsg2814
g2815
sg2816
g2817
sg1827
Nsg1829
I01
sg2818
(I0
tp3079
sg1839
I0
sg1845
I01
sg2820
I01
sg2821
I01
sg128
g1080
sg2822
Nsg2823
F2.01
sg2137
g2696
sg2824
I5
sg9
g4
sg2825
Nsg10
Nsg35
Nsg17
g18
sg2826
g2827
sg23
Nsg25
Nsg28
I00
sg2828
Nsg34
Nsg2829
Nsg2830
g0
(g2831
g2
Ntp3080
Rp3081
(dp3082
g2830
I2
sg2835
Nsg2836
F1.0
sg128
g0
(g42
g2
Ntp3083
Rp3084
(dp3085
g46
I2
sg47
Nsg48
g49
(g50
(I0
tp3086
g52
tp3087
Rp3088
(I1
(I3
I3
tp3089
g59
I00
S'\x00\x00\x00\x00\x00\x00\xf0?\x00\x00\x00\x00\x00\x00\x00\x00\x00\x00\x00\x00\x00\x00\x00\x00\x00\x00\x00\x00\x00\x00\x00\x00\x00\x00\x00\x00\x00\x00\xf0?\x00\x00\x00\x00\x00\x00\x00\x00\x00\x00\x00\x00\x00\x00\x00\x00\x00\x00\x00\x00\x00\x00\x00\x00\x00\x00\x00\x00\x00\x00\xf0?'
p3090
tp3091
bsg64
g7
sg65
(dp3092
sbsg2847
I00
sg2848
g2849
sg2850
Nsg1999
g2851
sg1963
g2852
sg2443
g2854
sbsg2862
g2863
sg36
Nsg33
Nsg1949
I01
sg2864
Nsg1965
g2958
sg1831
g0
(g1832
g1833
((lp3093
(lp3094
tp3095
tp3096
Rp3097
sg2871
I00
sg2872
g2873
sg2874
g2827
sg2875
Nsg1846
Nsg2876
g2827
sg2877
F0.0
sg8
I01
sg2878
Nsg1915
Nsg2001
Nsg2879
g2964
sg1945
F0.5
sg2443
Nsbsg128
Nsg2965
F8.0
sg2966
g2967
sg2968
(g2969
I0
tp3098
sg1915
Nsg2137
g2696
sg34
NsbasS'isDefault_majloc'
p3099
I01
sg1820
g0
(g1821
g2
Ntp3100
Rp3101
(dp3102
g1825
g1826
sbsg1827
Nsg1829
I01
sS'_autolabelpos'
p3103
I01
sg1831
g0
(g1832
g1833
((lp3104
(lp3105
tp3106
tp3107
Rp3108
sg1839
I0
sS'_lastNumMajorTicks'
p3109
I1
sS'converter'
p3110
Nsg1845
I00
sg1846
NsS'offset_text_position'
p3111
Vbottom
p3112
sg128
NsS'_unit_data'
p3113
NsS'label_position'
p3114
Vbottom
p3115
sg1915
Nsg2001
Nsg2824
I15
sS'minorTicks'
p3116
(lp3117
g0
(g2744
g2
Ntp3118
Rp3119
(dp3120
g6
g7
sg1913
F0.6
sg9
g4
sg2748
I01
sg8
I01
sg10
Nsg1839
I0
sg35
Nsg2749
F3.4
sg2750
g2696
sg2751
I00
sg2092
F0.0
sg17
g18
sg2752
g2753
sg2698
g0
(g2076
g2
Ntp3121
Rp3122
(dp3123
g6
g7
sg8
I01
sg9
g4
sg10
Nsg2080
g0
(g2081
g2
Ntp3124
Rp3125
(dp3126
g2085
(lp3127
g2087
asg2088
Nsg2089
g2090
sg2091
g2090
sg2092
F8.0
sg2093
g2090
sg2094
g2090
sbsg35
Nsg17
g18
sg2095
Nsg20
I01
sg23
Nsg85
I0
sg632
I0
sg24
Nsg25
Nsg11
Nsg28
I00
sg29
I00
sg30
(dp3128
sg2097
Nsg32
I00
sg2002
Nsg36
Nsg2001
Nsg2098
Nsg33
Nsg1827
Nsg1829
I01
sg2099
g2762
sg2101
V
p3129
sg2103
Nsg1831
g0
(g1832
g1833
((lp3130
(lp3131
tp3132
tp3133
Rp3134
sg1839
I0
sg2109
Nsg1845
I01
sg1846
Nsg2110
F1.2
sg128
g1085
sg2135
I00
sg2136
I00
sg1915
Nsg2137
g2696
sg2139
g2769
sg34
Nsbsg20
I01
sg23
Nsg2770
I00
sg24
Nsg25
Nsg11
Nsg2771
I00
sg28
I00
sg29
I00
sg30
(dp3135
sg2773
(I3
I2
tp3136
sg32
I00
sg2775
I2
sg2002
g1888
sg2776
I01
sg36
g819
sg2001
Nsg2777
g3122
sg2778
g0
(g2076
g2
Ntp3137
Rp3138
(dp3139
g6
g7
sg8
I01
sg9
g4
sg10
Nsg2080
g0
(g2081
g2
Ntp3140
Rp3141
(dp3142
g2085
(lp3143
g2087
asg2088
Nsg2089
g2090
sg2091
g2090
sg2092
F8.0
sg2093
g2090
sg2094
g2090
sbsg35
Nsg17
g18
sg2095
Nsg20
I01
sg23
Nsg85
I1
sg632
I0
sg24
Nsg25
Nsg11
Nsg28
I00
sg29
I00
sg30
(dp3144
sg2097
Nsg32
I00
sg2002
Nsg36
Nsg2001
Nsg2098
Nsg33
Nsg1827
Nsg1829
I01
sg2099
g2787
sg2101
V
p3145
sg2103
Nsg1831
g0
(g1832
g1833
((lp3146
(lp3147
tp3148
tp3149
Rp3150
sg1839
I0
sg2109
Nsg1845
I01
sg1846
Nsg2110
F1.2
sg128
g1103
sg2135
I00
sg2136
I00
sg1915
Nsg2137
g2696
sg2139
g2769
sg34
Nsbsg1827
Nsg2794
I0
sg1829
I01
sg1831
g0
(g1832
g1833
((lp3151
(lp3152
tp3153
tp3154
Rp3155
sg2800
F3.4
sg2801
g0
(g2802
g2
Ntp3156
Rp3157
(dp3158
g6
g7
sg2806
g2807
sg2808
Nsg20
I01
sg2809
Nsg2810
I0
sg85
Nsg632
Nsg24
Nsg11
Nsg29
I00
sg30
(dp3159
sg32
I00
sg2002
Nsg2812
F0.6
sg2813
Nsg2814
g2815
sg2816
g2817
sg1827
Nsg1829
I01
sg2818
(I0
tp3160
sg1839
I0
sg1845
I01
sg2820
I01
sg2821
I01
sg128
g1080
sg2822
Nsg2823
I2
sg2137
g2696
sg2824
I5
sg9
g4
sg2825
Nsg10
Nsg35
Nsg17
g18
sg2826
g2827
sg23
Nsg25
Nsg28
I00
sg2828
Nsg34
Nsg2829
Nsg2830
g0
(g2831
g2
Ntp3161
Rp3162
(dp3163
g2830
I3
sg2835
Nsg2836
F1.0
sg128
g0
(g42
g2
Ntp3164
Rp3165
(dp3166
g46
I2
sg47
Nsg48
g49
(g50
(I0
tp3167
g52
tp3168
Rp3169
(I1
(I3
I3
tp3170
g59
I00
S'\x00\x00\x00\x00\x00\x00\xf0?\x00\x00\x00\x00\x00\x00\x00\x00\x00\x00\x00\x00\x00\x00\x00\x00\x00\x00\x00\x00\x00\x00\x00\x00\x00\x00\x00\x00\x00\x00\xf0\xbf\x00\x00\x00\x00\x00\x00\x00\x00\x00\x00\x00\x00\x00\x00\x00\x00\x00\x00\x00\x00\x00\x00\x00\x00\x00\x00\x00\x00\x00\x00\xf0?'
p3171
tp3172
bsg64
g7
sg65
(dp3173
sbsg2847
I00
sg2848
g2849
sg2850
Nsg1999
g2851
sg1963
g2852
sg2443
g2854
sbsg2862
g2863
sg36
Nsg33
Nsg1949
I01
sg2864
Nsg1965
g2865
sg1831
g0
(g1832
g1833
((lp3174
(lp3175
tp3176
tp3177
Rp3178
sg2871
I00
sg2872
g2873
sg2874
g2827
sg2875
Nsg1846
Nsg2876
g2827
sg2877
F0.0
sg8
I01
sg2878
Nsg1915
Nsg2001
Nsg2879
g2880
sg1945
F0.5
sg2443
Nsbsg1845
I00
sg2881
g0
(g2802
g2
Ntp3179
Rp3180
(dp3181
g6
g7
sg8
I01
sg2874
g2827
sg9
g4
sg2806
g2807
sg2808
Nsg10
Nsg35
Nsg17
g18
sg2826
g2827
sg20
I01
sg2809
Nsg23
Nsg85
g49
(g50
(I0
tp3182
g52
tp3183
Rp3184
(I1
(I2
tp3185
g59
I00
S'\x00\x00\x00\x00\x00\x00\x00\x00\x00\x00\x00\x00\x00\x00\xf0?'
p3186
tp3187
bsg632
g49
(g50
(I0
tp3188
g52
tp3189
Rp3190
(I1
(I2
tp3191
g59
I00
S'\x00\x00\x00\x00\x00\x00\x00\x00\x00\x00\x00\x00\x00\x00\x00\x00'
p3192
tp3193
bsg24
Nsg25
Nsg11
Nsg2818
g2897
sg28
I00
sg2828
Nsg29
I00
sg30
(dp3194
sg2825
Nsg32
I00
sg2871
I00
sg2002
Nsg2829
Nsg2812
F1.0
sg2862
g2863
sg2813
Nsg2137
g2899
sg2830
g0
(g2831
g2
Ntp3195
Rp3196
(dp3197
g2830
g2903
sg2835
Nsg2836
Nsg128
g0
(g627
g2
Ntp3198
Rp3199
(dp3200
g46
I1
sg47
Nsg64
g7
sg65
(dp3201
sbsg2847
I00
sg2848
g2849
sg2850
Nsg1999
g2851
sg1963
g2852
sg2443
g2909
sbsg33
Nsg2814
g2815
sg1949
I01
sg2816
g2817
sg1827
Nsg2877
F0.0
sg1829
I01
sg2864
g49
(g50
(I0
tp3202
g52
tp3203
Rp3204
(I1
(I2
I2
tp3205
g59
I00
S'\x00\x00\x00\x00\x00\x00\x00\x00\x00\x00\x00\x00\x00\x00\x00\x00\x00\x00\x00\x00\x00\x00\x00\x00\x00\x00\x00\x00\x00\x00\xf0?'
p3206
tp3207
bsg1965
g2923
sg1831
g0
(g1832
g1833
((lp3208
(lp3209
tp3210
tp3211
Rp3212
sg1839
I0
sg2872
g2873
sg2810
I0
sg2875
Nsg2824
I5
sg1845
I01
sg1846
F1.0
sg2876
g2827
sg2821
I00
sg128
g1080
sg2878
Nsg2822
Nsg2820
I00
sg1915
Nsg2001
Nsg2879
g2929
sg36
g889
sg1945
F0.8
sg34
Nsg2443
g0
(g2444
g2
Ntp3213
Rp3214
(dp3215
g2448
I00
sg2449
Nsg2450
g49
(g50
(I0
tp3216
g52
tp3217
Rp3218
(I1
(I2
I2
tp3219
g59
I01
S'\x00\x00\x00\x00\x00\x00\x00\x00\x00\x00\x00\x00\x00\x00\x00\x00\x00\x00\x00\x00\x00\x00\x00\x00\x00\x00\x00\x00\x00\x00\xf0?'
p3220
tp3221
bsg2457
I00
sg2458
F0.1111111111111111
sg2459
I180
sg2460
I00
sbsbsg1846
Nsg33
Nsg2939
g0
(g2802
g2
Ntp3222
Rp3223
(dp3224
g6
g7
sg2806
g2807
sg2808
Nsg20
I01
sg2809
Nsg2810
I0
sg85
Nsg632
Nsg24
Nsg11
Nsg29
I00
sg30
(dp3225
sg32
I00
sg2002
Nsg2812
F0.6
sg2813
Nsg2814
g2815
sg2816
g2817
sg1827
Nsg1829
I01
sg2818
(I0
tp3226
sg1839
I0
sg1845
I01
sg2820
I01
sg2821
I01
sg128
g1080
sg2822
Nsg2823
I2
sg2137
g2696
sg2824
I5
sg9
g4
sg2825
Nsg10
Nsg35
Nsg17
g18
sg2826
g2827
sg23
Nsg25
Nsg28
I00
sg2828
Nsg34
Nsg2829
Nsg2830
g0
(g2831
g2
Ntp3227
Rp3228
(dp3229
g2830
I2
sg2835
Nsg2836
F1.0
sg128
g0
(g42
g2
Ntp3230
Rp3231
(dp3232
g46
I2
sg47
Nsg48
g49
(g50
(I0
tp3233
g52
tp3234
Rp3235
(I1
(I3
I3
tp3236
g59
I00
S'\x00\x00\x00\x00\x00\x00\xf0?\x00\x00\x00\x00\x00\x00\x00\x00\x00\x00\x00\x00\x00\x00\x00\x00\x00\x00\x00\x00\x00\x00\x00\x00\x00\x00\x00\x00\x00\x00\xf0?\x00\x00\x00\x00\x00\x00\x00\x00\x00\x00\x00\x00\x00\x00\x00\x00\x00\x00\x00\x00\x00\x00\x00\x00\x00\x00\x00\x00\x00\x00\xf0?'
p3237
tp3238
bsg64
g7
sg65
(dp3239
sbsg2847
I00
sg2848
g2849
sg2850
Nsg1999
g2851
sg1963
g2852
sg2443
g2854
sbsg2862
g2863
sg36
Nsg33
Nsg1949
I01
sg2864
Nsg1965
g2958
sg1831
g0
(g1832
g1833
((lp3240
(lp3241
tp3242
tp3243
Rp3244
sg2871
I00
sg2872
g2873
sg2874
g2827
sg2875
Nsg1846
Nsg2876
g2827
sg2877
F0.0
sg8
I01
sg2878
Nsg1915
Nsg2001
Nsg2879
g2964
sg1945
F0.5
sg2443
Nsbsg128
Nsg2965
F8.0
sg2966
g2967
sg2968
(g2969
I0
tp3245
sg1915
Nsg2137
g2696
sg34
Nsbag0
(g2744
g2
Ntp3246
Rp3247
(dp3248
g6
g7
sg1913
F0.6
sg9
g4
sg2748
I01
sg8
I01
sg10
Nsg1839
I0
sg35
Nsg2749
F3.4
sg2750
g2696
sg2751
I00
sg2092
F0.0
sg17
g18
sg2752
g2753
sg2698
g0
(g2076
g2
Ntp3249
Rp3250
(dp3251
g6
g7
sg8
I01
sg9
g4
sg10
Nsg2080
g0
(g2081
g2
Ntp3252
Rp3253
(dp3254
g2085
(lp3255
g2087
asg2088
Nsg2089
g2090
sg2091
g2090
sg2092
F8.0
sg2093
g2090
sg2094
g2090
sbsg35
Nsg17
g18
sg2095
Nsg20
I01
sg23
Nsg85
I0
sg632
I0
sg24
Nsg25
Nsg11
Nsg28
I00
sg29
I00
sg30
(dp3256
sg2097
Nsg32
I00
sg2002
Nsg36
Nsg2001
Nsg2098
Nsg33
Nsg1827
Nsg1829
I01
sg2099
g2762
sg2101
V
p3257
sg2103
Nsg1831
g0
(g1832
g1833
((lp3258
(lp3259
tp3260
tp3261
Rp3262
sg1839
I0
sg2109
Nsg1845
I01
sg1846
Nsg2110
F1.2
sg128
g1121
sg2135
I00
sg2136
I00
sg1915
Nsg2137
g2696
sg2139
g2769
sg34
Nsbsg20
I01
sg23
Nsg2770
I00
sg24
Nsg25
Nsg11
Nsg2771
I00
sg28
I00
sg29
I00
sg30
(dp3263
sg2773
(I3
I2
tp3264
sg32
I00
sg2775
I2
sg2002
g1888
sg2776
I01
sg36
g959
sg2001
Nsg2777
g3250
sg2778
g0
(g2076
g2
Ntp3265
Rp3266
(dp3267
g6
g7
sg8
I01
sg9
g4
sg10
Nsg2080
g0
(g2081
g2
Ntp3268
Rp3269
(dp3270
g2085
(lp3271
g2087
asg2088
Nsg2089
g2090
sg2091
g2090
sg2092
F8.0
sg2093
g2090
sg2094
g2090
sbsg35
Nsg17
g18
sg2095
Nsg20
I01
sg23
Nsg85
I1
sg632
I0
sg24
Nsg25
Nsg11
Nsg28
I00
sg29
I00
sg30
(dp3272
sg2097
Nsg32
I00
sg2002
Nsg36
Nsg2001
Nsg2098
Nsg33
Nsg1827
Nsg1829
I01
sg2099
g2787
sg2101
V
p3273
sg2103
Nsg1831
g0
(g1832
g1833
((lp3274
(lp3275
tp3276
tp3277
Rp3278
sg1839
I0
sg2109
Nsg1845
I01
sg1846
Nsg2110
F1.2
sg128
g1094
sg2135
I00
sg2136
I00
sg1915
Nsg2137
g2696
sg2139
g2769
sg34
Nsbsg1827
Nsg2794
I0
sg1829
I01
sg1831
g0
(g1832
g1833
((lp3279
(lp3280
tp3281
tp3282
Rp3283
sg2800
F3.4
sg2801
g0
(g2802
g2
Ntp3284
Rp3285
(dp3286
g6
g7
sg2806
g2807
sg2808
Nsg20
I01
sg2809
Nsg2810
I0
sg85
Nsg632
Nsg24
Nsg11
Nsg29
I00
sg30
(dp3287
sg32
I00
sg2002
Nsg2812
F0.6
sg2813
Nsg2814
g2815
sg2816
g2817
sg1827
Nsg1829
I01
sg2818
(I0
tp3288
sg1839
I0
sg1845
I01
sg2820
I01
sg2821
I01
sg128
g1080
sg2822
Nsg2823
I2
sg2137
g2696
sg2824
I5
sg9
g4
sg2825
Nsg10
Nsg35
Nsg17
g18
sg2826
g2827
sg23
Nsg25
Nsg28
I00
sg2828
Nsg34
Nsg2829
Nsg2830
g0
(g2831
g2
Ntp3289
Rp3290
(dp3291
g2830
I3
sg2835
Nsg2836
F1.0
sg128
g0
(g42
g2
Ntp3292
Rp3293
(dp3294
g46
I2
sg47
Nsg48
g49
(g50
(I0
tp3295
g52
tp3296
Rp3297
(I1
(I3
I3
tp3298
g59
I00
S'\x00\x00\x00\x00\x00\x00\xf0?\x00\x00\x00\x00\x00\x00\x00\x00\x00\x00\x00\x00\x00\x00\x00\x00\x00\x00\x00\x00\x00\x00\x00\x00\x00\x00\x00\x00\x00\x00\xf0\xbf\x00\x00\x00\x00\x00\x00\x00\x00\x00\x00\x00\x00\x00\x00\x00\x00\x00\x00\x00\x00\x00\x00\x00\x00\x00\x00\x00\x00\x00\x00\xf0?'
p3299
tp3300
bsg64
g7
sg65
(dp3301
sbsg2847
I00
sg2848
g2849
sg2850
Nsg1999
g2851
sg1963
g2852
sg2443
g2854
sbsg2862
g2863
sg36
Nsg33
Nsg1949
I01
sg2864
Nsg1965
g2865
sg1831
g0
(g1832
g1833
((lp3302
(lp3303
tp3304
tp3305
Rp3306
sg2871
I00
sg2872
g2873
sg2874
g2827
sg2875
Nsg1846
Nsg2876
g2827
sg2877
F0.0
sg8
I01
sg2878
Nsg1915
Nsg2001
Nsg2879
g2880
sg1945
F0.5
sg2443
Nsbsg1845
I00
sg2881
g0
(g2802
g2
Ntp3307
Rp3308
(dp3309
g6
g7
sg8
I01
sg2874
g2827
sg9
g4
sg2806
g2807
sg2808
Nsg10
Nsg35
Nsg17
g18
sg2826
g2827
sg20
I01
sg2809
Nsg23
Nsg85
g49
(g50
(I0
tp3310
g52
tp3311
Rp3312
(I1
(I2
tp3313
g59
I00
S'\x00\x00\x00\x00\x00\x00\x00\x00\x00\x00\x00\x00\x00\x00\xf0?'
p3314
tp3315
bsg632
g49
(g50
(I0
tp3316
g52
tp3317
Rp3318
(I1
(I2
tp3319
g59
I00
S'\x00\x00\x00\x00\x00\x00\x00\x00\x00\x00\x00\x00\x00\x00\x00\x00'
p3320
tp3321
bsg24
Nsg25
Nsg11
Nsg2818
g2897
sg28
I00
sg2828
Nsg29
I00
sg30
(dp3322
sg2825
Nsg32
I00
sg2871
I00
sg2002
Nsg2829
Nsg2812
F1.0
sg2862
g2863
sg2813
Nsg2137
g2899
sg2830
g0
(g2831
g2
Ntp3323
Rp3324
(dp3325
g2830
g2903
sg2835
Nsg2836
Nsg128
g0
(g627
g2
Ntp3326
Rp3327
(dp3328
g46
I1
sg47
Nsg64
g7
sg65
(dp3329
sbsg2847
I00
sg2848
g2849
sg2850
Nsg1999
g2851
sg1963
g2852
sg2443
g2909
sbsg33
Nsg2814
g2815
sg1949
I01
sg2816
g2817
sg1827
Nsg2877
F0.0
sg1829
I01
sg2864
g49
(g50
(I0
tp3330
g52
tp3331
Rp3332
(I1
(I2
I2
tp3333
g59
I00
S'\x00\x00\x00\x00\x00\x00\x00\x00\x00\x00\x00\x00\x00\x00\x00\x00\x00\x00\x00\x00\x00\x00\x00\x00\x00\x00\x00\x00\x00\x00\xf0?'
p3334
tp3335
bsg1965
g2923
sg1831
g0
(g1832
g1833
((lp3336
(lp3337
tp3338
tp3339
Rp3340
sg1839
I0
sg2872
g2873
sg2810
I0
sg2875
Nsg2824
I5
sg1845
I01
sg1846
F1.0
sg2876
g2827
sg2821
I00
sg128
g1080
sg2878
Nsg2822
Nsg2820
I00
sg1915
Nsg2001
Nsg2879
g2929
sg36
g1567
sg1945
F0.8
sg34
Nsg2443
g0
(g2444
g2
Ntp3341
Rp3342
(dp3343
g2448
I00
sg2449
Nsg2450
g49
(g50
(I0
tp3344
g52
tp3345
Rp3346
(I1
(I2
I2
tp3347
g59
I01
S'\x00\x00\x00\x00\x00\x00\x00\x00\x00\x00\x00\x00\x00\x00\x00\x00\x00\x00\x00\x00\x00\x00\x00\x00\x00\x00\x00\x00\x00\x00\xf0?'
p3348
tp3349
bsg2457
I00
sg2458
F0.1111111111111111
sg2459
I180
sg2460
I00
sbsbsg1846
Nsg33
Nsg2939
g0
(g2802
g2
Ntp3350
Rp3351
(dp3352
g6
g7
sg2806
g2807
sg2808
Nsg20
I01
sg2809
Nsg2810
I0
sg85
Nsg632
Nsg24
Nsg11
Nsg29
I00
sg30
(dp3353
sg32
I00
sg2002
Nsg2812
F0.6
sg2813
Nsg2814
g2815
sg2816
g2817
sg1827
Nsg1829
I01
sg2818
(I0
tp3354
sg1839
I0
sg1845
I01
sg2820
I01
sg2821
I01
sg128
g1080
sg2822
Nsg2823
I2
sg2137
g2696
sg2824
I5
sg9
g4
sg2825
Nsg10
Nsg35
Nsg17
g18
sg2826
g2827
sg23
Nsg25
Nsg28
I00
sg2828
Nsg34
Nsg2829
Nsg2830
g0
(g2831
g2
Ntp3355
Rp3356
(dp3357
g2830
I2
sg2835
Nsg2836
F1.0
sg128
g0
(g42
g2
Ntp3358
Rp3359
(dp3360
g46
I2
sg47
Nsg48
g49
(g50
(I0
tp3361
g52
tp3362
Rp3363
(I1
(I3
I3
tp3364
g59
I00
S'\x00\x00\x00\x00\x00\x00\xf0?\x00\x00\x00\x00\x00\x00\x00\x00\x00\x00\x00\x00\x00\x00\x00\x00\x00\x00\x00\x00\x00\x00\x00\x00\x00\x00\x00\x00\x00\x00\xf0?\x00\x00\x00\x00\x00\x00\x00\x00\x00\x00\x00\x00\x00\x00\x00\x00\x00\x00\x00\x00\x00\x00\x00\x00\x00\x00\x00\x00\x00\x00\xf0?'
p3365
tp3366
bsg64
g7
sg65
(dp3367
sbsg2847
I00
sg2848
g2849
sg2850
Nsg1999
g2851
sg1963
g2852
sg2443
g2854
sbsg2862
g2863
sg36
Nsg33
Nsg1949
I01
sg2864
Nsg1965
g2958
sg1831
g0
(g1832
g1833
((lp3368
(lp3369
tp3370
tp3371
Rp3372
sg2871
I00
sg2872
g2873
sg2874
g2827
sg2875
Nsg1846
Nsg2876
g2827
sg2877
F0.0
sg8
I01
sg2878
Nsg1915
Nsg2001
Nsg2879
g2964
sg1945
F0.5
sg2443
Nsbsg128
Nsg2965
F8.0
sg2966
g2967
sg2968
(g2969
I0
tp3373
sg1915
Nsg2137
g2696
sg34
Nsbasg34
NsS'_minor_tick_kw'
p3374
(dp3375
g2733
I01
sg2735
I00
sg2736
I01
sg2737
I00
ssS'isDefault_minfmt'
p3376
I01
sbsS'_navigate_mode'
p3377
Nsg34
NsS'transAxes'
p3378
g143
sS'_connected'
p3379
(dp3380
sS'fmt_ydata'
p3381
NsS'dataLim'
p3382
g0
(g101
g2
Ntp3383
Rp3384
(dp3385
g46
I0
sg105
g49
(g50
(I0
tp3386
g52
tp3387
Rp3388
(I1
(I2
tp3389
g59
I00
S'71\xb4\xc1\x81o\xc1?\x00\x00\x00\x00\x00\x00\xf0?'
p3390
tp3391
bsg65
(dp3392
sg113
g49
(g50
(I0
tp3393
g52
tp3394
Rp3395
(I1
(I2
I2
tp3396
g59
I00
S'\x00\x00\x00\x00\x00\x00\xf0\x7f\x00\x00\x00\x00\x00\x00\xf0\x7f\x00\x00\x00\x00\x00\x00\xf0\xff\x00\x00\x00\x00\x00\x00\xf0\xff'
p3397
tp3398
bsg120
g49
(g50
(I0
tp3399
g52
tp3400
Rp3401
(I1
(I2
I2
tp3402
g59
I00
S"71\xb4\xc1\x81o\xc1?\x00\x00\x00\x00\x00\x00\x00\x00\x17{\x9f\x08\xe6\xef'@\x00\x00\x00\x00\x00\x80C@"
p3403
tp3404
bsg127
I01
sg64
g7
sbsS'transData'
p3405
g87
sg33
NsS'_sharey'
p3406
NsS'_sharex'
p3407
NsS'_ymargin'
p3408
F0.05
sS'_axes_locator'
p3409
Nsg1831
g0
(g1832
g1833
((lp3410
(lp3411
tp3412
tp3413
Rp3414
sS'numCols'
p3415
I1
sg1846
Nsg1828
NsS'yaxis'
p3416
g0
(cmatplotlib.axis
YAxis
p3417
g2
Ntp3418
Rp3419
(dp3420
g6
g7
sg2627
g0
(g2628
g2
Ntp3421
Rp3422
(dp3423
g2632
g0
(g2633
g2
Ntp3424
Rp3425
(dp3426
g2637
I2
sg2638
I00
sg2639
g2640
sg2641
g49
(g50
(I0
tp3427
g52
tp3428
Rp3429
(I1
(I5
tp3430
g59
I00
S'\x00\x00\x00\x00\x00\x00\xf0?\x00\x00\x00\x00\x00\x00\x00@\x00\x00\x00\x00\x00\x00\x04@\x00\x00\x00\x00\x00\x00\x14@\x00\x00\x00\x00\x00\x00$@'
p3431
tp3432
bsg2648
Nsg2649
g49
(g50
(I0
tp3433
g52
tp3434
Rp3435
(I1
(I10
tp3436
g59
I00
S'\x9a\x99\x99\x99\x99\x99\xb9?\x9a\x99\x99\x99\x99\x99\xc9?\x00\x00\x00\x00\x00\x00\xd0?\x00\x00\x00\x00\x00\x00\xe0?\x00\x00\x00\x00\x00\x00\xf0?\x00\x00\x00\x00\x00\x00\x00@\x00\x00\x00\x00\x00\x00\x04@\x00\x00\x00\x00\x00\x00\x14@\x00\x00\x00\x00\x00\x00$@\x00\x00\x00\x00\x00\x004@'
p3437
tp3438
bsg2656
I00
sg2657
g3419
sbsg2658
g0
(g2659
g2
Ntp3439
Rp3440
(dp3441
g2663
g2664
sg2665
I0
sg2666
I01
sg2667
I00
sg2668
g7
sg2669
I00
sg2670
I4
sg2671
I0
sg2135
I00
sg2672
I01
sg2657
g3419
sbsbsg2673
I00
sg2674
g0
(g2675
g2
Ntp3442
Rp3443
sg9
g4
sg8
I01
sg2678
I00
sg10
Nsg35
Nsg2679
I00
sg17
g18
sg20
I01
sg23
Nsg2680
g0
(g2076
g2
Ntp3444
Rp3445
(dp3446
g6
g7
sg8
I01
sg9
g4
sg10
Nsg2080
g0
(g2081
g2
Ntp3447
Rp3448
(dp3449
g2085
(lp3450
g2087
asg2088
Nsg2089
g2090
sg2091
g2090
sg2092
F8.0
sg2093
g2090
sg2094
g2090
sbsg35
Nsg17
g18
sg2095
Nsg20
I01
sg23
Nsg85
F0.5
sg632
I0
sg24
Nsg25
Nsg11
Nsg28
I00
sg29
I00
sg30
(dp3451
sg2097
Nsg32
I00
sg2002
Nsg36
Nsg2001
Nsg2098
Nsg33
Nsg1827
Nsg1829
I01
sg2099
Vbaseline
p3452
sg2101
V
p3453
sg2103
Nsg1831
g0
(g1832
g1833
((lp3454
(lp3455
tp3456
tp3457
Rp3458
sg1839
I0
sg2109
Nsg1845
I01
sg1846
Nsg2110
F1.2
sg128
g1375
sg2135
I00
sg2136
I00
sg1915
Nsg2137
V0.
p3459
sg2139
Vleft
p3460
sg34
Nsbsg24
Nsg25
Nsg11
Nsg2698
g0
(g2076
g2
Ntp3461
Rp3462
(dp3463
g6
g7
sg8
I01
sg9
g4
sg10
Nsg2080
g0
(g2081
g2
Ntp3464
Rp3465
(dp3466
g2085
(lp3467
g2087
asg2088
Nsg2089
g2090
sg2091
g2090
sg2092
F10.0
sg2093
g2090
sg2094
g2090
sbsg35
Nsg17
g18
sg2095
Nsg20
I01
sg23
Nsg85
F0.5
sg632
I0
sg24
Nsg25
Nsg11
Nsg28
I00
sg29
I00
sg30
(dp3468
sg2097
Nsg32
I00
sg2002
Nsg36
Nsg2001
Nsg2098
Vanchor
p3469
sg33
Nsg1827
Nsg1829
I01
sg2099
Vbottom
p3470
sg2101
V# recorded PSPs
p3471
sg2103
Nsg1831
g0
(g1832
g1833
((lp3472
(lp3473
tp3474
tp3475
Rp3476
sg1839
I0
sg2109
Vvertical
p3477
sg1845
I01
sg1846
Nsg2110
F1.2
sg128
g1157
sg2135
I00
sg2136
I00
sg1915
Nsg2137
g2714
sg2139
Vcenter
p3478
sg34
Nsbsg28
I00
sg2716
I01
sg29
I00
sg30
(dp3479
sg2718
Nsg32
I00
sg2719
g0
(g2628
g2
Ntp3480
Rp3481
(dp3482
g2632
g0
(g2723
g2
Ntp3483
Rp3484
(dp3485
g2657
g3419
sbsg2658
g0
(g2727
g2
Ntp3486
Rp3487
(dp3488
g2657
g3419
sbsbsg2002
g1888
sg2731
(dp3489
g2733
I01
sg2734
I00
sg2735
I00
sg2736
I01
sg2737
I00
ssg2738
I01
sg36
g1209
sg33
Nsg2739
I00
sg2740
I1
sg2741
F4.0
sg2742
(lp3490
g0
(cmatplotlib.axis
YTick
p3491
g2
Ntp3492
Rp3493
(dp3494
g6
g7
sg1913
F0.8
sg9
g4
sg2748
I01
sg8
I01
sg10
Nsg1839
I0
sg35
Nsg2749
F3.5
sg2750
g3459
sg2751
I00
sg2092
F0.0
sg17
g18
sg2752
Vout
p3495
sg2698
g0
(g2076
g2
Ntp3496
Rp3497
(dp3498
g6
g7
sg8
I01
sg9
g4
sg10
Nsg2080
g0
(g2081
g2
Ntp3499
Rp3500
(dp3501
g2085
(lp3502
g2087
asg2088
Nsg2089
g2090
sg2091
g2090
sg2092
F8.0
sg2093
g2090
sg2094
g2090
sbsg35
Nsg17
g18
sg2095
Nsg20
I01
sg23
Nsg85
I0
sg632
I0
sg24
Nsg25
Nsg11
Nsg28
I00
sg29
I00
sg30
(dp3503
sg2097
Nsg32
I00
sg2002
Nsg36
Nsg2001
Nsg2098
Nsg33
Nsg1827
Nsg1829
I01
sg2099
Vcenter_baseline
p3504
sg2101
V
p3505
sg2103
Nsg1831
g0
(g1832
g1833
((lp3506
(lp3507
tp3508
tp3509
Rp3510
sg1839
I0
sg2109
Nsg1845
I01
sg1846
Nsg2110
F1.2
sg128
g1756
sg2135
I00
sg2136
I00
sg1915
Nsg2137
g3459
sg2139
Vright
p3511
sg34
Nsbsg20
I01
sg23
Nsg2770
I00
sg24
Nsg25
Nsg11
Nsg2771
I00
sg28
I00
sg29
I00
sg30
(dp3512
sg2773
(I0
I1
tp3513
sg32
I00
sg2775
F2.01
sg2002
g1888
sg2776
I01
sg36
g1279
sg2001
Nsg2777
g3497
sg2778
g0
(g2076
g2
Ntp3514
Rp3515
(dp3516
g6
g7
sg8
I01
sg9
g4
sg10
Nsg2080
g0
(g2081
g2
Ntp3517
Rp3518
(dp3519
g2085
(lp3520
g2087
asg2088
Nsg2089
g2090
sg2091
g2090
sg2092
F8.0
sg2093
g2090
sg2094
g2090
sbsg35
Nsg17
g18
sg2095
Nsg20
I01
sg23
Nsg85
I0
sg632
I1
sg24
Nsg25
Nsg11
Nsg28
I00
sg29
I00
sg30
(dp3521
sg2097
Nsg32
I00
sg2002
Nsg36
Nsg2001
Nsg2098
Nsg33
Nsg1827
Nsg1829
I01
sg2099
g3504
sg2101
V
p3522
sg2103
Nsg1831
g0
(g1832
g1833
((lp3523
(lp3524
tp3525
tp3526
Rp3527
sg1839
I0
sg2109
Nsg1845
I01
sg1846
Nsg2110
F1.2
sg128
g1792
sg2135
I00
sg2136
I00
sg1915
Nsg2137
g3459
sg2139
Vleft
p3528
sg34
Nsbsg1827
Nsg2794
I0
sg1829
I01
sg1831
g0
(g1832
g1833
((lp3529
(lp3530
tp3531
tp3532
Rp3533
sg2800
F3.5
sg2801
g0
(g2802
g2
Ntp3534
Rp3535
(dp3536
g6
g7
sg2806
g2807
sg2808
Nsg20
I01
sg2809
Nsg2810
I0
sg85
Nsg632
Nsg24
Nsg11
Nsg29
I00
sg30
(dp3537
sg32
I00
sg2002
Nsg2812
F0.8
sg2813
Nsg2814
g2815
sg2816
g2817
sg1827
Nsg1829
I01
sg2818
(I0
tp3538
sg1839
I0
sg1845
I01
sg2820
I01
sg2821
I01
sg128
g83
sg2822
Nsg2823
F2.01
sg2137
g3459
sg2824
I5
sg9
g4
sg2825
Nsg10
Nsg35
Nsg17
g18
sg2826
g2827
sg23
Nsg25
Nsg28
I00
sg2828
Nsg34
Nsg2829
Nsg2830
g0
(g2831
g2
Ntp3539
Rp3540
(dp3541
g2830
I0
sg2835
Nsg2836
F1.0
sg128
g0
(g42
g2
Ntp3542
Rp3543
(dp3544
g46
I2
sg47
Nsg48
g49
(g50
(I0
tp3545
g52
tp3546
Rp3547
(I1
(I3
I3
tp3548
g59
I00
S'\x00\x00\x00\x00\x00\x00\xf0\xbf\x00\x00\x00\x00\x00\x00\x00\x00\x00\x00\x00\x00\x00\x00\x00\x00\x00\x00\x00\x00\x00\x00\x00\x00\x00\x00\x00\x00\x00\x00\xf0?\x00\x00\x00\x00\x00\x00\x00\x00\x00\x00\x00\x00\x00\x00\x00\x00\x00\x00\x00\x00\x00\x00\x00\x00\x00\x00\x00\x00\x00\x00\xf0?'
p3549
tp3550
bsg64
g7
sg65
(dp3551
sbsg2847
I00
sg2848
g2849
sg2850
Nsg1999
g2851
sg1963
g2852
sg2443
g0
(g2444
g2
Ntp3552
Rp3553
(dp3554
g2448
I00
sg2449
Nsg2450
g49
(g50
(I0
tp3555
g52
tp3556
Rp3557
(I1
(I2
I2
tp3558
g59
I00
S'\x00\x00\x00\x00\x00\x00\x00\x00\x00\x00\x00\x00\x00\x00\x00\x00\x00\x00\x00\x00\x00\x00\xf0?\x00\x00\x00\x00\x00\x00\x00\x00'
p3559
tp3560
bsg2457
I00
sg2458
F0.1111111111111111
sg2459
I1
sg2460
I00
sbsbsg2862
g2863
sg36
Nsg33
Nsg1949
I01
sg2864
Nsg1965
VNone
p3561
sg1831
g0
(g1832
g1833
((lp3562
(lp3563
tp3564
tp3565
Rp3566
sg2871
I00
sg2872
g2873
sg2874
g2827
sg2875
Nsg1846
Nsg2876
g2827
sg2877
F0.0
sg8
I01
sg2878
Nsg1915
Nsg2001
Nsg2879
(I0
tp3567
sg1945
F0.5
sg2443
Nsbsg1845
I00
sg2881
g0
(g2802
g2
Ntp3568
Rp3569
(dp3570
g6
g7
sg8
I01
sg2874
g2827
sg9
g4
sg2806
g2807
sg2808
Nsg10
Nsg35
Nsg17
g18
sg2826
g2827
sg20
I01
sg2809
Nsg23
Nsg85
g49
(g50
(I0
tp3571
g52
tp3572
Rp3573
(I1
(I2
tp3574
g59
I00
S'\x00\x00\x00\x00\x00\x00\x00\x00\x00\x00\x00\x00\x00\x00\x00\x00'
p3575
tp3576
bsg632
g49
(g50
(I0
tp3577
g52
tp3578
Rp3579
(I1
(I2
tp3580
g59
I00
S'\x00\x00\x00\x00\x00\x00\x00\x00\x00\x00\x00\x00\x00\x00\xf0?'
p3581
tp3582
bsg24
Nsg25
Nsg11
Nsg2818
(I0
I1
tp3583
sg28
I00
sg2828
Nsg29
I00
sg30
(dp3584
sg2825
Nsg32
I00
sg2871
I00
sg2002
Nsg2829
Nsg2812
F1.0
sg2862
g2863
sg2813
Nsg2137
g2899
sg2830
g0
(g2831
g2
Ntp3585
Rp3586
(dp3587
g2830
g2903
sg2835
Nsg2836
Nsg128
g0
(g627
g2
Ntp3588
Rp3589
(dp3590
g46
I1
sg47
Nsg64
g7
sg65
(dp3591
sbsg2847
I00
sg2848
g2849
sg2850
Nsg1999
g2851
sg1963
g2852
sg2443
g2909
sbsg33
Nsg2814
g2815
sg1949
I01
sg2816
g2817
sg1827
Nsg2877
F0.0
sg1829
I01
sg2864
g49
(g50
(I0
tp3592
g52
tp3593
Rp3594
(I1
(I2
I2
tp3595
g59
I00
S'\x00\x00\x00\x00\x00\x00\x00\x00\x00\x00\x00\x00\x00\x00\x00\x00\x00\x00\x00\x00\x00\x00\xf0?\x00\x00\x00\x00\x00\x00\x00\x00'
p3596
tp3597
bsg1965
g2923
sg1831
g0
(g1832
g1833
((lp3598
(lp3599
tp3600
tp3601
Rp3602
sg1839
I0
sg2872
g2873
sg2810
I0
sg2875
Nsg2824
I5
sg1845
I01
sg1846
F1.0
sg2876
g2827
sg2821
I00
sg128
g83
sg2878
Nsg2822
Nsg2820
I00
sg1915
Nsg2001
Nsg2879
(I0
I0
tp3603
sg36
g1497
sg1945
F0.8
sg34
Nsg2443
g0
(g2444
g2
Ntp3604
Rp3605
(dp3606
g2448
I00
sg2449
Nsg2450
g49
(g50
(I0
tp3607
g52
tp3608
Rp3609
(I1
(I2
I2
tp3610
g59
I01
S'\x00\x00\x00\x00\x00\x00\x00\x00\x00\x00\x00\x00\x00\x00\xf0?\x00\x00\x00\x00\x00\x00\x00\x00\x00\x00\x00\x00\x00\x00\x00\x00'
p3611
tp3612
bsg2457
I00
sg2458
F0.1111111111111111
sg2459
I180
sg2460
I00
sbsbsg1846
Nsg33
Nsg2939
g0
(g2802
g2
Ntp3613
Rp3614
(dp3615
g6
g7
sg2806
g2807
sg2808
Nsg20
I01
sg2809
Nsg2810
I0
sg85
Nsg632
Nsg24
Nsg11
Nsg29
I00
sg30
(dp3616
sg32
I00
sg2002
Nsg2812
F0.8
sg2813
Nsg2814
g2815
sg2816
g2817
sg1827
Nsg1829
I01
sg2818
(I1
tp3617
sg1839
I0
sg1845
I01
sg2820
I01
sg2821
I01
sg128
g83
sg2822
Nsg2823
F2.01
sg2137
g3459
sg2824
I5
sg9
g4
sg2825
Nsg10
Nsg35
Nsg17
g18
sg2826
g2827
sg23
Nsg25
Nsg28
I00
sg2828
Nsg34
Nsg2829
Nsg2830
g0
(g2831
g2
Ntp3618
Rp3619
(dp3620
g2830
I1
sg2835
Nsg2836
F1.0
sg128
g0
(g42
g2
Ntp3621
Rp3622
(dp3623
g46
I2
sg47
Nsg48
g49
(g50
(I0
tp3624
g52
tp3625
Rp3626
(I1
(I3
I3
tp3627
g59
I00
S'\x00\x00\x00\x00\x00\x00\xf0?\x00\x00\x00\x00\x00\x00\x00\x00\x00\x00\x00\x00\x00\x00\x00\x00\x00\x00\x00\x00\x00\x00\x00\x00\x00\x00\x00\x00\x00\x00\xf0?\x00\x00\x00\x00\x00\x00\x00\x00\x00\x00\x00\x00\x00\x00\x00\x00\x00\x00\x00\x00\x00\x00\x00\x00\x00\x00\x00\x00\x00\x00\xf0?'
p3628
tp3629
bsg64
g7
sg65
(dp3630
sbsg2847
I00
sg2848
g2849
sg2850
Nsg1999
g2851
sg1963
g2852
sg2443
g3553
sbsg2862
g2863
sg36
Nsg33
Nsg1949
I01
sg2864
Nsg1965
VNone
p3631
sg1831
g0
(g1832
g1833
((lp3632
(lp3633
tp3634
tp3635
Rp3636
sg2871
I00
sg2872
g2873
sg2874
g2827
sg2875
Nsg1846
Nsg2876
g2827
sg2877
F0.0
sg8
I01
sg2878
Nsg1915
Nsg2001
Nsg2879
(I0
tp3637
sg1945
F0.5
sg2443
Nsbsg128
Nsg2965
F8.0
sg2966
Vytick
p3638
sg2968
(g2969
I0
tp3639
sg1915
Nsg2137
g3459
sg34
Nsbag0
(g3491
g2
Ntp3640
Rp3641
(dp3642
g6
g7
sg1913
F0.8
sg9
g4
sg2748
I01
sg8
I01
sg10
Nsg1839
I0
sg35
Nsg2749
F3.5
sg2750
g3459
sg2751
I00
sg2092
F0.0
sg17
g18
sg2752
g3495
sg2698
g0
(g2076
g2
Ntp3643
Rp3644
(dp3645
g6
g7
sg8
I01
sg9
g4
sg10
Nsg2080
g0
(g2081
g2
Ntp3646
Rp3647
(dp3648
g2085
(lp3649
g2087
asg2088
Nsg2089
g2090
sg2091
g2090
sg2092
F8.0
sg2093
g2090
sg2094
g2090
sbsg35
Nsg17
g18
sg2095
Nsg20
I01
sg23
Nsg85
I0
sg632
I0
sg24
Nsg25
Nsg11
Nsg28
I00
sg29
I00
sg30
(dp3650
sg2097
Nsg32
I00
sg2002
Nsg36
Nsg2001
Nsg2098
Nsg33
Nsg1827
Nsg1829
I01
sg2099
g3504
sg2101
V
p3651
sg2103
Nsg1831
g0
(g1832
g1833
((lp3652
(lp3653
tp3654
tp3655
Rp3656
sg1839
I0
sg2109
Nsg1845
I01
sg1846
Nsg2110
F1.2
sg128
g1783
sg2135
I00
sg2136
I00
sg1915
Nsg2137
g3459
sg2139
g3511
sg34
Nsbsg20
I01
sg23
Nsg2770
I00
sg24
Nsg25
Nsg11
Nsg2771
I00
sg28
I00
sg29
I00
sg30
(dp3657
sg2773
(I0
I1
tp3658
sg32
I00
sg2775
F2.01
sg2002
g1888
sg2776
I01
sg36
g1707
sg2001
Nsg2777
g3644
sg2778
g0
(g2076
g2
Ntp3659
Rp3660
(dp3661
g6
g7
sg8
I01
sg9
g4
sg10
Nsg2080
g0
(g2081
g2
Ntp3662
Rp3663
(dp3664
g2085
(lp3665
g2087
asg2088
Nsg2089
g2090
sg2091
g2090
sg2092
F8.0
sg2093
g2090
sg2094
g2090
sbsg35
Nsg17
g18
sg2095
Nsg20
I01
sg23
Nsg85
I0
sg632
I1
sg24
Nsg25
Nsg11
Nsg28
I00
sg29
I00
sg30
(dp3666
sg2097
Nsg32
I00
sg2002
Nsg36
Nsg2001
Nsg2098
Nsg33
Nsg1827
Nsg1829
I01
sg2099
g3504
sg2101
V
p3667
sg2103
Nsg1831
g0
(g1832
g1833
((lp3668
(lp3669
tp3670
tp3671
Rp3672
sg1839
I0
sg2109
Nsg1845
I01
sg1846
Nsg2110
F1.2
sg128
g1810
sg2135
I00
sg2136
I00
sg1915
Nsg2137
g3459
sg2139
g3528
sg34
Nsbsg1827
Nsg2794
I0
sg1829
I01
sg1831
g0
(g1832
g1833
((lp3673
(lp3674
tp3675
tp3676
Rp3677
sg2800
F3.5
sg2801
g0
(g2802
g2
Ntp3678
Rp3679
(dp3680
g6
g7
sg2806
g2807
sg2808
Nsg20
I01
sg2809
Nsg2810
I0
sg85
Nsg632
Nsg24
Nsg11
Nsg29
I00
sg30
(dp3681
sg32
I00
sg2002
Nsg2812
F0.8
sg2813
Nsg2814
g2815
sg2816
g2817
sg1827
Nsg1829
I01
sg2818
g3538
sg1839
I0
sg1845
I01
sg2820
I01
sg2821
I01
sg128
g83
sg2822
Nsg2823
F2.01
sg2137
g3459
sg2824
I5
sg9
g4
sg2825
Nsg10
Nsg35
Nsg17
g18
sg2826
g2827
sg23
Nsg25
Nsg28
I00
sg2828
Nsg34
Nsg2829
Nsg2830
g0
(g2831
g2
Ntp3682
Rp3683
(dp3684
g2830
I0
sg2835
Nsg2836
F1.0
sg128
g0
(g42
g2
Ntp3685
Rp3686
(dp3687
g46
I2
sg47
Nsg48
g49
(g50
(I0
tp3688
g52
tp3689
Rp3690
(I1
(I3
I3
tp3691
g59
I00
S'\x00\x00\x00\x00\x00\x00\xf0\xbf\x00\x00\x00\x00\x00\x00\x00\x00\x00\x00\x00\x00\x00\x00\x00\x00\x00\x00\x00\x00\x00\x00\x00\x00\x00\x00\x00\x00\x00\x00\xf0?\x00\x00\x00\x00\x00\x00\x00\x00\x00\x00\x00\x00\x00\x00\x00\x00\x00\x00\x00\x00\x00\x00\x00\x00\x00\x00\x00\x00\x00\x00\xf0?'
p3692
tp3693
bsg64
g7
sg65
(dp3694
sbsg2847
I00
sg2848
g2849
sg2850
Nsg1999
g2851
sg1963
g2852
sg2443
g3553
sbsg2862
g2863
sg36
Nsg33
Nsg1949
I01
sg2864
Nsg1965
g3561
sg1831
g0
(g1832
g1833
((lp3695
(lp3696
tp3697
tp3698
Rp3699
sg2871
I00
sg2872
g2873
sg2874
g2827
sg2875
Nsg1846
Nsg2876
g2827
sg2877
F0.0
sg8
I01
sg2878
Nsg1915
Nsg2001
Nsg2879
(I0
tp3700
sg1945
F0.5
sg2443
Nsbsg1845
I00
sg2881
g0
(g2802
g2
Ntp3701
Rp3702
(dp3703
g6
g7
sg8
I01
sg2874
g2827
sg9
g4
sg2806
g2807
sg2808
Nsg10
Nsg35
Nsg17
g18
sg2826
g2827
sg20
I01
sg2809
Nsg23
Nsg85
g49
(g50
(I0
tp3704
g52
tp3705
Rp3706
(I1
(I2
tp3707
g59
I00
S'\x00\x00\x00\x00\x00\x00\x00\x00\x00\x00\x00\x00\x00\x00\x00\x00'
p3708
tp3709
bsg632
g49
(g50
(I0
tp3710
g52
tp3711
Rp3712
(I1
(I2
tp3713
g59
I00
S'\x00\x00\x00\x00\x00\x00\x00\x00\x00\x00\x00\x00\x00\x00\xf0?'
p3714
tp3715
bsg24
Nsg25
Nsg11
Nsg2818
g3583
sg28
I00
sg2828
Nsg29
I00
sg30
(dp3716
sg2825
Nsg32
I00
sg2871
I00
sg2002
Nsg2829
Nsg2812
F1.0
sg2862
g2863
sg2813
Nsg2137
g2899
sg2830
g0
(g2831
g2
Ntp3717
Rp3718
(dp3719
g2830
g2903
sg2835
Nsg2836
Nsg128
g0
(g627
g2
Ntp3720
Rp3721
(dp3722
g46
I1
sg47
Nsg64
g7
sg65
(dp3723
sbsg2847
I00
sg2848
g2849
sg2850
Nsg1999
g2851
sg1963
g2852
sg2443
g2909
sbsg33
Nsg2814
g2815
sg1949
I01
sg2816
g2817
sg1827
Nsg2877
F0.0
sg1829
I01
sg2864
g49
(g50
(I0
tp3724
g52
tp3725
Rp3726
(I1
(I2
I2
tp3727
g59
I00
S'\x00\x00\x00\x00\x00\x00\x00\x00\x00\x00\x00\x00\x00\x00\x00\x00\x00\x00\x00\x00\x00\x00\xf0?\x00\x00\x00\x00\x00\x00\x00\x00'
p3728
tp3729
bsg1965
g2923
sg1831
g0
(g1832
g1833
((lp3730
(lp3731
tp3732
tp3733
Rp3734
sg1839
I0
sg2872
g2873
sg2810
I0
sg2875
Nsg2824
I5
sg1845
I01
sg1846
F1.0
sg2876
g2827
sg2821
I00
sg128
g83
sg2878
Nsg2822
Nsg2820
I00
sg1915
Nsg2001
Nsg2879
g3603
sg36
g248
sg1945
F0.8
sg34
Nsg2443
g0
(g2444
g2
Ntp3735
Rp3736
(dp3737
g2448
I00
sg2449
Nsg2450
g49
(g50
(I0
tp3738
g52
tp3739
Rp3740
(I1
(I2
I2
tp3741
g59
I01
S'\x00\x00\x00\x00\x00\x00\x00\x00\x00\x00\x00\x00\x00\x00\xf0?\x00\x00\x00\x00\x00\x00\x00\x00\x00\x00\x00\x00\x00\x00\x00\x00'
p3742
tp3743
bsg2457
I00
sg2458
F0.1111111111111111
sg2459
I180
sg2460
I00
sbsbsg1846
Nsg33
Nsg2939
g0
(g2802
g2
Ntp3744
Rp3745
(dp3746
g6
g7
sg2806
g2807
sg2808
Nsg20
I01
sg2809
Nsg2810
I0
sg85
Nsg632
Nsg24
Nsg11
Nsg29
I00
sg30
(dp3747
sg32
I00
sg2002
Nsg2812
F0.8
sg2813
Nsg2814
g2815
sg2816
g2817
sg1827
Nsg1829
I01
sg2818
g3617
sg1839
I0
sg1845
I01
sg2820
I01
sg2821
I01
sg128
g83
sg2822
Nsg2823
F2.01
sg2137
g3459
sg2824
I5
sg9
g4
sg2825
Nsg10
Nsg35
Nsg17
g18
sg2826
g2827
sg23
Nsg25
Nsg28
I00
sg2828
Nsg34
Nsg2829
Nsg2830
g0
(g2831
g2
Ntp3748
Rp3749
(dp3750
g2830
I1
sg2835
Nsg2836
F1.0
sg128
g0
(g42
g2
Ntp3751
Rp3752
(dp3753
g46
I2
sg47
Nsg48
g49
(g50
(I0
tp3754
g52
tp3755
Rp3756
(I1
(I3
I3
tp3757
g59
I00
S'\x00\x00\x00\x00\x00\x00\xf0?\x00\x00\x00\x00\x00\x00\x00\x00\x00\x00\x00\x00\x00\x00\x00\x00\x00\x00\x00\x00\x00\x00\x00\x00\x00\x00\x00\x00\x00\x00\xf0?\x00\x00\x00\x00\x00\x00\x00\x00\x00\x00\x00\x00\x00\x00\x00\x00\x00\x00\x00\x00\x00\x00\x00\x00\x00\x00\x00\x00\x00\x00\xf0?'
p3758
tp3759
bsg64
g7
sg65
(dp3760
sbsg2847
I00
sg2848
g2849
sg2850
Nsg1999
g2851
sg1963
g2852
sg2443
g3553
sbsg2862
g2863
sg36
Nsg33
Nsg1949
I01
sg2864
Nsg1965
g3631
sg1831
g0
(g1832
g1833
((lp3761
(lp3762
tp3763
tp3764
Rp3765
sg2871
I00
sg2872
g2873
sg2874
g2827
sg2875
Nsg1846
Nsg2876
g2827
sg2877
F0.0
sg8
I01
sg2878
Nsg1915
Nsg2001
Nsg2879
(I0
tp3766
sg1945
F0.5
sg2443
Nsbsg128
Nsg2965
F8.0
sg2966
g3638
sg2968
(g2969
I0
tp3767
sg1915
Nsg2137
g3459
sg34
Nsbasg3099
I01
sg1820
g0
(g1821
g2
Ntp3768
Rp3769
(dp3770
g1825
g1826
sbsg1827
Nsg1829
I01
sg3103
I01
sg1831
g0
(g1832
g1833
((lp3771
(lp3772
tp3773
tp3774
Rp3775
sg1839
I0
sg3109
I1
sg3110
Nsg1845
I00
sg1846
Nsg3111
Vleft
p3776
sg128
Nsg3113
Nsg3114
Vleft
p3777
sg1915
Nsg2001
Nsg2824
I15
sg3116
(lp3778
g0
(g3491
g2
Ntp3779
Rp3780
(dp3781
g6
g7
sg1913
F0.6
sg9
g4
sg2748
I01
sg8
I01
sg10
Nsg1839
I0
sg35
Nsg2749
F3.4
sg2750
g3459
sg2751
I00
sg2092
F0.0
sg17
g18
sg2752
g3495
sg2698
g0
(g2076
g2
Ntp3782
Rp3783
(dp3784
g6
g7
sg8
I01
sg9
g4
sg10
Nsg2080
g0
(g2081
g2
Ntp3785
Rp3786
(dp3787
g2085
(lp3788
g2087
asg2088
Nsg2089
g2090
sg2091
g2090
sg2092
F8.0
sg2093
g2090
sg2094
g2090
sbsg35
Nsg17
g18
sg2095
Nsg20
I01
sg23
Nsg85
I0
sg632
I0
sg24
Nsg25
Nsg11
Nsg28
I00
sg29
I00
sg30
(dp3789
sg2097
Nsg32
I00
sg2002
Nsg36
Nsg2001
Nsg2098
Nsg33
Nsg1827
Nsg1829
I01
sg2099
g3504
sg2101
V
p3790
sg2103
Nsg1831
g0
(g1832
g1833
((lp3791
(lp3792
tp3793
tp3794
Rp3795
sg1839
I0
sg2109
Nsg1845
I01
sg1846
Nsg2110
F1.2
sg128
g1774
sg2135
I00
sg2136
I00
sg1915
Nsg2137
g3459
sg2139
g3511
sg34
Nsbsg20
I01
sg23
Nsg2770
I00
sg24
Nsg25
Nsg11
Nsg2771
I00
sg28
I00
sg29
I00
sg30
(dp3796
sg2773
(I0
I1
tp3797
sg32
I00
sg2775
I2
sg2002
g1888
sg2776
I01
sg36
g388
sg2001
Nsg2777
g3783
sg2778
g0
(g2076
g2
Ntp3798
Rp3799
(dp3800
g6
g7
sg8
I01
sg9
g4
sg10
Nsg2080
g0
(g2081
g2
Ntp3801
Rp3802
(dp3803
g2085
(lp3804
g2087
asg2088
Nsg2089
g2090
sg2091
g2090
sg2092
F8.0
sg2093
g2090
sg2094
g2090
sbsg35
Nsg17
g18
sg2095
Nsg20
I01
sg23
Nsg85
I0
sg632
I1
sg24
Nsg25
Nsg11
Nsg28
I00
sg29
I00
sg30
(dp3805
sg2097
Nsg32
I00
sg2002
Nsg36
Nsg2001
Nsg2098
Nsg33
Nsg1827
Nsg1829
I01
sg2099
g3504
sg2101
V
p3806
sg2103
Nsg1831
g0
(g1832
g1833
((lp3807
(lp3808
tp3809
tp3810
Rp3811
sg1839
I0
sg2109
Nsg1845
I01
sg1846
Nsg2110
F1.2
sg128
g77
sg2135
I00
sg2136
I00
sg1915
Nsg2137
g3459
sg2139
g3528
sg34
Nsbsg1827
Nsg2794
I0
sg1829
I01
sg1831
g0
(g1832
g1833
((lp3812
(lp3813
tp3814
tp3815
Rp3816
sg2800
F3.4
sg2801
g0
(g2802
g2
Ntp3817
Rp3818
(dp3819
g6
g7
sg2806
g2807
sg2808
Nsg20
I01
sg2809
Nsg2810
I0
sg85
Nsg632
Nsg24
Nsg11
Nsg29
I00
sg30
(dp3820
sg32
I00
sg2002
Nsg2812
F0.6
sg2813
Nsg2814
g2815
sg2816
g2817
sg1827
Nsg1829
I01
sg2818
g3538
sg1839
I0
sg1845
I01
sg2820
I01
sg2821
I01
sg128
g83
sg2822
Nsg2823
I2
sg2137
g3459
sg2824
I5
sg9
g4
sg2825
Nsg10
Nsg35
Nsg17
g18
sg2826
g2827
sg23
Nsg25
Nsg28
I00
sg2828
Nsg34
Nsg2829
Nsg2830
g0
(g2831
g2
Ntp3821
Rp3822
(dp3823
g2830
I0
sg2835
Nsg2836
F1.0
sg128
g0
(g42
g2
Ntp3824
Rp3825
(dp3826
g46
I2
sg47
Nsg48
g49
(g50
(I0
tp3827
g52
tp3828
Rp3829
(I1
(I3
I3
tp3830
g59
I00
S'\x00\x00\x00\x00\x00\x00\xf0\xbf\x00\x00\x00\x00\x00\x00\x00\x00\x00\x00\x00\x00\x00\x00\x00\x00\x00\x00\x00\x00\x00\x00\x00\x00\x00\x00\x00\x00\x00\x00\xf0?\x00\x00\x00\x00\x00\x00\x00\x00\x00\x00\x00\x00\x00\x00\x00\x00\x00\x00\x00\x00\x00\x00\x00\x00\x00\x00\x00\x00\x00\x00\xf0?'
p3831
tp3832
bsg64
g7
sg65
(dp3833
sbsg2847
I00
sg2848
g2849
sg2850
Nsg1999
g2851
sg1963
g2852
sg2443
g3553
sbsg2862
g2863
sg36
Nsg33
Nsg1949
I01
sg2864
Nsg1965
g3561
sg1831
g0
(g1832
g1833
((lp3834
(lp3835
tp3836
tp3837
Rp3838
sg2871
I00
sg2872
g2873
sg2874
g2827
sg2875
Nsg1846
Nsg2876
g2827
sg2877
F0.0
sg8
I01
sg2878
Nsg1915
Nsg2001
Nsg2879
(I0
tp3839
sg1945
F0.5
sg2443
Nsbsg1845
I00
sg2881
g0
(g2802
g2
Ntp3840
Rp3841
(dp3842
g6
g7
sg8
I01
sg2874
g2827
sg9
g4
sg2806
g2807
sg2808
Nsg10
Nsg35
Nsg17
g18
sg2826
g2827
sg20
I01
sg2809
Nsg23
Nsg85
g49
(g50
(I0
tp3843
g52
tp3844
Rp3845
(I1
(I2
tp3846
g59
I00
S'\x00\x00\x00\x00\x00\x00\x00\x00\x00\x00\x00\x00\x00\x00\x00\x00'
p3847
tp3848
bsg632
g49
(g50
(I0
tp3849
g52
tp3850
Rp3851
(I1
(I2
tp3852
g59
I00
S'\x00\x00\x00\x00\x00\x00\x00\x00\x00\x00\x00\x00\x00\x00\xf0?'
p3853
tp3854
bsg24
Nsg25
Nsg11
Nsg2818
g3583
sg28
I00
sg2828
Nsg29
I00
sg30
(dp3855
sg2825
Nsg32
I00
sg2871
I00
sg2002
Nsg2829
Nsg2812
F1.0
sg2862
g2863
sg2813
Nsg2137
g2899
sg2830
g0
(g2831
g2
Ntp3856
Rp3857
(dp3858
g2830
g2903
sg2835
Nsg2836
Nsg128
g0
(g627
g2
Ntp3859
Rp3860
(dp3861
g46
I1
sg47
Nsg64
g7
sg65
(dp3862
sbsg2847
I00
sg2848
g2849
sg2850
Nsg1999
g2851
sg1963
g2852
sg2443
g2909
sbsg33
Nsg2814
g2815
sg1949
I01
sg2816
g2817
sg1827
Nsg2877
F0.0
sg1829
I01
sg2864
g49
(g50
(I0
tp3863
g52
tp3864
Rp3865
(I1
(I2
I2
tp3866
g59
I00
S'\x00\x00\x00\x00\x00\x00\x00\x00\x00\x00\x00\x00\x00\x00\x00\x00\x00\x00\x00\x00\x00\x00\xf0?\x00\x00\x00\x00\x00\x00\x00\x00'
p3867
tp3868
bsg1965
g2923
sg1831
g0
(g1832
g1833
((lp3869
(lp3870
tp3871
tp3872
Rp3873
sg1839
I0
sg2872
g2873
sg2810
I0
sg2875
Nsg2824
I5
sg1845
I01
sg1846
F1.0
sg2876
g2827
sg2821
I00
sg128
g83
sg2878
Nsg2822
Nsg2820
I00
sg1915
Nsg2001
Nsg2879
g3603
sg36
g1054
sg1945
F0.8
sg34
Nsg2443
g0
(g2444
g2
Ntp3874
Rp3875
(dp3876
g2448
I00
sg2449
Nsg2450
g49
(g50
(I0
tp3877
g52
tp3878
Rp3879
(I1
(I2
I2
tp3880
g59
I01
S'\x00\x00\x00\x00\x00\x00\x00\x00\x00\x00\x00\x00\x00\x00\xf0?\x00\x00\x00\x00\x00\x00\x00\x00\x00\x00\x00\x00\x00\x00\x00\x00'
p3881
tp3882
bsg2457
I00
sg2458
F0.1111111111111111
sg2459
I180
sg2460
I00
sbsbsg1846
Nsg33
Nsg2939
g0
(g2802
g2
Ntp3883
Rp3884
(dp3885
g6
g7
sg2806
g2807
sg2808
Nsg20
I01
sg2809
Nsg2810
I0
sg85
Nsg632
Nsg24
Nsg11
Nsg29
I00
sg30
(dp3886
sg32
I00
sg2002
Nsg2812
F0.6
sg2813
Nsg2814
g2815
sg2816
g2817
sg1827
Nsg1829
I01
sg2818
g3617
sg1839
I0
sg1845
I01
sg2820
I01
sg2821
I01
sg128
g83
sg2822
Nsg2823
I2
sg2137
g3459
sg2824
I5
sg9
g4
sg2825
Nsg10
Nsg35
Nsg17
g18
sg2826
g2827
sg23
Nsg25
Nsg28
I00
sg2828
Nsg34
Nsg2829
Nsg2830
g0
(g2831
g2
Ntp3887
Rp3888
(dp3889
g2830
I1
sg2835
Nsg2836
F1.0
sg128
g0
(g42
g2
Ntp3890
Rp3891
(dp3892
g46
I2
sg47
Nsg48
g49
(g50
(I0
tp3893
g52
tp3894
Rp3895
(I1
(I3
I3
tp3896
g59
I00
S'\x00\x00\x00\x00\x00\x00\xf0?\x00\x00\x00\x00\x00\x00\x00\x00\x00\x00\x00\x00\x00\x00\x00\x00\x00\x00\x00\x00\x00\x00\x00\x00\x00\x00\x00\x00\x00\x00\xf0?\x00\x00\x00\x00\x00\x00\x00\x00\x00\x00\x00\x00\x00\x00\x00\x00\x00\x00\x00\x00\x00\x00\x00\x00\x00\x00\x00\x00\x00\x00\xf0?'
p3897
tp3898
bsg64
g7
sg65
(dp3899
sbsg2847
I00
sg2848
g2849
sg2850
Nsg1999
g2851
sg1963
g2852
sg2443
g3553
sbsg2862
g2863
sg36
Nsg33
Nsg1949
I01
sg2864
Nsg1965
g3631
sg1831
g0
(g1832
g1833
((lp3900
(lp3901
tp3902
tp3903
Rp3904
sg2871
I00
sg2872
g2873
sg2874
g2827
sg2875
Nsg1846
Nsg2876
g2827
sg2877
F0.0
sg8
I01
sg2878
Nsg1915
Nsg2001
Nsg2879
(I0
tp3905
sg1945
F0.5
sg2443
Nsbsg128
Nsg2965
F8.0
sg2966
g3638
sg2968
(g2969
I0
tp3906
sg1915
Nsg2137
g3459
sg34
Nsbag0
(g3491
g2
Ntp3907
Rp3908
(dp3909
g6
g7
sg1913
F0.6
sg9
g4
sg2748
I01
sg8
I01
sg10
Nsg1839
I0
sg35
Nsg2749
F3.4
sg2750
g3459
sg2751
I00
sg2092
F0.0
sg17
g18
sg2752
g3495
sg2698
g0
(g2076
g2
Ntp3910
Rp3911
(dp3912
g6
g7
sg8
I01
sg9
g4
sg10
Nsg2080
g0
(g2081
g2
Ntp3913
Rp3914
(dp3915
g2085
(lp3916
g2087
asg2088
Nsg2089
g2090
sg2091
g2090
sg2092
F8.0
sg2093
g2090
sg2094
g2090
sbsg35
Nsg17
g18
sg2095
Nsg20
I01
sg23
Nsg85
I0
sg632
I0
sg24
Nsg25
Nsg11
Nsg28
I00
sg29
I00
sg30
(dp3917
sg2097
Nsg32
I00
sg2002
Nsg36
Nsg2001
Nsg2098
Nsg33
Nsg1827
Nsg1829
I01
sg2099
g3504
sg2101
V
p3918
sg2103
Nsg1831
g0
(g1832
g1833
((lp3919
(lp3920
tp3921
tp3922
Rp3923
sg1839
I0
sg2109
Nsg1845
I01
sg1846
Nsg2110
F1.2
sg128
g1765
sg2135
I00
sg2136
I00
sg1915
Nsg2137
g3459
sg2139
g3511
sg34
Nsbsg20
I01
sg23
Nsg2770
I00
sg24
Nsg25
Nsg11
Nsg2771
I00
sg28
I00
sg29
I00
sg30
(dp3924
sg2773
(I0
I1
tp3925
sg32
I00
sg2775
I2
sg2002
g1888
sg2776
I01
sg36
g528
sg2001
Nsg2777
g3911
sg2778
g0
(g2076
g2
Ntp3926
Rp3927
(dp3928
g6
g7
sg8
I01
sg9
g4
sg10
Nsg2080
g0
(g2081
g2
Ntp3929
Rp3930
(dp3931
g2085
(lp3932
g2087
asg2088
Nsg2089
g2090
sg2091
g2090
sg2092
F8.0
sg2093
g2090
sg2094
g2090
sbsg35
Nsg17
g18
sg2095
Nsg20
I01
sg23
Nsg85
I0
sg632
I1
sg24
Nsg25
Nsg11
Nsg28
I00
sg29
I00
sg30
(dp3933
sg2097
Nsg32
I00
sg2002
Nsg36
Nsg2001
Nsg2098
Nsg33
Nsg1827
Nsg1829
I01
sg2099
g3504
sg2101
V
p3934
sg2103
Nsg1831
g0
(g1832
g1833
((lp3935
(lp3936
tp3937
tp3938
Rp3939
sg1839
I0
sg2109
Nsg1845
I01
sg1846
Nsg2110
F1.2
sg128
g1801
sg2135
I00
sg2136
I00
sg1915
Nsg2137
g3459
sg2139
g3528
sg34
Nsbsg1827
Nsg2794
I0
sg1829
I01
sg1831
g0
(g1832
g1833
((lp3940
(lp3941
tp3942
tp3943
Rp3944
sg2800
F3.4
sg2801
g0
(g2802
g2
Ntp3945
Rp3946
(dp3947
g6
g7
sg2806
g2807
sg2808
Nsg20
I01
sg2809
Nsg2810
I0
sg85
Nsg632
Nsg24
Nsg11
Nsg29
I00
sg30
(dp3948
sg32
I00
sg2002
Nsg2812
F0.6
sg2813
Nsg2814
g2815
sg2816
g2817
sg1827
Nsg1829
I01
sg2818
g3538
sg1839
I0
sg1845
I01
sg2820
I01
sg2821
I01
sg128
g83
sg2822
Nsg2823
I2
sg2137
g3459
sg2824
I5
sg9
g4
sg2825
Nsg10
Nsg35
Nsg17
g18
sg2826
g2827
sg23
Nsg25
Nsg28
I00
sg2828
Nsg34
Nsg2829
Nsg2830
g0
(g2831
g2
Ntp3949
Rp3950
(dp3951
g2830
I0
sg2835
Nsg2836
F1.0
sg128
g0
(g42
g2
Ntp3952
Rp3953
(dp3954
g46
I2
sg47
Nsg48
g49
(g50
(I0
tp3955
g52
tp3956
Rp3957
(I1
(I3
I3
tp3958
g59
I00
S'\x00\x00\x00\x00\x00\x00\xf0\xbf\x00\x00\x00\x00\x00\x00\x00\x00\x00\x00\x00\x00\x00\x00\x00\x00\x00\x00\x00\x00\x00\x00\x00\x00\x00\x00\x00\x00\x00\x00\xf0?\x00\x00\x00\x00\x00\x00\x00\x00\x00\x00\x00\x00\x00\x00\x00\x00\x00\x00\x00\x00\x00\x00\x00\x00\x00\x00\x00\x00\x00\x00\xf0?'
p3959
tp3960
bsg64
g7
sg65
(dp3961
sbsg2847
I00
sg2848
g2849
sg2850
Nsg1999
g2851
sg1963
g2852
sg2443
g3553
sbsg2862
g2863
sg36
Nsg33
Nsg1949
I01
sg2864
Nsg1965
g3561
sg1831
g0
(g1832
g1833
((lp3962
(lp3963
tp3964
tp3965
Rp3966
sg2871
I00
sg2872
g2873
sg2874
g2827
sg2875
Nsg1846
Nsg2876
g2827
sg2877
F0.0
sg8
I01
sg2878
Nsg1915
Nsg2001
Nsg2879
(I0
tp3967
sg1945
F0.5
sg2443
Nsbsg1845
I00
sg2881
g0
(g2802
g2
Ntp3968
Rp3969
(dp3970
g6
g7
sg8
I01
sg2874
g2827
sg9
g4
sg2806
g2807
sg2808
Nsg10
Nsg35
Nsg17
g18
sg2826
g2827
sg20
I01
sg2809
Nsg23
Nsg85
g49
(g50
(I0
tp3971
g52
tp3972
Rp3973
(I1
(I2
tp3974
g59
I00
S'\x00\x00\x00\x00\x00\x00\x00\x00\x00\x00\x00\x00\x00\x00\x00\x00'
p3975
tp3976
bsg632
g49
(g50
(I0
tp3977
g52
tp3978
Rp3979
(I1
(I2
tp3980
g59
I00
S'\x00\x00\x00\x00\x00\x00\x00\x00\x00\x00\x00\x00\x00\x00\xf0?'
p3981
tp3982
bsg24
Nsg25
Nsg11
Nsg2818
g3583
sg28
I00
sg2828
Nsg29
I00
sg30
(dp3983
sg2825
Nsg32
I00
sg2871
I00
sg2002
Nsg2829
Nsg2812
F1.0
sg2862
g2863
sg2813
Nsg2137
g2899
sg2830
g0
(g2831
g2
Ntp3984
Rp3985
(dp3986
g2830
g2903
sg2835
Nsg2836
Nsg128
g0
(g627
g2
Ntp3987
Rp3988
(dp3989
g46
I1
sg47
Nsg64
g7
sg65
(dp3990
sbsg2847
I00
sg2848
g2849
sg2850
Nsg1999
g2851
sg1963
g2852
sg2443
g2909
sbsg33
Nsg2814
g2815
sg1949
I01
sg2816
g2817
sg1827
Nsg2877
F0.0
sg1829
I01
sg2864
g49
(g50
(I0
tp3991
g52
tp3992
Rp3993
(I1
(I2
I2
tp3994
g59
I00
S'\x00\x00\x00\x00\x00\x00\x00\x00\x00\x00\x00\x00\x00\x00\x00\x00\x00\x00\x00\x00\x00\x00\xf0?\x00\x00\x00\x00\x00\x00\x00\x00'
p3995
tp3996
bsg1965
g2923
sg1831
g0
(g1832
g1833
((lp3997
(lp3998
tp3999
tp4000
Rp4001
sg1839
I0
sg2872
g2873
sg2810
I0
sg2875
Nsg2824
I5
sg1845
I01
sg1846
F1.0
sg2876
g2827
sg2821
I00
sg128
g83
sg2878
Nsg2822
Nsg2820
I00
sg1915
Nsg2001
Nsg2879
g3603
sg36
g749
sg1945
F0.8
sg34
Nsg2443
g0
(g2444
g2
Ntp4002
Rp4003
(dp4004
g2448
I00
sg2449
Nsg2450
g49
(g50
(I0
tp4005
g52
tp4006
Rp4007
(I1
(I2
I2
tp4008
g59
I01
S'\x00\x00\x00\x00\x00\x00\x00\x00\x00\x00\x00\x00\x00\x00\xf0?\x00\x00\x00\x00\x00\x00\x00\x00\x00\x00\x00\x00\x00\x00\x00\x00'
p4009
tp4010
bsg2457
I00
sg2458
F0.1111111111111111
sg2459
I180
sg2460
I00
sbsbsg1846
Nsg33
Nsg2939
g0
(g2802
g2
Ntp4011
Rp4012
(dp4013
g6
g7
sg2806
g2807
sg2808
Nsg20
I01
sg2809
Nsg2810
I0
sg85
Nsg632
Nsg24
Nsg11
Nsg29
I00
sg30
(dp4014
sg32
I00
sg2002
Nsg2812
F0.6
sg2813
Nsg2814
g2815
sg2816
g2817
sg1827
Nsg1829
I01
sg2818
g3617
sg1839
I0
sg1845
I01
sg2820
I01
sg2821
I01
sg128
g83
sg2822
Nsg2823
I2
sg2137
g3459
sg2824
I5
sg9
g4
sg2825
Nsg10
Nsg35
Nsg17
g18
sg2826
g2827
sg23
Nsg25
Nsg28
I00
sg2828
Nsg34
Nsg2829
Nsg2830
g0
(g2831
g2
Ntp4015
Rp4016
(dp4017
g2830
I1
sg2835
Nsg2836
F1.0
sg128
g0
(g42
g2
Ntp4018
Rp4019
(dp4020
g46
I2
sg47
Nsg48
g49
(g50
(I0
tp4021
g52
tp4022
Rp4023
(I1
(I3
I3
tp4024
g59
I00
S'\x00\x00\x00\x00\x00\x00\xf0?\x00\x00\x00\x00\x00\x00\x00\x00\x00\x00\x00\x00\x00\x00\x00\x00\x00\x00\x00\x00\x00\x00\x00\x00\x00\x00\x00\x00\x00\x00\xf0?\x00\x00\x00\x00\x00\x00\x00\x00\x00\x00\x00\x00\x00\x00\x00\x00\x00\x00\x00\x00\x00\x00\x00\x00\x00\x00\x00\x00\x00\x00\xf0?'
p4025
tp4026
bsg64
g7
sg65
(dp4027
sbsg2847
I00
sg2848
g2849
sg2850
Nsg1999
g2851
sg1963
g2852
sg2443
g3553
sbsg2862
g2863
sg36
Nsg33
Nsg1949
I01
sg2864
Nsg1965
g3631
sg1831
g0
(g1832
g1833
((lp4028
(lp4029
tp4030
tp4031
Rp4032
sg2871
I00
sg2872
g2873
sg2874
g2827
sg2875
Nsg1846
Nsg2876
g2827
sg2877
F0.0
sg8
I01
sg2878
Nsg1915
Nsg2001
Nsg2879
(I0
tp4033
sg1945
F0.5
sg2443
Nsbsg128
Nsg2965
F8.0
sg2966
g3638
sg2968
(g2969
I0
tp4034
sg1915
Nsg2137
g3459
sg34
Nsbasg34
Nsg3374
(dp4035
g2733
I01
sg2735
I00
sg2736
I01
sg2737
I00
ssg3376
I01
sbsS'_axisbelow'
p4036
I00
sg8
I01
sS'lines'
p4037
(lp4038
sS'_ycid'
p4039
I1
sS'spines'
p4040
ccollections
OrderedDict
p4041
((lp4042
(lp4043
Vleft
p4044
ag0
(cmatplotlib.spines
Spine
p4045
g2
Ntp4046
Rp4047
(dp4048
g6
g7
sg2679
I00
sg1914
I01
sg9
g4
sS'_bounds'
p4049
Nsg8
I01
sg10
Nsg35
Nsg17
g18
sg1915
Nsg20
I01
sg2657
g3419
sg1916
g0
(g627
g2
Ntp4050
Rp4051
(dp4052
g46
I1
sg47
Nsg64
g7
sg65
(dp4053
sbsg1921
(F0.0
F0.0
F0.0
F1.0
tp4054
sg23
Nsg24
Nsg1937
V0.
p4055
sg11
Nsg28
I00
sg29
I00
sg30
(dp4056
sg1997
(NNtp4057
sg2593
(Voutward
p4058
F0.0
tp4059
sg32
I00
sg1944
Nsg1829
I01
sg1945
F1.0
sS'_patch_type'
p4060
Vline
p4061
sg33
Nsg1947
g4054
sg1948
Nsg1949
I01
sg1950
Nsg1951
Vnone
p4062
sg1827
Nsg1952
g2571
sg1963
g1964
sS'_patch_transform'
p4063
g0
(g627
g2
Ntp4064
Rp4065
(dp4066
g46
I1
sg47
Nsg64
g7
sg65
(dp4067
sbsg1965
g1966
sg1831
g0
(g1832
g1833
((lp4068
(lp4069
tp4070
tp4071
Rp4072
sg1839
I0
sS'_spine_transform'
p4073
(Videntity
p4074
g0
(g627
g2
Ntp4075
Rp4076
(dp4077
g46
I1
sg47
Nsg64
g7
sg65
(dp4078
sbtp4079
sg1845
I01
sg1846
NsS'spine_type'
p4080
g4044
sg128
g83
sg36
Nsg2823
F2.5
sg1999
Vprojecting
p4081
sg2001
Nsg25
Nsg2002
g1888
sg34
Nsg2443
g0
(g2444
g2
Ntp4082
Rp4083
(dp4084
g2448
I00
sg2449
Nsg2450
g49
(g50
(I0
tp4085
g52
tp4086
Rp4087
(I1
(I2
I2
tp4088
g59
I00
S'\x00\x00\x00\x00\x00\x00\x00\x00\x00\x00\x00\x00\x00\x00*@\x00\x00\x00\x00\x00\x00\x00\x00\x00\x00\x00\x00\x00\x00*@'
p4089
tp4090
bsg2457
I00
sg2458
F0.1111111111111111
sg2459
I1
sg2460
I00
sbsbaa(lp4091
Vright
p4092
ag0
(g4045
g2
Ntp4093
Rp4094
(dp4095
g6
g7
sg2679
I00
sg1914
I01
sg9
g4
sg4049
Nsg8
I00
sg10
Nsg35
Nsg17
g18
sg1915
Nsg20
I01
sg2657
g3419
sg1916
g0
(g627
g2
Ntp4096
Rp4097
(dp4098
g46
I1
sg47
Nsg64
g7
sg65
(dp4099
sbsg1921
g4054
sg23
Nsg24
Nsg1937
g4055
sg11
Nsg28
I00
sg29
I00
sg30
(dp4100
sg1997
(NNtp4101
sg2593
g4059
sg32
I00
sg1944
Nsg1829
I01
sg1945
F1.0
sg4060
g4061
sg33
Nsg1947
g4054
sg1948
Nsg1949
I01
sg1950
Nsg1951
g4062
sg1827
Nsg1952
g2571
sg1963
g1964
sg4063
g0
(g627
g2
Ntp4102
Rp4103
(dp4104
g46
I1
sg47
Nsg64
g7
sg65
(dp4105
sbsg1965
g1966
sg1831
g0
(g1832
g1833
((lp4106
(lp4107
tp4108
tp4109
Rp4110
sg1839
I0
sg4073
(g4074
g0
(g627
g2
Ntp4111
Rp4112
(dp4113
g46
I1
sg47
Nsg64
g7
sg65
(dp4114
sbtp4115
sg1845
I01
sg1846
Nsg4080
g4092
sg128
g83
sg36
Nsg2823
F2.5
sg1999
g4081
sg2001
Nsg25
Nsg2002
g1888
sg34
Nsg2443
g0
(g2444
g2
Ntp4116
Rp4117
(dp4118
g2448
I00
sg2449
Nsg2450
g49
(g50
(I0
tp4119
g52
tp4120
Rp4121
(I1
(I2
I2
tp4122
g59
I00
S'\x00\x00\x00\x00\x00\x00\xf0?\x00\x00\x00\x00\x00\x00*@\x00\x00\x00\x00\x00\x00\xf0?\x00\x00\x00\x00\x00\x00*@'
p4123
tp4124
bsg2457
I00
sg2458
F0.1111111111111111
sg2459
I1
sg2460
I00
sbsbaa(lp4125
Vbottom
p4126
ag0
(g4045
g2
Ntp4127
Rp4128
(dp4129
g6
g7
sg2679
I00
sg1914
I01
sg9
g4
sg4049
Nsg8
I01
sg10
Nsg35
Nsg17
g18
sg1915
Nsg20
I01
sg2657
g2625
sg1916
g0
(g627
g2
Ntp4130
Rp4131
(dp4132
g46
I1
sg47
Nsg64
g7
sg65
(dp4133
sbsg1921
g4054
sg23
Nsg24
Nsg1937
g4055
sg11
Nsg28
I00
sg29
I00
sg30
(dp4134
sg1997
(NNtp4135
sg2593
g4059
sg32
I00
sg1944
Nsg1829
I01
sg1945
F1.0
sg4060
g4061
sg33
Nsg1947
g4054
sg1948
Nsg1949
I01
sg1950
Nsg1951
g4062
sg1827
Nsg1952
g2571
sg1963
g1964
sg4063
g0
(g627
g2
Ntp4136
Rp4137
(dp4138
g46
I1
sg47
Nsg64
g7
sg65
(dp4139
sbsg1965
g1966
sg1831
g0
(g1832
g1833
((lp4140
(lp4141
tp4142
tp4143
Rp4144
sg1839
I0
sg4073
(g4074
g0
(g627
g2
Ntp4145
Rp4146
(dp4147
g46
I1
sg47
Nsg64
g7
sg65
(dp4148
sbtp4149
sg1845
I01
sg1846
Nsg4080
g4126
sg128
g1080
sg36
Nsg2823
F2.5
sg1999
g4081
sg2001
Nsg25
Nsg2002
g1888
sg34
Nsg2443
g0
(g2444
g2
Ntp4150
Rp4151
(dp4152
g2448
I00
sg2449
Nsg2450
g49
(g50
(I0
tp4153
g52
tp4154
Rp4155
(I1
(I2
I2
tp4156
g59
I00
S'\x00\x00\x00\x00\x00\x00*@\x00\x00\x00\x00\x00\x00\x00\x00\x00\x00\x00\x00\x00\x00*@\x00\x00\x00\x00\x00\x00\x00\x00'
p4157
tp4158
bsg2457
I00
sg2458
F0.1111111111111111
sg2459
I1
sg2460
I00
sbsbaa(lp4159
Vtop
p4160
ag0
(g4045
g2
Ntp4161
Rp4162
(dp4163
g6
g7
sg2679
I00
sg1914
I01
sg9
g4
sg4049
Nsg8
I00
sg10
Nsg35
Nsg17
g18
sg1915
Nsg20
I01
sg2657
g2625
sg1916
g0
(g627
g2
Ntp4164
Rp4165
(dp4166
g46
I1
sg47
Nsg64
g7
sg65
(dp4167
sbsg1921
g4054
sg23
Nsg24
Nsg1937
g4055
sg11
Nsg28
I00
sg29
I00
sg30
(dp4168
sg1997
(NNtp4169
sg2593
g4059
sg32
I00
sg1944
Nsg1829
I01
sg1945
F1.0
sg4060
g4061
sg33
Nsg1947
g4054
sg1948
Nsg1949
I01
sg1950
Nsg1951
g4062
sg1827
Nsg1952
g2571
sg1963
g1964
sg4063
g0
(g627
g2
Ntp4170
Rp4171
(dp4172
g46
I1
sg47
Nsg64
g7
sg65
(dp4173
sbsg1965
g1966
sg1831
g0
(g1832
g1833
((lp4174
(lp4175
tp4176
tp4177
Rp4178
sg1839
I0
sg4073
(g4074
g0
(g627
g2
Ntp4179
Rp4180
(dp4181
g46
I1
sg47
Nsg64
g7
sg65
(dp4182
sbtp4183
sg1845
I01
sg1846
Nsg4080
g4160
sg128
g1080
sg36
Nsg2823
F2.5
sg1999
g4081
sg2001
Nsg25
Nsg2002
g1888
sg34
Nsg2443
g0
(g2444
g2
Ntp4184
Rp4185
(dp4186
g2448
I00
sg2449
Nsg2450
g49
(g50
(I0
tp4187
g52
tp4188
Rp4189
(I1
(I2
I2
tp4190
g59
I00
S'\x00\x00\x00\x00\x00\x00*@\x00\x00\x00\x00\x00\x00\xf0?\x00\x00\x00\x00\x00\x00*@\x00\x00\x00\x00\x00\x00\xf0?'
p4191
tp4192
bsg2457
I00
sg2458
F0.1111111111111111
sg2459
I1
sg2460
I00
sbsbaatp4193
Rp4194
sS'_anchor'
p4195
VC
p4196
sg1915
Nsg2001
NsS'_use_sticky_edges'
p4197
I01
sbtp4198
tp4199
asS'_ind'
p4200
I1
sS'_pos'
p4201
I0
sbsg128
Nsg4037
(lp4202
sg2563
g0
(g1908
g2
Ntp4203
Rp4204
(dp4205
g6
g7
sg1913
I1
sg1914
I01
sg9
g4
sg8
I01
sg10
Nsg35
Nsg17
g18
sg1915
Nsg20
I01
sg1916
g0
(g627
g2
Ntp4206
Rp4207
(dp4208
g46
I1
sg47
Nsg64
g7
sg65
(dp4209
sbsg1921
(g1922
(g59
S'\x00\x00\x00\x00\x00\x00\xf0?'
p4210
tp4211
Rp4212
g1922
(g59
S'\x00\x00\x00\x00\x00\x00\xf0?'
p4213
tp4214
Rp4215
g1922
(g59
S'\x00\x00\x00\x00\x00\x00\xf0?'
p4216
tp4217
Rp4218
g1922
(g59
S'\x00\x00\x00\x00\x00\x00\x00\x00'
p4219
tp4220
Rp4221
tp4222
sg1936
F0.0
sg23
Nsg85
I0
sg632
I0
sg24
Nsg1937
(I1
I1
I1
I0
tp4223
sg11
Nsg28
I00
sg29
I00
sg30
(dp4224
sg1939
g0
(g627
g2
Ntp4225
Rp4226
(dp4227
g46
I1
sg47
Nsg64
g7
sg65
(dp4228
sbsg32
I00
sg1944
Nsg1829
I01
sg1945
F0.0
sg36
Nsg1946
I1
sg33
Nsg1947
g4222
sg1948
Nsg1949
I00
sg1950
Nsg1951
(I1
I1
I1
I0
tp4229
sg1827
Nsg1952
g4222
sg1963
g1964
sg1965
g1966
sg1831
g0
(g1832
g1833
((lp4230
(lp4231
tp4232
tp4233
Rp4234
sg1839
I0
sg1845
I01
sg1846
Nsg128
g172
sg1997
(NNtp4235
sg1999
g2000
sg2001
Nsg25
Nsg2002
Nsg34
NsbsS'subplotpars'
p4236
g0
(cmatplotlib.figure
SubplotParams
p4237
g2
Ntp4238
Rp4239
(dp4240
g1867
F0.9
sg1869
F0.125
sg1870
F0.88
sg1871
F0.2
sS'validate'
p4241
I01
sg1873
F0.2
sg1875
F0.125
sbsg1915
Nsg2001
NsS'bbox_inches'
p4242
g178
sS'transFigure'
p4243
g172
sS'_dpi'
p4244
F72.0
sb.