ccopy_reg
_reconstructor
p0
(cmatplotlib.figure
Figure
p1
c__builtin__
object
p2
Ntp3
Rp4
(dp5
S'_label'
p6
V
p7
sS'_visible'
p8
I01
sS'figure'
p9
NsS'stale_callback'
p10
NsS'_rasterized'
p11
NsS'texts'
p12
(lp13
sS'_hold'
p14
I01
sS'artists'
p15
(lp16
sS'_path_effects'
p17
(lp18
sS'frameon'
p19
I01
sS'_clipon'
p20
I01
sV__mpl_version__
p21
S'2.0.2'
p22
sS'_clippath'
p23
NsS'_sketch'
p24
NsS'_contains'
p25
NsS'_tight_parameters'
p26
(dp27
sS'_mouseover'
p28
I00
sS'_animated'
p29
I00
sS'_propobservers'
p30
(dp31
sS'eventson'
p32
I00
sS'_picker'
p33
NsS'_remove_method'
p34
NsS'figurePatch'
p35
g0
(cmatplotlib.patches
Rectangle
p36
g2
Ntp37
Rp38
(dp39
g6
g7
sS'_width'
p40
F1.0
sS'_fill'
p41
I01
sg9
g4
sg8
I01
sg10
NsS'_agg_filter'
p42
Nsg17
g18
sS'_gid'
p43
Nsg20
I01
sS'_combined_transform'
p44
g0
(cmatplotlib.transforms
IdentityTransform
p45
g2
Ntp46
Rp47
(dp48
S'_invalid'
p49
I1
sS'_inverted'
p50
NsS'_shorthand_name'
p51
g7
sS'_parents'
p52
(dp53
sbsS'_edgecolor'
p54
(cnumpy.core.multiarray
scalar
p55
(cnumpy
dtype
p56
(S'f8'
p57
I0
I1
tp58
Rp59
(I3
S'<'
p60
NNNI-1
I-1
I0
tp61
bS'\x00\x00\x00\x00\x00\x00\xf0?'
p62
tp63
Rp64
g55
(g59
S'\x00\x00\x00\x00\x00\x00\xf0?'
p65
tp66
Rp67
g55
(g59
S'\x00\x00\x00\x00\x00\x00\xf0?'
p68
tp69
Rp70
g55
(g59
S'\x00\x00\x00\x00\x00\x00\x00\x00'
p71
tp72
Rp73
tp74
sg23
NsS'_y'
p75
F0.0
sS'_x'
p76
F0.0
sg24
NsS'_original_edgecolor'
p77
(I1
I1
I1
I0
tp78
sg11
Nsg28
I00
sg29
I00
sg30
(dp79
sS'_rect_transform'
p80
g0
(g45
g2
Ntp81
Rp82
(dp83
g49
I1
sg50
Nsg51
g7
sg52
(dp84
sbsg32
I00
sS'_hatch'
p85
NsS'_stale'
p86
I01
sS'_linewidth'
p87
F0.0
sS'clipbox'
p88
NsS'_height'
p89
F1.0
sg33
NsS'_hatch_color'
p90
g74
sS'_dashes'
p91
NsS'_antialiased'
p92
I00
sS'_dashoffset'
p93
NsS'_original_facecolor'
p94
Vwhite
p95
sS'_snap'
p96
NsS'_facecolor'
p97
(F1.0
F1.0
F1.0
F1.0
tp98
sS'_joinstyle'
p99
Vmiter
p100
sS'_linestyle'
p101
Vsolid
p102
sS'_sticky_edges'
p103
g0
(cmatplotlib.artist
_XYPair
p104
c__builtin__
tuple
p105
((lp106
(lp107
tp108
tp109
Rp110
sS'_oid'
p111
I0
sS'_transformSet'
p112
I01
sS'_angle'
p113
F0.0
sS'_alpha'
p114
NsS'_transform'
p115
g0
(cmatplotlib.transforms
BboxTransformTo
p116
g2
Ntp117
Rp118
(dp119
g49
I2
sS'_mtx'
p120
Nsg50
NsS'_boxout'
p121
g0
(cmatplotlib.transforms
TransformedBbox
p122
g2
Ntp123
Rp124
(dp125
g49
I2
sS'_bbox'
p126
g0
(cmatplotlib.transforms
Bbox
p127
g2
Ntp128
Rp129
(dp130
g49
I2
sS'_minpos'
p131
cnumpy.core.multiarray
_reconstruct
p132
(cnumpy
ndarray
p133
(I0
tp134
S'b'
p135
tp136
Rp137
(I1
(I2
tp138
g59
I00
S'\x00\x00\x00\x00\x00\x00\xf0\x7f\x00\x00\x00\x00\x00\x00\xf0\x7f'
p139
tp140
bsg52
(dp141
I139846488861264
g124
ssS'_points_orig'
p142
g132
(g133
(I0
tp143
g135
tp144
Rp145
(I1
(I2
I2
tp146
g59
I00
S'\x00\x00\x00\x00\x00\x00\x00\x00\x00\x00\x00\x00\x00\x00\x00\x00\x00\x00\x00\x00\x00\x00\x18@\x00\x00\x00\x00\x00\x00\x10@'
p147
tp148
bsS'_points'
p149
g132
(g133
(I0
tp150
g135
tp151
Rp152
(I1
(I2
I2
tp153
g59
I00
S'\x00\x00\x00\x00\x00\x00\x00\x00\x00\x00\x00\x00\x00\x00\x00\x00\x00\x00\x00\x00\x00\x00\xf8?\x00\x00\x00\x00\x00\x00\xf8?'
p154
tp155
bsS'_ignore'
p156
I01
sg51
g7
sbsg115
g0
(cmatplotlib.transforms
Affine2D
p157
g2
Ntp158
Rp159
(dp160
g49
I2
sg50
Nsg120
g132
(g133
(I0
tp161
g135
tp162
Rp163
(I1
(I3
I3
tp164
g59
I00
S'\x00\x00\x00\x00\x00\x00R@\x00\x00\x00\x00\x00\x00\x00\x00\x00\x00\x00\x00\x00\x00\x00\x00\x00\x00\x00\x00\x00\x00\x00\x00\x00\x00\x00\x00\x00\x00R@\x00\x00\x00\x00\x00\x00\x00\x00\x00\x00\x00\x00\x00\x00\x00\x00\x00\x00\x00\x00\x00\x00\x00\x00\x00\x00\x00\x00\x00\x00\xf0?'
p165
tp166
bsg51
g7
sg52
(dp167
I139846486281168
g0
(cmatplotlib.transforms
ScaledTranslation
p168
g2
Ntp169
Rp170
(dp171
g49
I1
sg120
NsS'_scale_trans'
p172
g159
sg50
NsS'_t'
p173
(F-0.04861111111111111
I0
tp174
sg51
g7
sg52
(dp175
I139846486280848
g0
(cmatplotlib.transforms
CompositeGenericTransform
p176
g2
Ntp177
Rp178
(dp179
g49
I2
sS'input_dims'
p180
I2
sS'_a'
p181
g0
(cmatplotlib.transforms
BlendedGenericTransform
p182
g2
Ntp183
Rp184
(dp185
g49
I2
sg75
g0
(g176
g2
Ntp186
Rp187
(dp188
g49
I2
sg180
I2
sg181
g0
(cmatplotlib.transforms
TransformWrapper
p189
g2
Ntp190
Rp191
(dp192
Voutput_dims
p193
I2
sVparents
p194
(dp195
I139846482574032
g0
(g122
g2
Ntp196
Rp197
(dp198
g49
I2
sg126
g0
(g127
g2
Ntp199
Rp200
(dp201
g49
I2
sg131
g132
(g133
(I0
tp202
g135
tp203
Rp204
(I1
(I2
tp205
g59
I00
S'\x00\x00\x00\x00\x00\x00\xf0\x7f\x00\x00\x00\x00\x00\x00\xf0\x7f'
p206
tp207
bsg52
(dp208
I139846482574032
g197
ssg142
g132
(g133
(I0
tp209
g135
tp210
Rp211
(I1
(I2
I2
tp212
g59
I00
S'\x00\x00\x00\x00\x00\x00\x00\x00\x00\x00\x00\x00\x00\x00\x00\x00\x00\x00\x00\x00\x00\x00\xf0?\x00\x00\x00\x00\x00\x00\xf0?'
p213
tp214
bsg149
g132
(g133
(I0
tp215
g135
tp216
Rp217
(I1
(I2
I2
tp218
g59
I00
S'\x00\x00\x00\x00\x00\x00\x00\x00\x00\x00\x00\x00\x00\x00\x00\x00\x00\x00\x00\x00\x00\x00\x14@\xcd\xcc\xcc\xcc\xcc\xcc\x10@'
p219
tp220
bsg156
I01
sg51
g7
sbsg115
g191
sg149
Nsg52
(dp221
I139846482574800
g0
(cmatplotlib.transforms
BboxTransformFrom
p222
g2
Ntp223
Rp224
(dp225
g49
I2
sS'_boxin'
p226
g197
sg120
Nsg50
Nsg51
g7
sg52
(dp227
I139846490554704
g0
(g176
g2
Ntp228
Rp229
(dp230
g49
I2
sg180
I2
sg181
g224
sS'output_dims'
p231
I2
sS'_b'
p232
g0
(g116
g2
Ntp233
Rp234
(dp235
g49
I2
sg120
Nsg50
Nsg121
g0
(g122
g2
Ntp236
Rp237
(dp238
g49
I2
sg126
g0
(g127
g2
Ntp239
Rp240
(dp241
g49
I0
sg131
g132
(g133
(I0
tp242
g135
tp243
Rp244
(I1
(I2
tp245
g59
I00
S'\x00\x00\x00\x00\x00\x00\xf0\x7f\x00\x00\x00\x00\x00\x00\xf0\x7f'
p246
tp247
bsg52
(dp248
I139846482572624
g237
ssg142
g132
(g133
(I0
tp249
g135
tp250
Rp251
(I1
(I2
I2
tp252
g59
I00
S'\x00\x00\x00\x00\x00\x00\xc0?\x00\x00\x00\x00\x00\x00\xc0?\xcd\xcc\xcc\xcc\xcc\xcc\xec?)\\\x8f\xc2\xf5(\xec?'
p253
tp254
bsg149
g132
(g133
(I0
tp255
g135
tp256
Rp257
(I1
(I2
I2
tp258
g59
I00
S'\x00\x00\x00\x00\x00\x00\xc0?\x00\x00\x00\x00\x00\x00\xc0?\xcd\xcc\xcc\xcc\xcc\xcc\xec?)\\\x8f\xc2\xf5(\xec?'
p259
tp260
bsg156
I01
sg51
g7
sbsg115
g118
sg149
Nsg52
(dp261
I139846482572816
g234
ssg51
g7
sbsg52
(dp262
I139846485050832
g0
(g176
g2
Ntp263
Rp264
(dp265
g49
I2
sg180
I2
sg181
g0
(g176
g2
Ntp266
Rp267
(dp268
g49
I1
sg180
I2
sg181
g0
(g116
g2
Ntp269
Rp270
(dp271
g49
I1
sg120
Nsg50
Nsg121
g0
(g127
g2
Ntp272
Rp273
(dp274
g49
I1
sg131
g132
(g133
(I0
tp275
g135
tp276
Rp277
(I1
(I2
tp278
g59
I00
S'\x00\x00\x00\x00\x00\x00\xf0\x7f\x00\x00\x00\x00\x00\x00\xf0\x7f'
p279
tp280
bsg52
(dp281
I139846490617552
g270
ssg142
g132
(g133
(I0
tp282
g135
tp283
Rp284
(I1
(I2
I2
tp285
g59
I00
S'\x00\x00\x00\x00\x00\x00\x00\x00\x00\x00\x00\x00\x00\x00\x00\x00\x00\x00\x00\x00\x00\x00\xf0?\x00\x00\x00\x00\x00\x00\xf0?'
p286
tp287
bsg149
g132
(g133
(I0
tp288
g135
tp289
Rp290
(I1
(I2
I2
tp291
g59
I00
S'\x00\x00\x00\x00\x00\x00\x00\x00\x00\x00\x00\x00\x00\x00\x00\x00\x00\x00\x00\x00\x00\x00\xf0?\x00\x00\x00\x00\x00\x00\xf0?'
p292
tp293
bsg156
I01
sg51
g7
sbsg52
(dp294
I139846485053264
g267
ssg51
g7
sbsg231
I2
sg232
g0
(g157
g2
Ntp295
Rp296
(dp297
g49
I2
sg50
Nsg120
g132
(g133
(I0
tp298
g135
tp299
Rp300
(I1
(I3
I3
tp301
g59
I00
S'\x00\x00\x00\x00\x00\x00\xf0?\x00\x00\x00\x00\x00\x00\x00\x00\x00\x00\x00\x00\x00\x00\x00\x00\x00\x00\x00\x00\x00\x00\x00\x00\x00\x00\x00\x00\x00\x00\xf0?\x00\x00\x00\x00\x00\x00\x00\x00\x00\x00\x00\x00\x00\x00\x00\x00\x00\x00\x00\x00\x00\x00\x00\x00\x00\x00\x00\x00\x00\x00\xf0?'
p302
tp303
bsg51
g7
sg52
(dp304
I139846485053264
g267
ssbsg52
(dp305
I139846485050832
g264
ssg51
g7
sbsg231
I2
sg232
g234
sg52
(dp306
I139846485050192
g0
(g122
g2
Ntp307
Rp308
(dp309
g49
I2
sg126
g0
(g127
g2
Ntp310
Rp311
(dp312
g49
I1
sg131
g132
(g133
(I0
tp313
g135
tp314
Rp315
(I1
(I2
tp316
g59
I00
S'\x00\x00\x00\x00\x00\x00\xf0\x7f\x00\x00\x00\x00\x00\x00\xf0\x7f'
p317
tp318
bsg52
(dp319
I139846485050192
g308
ssg142
g132
(g133
(I0
tp320
g135
tp321
Rp322
(I1
(I2
I2
tp323
g59
I00
S'\x00\x00\x00\x00\x00\x00\x00\x00\x00\x00\x00\x00\x00\x00\x00\x00\x00\x00\x00\x00\x00\x00\xf0?\x00\x00\x00\x00\x00\x00\xf0?'
p324
tp325
bsg149
g132
(g133
(I0
tp326
g135
tp327
Rp328
(I1
(I2
I2
tp329
g59
I00
S'\x00\x00\x00\x00\x00\x00\x00\x00\x00\x00\x00\x00\x00\x00\x00\x00\x00\x00\x00\x00\x00\x00\xf0?\x00\x00\x00\x00\x00\x00\xf0?'
p330
tp331
bsg156
I01
sg51
g7
sbsg115
g264
sg149
Nsg52
(dp332
sg51
g7
sbssg51
g7
sbsI139846484112464
g0
(g176
g2
Ntp333
Rp334
(dp335
g49
I2
sg180
I2
sg181
g0
(g176
g2
Ntp336
Rp337
(dp338
g49
I1
sg180
I2
sg181
g0
(g116
g2
Ntp339
Rp340
(dp341
g49
I1
sg120
Nsg50
Nsg121
g0
(g127
g2
Ntp342
Rp343
(dp344
g49
I1
sg131
g132
(g133
(I0
tp345
g135
tp346
Rp347
(I1
(I2
tp348
g59
I00
S'\x00\x00\x00\x00\x00\x00\xf0\x7f\x00\x00\x00\x00\x00\x00\xf0\x7f'
p349
tp350
bsg52
(dp351
I139846484113872
g340
ssg142
g132
(g133
(I0
tp352
g135
tp353
Rp354
(I1
(I2
I2
tp355
g59
I00
S'\x00\x00\x00\x00\x00\x00\x00\x00\x00\x00\x00\x00\x00\x00\x00\x00\x00\x00\x00\x00\x00\x00\xf0?\x00\x00\x00\x00\x00\x00\xf0?'
p356
tp357
bsg149
g132
(g133
(I0
tp358
g135
tp359
Rp360
(I1
(I2
I2
tp361
g59
I00
S'\x00\x00\x00\x00\x00\x00\x00\x00\x00\x00\x00\x00\x00\x00\x00\x00\x00\x00\x00\x00\x00\x00\xf0?\x00\x00\x00\x00\x00\x00\xf0?'
p362
tp363
bsg156
I01
sg51
g7
sbsg52
(dp364
I139846484114064
g337
ssg51
g7
sbsg231
I2
sg232
g0
(g157
g2
Ntp365
Rp366
(dp367
g49
I2
sg50
Nsg120
g132
(g133
(I0
tp368
g135
tp369
Rp370
(I1
(I3
I3
tp371
g59
I00
S'\x00\x00\x00\x00\x00\x00\xf0?\x00\x00\x00\x00\x00\x00\x00\x00\x00\x00\x00\x00\x00\x00\x00\x00\x00\x00\x00\x00\x00\x00\x00\x00\x00\x00\x00\x00\x00\x00\xf0?\x00\x00\x00\x00\x00\x00\x00\x00\x00\x00\x00\x00\x00\x00\x00\x00\x00\x00\x00\x00\x00\x00\x00\x00\x00\x00\x00\x00\x00\x00\xf0?'
p372
tp373
bsg51
g7
sg52
(dp374
I139846484114064
g337
ssbsg52
(dp375
I139846484112464
g334
ssg51
g7
sbsg231
I2
sg232
g234
sg52
(dp376
I139846484112144
g0
(g122
g2
Ntp377
Rp378
(dp379
g49
I2
sg126
g0
(g127
g2
Ntp380
Rp381
(dp382
g49
I1
sg131
g132
(g133
(I0
tp383
g135
tp384
Rp385
(I1
(I2
tp386
g59
I00
S'\x00\x00\x00\x00\x00\x00\xf0\x7f\x00\x00\x00\x00\x00\x00\xf0\x7f'
p387
tp388
bsg52
(dp389
I139846484112144
g378
ssg142
g132
(g133
(I0
tp390
g135
tp391
Rp392
(I1
(I2
I2
tp393
g59
I00
S'\x00\x00\x00\x00\x00\x00\x00\x00\x00\x00\x00\x00\x00\x00\x00\x00\x00\x00\x00\x00\x00\x00\xf0?\x00\x00\x00\x00\x00\x00\xf0?'
p394
tp395
bsg149
g132
(g133
(I0
tp396
g135
tp397
Rp398
(I1
(I2
I2
tp399
g59
I00
S'\x00\x00\x00\x00\x00\x00\x00\x00\x00\x00\x00\x00\x00\x00\x00\x00\x00\x00\x00\x00\x00\x00\xf0?\x00\x00\x00\x00\x00\x00\xf0?'
p400
tp401
bsg156
I01
sg51
g7
sbsg115
g334
sg149
Nsg52
(dp402
sg51
g7
sbssg51
g7
sbsI139846484112528
g0
(g176
g2
Ntp403
Rp404
(dp405
g49
I2
sg180
I2
sg181
g0
(g176
g2
Ntp406
Rp407
(dp408
g49
I1
sg180
I2
sg181
g0
(g116
g2
Ntp409
Rp410
(dp411
g49
I1
sg120
Nsg50
Nsg121
g0
(g127
g2
Ntp412
Rp413
(dp414
g49
I1
sg131
g132
(g133
(I0
tp415
g135
tp416
Rp417
(I1
(I2
tp418
g59
I00
S'\x00\x00\x00\x00\x00\x00\xf0\x7f\x00\x00\x00\x00\x00\x00\xf0\x7f'
p419
tp420
bsg52
(dp421
I139846484114768
g410
ssg142
g132
(g133
(I0
tp422
g135
tp423
Rp424
(I1
(I2
I2
tp425
g59
I00
S'\x00\x00\x00\x00\x00\x00\x00\x00\x00\x00\x00\x00\x00\x00\x00\x00\x00\x00\x00\x00\x00\x00\xf0?\x00\x00\x00\x00\x00\x00\xf0?'
p426
tp427
bsg149
g132
(g133
(I0
tp428
g135
tp429
Rp430
(I1
(I2
I2
tp431
g59
I00
S'\x00\x00\x00\x00\x00\x00\x00\x00\x00\x00\x00\x00\x00\x00\x00\x00\x00\x00\x00\x00\x00\x00\xf0?\x00\x00\x00\x00\x00\x00\xf0?'
p432
tp433
bsg156
I01
sg51
g7
sbsg52
(dp434
I139846484112336
g407
ssg51
g7
sbsg231
I2
sg232
g0
(g157
g2
Ntp435
Rp436
(dp437
g49
I2
sg50
Nsg120
g132
(g133
(I0
tp438
g135
tp439
Rp440
(I1
(I3
I3
tp441
g59
I00
S'\x00\x00\x00\x00\x00\x00\xf0?\x00\x00\x00\x00\x00\x00\x00\x00\x00\x00\x00\x00\x00\x00\x00\x00\x00\x00\x00\x00\x00\x00\x00\x00\x00\x00\x00\x00\x00\x00\xf0?\x00\x00\x00\x00\x00\x00\x00\x00\x00\x00\x00\x00\x00\x00\x00\x00\x00\x00\x00\x00\x00\x00\x00\x00\x00\x00\x00\x00\x00\x00\xf0?'
p442
tp443
bsg51
g7
sg52
(dp444
I139846484112336
g407
ssbsg52
(dp445
I139846484112528
g404
ssg51
g7
sbsg231
I2
sg232
g234
sg52
(dp446
I139846484114448
g0
(g122
g2
Ntp447
Rp448
(dp449
g49
I2
sg126
g0
(g127
g2
Ntp450
Rp451
(dp452
g49
I1
sg131
g132
(g133
(I0
tp453
g135
tp454
Rp455
(I1
(I2
tp456
g59
I00
S'\x00\x00\x00\x00\x00\x00\xf0\x7f\x00\x00\x00\x00\x00\x00\xf0\x7f'
p457
tp458
bsg52
(dp459
I139846484114448
g448
ssg142
g132
(g133
(I0
tp460
g135
tp461
Rp462
(I1
(I2
I2
tp463
g59
I00
S'\x00\x00\x00\x00\x00\x00\x00\x00\x00\x00\x00\x00\x00\x00\x00\x00\x00\x00\x00\x00\x00\x00\xf0?\x00\x00\x00\x00\x00\x00\xf0?'
p464
tp465
bsg149
g132
(g133
(I0
tp466
g135
tp467
Rp468
(I1
(I2
I2
tp469
g59
I00
S'\x00\x00\x00\x00\x00\x00\x00\x00\x00\x00\x00\x00\x00\x00\x00\x00\x00\x00\x00\x00\x00\x00\xf0?\x00\x00\x00\x00\x00\x00\xf0?'
p470
tp471
bsg156
I01
sg51
g7
sbsg115
g404
sg149
Nsg52
(dp472
sg51
g7
sbssg51
g7
sbsI139846484112592
g0
(g176
g2
Ntp473
Rp474
(dp475
g49
I2
sg180
I2
sg181
g0
(g176
g2
Ntp476
Rp477
(dp478
g49
I1
sg180
I2
sg181
g0
(g116
g2
Ntp479
Rp480
(dp481
g49
I1
sg120
Nsg50
Nsg121
g0
(g127
g2
Ntp482
Rp483
(dp484
g49
I1
sg131
g132
(g133
(I0
tp485
g135
tp486
Rp487
(I1
(I2
tp488
g59
I00
S'\x00\x00\x00\x00\x00\x00\xf0\x7f\x00\x00\x00\x00\x00\x00\xf0\x7f'
p489
tp490
bsg52
(dp491
I139846484111824
g480
ssg142
g132
(g133
(I0
tp492
g135
tp493
Rp494
(I1
(I2
I2
tp495
g59
I00
S'\x00\x00\x00\x00\x00\x00\x00\x00\x00\x00\x00\x00\x00\x00\x00\x00\x00\x00\x00\x00\x00\x00\xf0?\x00\x00\x00\x00\x00\x00\xf0?'
p496
tp497
bsg149
g132
(g133
(I0
tp498
g135
tp499
Rp500
(I1
(I2
I2
tp501
g59
I00
S'\x00\x00\x00\x00\x00\x00\x00\x00\x00\x00\x00\x00\x00\x00\x00\x00\x00\x00\x00\x00\x00\x00\xf0?\x00\x00\x00\x00\x00\x00\xf0?'
p502
tp503
bsg156
I01
sg51
g7
sbsg52
(dp504
I139846484111632
g477
ssg51
g7
sbsg231
I2
sg232
g0
(g157
g2
Ntp505
Rp506
(dp507
g49
I2
sg50
Nsg120
g132
(g133
(I0
tp508
g135
tp509
Rp510
(I1
(I3
I3
tp511
g59
I00
S'\x00\x00\x00\x00\x00\x00\xf0?\x00\x00\x00\x00\x00\x00\x00\x00\x00\x00\x00\x00\x00\x00\x00\x00\x00\x00\x00\x00\x00\x00\x00\x00\x00\x00\x00\x00\x00\x00\xf0?\x00\x00\x00\x00\x00\x00\x00\x00\x00\x00\x00\x00\x00\x00\x00\x00\x00\x00\x00\x00\x00\x00\x00\x00\x00\x00\x00\x00\x00\x00\xf0?'
p512
tp513
bsg51
g7
sg52
(dp514
I139846484111632
g477
ssbsg52
(dp515
I139846484112592
g474
ssg51
g7
sbsg231
I2
sg232
g234
sg52
(dp516
I139846484111568
g0
(g122
g2
Ntp517
Rp518
(dp519
g49
I2
sg126
g0
(g127
g2
Ntp520
Rp521
(dp522
g49
I1
sg131
g132
(g133
(I0
tp523
g135
tp524
Rp525
(I1
(I2
tp526
g59
I00
S'\x00\x00\x00\x00\x00\x00\xf0\x7f\x00\x00\x00\x00\x00\x00\xf0\x7f'
p527
tp528
bsg52
(dp529
I139846484111568
g518
ssg142
g132
(g133
(I0
tp530
g135
tp531
Rp532
(I1
(I2
I2
tp533
g59
I00
S'\x00\x00\x00\x00\x00\x00\x00\x00\x00\x00\x00\x00\x00\x00\x00\x00\x00\x00\x00\x00\x00\x00\xf0?\x00\x00\x00\x00\x00\x00\xf0?'
p534
tp535
bsg149
g132
(g133
(I0
tp536
g135
tp537
Rp538
(I1
(I2
I2
tp539
g59
I00
S'\x00\x00\x00\x00\x00\x00\x00\x00\x00\x00\x00\x00\x00\x00\x00\x00\x00\x00\x00\x00\x00\x00\xf0?\x00\x00\x00\x00\x00\x00\xf0?'
p540
tp541
bsg156
I01
sg51
g7
sbsg115
g474
sg149
Nsg52
(dp542
sg51
g7
sbssg51
g7
sbsI139846481535504
g0
(g176
g2
Ntp543
Rp544
(dp545
g49
I2
sg180
I2
sg181
g0
(g176
g2
Ntp546
Rp547
(dp548
g49
I1
sg180
I2
sg181
g0
(g116
g2
Ntp549
Rp550
(dp551
g49
I1
sg120
Nsg50
Nsg121
g0
(g127
g2
Ntp552
Rp553
(dp554
g49
I1
sg131
g132
(g133
(I0
tp555
g135
tp556
Rp557
(I1
(I2
tp558
g59
I00
S'\x00\x00\x00\x00\x00\x00\xf0\x7f\x00\x00\x00\x00\x00\x00\xf0\x7f'
p559
tp560
bsg52
(dp561
I139846481535184
g550
ssg142
g132
(g133
(I0
tp562
g135
tp563
Rp564
(I1
(I2
I2
tp565
g59
I00
S'\x00\x00\x00\x00\x00\x00\x00\x00\x00\x00\x00\x00\x00\x00\x00\x00\x00\x00\x00\x00\x00\x00\xf0?\x00\x00\x00\x00\x00\x00\xf0?'
p566
tp567
bsg149
g132
(g133
(I0
tp568
g135
tp569
Rp570
(I1
(I2
I2
tp571
g59
I00
S'\x00\x00\x00\x00\x00\x00\x00\x00\x00\x00\x00\x00\x00\x00\x00\x00\x00\x00\x00\x00\x00\x00\xf0?\x00\x00\x00\x00\x00\x00\xf0?'
p572
tp573
bsg156
I01
sg51
g7
sbsg52
(dp574
I139846481536912
g547
ssg51
g7
sbsg231
I2
sg232
g0
(g157
g2
Ntp575
Rp576
(dp577
g49
I2
sg50
Nsg120
g132
(g133
(I0
tp578
g135
tp579
Rp580
(I1
(I3
I3
tp581
g59
I00
S'\x00\x00\x00\x00\x00\x00\xf0?\x00\x00\x00\x00\x00\x00\x00\x00\x00\x00\x00\x00\x00\x00\x00\x00\x00\x00\x00\x00\x00\x00\x00\x00\x00\x00\x00\x00\x00\x00\xf0?\x00\x00\x00\x00\x00\x00\x00\x00\x00\x00\x00\x00\x00\x00\x00\x00\x00\x00\x00\x00\x00\x00\x00\x00\x00\x00\x00\x00\x00\x00\xf0?'
p582
tp583
bsg51
g7
sg52
(dp584
I139846481536912
g547
ssbsg52
(dp585
I139846481535504
g544
ssg51
g7
sbsg231
I2
sg232
g234
sg52
(dp586
I139846481536848
g0
(g122
g2
Ntp587
Rp588
(dp589
g49
I2
sg126
g0
(g127
g2
Ntp590
Rp591
(dp592
g49
I1
sg131
g132
(g133
(I0
tp593
g135
tp594
Rp595
(I1
(I2
tp596
g59
I00
S'\x00\x00\x00\x00\x00\x00\xf0\x7f\x00\x00\x00\x00\x00\x00\xf0\x7f'
p597
tp598
bsg52
(dp599
I139846481536848
g588
ssg142
g132
(g133
(I0
tp600
g135
tp601
Rp602
(I1
(I2
I2
tp603
g59
I00
S'\x00\x00\x00\x00\x00\x00\x00\x00\x00\x00\x00\x00\x00\x00\x00\x00\x00\x00\x00\x00\x00\x00\xf0?\x00\x00\x00\x00\x00\x00\xf0?'
p604
tp605
bsg149
g132
(g133
(I0
tp606
g135
tp607
Rp608
(I1
(I2
I2
tp609
g59
I00
S'\x00\x00\x00\x00\x00\x00\x00\x00\x00\x00\x00\x00\x00\x00\x00\x00\x00\x00\x00\x00\x00\x00\xf0?\x00\x00\x00\x00\x00\x00\xf0?'
p610
tp611
bsg156
I01
sg51
g7
sbsg115
g544
sg149
Nsg52
(dp612
sg51
g7
sbssg51
g7
sbsI139846481737168
g0
(cmatplotlib.transforms
BlendedAffine2D
p613
g2
Ntp614
Rp615
(dp616
g49
I2
sg120
Nsg75
g0
(g45
g2
Ntp617
Rp618
(dp619
g49
I1
sg50
Nsg51
g7
sg52
(dp620
I139846481737168
g615
ssbsg76
g234
sg50
Nsg51
g7
sg52
(dp621
sbsI139846484113040
g0
(g176
g2
Ntp622
Rp623
(dp624
g49
I2
sg180
I2
sg181
g0
(g176
g2
Ntp625
Rp626
(dp627
g49
I1
sg180
I2
sg181
g0
(g116
g2
Ntp628
Rp629
(dp630
g49
I1
sg120
Nsg50
Nsg121
g0
(g127
g2
Ntp631
Rp632
(dp633
g49
I1
sg131
g132
(g133
(I0
tp634
g135
tp635
Rp636
(I1
(I2
tp637
g59
I00
S'\x00\x00\x00\x00\x00\x00\xf0\x7f\x00\x00\x00\x00\x00\x00\xf0\x7f'
p638
tp639
bsg52
(dp640
I139846484113232
g629
ssg142
g132
(g133
(I0
tp641
g135
tp642
Rp643
(I1
(I2
I2
tp644
g59
I00
S'\x00\x00\x00\x00\x00\x00\x00\x00\x00\x00\x00\x00\x00\x00\x00\x00\x00\x00\x00\x00\x00\x00\xf0?\x00\x00\x00\x00\x00\x00\xf0?'
p645
tp646
bsg149
g132
(g133
(I0
tp647
g135
tp648
Rp649
(I1
(I2
I2
tp650
g59
I00
S'\x00\x00\x00\x00\x00\x00\x00\x00\x00\x00\x00\x00\x00\x00\x00\x00\x00\x00\x00\x00\x00\x00\xf0?\x00\x00\x00\x00\x00\x00\xf0?'
p651
tp652
bsg156
I01
sg51
g7
sbsg52
(dp653
I139846484115344
g626
ssg51
g7
sbsg231
I2
sg232
g0
(g157
g2
Ntp654
Rp655
(dp656
g49
I2
sg50
Nsg120
g132
(g133
(I0
tp657
g135
tp658
Rp659
(I1
(I3
I3
tp660
g59
I00
S'\x00\x00\x00\x00\x00\x00\xf0?\x00\x00\x00\x00\x00\x00\x00\x00\x00\x00\x00\x00\x00\x00\x00\x00\x00\x00\x00\x00\x00\x00\x00\x00\x00\x00\x00\x00\x00\x00\xf0?\x00\x00\x00\x00\x00\x00\x00\x00\x00\x00\x00\x00\x00\x00\x00\x00\x00\x00\x00\x00\x00\x00\x00\x00\x00\x00\x00\x00\x00\x00\xf0?'
p661
tp662
bsg51
g7
sg52
(dp663
I139846484115344
g626
ssbsg52
(dp664
I139846484113040
g623
ssg51
g7
sbsg231
I2
sg232
g234
sg52
(dp665
I139846484112976
g0
(g122
g2
Ntp666
Rp667
(dp668
g49
I2
sg126
g0
(g127
g2
Ntp669
Rp670
(dp671
g49
I1
sg131
g132
(g133
(I0
tp672
g135
tp673
Rp674
(I1
(I2
tp675
g59
I00
S'\x00\x00\x00\x00\x00\x00\xf0\x7f\x00\x00\x00\x00\x00\x00\xf0\x7f'
p676
tp677
bsg52
(dp678
I139846484112976
g667
ssg142
g132
(g133
(I0
tp679
g135
tp680
Rp681
(I1
(I2
I2
tp682
g59
I00
S'\x00\x00\x00\x00\x00\x00\x00\x00\x00\x00\x00\x00\x00\x00\x00\x00\x00\x00\x00\x00\x00\x00\xf0?\x00\x00\x00\x00\x00\x00\xf0?'
p683
tp684
bsg149
g132
(g133
(I0
tp685
g135
tp686
Rp687
(I1
(I2
I2
tp688
g59
I00
S'\x00\x00\x00\x00\x00\x00\x00\x00\x00\x00\x00\x00\x00\x00\x00\x00\x00\x00\x00\x00\x00\x00\xf0?\x00\x00\x00\x00\x00\x00\xf0?'
p689
tp690
bsg156
I01
sg51
g7
sbsg115
g623
sg149
Nsg52
(dp691
sg51
g7
sbssg51
g7
sbsI139846482339536
g0
(g176
g2
Ntp692
Rp693
(dp694
g49
I2
sg180
I2
sg181
g0
(g176
g2
Ntp695
Rp696
(dp697
g49
I1
sg180
I2
sg181
g0
(g116
g2
Ntp698
Rp699
(dp700
g49
I1
sg120
Nsg50
Nsg121
g0
(g127
g2
Ntp701
Rp702
(dp703
g49
I1
sg131
g132
(g133
(I0
tp704
g135
tp705
Rp706
(I1
(I2
tp707
g59
I00
S'\x00\x00\x00\x00\x00\x00\xf0\x7f\x00\x00\x00\x00\x00\x00\xf0\x7f'
p708
tp709
bsg52
(dp710
I139846482341072
g699
ssg142
g132
(g133
(I0
tp711
g135
tp712
Rp713
(I1
(I2
I2
tp714
g59
I00
S'\x00\x00\x00\x00\x00\x00\x00\x00\x00\x00\x00\x00\x00\x00\x00\x00\x00\x00\x00\x00\x00\x00\xf0?\x00\x00\x00\x00\x00\x00\xf0?'
p715
tp716
bsg149
g132
(g133
(I0
tp717
g135
tp718
Rp719
(I1
(I2
I2
tp720
g59
I00
S'\x00\x00\x00\x00\x00\x00\x00\x00\x00\x00\x00\x00\x00\x00\x00\x00\x00\x00\x00\x00\x00\x00\xf0?\x00\x00\x00\x00\x00\x00\xf0?'
p721
tp722
bsg156
I01
sg51
g7
sbsg52
(dp723
I139846482339984
g696
ssg51
g7
sbsg231
I2
sg232
g0
(g157
g2
Ntp724
Rp725
(dp726
g49
I2
sg50
Nsg120
g132
(g133
(I0
tp727
g135
tp728
Rp729
(I1
(I3
I3
tp730
g59
I00
S'\x00\x00\x00\x00\x00\x00\xf0?\x00\x00\x00\x00\x00\x00\x00\x00\x00\x00\x00\x00\x00\x00\x00\x00\x00\x00\x00\x00\x00\x00\x00\x00\x00\x00\x00\x00\x00\x00\xf0?\x00\x00\x00\x00\x00\x00\x00\x00\x00\x00\x00\x00\x00\x00\x00\x00\x00\x00\x00\x00\x00\x00\x00\x00\x00\x00\x00\x00\x00\x00\xf0?'
p731
tp732
bsg51
g7
sg52
(dp733
I139846482339984
g696
ssbsg52
(dp734
I139846482339536
g693
ssg51
g7
sbsg231
I2
sg232
g234
sg52
(dp735
I139846482339216
g0
(g122
g2
Ntp736
Rp737
(dp738
g49
I2
sg126
g0
(g127
g2
Ntp739
Rp740
(dp741
g49
I1
sg131
g132
(g133
(I0
tp742
g135
tp743
Rp744
(I1
(I2
tp745
g59
I00
S'\x00\x00\x00\x00\x00\x00\xf0\x7f\x00\x00\x00\x00\x00\x00\xf0\x7f'
p746
tp747
bsg52
(dp748
I139846482339216
g737
ssg142
g132
(g133
(I0
tp749
g135
tp750
Rp751
(I1
(I2
I2
tp752
g59
I00
S'\x00\x00\x00\x00\x00\x00\x00\x00\x00\x00\x00\x00\x00\x00\x00\x00\x00\x00\x00\x00\x00\x00\xf0?\x00\x00\x00\x00\x00\x00\xf0?'
p753
tp754
bsg149
g132
(g133
(I0
tp755
g135
tp756
Rp757
(I1
(I2
I2
tp758
g59
I00
S'\x00\x00\x00\x00\x00\x00\x00\x00\x00\x00\x00\x00\x00\x00\x00\x00\x00\x00\x00\x00\x00\x00\xf0?\x00\x00\x00\x00\x00\x00\xf0?'
p759
tp760
bsg156
I01
sg51
g7
sbsg115
g693
sg149
Nsg52
(dp761
sg51
g7
sbssg51
g7
sbsI139846477641872
g0
(g176
g2
Ntp762
Rp763
(dp764
g49
I2
sg180
I2
sg181
g0
(g176
g2
Ntp765
Rp766
(dp767
g49
I1
sg180
I2
sg181
g0
(g116
g2
Ntp768
Rp769
(dp770
g49
I1
sg120
Nsg50
Nsg121
g0
(g127
g2
Ntp771
Rp772
(dp773
g49
I1
sg131
g132
(g133
(I0
tp774
g135
tp775
Rp776
(I1
(I2
tp777
g59
I00
S'\x00\x00\x00\x00\x00\x00\xf0\x7f\x00\x00\x00\x00\x00\x00\xf0\x7f'
p778
tp779
bsg52
(dp780
I139846477640016
g769
ssg142
g132
(g133
(I0
tp781
g135
tp782
Rp783
(I1
(I2
I2
tp784
g59
I00
S'\x00\x00\x00\x00\x00\x00\x00\x00\x00\x00\x00\x00\x00\x00\x00\x00\x00\x00\x00\x00\x00\x00\xf0?\x00\x00\x00\x00\x00\x00\xf0?'
p785
tp786
bsg149
g132
(g133
(I0
tp787
g135
tp788
Rp789
(I1
(I2
I2
tp790
g59
I00
S'\x00\x00\x00\x00\x00\x00\x00\x00\x00\x00\x00\x00\x00\x00\x00\x00\x00\x00\x00\x00\x00\x00\xf0?\x00\x00\x00\x00\x00\x00\xf0?'
p791
tp792
bsg156
I01
sg51
g7
sbsg52
(dp793
I139846477643088
g766
ssg51
g7
sbsg231
I2
sg232
g0
(g157
g2
Ntp794
Rp795
(dp796
g49
I2
sg50
Nsg120
g132
(g133
(I0
tp797
g135
tp798
Rp799
(I1
(I3
I3
tp800
g59
I00
S'\x00\x00\x00\x00\x00\x00\xf0?\x00\x00\x00\x00\x00\x00\x00\x00\x00\x00\x00\x00\x00\x00\x00\x00\x00\x00\x00\x00\x00\x00\x00\x00\x00\x00\x00\x00\x00\x00\xf0?\x00\x00\x00\x00\x00\x00\x00\x00\x00\x00\x00\x00\x00\x00\x00\x00\x00\x00\x00\x00\x00\x00\x00\x00\x00\x00\x00\x00\x00\x00\xf0?'
p801
tp802
bsg51
g7
sg52
(dp803
I139846477643088
g766
ssbsg52
(dp804
I139846477641872
g763
ssg51
g7
sbsg231
I2
sg232
g234
sg52
(dp805
I139846477640080
g0
(g122
g2
Ntp806
Rp807
(dp808
g49
I2
sg126
g0
(g127
g2
Ntp809
Rp810
(dp811
g49
I1
sg131
g132
(g133
(I0
tp812
g135
tp813
Rp814
(I1
(I2
tp815
g59
I00
S'\x00\x00\x00\x00\x00\x00\xf0\x7f\x00\x00\x00\x00\x00\x00\xf0\x7f'
p816
tp817
bsg52
(dp818
I139846477640080
g807
ssg142
g132
(g133
(I0
tp819
g135
tp820
Rp821
(I1
(I2
I2
tp822
g59
I00
S'\x00\x00\x00\x00\x00\x00\x00\x00\x00\x00\x00\x00\x00\x00\x00\x00\x00\x00\x00\x00\x00\x00\xf0?\x00\x00\x00\x00\x00\x00\xf0?'
p823
tp824
bsg149
g132
(g133
(I0
tp825
g135
tp826
Rp827
(I1
(I2
I2
tp828
g59
I00
S'\x00\x00\x00\x00\x00\x00\x00\x00\x00\x00\x00\x00\x00\x00\x00\x00\x00\x00\x00\x00\x00\x00\xf0?\x00\x00\x00\x00\x00\x00\xf0?'
p829
tp830
bsg156
I01
sg51
g7
sbsg115
g763
sg149
Nsg52
(dp831
sg51
g7
sbssg51
g7
sbsI139846484041360
g0
(g176
g2
Ntp832
Rp833
(dp834
g49
I2
sg180
I2
sg181
g0
(g176
g2
Ntp835
Rp836
(dp837
g49
I1
sg180
I2
sg181
g0
(g116
g2
Ntp838
Rp839
(dp840
g49
I1
sg120
Nsg50
Nsg121
g0
(g127
g2
Ntp841
Rp842
(dp843
g49
I1
sg131
g132
(g133
(I0
tp844
g135
tp845
Rp846
(I1
(I2
tp847
g59
I00
S'\x00\x00\x00\x00\x00\x00\xf0\x7f\x00\x00\x00\x00\x00\x00\xf0\x7f'
p848
tp849
bsg52
(dp850
I139846484040976
g839
ssg142
g132
(g133
(I0
tp851
g135
tp852
Rp853
(I1
(I2
I2
tp854
g59
I00
S'\x00\x00\x00\x00\x00\x00\x00\x00\x00\x00\x00\x00\x00\x00\x00\x00\x00\x00\x00\x00\x00\x00\xf0?\x00\x00\x00\x00\x00\x00\xf0?'
p855
tp856
bsg149
g132
(g133
(I0
tp857
g135
tp858
Rp859
(I1
(I2
I2
tp860
g59
I00
S'\x00\x00\x00\x00\x00\x00\x00\x00\x00\x00\x00\x00\x00\x00\x00\x00\x00\x00\x00\x00\x00\x00\xf0?\x00\x00\x00\x00\x00\x00\xf0?'
p861
tp862
bsg156
I01
sg51
g7
sbsg52
(dp863
I139846484040336
g836
ssg51
g7
sbsg231
I2
sg232
g0
(g157
g2
Ntp864
Rp865
(dp866
g49
I2
sg50
Nsg120
g132
(g133
(I0
tp867
g135
tp868
Rp869
(I1
(I3
I3
tp870
g59
I00
S'\x00\x00\x00\x00\x00\x00\xf0?\x00\x00\x00\x00\x00\x00\x00\x00\x00\x00\x00\x00\x00\x00\x00\x00\x00\x00\x00\x00\x00\x00\x00\x00\x00\x00\x00\x00\x00\x00\xf0?\x00\x00\x00\x00\x00\x00\x00\x00\x00\x00\x00\x00\x00\x00\x00\x00\x00\x00\x00\x00\x00\x00\x00\x00\x00\x00\x00\x00\x00\x00\xf0?'
p871
tp872
bsg51
g7
sg52
(dp873
I139846484040336
g836
ssbsg52
(dp874
I139846484041360
g833
ssg51
g7
sbsg231
I2
sg232
g234
sg52
(dp875
I139846484038672
g0
(g122
g2
Ntp876
Rp877
(dp878
g49
I2
sg126
g0
(g127
g2
Ntp879
Rp880
(dp881
g49
I1
sg131
g132
(g133
(I0
tp882
g135
tp883
Rp884
(I1
(I2
tp885
g59
I00
S'\x00\x00\x00\x00\x00\x00\xf0\x7f\x00\x00\x00\x00\x00\x00\xf0\x7f'
p886
tp887
bsg52
(dp888
I139846484038672
g877
ssg142
g132
(g133
(I0
tp889
g135
tp890
Rp891
(I1
(I2
I2
tp892
g59
I00
S'\x00\x00\x00\x00\x00\x00\x00\x00\x00\x00\x00\x00\x00\x00\x00\x00\x00\x00\x00\x00\x00\x00\xf0?\x00\x00\x00\x00\x00\x00\xf0?'
p893
tp894
bsg149
g132
(g133
(I0
tp895
g135
tp896
Rp897
(I1
(I2
I2
tp898
g59
I00
S'\x00\x00\x00\x00\x00\x00\x00\x00\x00\x00\x00\x00\x00\x00\x00\x00\x00\x00\x00\x00\x00\x00\xf0?\x00\x00\x00\x00\x00\x00\xf0?'
p899
tp900
bsg156
I01
sg51
g7
sbsg115
g833
sg149
Nsg52
(dp901
sg51
g7
sbssg51
g7
sbsI139846481607184
g0
(g176
g2
Ntp902
Rp903
(dp904
g49
I2
sg180
I2
sg181
g234
sg231
I2
sg232
g0
(g168
g2
Ntp905
Rp906
(dp907
g49
I1
sg120
Nsg172
g159
sg50
Nsg173
(F0.0
F0.08333333333333333
tp908
sg51
g7
sg52
(dp909
I139846481605136
g0
(g176
g2
Ntp910
Rp911
(dp912
g49
I2
sg180
I2
sg181
g234
sg231
I2
sg232
g906
sg52
(dp913
sg51
g7
sbsI139846481607184
g903
sI139846481604880
g0
(g176
g2
Ntp914
Rp915
(dp916
g49
I2
sg180
I2
sg181
g234
sg231
I2
sg232
g906
sg52
(dp917
sg51
g7
sbssbsg52
(dp918
sg51
g7
sbsI139846484593296
g0
(g613
g2
Ntp919
Rp920
(dp921
g49
I2
sg120
Nsg75
g0
(g45
g2
Ntp922
Rp923
(dp924
g49
I1
sg50
Nsg51
g7
sg52
(dp925
I139846484593296
g920
ssbsg76
g234
sg50
Nsg51
g7
sg52
(dp926
sbsI139846477691664
g0
(g176
g2
Ntp927
Rp928
(dp929
g49
I2
sg180
I2
sg181
g0
(g176
g2
Ntp930
Rp931
(dp932
g49
I1
sg180
I2
sg181
g0
(g116
g2
Ntp933
Rp934
(dp935
g49
I1
sg120
Nsg50
Nsg121
g0
(g127
g2
Ntp936
Rp937
(dp938
g49
I1
sg131
g132
(g133
(I0
tp939
g135
tp940
Rp941
(I1
(I2
tp942
g59
I00
S'\x00\x00\x00\x00\x00\x00\xf0\x7f\x00\x00\x00\x00\x00\x00\xf0\x7f'
p943
tp944
bsg52
(dp945
I139846488346960
g934
ssg142
g132
(g133
(I0
tp946
g135
tp947
Rp948
(I1
(I2
I2
tp949
g59
I00
S'\x00\x00\x00\x00\x00\x00\x00\x00\x00\x00\x00\x00\x00\x00\x00\x00\x00\x00\x00\x00\x00\x00\xf0?\x00\x00\x00\x00\x00\x00\xf0?'
p950
tp951
bsg149
g132
(g133
(I0
tp952
g135
tp953
Rp954
(I1
(I2
I2
tp955
g59
I00
S'\x00\x00\x00\x00\x00\x00\x00\x00\x00\x00\x00\x00\x00\x00\x00\x00\x00\x00\x00\x00\x00\x00\xf0?\x00\x00\x00\x00\x00\x00\xf0?'
p956
tp957
bsg156
I01
sg51
g7
sbsg52
(dp958
I139846488349648
g931
ssg51
g7
sbsg231
I2
sg232
g0
(g157
g2
Ntp959
Rp960
(dp961
g49
I2
sg50
Nsg120
g132
(g133
(I0
tp962
g135
tp963
Rp964
(I1
(I3
I3
tp965
g59
I00
S'\x00\x00\x00\x00\x00\x00\xf0?\x00\x00\x00\x00\x00\x00\x00\x00\x00\x00\x00\x00\x00\x00\x00\x00\x00\x00\x00\x00\x00\x00\x00\x00\x00\x00\x00\x00\x00\x00\xf0?\x00\x00\x00\x00\x00\x00\x00\x00\x00\x00\x00\x00\x00\x00\x00\x00\x00\x00\x00\x00\x00\x00\x00\x00\x00\x00\x00\x00\x00\x00\xf0?'
p966
tp967
bsg51
g7
sg52
(dp968
I139846488349648
g931
ssbsg52
(dp969
I139846477691664
g928
ssg51
g7
sbsg231
I2
sg232
g234
sg52
(dp970
I139846477690128
g0
(g122
g2
Ntp971
Rp972
(dp973
g49
I2
sg126
g0
(g127
g2
Ntp974
Rp975
(dp976
g49
I1
sg131
g132
(g133
(I0
tp977
g135
tp978
Rp979
(I1
(I2
tp980
g59
I00
S'\x00\x00\x00\x00\x00\x00\xf0\x7f\x00\x00\x00\x00\x00\x00\xf0\x7f'
p981
tp982
bsg52
(dp983
I139846477690128
g972
ssg142
g132
(g133
(I0
tp984
g135
tp985
Rp986
(I1
(I2
I2
tp987
g59
I00
S'\x00\x00\x00\x00\x00\x00\x00\x00\x00\x00\x00\x00\x00\x00\x00\x00\x00\x00\x00\x00\x00\x00\xf0?\x00\x00\x00\x00\x00\x00\xf0?'
p988
tp989
bsg149
g132
(g133
(I0
tp990
g135
tp991
Rp992
(I1
(I2
I2
tp993
g59
I00
S'\x00\x00\x00\x00\x00\x00\x00\x00\x00\x00\x00\x00\x00\x00\x00\x00\x00\x00\x00\x00\x00\x00\xf0?\x00\x00\x00\x00\x00\x00\xf0?'
p994
tp995
bsg156
I01
sg51
g7
sbsg115
g928
sg149
Nsg52
(dp996
sg51
g7
sbssg51
g7
sbsI139846482340880
g0
(g176
g2
Ntp997
Rp998
(dp999
g49
I2
sg180
I2
sg181
g0
(g176
g2
Ntp1000
Rp1001
(dp1002
g49
I1
sg180
I2
sg181
g0
(g116
g2
Ntp1003
Rp1004
(dp1005
g49
I1
sg120
Nsg50
Nsg121
g0
(g127
g2
Ntp1006
Rp1007
(dp1008
g49
I1
sg131
g132
(g133
(I0
tp1009
g135
tp1010
Rp1011
(I1
(I2
tp1012
g59
I00
S'\x00\x00\x00\x00\x00\x00\xf0\x7f\x00\x00\x00\x00\x00\x00\xf0\x7f'
p1013
tp1014
bsg52
(dp1015
I139846482338960
g1004
ssg142
g132
(g133
(I0
tp1016
g135
tp1017
Rp1018
(I1
(I2
I2
tp1019
g59
I00
S'\x00\x00\x00\x00\x00\x00\x00\x00\x00\x00\x00\x00\x00\x00\x00\x00\x00\x00\x00\x00\x00\x00\xf0?\x00\x00\x00\x00\x00\x00\xf0?'
p1020
tp1021
bsg149
g132
(g133
(I0
tp1022
g135
tp1023
Rp1024
(I1
(I2
I2
tp1025
g59
I00
S'\x00\x00\x00\x00\x00\x00\x00\x00\x00\x00\x00\x00\x00\x00\x00\x00\x00\x00\x00\x00\x00\x00\xf0?\x00\x00\x00\x00\x00\x00\xf0?'
p1026
tp1027
bsg156
I01
sg51
g7
sbsg52
(dp1028
I139846482337936
g1001
ssg51
g7
sbsg231
I2
sg232
g0
(g157
g2
Ntp1029
Rp1030
(dp1031
g49
I2
sg50
Nsg120
g132
(g133
(I0
tp1032
g135
tp1033
Rp1034
(I1
(I3
I3
tp1035
g59
I00
S'\x00\x00\x00\x00\x00\x00\xf0?\x00\x00\x00\x00\x00\x00\x00\x00\x00\x00\x00\x00\x00\x00\x00\x00\x00\x00\x00\x00\x00\x00\x00\x00\x00\x00\x00\x00\x00\x00\xf0?\x00\x00\x00\x00\x00\x00\x00\x00\x00\x00\x00\x00\x00\x00\x00\x00\x00\x00\x00\x00\x00\x00\x00\x00\x00\x00\x00\x00\x00\x00\xf0?'
p1036
tp1037
bsg51
g7
sg52
(dp1038
I139846482337936
g1001
ssbsg52
(dp1039
I139846482340880
g998
ssg51
g7
sbsg231
I2
sg232
g234
sg52
(dp1040
I139846482340816
g0
(g122
g2
Ntp1041
Rp1042
(dp1043
g49
I2
sg126
g0
(g127
g2
Ntp1044
Rp1045
(dp1046
g49
I1
sg131
g132
(g133
(I0
tp1047
g135
tp1048
Rp1049
(I1
(I2
tp1050
g59
I00
S'\x00\x00\x00\x00\x00\x00\xf0\x7f\x00\x00\x00\x00\x00\x00\xf0\x7f'
p1051
tp1052
bsg52
(dp1053
I139846482340816
g1042
ssg142
g132
(g133
(I0
tp1054
g135
tp1055
Rp1056
(I1
(I2
I2
tp1057
g59
I00
S'\x00\x00\x00\x00\x00\x00\x00\x00\x00\x00\x00\x00\x00\x00\x00\x00\x00\x00\x00\x00\x00\x00\xf0?\x00\x00\x00\x00\x00\x00\xf0?'
p1058
tp1059
bsg149
g132
(g133
(I0
tp1060
g135
tp1061
Rp1062
(I1
(I2
I2
tp1063
g59
I00
S'\x00\x00\x00\x00\x00\x00\x00\x00\x00\x00\x00\x00\x00\x00\x00\x00\x00\x00\x00\x00\x00\x00\xf0?\x00\x00\x00\x00\x00\x00\xf0?'
p1064
tp1065
bsg156
I01
sg51
g7
sbsg115
g998
sg149
Nsg52
(dp1066
sg51
g7
sbssg51
g7
sbsI139846481605136
g911
sI139846481538256
g0
(g176
g2
Ntp1067
Rp1068
(dp1069
g49
I2
sg180
I2
sg181
g0
(g176
g2
Ntp1070
Rp1071
(dp1072
g49
I1
sg180
I2
sg181
g0
(g116
g2
Ntp1073
Rp1074
(dp1075
g49
I1
sg120
Nsg50
Nsg121
g0
(g127
g2
Ntp1076
Rp1077
(dp1078
g49
I1
sg131
g132
(g133
(I0
tp1079
g135
tp1080
Rp1081
(I1
(I2
tp1082
g59
I00
S'\x00\x00\x00\x00\x00\x00\xf0\x7f\x00\x00\x00\x00\x00\x00\xf0\x7f'
p1083
tp1084
bsg52
(dp1085
I139846481536528
g1074
ssg142
g132
(g133
(I0
tp1086
g135
tp1087
Rp1088
(I1
(I2
I2
tp1089
g59
I00
S'\x00\x00\x00\x00\x00\x00\x00\x00\x00\x00\x00\x00\x00\x00\x00\x00\x00\x00\x00\x00\x00\x00\xf0?\x00\x00\x00\x00\x00\x00\xf0?'
p1090
tp1091
bsg149
g132
(g133
(I0
tp1092
g135
tp1093
Rp1094
(I1
(I2
I2
tp1095
g59
I00
S'\x00\x00\x00\x00\x00\x00\x00\x00\x00\x00\x00\x00\x00\x00\x00\x00\x00\x00\x00\x00\x00\x00\xf0?\x00\x00\x00\x00\x00\x00\xf0?'
p1096
tp1097
bsg156
I01
sg51
g7
sbsg52
(dp1098
I139846481538448
g1071
ssg51
g7
sbsg231
I2
sg232
g0
(g157
g2
Ntp1099
Rp1100
(dp1101
g49
I2
sg50
Nsg120
g132
(g133
(I0
tp1102
g135
tp1103
Rp1104
(I1
(I3
I3
tp1105
g59
I00
S'\x00\x00\x00\x00\x00\x00\xf0?\x00\x00\x00\x00\x00\x00\x00\x00\x00\x00\x00\x00\x00\x00\x00\x00\x00\x00\x00\x00\x00\x00\x00\x00\x00\x00\x00\x00\x00\x00\xf0?\x00\x00\x00\x00\x00\x00\x00\x00\x00\x00\x00\x00\x00\x00\x00\x00\x00\x00\x00\x00\x00\x00\x00\x00\x00\x00\x00\x00\x00\x00\xf0?'
p1106
tp1107
bsg51
g7
sg52
(dp1108
I139846481538448
g1071
ssbsg52
(dp1109
I139846481538256
g1068
ssg51
g7
sbsg231
I2
sg232
g234
sg52
(dp1110
I139846481537232
g0
(g122
g2
Ntp1111
Rp1112
(dp1113
g49
I2
sg126
g0
(g127
g2
Ntp1114
Rp1115
(dp1116
g49
I1
sg131
g132
(g133
(I0
tp1117
g135
tp1118
Rp1119
(I1
(I2
tp1120
g59
I00
S'\x00\x00\x00\x00\x00\x00\xf0\x7f\x00\x00\x00\x00\x00\x00\xf0\x7f'
p1121
tp1122
bsg52
(dp1123
I139846481537232
g1112
ssg142
g132
(g133
(I0
tp1124
g135
tp1125
Rp1126
(I1
(I2
I2
tp1127
g59
I00
S'\x00\x00\x00\x00\x00\x00\x00\x00\x00\x00\x00\x00\x00\x00\x00\x00\x00\x00\x00\x00\x00\x00\xf0?\x00\x00\x00\x00\x00\x00\xf0?'
p1128
tp1129
bsg149
g132
(g133
(I0
tp1130
g135
tp1131
Rp1132
(I1
(I2
I2
tp1133
g59
I00
S'\x00\x00\x00\x00\x00\x00\x00\x00\x00\x00\x00\x00\x00\x00\x00\x00\x00\x00\x00\x00\x00\x00\xf0?\x00\x00\x00\x00\x00\x00\xf0?'
p1134
tp1135
bsg156
I01
sg51
g7
sbsg115
g1068
sg149
Nsg52
(dp1136
sg51
g7
sbssg51
g7
sbsI139846490554832
g0
(g182
g2
Ntp1137
Rp1138
(dp1139
g49
I2
sg75
g234
sg76
g187
sS'_affine'
p1140
Nsg52
(dp1141
I139846477643728
g0
(g176
g2
Ntp1142
Rp1143
(dp1144
g49
I2
sg180
I2
sg181
g1138
sg231
I2
sg232
g0
(g168
g2
Ntp1145
Rp1146
(dp1147
g49
I1
sg120
Nsg172
g159
sg50
Nsg173
(I0
F0.04722222222222222
tp1148
sg51
g7
sg52
(dp1149
I139846477643728
g1143
ssbsg52
(dp1150
sg51
g7
sbsI139846481604688
g0
(g176
g2
Ntp1151
Rp1152
(dp1153
g49
I2
sg180
I2
sg181
g1138
sg231
I2
sg232
g0
(g168
g2
Ntp1154
Rp1155
(dp1156
g49
I1
sg120
Nsg172
g159
sg50
Nsg173
(I0
F-0.04722222222222222
tp1157
sg51
g7
sg52
(dp1158
I139846481604688
g1152
ssbsg52
(dp1159
sg51
g7
sbsI139846483930192
g0
(g176
g2
Ntp1160
Rp1161
(dp1162
g49
I2
sg180
I2
sg181
g1138
sg231
I2
sg232
g0
(g168
g2
Ntp1163
Rp1164
(dp1165
g49
I1
sg120
Nsg172
g159
sg50
Nsg173
(I0
F-0.04861111111111111
tp1166
sg51
g7
sg52
(dp1167
I139846483930192
g1161
ssbsg52
(dp1168
sg51
g7
sbsI139846481607952
g0
(g176
g2
Ntp1169
Rp1170
(dp1171
g49
I2
sg180
I2
sg181
g1138
sg231
I2
sg232
g0
(g168
g2
Ntp1172
Rp1173
(dp1174
g49
I1
sg120
Nsg172
g159
sg50
Nsg173
(I0
F0.04722222222222222
tp1175
sg51
g7
sg52
(dp1176
I139846481607952
g1170
ssbsg52
(dp1177
sg51
g7
sbsI139846477691728
g0
(g176
g2
Ntp1178
Rp1179
(dp1180
g49
I2
sg180
I2
sg181
g1138
sg231
I2
sg232
g0
(g168
g2
Ntp1181
Rp1182
(dp1183
g49
I1
sg120
Nsg172
g159
sg50
Nsg173
(I0
F0.04861111111111111
tp1184
sg51
g7
sg52
(dp1185
I139846477691728
g1179
ssbsg52
(dp1186
sg51
g7
sbsI139846484593040
g0
(g176
g2
Ntp1187
Rp1188
(dp1189
g49
I2
sg180
I2
sg181
g1138
sg231
I2
sg232
g0
(g168
g2
Ntp1190
Rp1191
(dp1192
g49
I1
sg120
Nsg172
g159
sg50
Nsg173
(I0
F-0.04861111111111111
tp1193
sg51
g7
sg52
(dp1194
I139846484593040
g1188
ssbsg52
(dp1195
sg51
g7
sbsI139846477641168
g0
(g176
g2
Ntp1196
Rp1197
(dp1198
g49
I2
sg180
I2
sg181
g1138
sg231
I2
sg232
g0
(g168
g2
Ntp1199
Rp1200
(dp1201
g49
I1
sg120
Nsg172
g159
sg50
Nsg173
(I0
F-0.04722222222222222
tp1202
sg51
g7
sg52
(dp1203
I139846477641168
g1197
ssbsg52
(dp1204
sg51
g7
sbsI139846483928592
g0
(g176
g2
Ntp1205
Rp1206
(dp1207
g49
I2
sg180
I2
sg181
g1138
sg231
I2
sg232
g0
(g168
g2
Ntp1208
Rp1209
(dp1210
g49
I1
sg120
Nsg172
g159
sg50
Nsg173
(I0
F0.04861111111111111
tp1211
sg51
g7
sg52
(dp1212
I139846483928592
g1206
ssbsg52
(dp1213
sg51
g7
sbssg51
g7
sbsI139846490557840
g184
sI139846482341328
g0
(g176
g2
Ntp1214
Rp1215
(dp1216
g49
I2
sg180
I2
sg181
g0
(g176
g2
Ntp1217
Rp1218
(dp1219
g49
I1
sg180
I2
sg181
g0
(g116
g2
Ntp1220
Rp1221
(dp1222
g49
I1
sg120
Nsg50
Nsg121
g0
(g127
g2
Ntp1223
Rp1224
(dp1225
g49
I1
sg131
g132
(g133
(I0
tp1226
g135
tp1227
Rp1228
(I1
(I2
tp1229
g59
I00
S'\x00\x00\x00\x00\x00\x00\xf0\x7f\x00\x00\x00\x00\x00\x00\xf0\x7f'
p1230
tp1231
bsg52
(dp1232
I139846482338832
g1221
ssg142
g132
(g133
(I0
tp1233
g135
tp1234
Rp1235
(I1
(I2
I2
tp1236
g59
I00
S'\x00\x00\x00\x00\x00\x00\x00\x00\x00\x00\x00\x00\x00\x00\x00\x00\x00\x00\x00\x00\x00\x00\xf0?\x00\x00\x00\x00\x00\x00\xf0?'
p1237
tp1238
bsg149
g132
(g133
(I0
tp1239
g135
tp1240
Rp1241
(I1
(I2
I2
tp1242
g59
I00
S'\x00\x00\x00\x00\x00\x00\x00\x00\x00\x00\x00\x00\x00\x00\x00\x00\x00\x00\x00\x00\x00\x00\xf0?\x00\x00\x00\x00\x00\x00\xf0?'
p1243
tp1244
bsg156
I01
sg51
g7
sbsg52
(dp1245
I139846482338640
g1218
ssg51
g7
sbsg231
I2
sg232
g0
(g157
g2
Ntp1246
Rp1247
(dp1248
g49
I2
sg50
Nsg120
g132
(g133
(I0
tp1249
g135
tp1250
Rp1251
(I1
(I3
I3
tp1252
g59
I00
S'\x00\x00\x00\x00\x00\x00\xf0?\x00\x00\x00\x00\x00\x00\x00\x00\x00\x00\x00\x00\x00\x00\x00\x00\x00\x00\x00\x00\x00\x00\x00\x00\x00\x00\x00\x00\x00\x00\xf0?\x00\x00\x00\x00\x00\x00\x00\x00\x00\x00\x00\x00\x00\x00\x00\x00\x00\x00\x00\x00\x00\x00\x00\x00\x00\x00\x00\x00\x00\x00\xf0?'
p1253
tp1254
bsg51
g7
sg52
(dp1255
I139846482338640
g1218
ssbsg52
(dp1256
I139846482341328
g1215
ssg51
g7
sbsg231
I2
sg232
g234
sg52
(dp1257
I139846481538000
g0
(g122
g2
Ntp1258
Rp1259
(dp1260
g49
I2
sg126
g0
(g127
g2
Ntp1261
Rp1262
(dp1263
g49
I1
sg131
g132
(g133
(I0
tp1264
g135
tp1265
Rp1266
(I1
(I2
tp1267
g59
I00
S'\x00\x00\x00\x00\x00\x00\xf0\x7f\x00\x00\x00\x00\x00\x00\xf0\x7f'
p1268
tp1269
bsg52
(dp1270
I139846481538000
g1259
ssg142
g132
(g133
(I0
tp1271
g135
tp1272
Rp1273
(I1
(I2
I2
tp1274
g59
I00
S'\x00\x00\x00\x00\x00\x00\x00\x00\x00\x00\x00\x00\x00\x00\x00\x00\x00\x00\x00\x00\x00\x00\xf0?\x00\x00\x00\x00\x00\x00\xf0?'
p1275
tp1276
bsg149
g132
(g133
(I0
tp1277
g135
tp1278
Rp1279
(I1
(I2
I2
tp1280
g59
I00
S'\x00\x00\x00\x00\x00\x00\x00\x00\x00\x00\x00\x00\x00\x00\x00\x00\x00\x00\x00\x00\x00\x00\xf0?\x00\x00\x00\x00\x00\x00\xf0?'
p1281
tp1282
bsg156
I01
sg51
g7
sbsg115
g1215
sg149
Nsg52
(dp1283
sg51
g7
sbssg51
g7
sbsI139846481460880
g0
(g613
g2
Ntp1284
Rp1285
(dp1286
g49
I2
sg120
Nsg75
g0
(g45
g2
Ntp1287
Rp1288
(dp1289
g49
I1
sg50
Nsg51
g7
sg52
(dp1290
I139846481460880
g1285
ssbsg76
g234
sg50
Nsg51
g7
sg52
(dp1291
sbsI139846481606544
g0
(g176
g2
Ntp1292
Rp1293
(dp1294
g49
I2
sg180
I2
sg181
g0
(g176
g2
Ntp1295
Rp1296
(dp1297
g49
I1
sg180
I2
sg181
g0
(g116
g2
Ntp1298
Rp1299
(dp1300
g49
I1
sg120
Nsg50
Nsg121
g0
(g127
g2
Ntp1301
Rp1302
(dp1303
g49
I1
sg131
g132
(g133
(I0
tp1304
g135
tp1305
Rp1306
(I1
(I2
tp1307
g59
I00
S'\x00\x00\x00\x00\x00\x00\xf0\x7f\x00\x00\x00\x00\x00\x00\xf0\x7f'
p1308
tp1309
bsg52
(dp1310
I139846481608592
g1299
ssg142
g132
(g133
(I0
tp1311
g135
tp1312
Rp1313
(I1
(I2
I2
tp1314
g59
I00
S'\x00\x00\x00\x00\x00\x00\x00\x00\x00\x00\x00\x00\x00\x00\x00\x00\x00\x00\x00\x00\x00\x00\xf0?\x00\x00\x00\x00\x00\x00\xf0?'
p1315
tp1316
bsg149
g132
(g133
(I0
tp1317
g135
tp1318
Rp1319
(I1
(I2
I2
tp1320
g59
I00
S'\x00\x00\x00\x00\x00\x00\x00\x00\x00\x00\x00\x00\x00\x00\x00\x00\x00\x00\x00\x00\x00\x00\xf0?\x00\x00\x00\x00\x00\x00\xf0?'
p1321
tp1322
bsg156
I01
sg51
g7
sbsg52
(dp1323
I139846481605840
g1296
ssg51
g7
sbsg231
I2
sg232
g0
(g157
g2
Ntp1324
Rp1325
(dp1326
g49
I2
sg50
Nsg120
g132
(g133
(I0
tp1327
g135
tp1328
Rp1329
(I1
(I3
I3
tp1330
g59
I00
S'\x00\x00\x00\x00\x00\x00\xf0?\x00\x00\x00\x00\x00\x00\x00\x00\x00\x00\x00\x00\x00\x00\x00\x00\x00\x00\x00\x00\x00\x00\x00\x00\x00\x00\x00\x00\x00\x00\xf0?\x00\x00\x00\x00\x00\x00\x00\x00\x00\x00\x00\x00\x00\x00\x00\x00\x00\x00\x00\x00\x00\x00\x00\x00\x00\x00\x00\x00\x00\x00\xf0?'
p1331
tp1332
bsg51
g7
sg52
(dp1333
I139846481605840
g1296
ssbsg52
(dp1334
I139846481606544
g1293
ssg51
g7
sbsg231
I2
sg232
g234
sg52
(dp1335
I139846481606352
g0
(g122
g2
Ntp1336
Rp1337
(dp1338
g49
I2
sg126
g0
(g127
g2
Ntp1339
Rp1340
(dp1341
g49
I1
sg131
g132
(g133
(I0
tp1342
g135
tp1343
Rp1344
(I1
(I2
tp1345
g59
I00
S'\x00\x00\x00\x00\x00\x00\xf0\x7f\x00\x00\x00\x00\x00\x00\xf0\x7f'
p1346
tp1347
bsg52
(dp1348
I139846481606352
g1337
ssg142
g132
(g133
(I0
tp1349
g135
tp1350
Rp1351
(I1
(I2
I2
tp1352
g59
I00
S'\x00\x00\x00\x00\x00\x00\x00\x00\x00\x00\x00\x00\x00\x00\x00\x00\x00\x00\x00\x00\x00\x00\xf0?\x00\x00\x00\x00\x00\x00\xf0?'
p1353
tp1354
bsg149
g132
(g133
(I0
tp1355
g135
tp1356
Rp1357
(I1
(I2
I2
tp1358
g59
I00
S'\x00\x00\x00\x00\x00\x00\x00\x00\x00\x00\x00\x00\x00\x00\x00\x00\x00\x00\x00\x00\x00\x00\xf0?\x00\x00\x00\x00\x00\x00\xf0?'
p1359
tp1360
bsg156
I01
sg51
g7
sbsg115
g1293
sg149
Nsg52
(dp1361
sg51
g7
sbssg51
g7
sbsI139846481460624
g0
(g613
g2
Ntp1362
Rp1363
(dp1364
g49
I2
sg120
Nsg75
g234
sg76
g0
(g45
g2
Ntp1365
Rp1366
(dp1367
g49
I1
sg50
Nsg51
g7
sg52
(dp1368
I139846481460624
g1363
ssbsg50
Nsg51
g7
sg52
(dp1369
sbsI139846484111504
g0
(g176
g2
Ntp1370
Rp1371
(dp1372
g49
I2
sg180
I2
sg181
g0
(g176
g2
Ntp1373
Rp1374
(dp1375
g49
I1
sg180
I2
sg181
g0
(g116
g2
Ntp1376
Rp1377
(dp1378
g49
I1
sg120
Nsg50
Nsg121
g0
(g127
g2
Ntp1379
Rp1380
(dp1381
g49
I1
sg131
g132
(g133
(I0
tp1382
g135
tp1383
Rp1384
(I1
(I2
tp1385
g59
I00
S'\x00\x00\x00\x00\x00\x00\xf0\x7f\x00\x00\x00\x00\x00\x00\xf0\x7f'
p1386
tp1387
bsg52
(dp1388
I139846484113360
g1377
ssg142
g132
(g133
(I0
tp1389
g135
tp1390
Rp1391
(I1
(I2
I2
tp1392
g59
I00
S'\x00\x00\x00\x00\x00\x00\x00\x00\x00\x00\x00\x00\x00\x00\x00\x00\x00\x00\x00\x00\x00\x00\xf0?\x00\x00\x00\x00\x00\x00\xf0?'
p1393
tp1394
bsg149
g132
(g133
(I0
tp1395
g135
tp1396
Rp1397
(I1
(I2
I2
tp1398
g59
I00
S'\x00\x00\x00\x00\x00\x00\x00\x00\x00\x00\x00\x00\x00\x00\x00\x00\x00\x00\x00\x00\x00\x00\xf0?\x00\x00\x00\x00\x00\x00\xf0?'
p1399
tp1400
bsg156
I01
sg51
g7
sbsg52
(dp1401
I139846484112656
g1374
ssg51
g7
sbsg231
I2
sg232
g0
(g157
g2
Ntp1402
Rp1403
(dp1404
g49
I2
sg50
Nsg120
g132
(g133
(I0
tp1405
g135
tp1406
Rp1407
(I1
(I3
I3
tp1408
g59
I00
S'\x00\x00\x00\x00\x00\x00\xf0?\x00\x00\x00\x00\x00\x00\x00\x00\x00\x00\x00\x00\x00\x00\x00\x00\x00\x00\x00\x00\x00\x00\x00\x00\x00\x00\x00\x00\x00\x00\xf0?\x00\x00\x00\x00\x00\x00\x00\x00\x00\x00\x00\x00\x00\x00\x00\x00\x00\x00\x00\x00\x00\x00\x00\x00\x00\x00\x00\x00\x00\x00\xf0?'
p1409
tp1410
bsg51
g7
sg52
(dp1411
I139846484112656
g1374
ssbsg52
(dp1412
I139846484111504
g1371
ssg51
g7
sbsg231
I2
sg232
g234
sg52
(dp1413
I139846484113552
g0
(g122
g2
Ntp1414
Rp1415
(dp1416
g49
I2
sg126
g0
(g127
g2
Ntp1417
Rp1418
(dp1419
g49
I1
sg131
g132
(g133
(I0
tp1420
g135
tp1421
Rp1422
(I1
(I2
tp1423
g59
I00
S'\x00\x00\x00\x00\x00\x00\xf0\x7f\x00\x00\x00\x00\x00\x00\xf0\x7f'
p1424
tp1425
bsg52
(dp1426
I139846484113552
g1415
ssg142
g132
(g133
(I0
tp1427
g135
tp1428
Rp1429
(I1
(I2
I2
tp1430
g59
I00
S'\x00\x00\x00\x00\x00\x00\x00\x00\x00\x00\x00\x00\x00\x00\x00\x00\x00\x00\x00\x00\x00\x00\xf0?\x00\x00\x00\x00\x00\x00\xf0?'
p1431
tp1432
bsg149
g132
(g133
(I0
tp1433
g135
tp1434
Rp1435
(I1
(I2
I2
tp1436
g59
I00
S'\x00\x00\x00\x00\x00\x00\x00\x00\x00\x00\x00\x00\x00\x00\x00\x00\x00\x00\x00\x00\x00\x00\xf0?\x00\x00\x00\x00\x00\x00\xf0?'
p1437
tp1438
bsg156
I01
sg51
g7
sbsg115
g1371
sg149
Nsg52
(dp1439
sg51
g7
sbssg51
g7
sbsI139846482338000
g0
(g176
g2
Ntp1440
Rp1441
(dp1442
g49
I2
sg180
I2
sg181
g0
(g176
g2
Ntp1443
Rp1444
(dp1445
g49
I1
sg180
I2
sg181
g0
(g116
g2
Ntp1446
Rp1447
(dp1448
g49
I1
sg120
Nsg50
Nsg121
g0
(g127
g2
Ntp1449
Rp1450
(dp1451
g49
I1
sg131
g132
(g133
(I0
tp1452
g135
tp1453
Rp1454
(I1
(I2
tp1455
g59
I00
S'\x00\x00\x00\x00\x00\x00\xf0\x7f\x00\x00\x00\x00\x00\x00\xf0\x7f'
p1456
tp1457
bsg52
(dp1458
I139846482338256
g1447
ssg142
g132
(g133
(I0
tp1459
g135
tp1460
Rp1461
(I1
(I2
I2
tp1462
g59
I00
S'\x00\x00\x00\x00\x00\x00\x00\x00\x00\x00\x00\x00\x00\x00\x00\x00\x00\x00\x00\x00\x00\x00\xf0?\x00\x00\x00\x00\x00\x00\xf0?'
p1463
tp1464
bsg149
g132
(g133
(I0
tp1465
g135
tp1466
Rp1467
(I1
(I2
I2
tp1468
g59
I00
S'\x00\x00\x00\x00\x00\x00\x00\x00\x00\x00\x00\x00\x00\x00\x00\x00\x00\x00\x00\x00\x00\x00\xf0?\x00\x00\x00\x00\x00\x00\xf0?'
p1469
tp1470
bsg156
I01
sg51
g7
sbsg52
(dp1471
I139846482339344
g1444
ssg51
g7
sbsg231
I2
sg232
g0
(g157
g2
Ntp1472
Rp1473
(dp1474
g49
I2
sg50
Nsg120
g132
(g133
(I0
tp1475
g135
tp1476
Rp1477
(I1
(I3
I3
tp1478
g59
I00
S'\x00\x00\x00\x00\x00\x00\xf0?\x00\x00\x00\x00\x00\x00\x00\x00\x00\x00\x00\x00\x00\x00\x00\x00\x00\x00\x00\x00\x00\x00\x00\x00\x00\x00\x00\x00\x00\x00\xf0?\x00\x00\x00\x00\x00\x00\x00\x00\x00\x00\x00\x00\x00\x00\x00\x00\x00\x00\x00\x00\x00\x00\x00\x00\x00\x00\x00\x00\x00\x00\xf0?'
p1479
tp1480
bsg51
g7
sg52
(dp1481
I139846482339344
g1444
ssbsg52
(dp1482
I139846482338000
g1441
ssg51
g7
sbsg231
I2
sg232
g234
sg52
(dp1483
I139846482341008
g0
(g122
g2
Ntp1484
Rp1485
(dp1486
g49
I2
sg126
g0
(g127
g2
Ntp1487
Rp1488
(dp1489
g49
I1
sg131
g132
(g133
(I0
tp1490
g135
tp1491
Rp1492
(I1
(I2
tp1493
g59
I00
S'\x00\x00\x00\x00\x00\x00\xf0\x7f\x00\x00\x00\x00\x00\x00\xf0\x7f'
p1494
tp1495
bsg52
(dp1496
I139846482341008
g1485
ssg142
g132
(g133
(I0
tp1497
g135
tp1498
Rp1499
(I1
(I2
I2
tp1500
g59
I00
S'\x00\x00\x00\x00\x00\x00\x00\x00\x00\x00\x00\x00\x00\x00\x00\x00\x00\x00\x00\x00\x00\x00\xf0?\x00\x00\x00\x00\x00\x00\xf0?'
p1501
tp1502
bsg149
g132
(g133
(I0
tp1503
g135
tp1504
Rp1505
(I1
(I2
I2
tp1506
g59
I00
S'\x00\x00\x00\x00\x00\x00\x00\x00\x00\x00\x00\x00\x00\x00\x00\x00\x00\x00\x00\x00\x00\x00\xf0?\x00\x00\x00\x00\x00\x00\xf0?'
p1507
tp1508
bsg156
I01
sg51
g7
sbsg115
g1441
sg149
Nsg52
(dp1509
sg51
g7
sbssg51
g7
sbsI139846481604880
g915
sI139846490554704
g229
sI139846481536208
g0
(g176
g2
Ntp1510
Rp1511
(dp1512
g49
I2
sg180
I2
sg181
g0
(g176
g2
Ntp1513
Rp1514
(dp1515
g49
I1
sg180
I2
sg181
g0
(g116
g2
Ntp1516
Rp1517
(dp1518
g49
I1
sg120
Nsg50
Nsg121
g0
(g127
g2
Ntp1519
Rp1520
(dp1521
g49
I1
sg131
g132
(g133
(I0
tp1522
g135
tp1523
Rp1524
(I1
(I2
tp1525
g59
I00
S'\x00\x00\x00\x00\x00\x00\xf0\x7f\x00\x00\x00\x00\x00\x00\xf0\x7f'
p1526
tp1527
bsg52
(dp1528
I139846481536144
g1517
ssg142
g132
(g133
(I0
tp1529
g135
tp1530
Rp1531
(I1
(I2
I2
tp1532
g59
I00
S'\x00\x00\x00\x00\x00\x00\x00\x00\x00\x00\x00\x00\x00\x00\x00\x00\x00\x00\x00\x00\x00\x00\xf0?\x00\x00\x00\x00\x00\x00\xf0?'
p1533
tp1534
bsg149
g132
(g133
(I0
tp1535
g135
tp1536
Rp1537
(I1
(I2
I2
tp1538
g59
I00
S'\x00\x00\x00\x00\x00\x00\x00\x00\x00\x00\x00\x00\x00\x00\x00\x00\x00\x00\x00\x00\x00\x00\xf0?\x00\x00\x00\x00\x00\x00\xf0?'
p1539
tp1540
bsg156
I01
sg51
g7
sbsg52
(dp1541
I139846481538192
g1514
ssg51
g7
sbsg231
I2
sg232
g0
(g157
g2
Ntp1542
Rp1543
(dp1544
g49
I2
sg50
Nsg120
g132
(g133
(I0
tp1545
g135
tp1546
Rp1547
(I1
(I3
I3
tp1548
g59
I00
S'\x00\x00\x00\x00\x00\x00\xf0?\x00\x00\x00\x00\x00\x00\x00\x00\x00\x00\x00\x00\x00\x00\x00\x00\x00\x00\x00\x00\x00\x00\x00\x00\x00\x00\x00\x00\x00\x00\xf0?\x00\x00\x00\x00\x00\x00\x00\x00\x00\x00\x00\x00\x00\x00\x00\x00\x00\x00\x00\x00\x00\x00\x00\x00\x00\x00\x00\x00\x00\x00\xf0?'
p1549
tp1550
bsg51
g7
sg52
(dp1551
I139846481538192
g1514
ssbsg52
(dp1552
I139846481536208
g1511
ssg51
g7
sbsg231
I2
sg232
g234
sg52
(dp1553
I139846481535312
g0
(g122
g2
Ntp1554
Rp1555
(dp1556
g49
I2
sg126
g0
(g127
g2
Ntp1557
Rp1558
(dp1559
g49
I1
sg131
g132
(g133
(I0
tp1560
g135
tp1561
Rp1562
(I1
(I2
tp1563
g59
I00
S'\x00\x00\x00\x00\x00\x00\xf0\x7f\x00\x00\x00\x00\x00\x00\xf0\x7f'
p1564
tp1565
bsg52
(dp1566
I139846481535312
g1555
ssg142
g132
(g133
(I0
tp1567
g135
tp1568
Rp1569
(I1
(I2
I2
tp1570
g59
I00
S'\x00\x00\x00\x00\x00\x00\x00\x00\x00\x00\x00\x00\x00\x00\x00\x00\x00\x00\x00\x00\x00\x00\xf0?\x00\x00\x00\x00\x00\x00\xf0?'
p1571
tp1572
bsg149
g132
(g133
(I0
tp1573
g135
tp1574
Rp1575
(I1
(I2
I2
tp1576
g59
I00
S'\x00\x00\x00\x00\x00\x00\x00\x00\x00\x00\x00\x00\x00\x00\x00\x00\x00\x00\x00\x00\x00\x00\xf0?\x00\x00\x00\x00\x00\x00\xf0?'
p1577
tp1578
bsg156
I01
sg51
g7
sbsg115
g1511
sg149
Nsg52
(dp1579
sg51
g7
sbssg51
g7
sbsI139846481535568
g0
(g176
g2
Ntp1580
Rp1581
(dp1582
g49
I2
sg180
I2
sg181
g0
(g176
g2
Ntp1583
Rp1584
(dp1585
g49
I1
sg180
I2
sg181
g0
(g116
g2
Ntp1586
Rp1587
(dp1588
g49
I1
sg120
Nsg50
Nsg121
g0
(g127
g2
Ntp1589
Rp1590
(dp1591
g49
I1
sg131
g132
(g133
(I0
tp1592
g135
tp1593
Rp1594
(I1
(I2
tp1595
g59
I00
S'\x00\x00\x00\x00\x00\x00\xf0\x7f\x00\x00\x00\x00\x00\x00\xf0\x7f'
p1596
tp1597
bsg52
(dp1598
I139846481539024
g1587
ssg142
g132
(g133
(I0
tp1599
g135
tp1600
Rp1601
(I1
(I2
I2
tp1602
g59
I00
S'\x00\x00\x00\x00\x00\x00\x00\x00\x00\x00\x00\x00\x00\x00\x00\x00\x00\x00\x00\x00\x00\x00\xf0?\x00\x00\x00\x00\x00\x00\xf0?'
p1603
tp1604
bsg149
g132
(g133
(I0
tp1605
g135
tp1606
Rp1607
(I1
(I2
I2
tp1608
g59
I00
S'\x00\x00\x00\x00\x00\x00\x00\x00\x00\x00\x00\x00\x00\x00\x00\x00\x00\x00\x00\x00\x00\x00\xf0?\x00\x00\x00\x00\x00\x00\xf0?'
p1609
tp1610
bsg156
I01
sg51
g7
sbsg52
(dp1611
I139846481536656
g1584
ssg51
g7
sbsg231
I2
sg232
g0
(g157
g2
Ntp1612
Rp1613
(dp1614
g49
I2
sg50
Nsg120
g132
(g133
(I0
tp1615
g135
tp1616
Rp1617
(I1
(I3
I3
tp1618
g59
I00
S'\x00\x00\x00\x00\x00\x00\xf0?\x00\x00\x00\x00\x00\x00\x00\x00\x00\x00\x00\x00\x00\x00\x00\x00\x00\x00\x00\x00\x00\x00\x00\x00\x00\x00\x00\x00\x00\x00\xf0?\x00\x00\x00\x00\x00\x00\x00\x00\x00\x00\x00\x00\x00\x00\x00\x00\x00\x00\x00\x00\x00\x00\x00\x00\x00\x00\x00\x00\x00\x00\xf0?'
p1619
tp1620
bsg51
g7
sg52
(dp1621
I139846481536656
g1584
ssbsg52
(dp1622
I139846481535568
g1581
ssg51
g7
sbsg231
I2
sg232
g234
sg52
(dp1623
I139846481537424
g0
(g122
g2
Ntp1624
Rp1625
(dp1626
g49
I2
sg126
g0
(g127
g2
Ntp1627
Rp1628
(dp1629
g49
I1
sg131
g132
(g133
(I0
tp1630
g135
tp1631
Rp1632
(I1
(I2
tp1633
g59
I00
S'\x00\x00\x00\x00\x00\x00\xf0\x7f\x00\x00\x00\x00\x00\x00\xf0\x7f'
p1634
tp1635
bsg52
(dp1636
I139846481537424
g1625
ssg142
g132
(g133
(I0
tp1637
g135
tp1638
Rp1639
(I1
(I2
I2
tp1640
g59
I00
S'\x00\x00\x00\x00\x00\x00\x00\x00\x00\x00\x00\x00\x00\x00\x00\x00\x00\x00\x00\x00\x00\x00\xf0?\x00\x00\x00\x00\x00\x00\xf0?'
p1641
tp1642
bsg149
g132
(g133
(I0
tp1643
g135
tp1644
Rp1645
(I1
(I2
I2
tp1646
g59
I00
S'\x00\x00\x00\x00\x00\x00\x00\x00\x00\x00\x00\x00\x00\x00\x00\x00\x00\x00\x00\x00\x00\x00\xf0?\x00\x00\x00\x00\x00\x00\xf0?'
p1647
tp1648
bsg156
I01
sg51
g7
sbsg115
g1581
sg149
Nsg52
(dp1649
sg51
g7
sbssg51
g7
sbsI139846482338576
g0
(g176
g2
Ntp1650
Rp1651
(dp1652
g49
I2
sg180
I2
sg181
g0
(g176
g2
Ntp1653
Rp1654
(dp1655
g49
I1
sg180
I2
sg181
g0
(g116
g2
Ntp1656
Rp1657
(dp1658
g49
I1
sg120
Nsg50
Nsg121
g0
(g127
g2
Ntp1659
Rp1660
(dp1661
g49
I1
sg131
g132
(g133
(I0
tp1662
g135
tp1663
Rp1664
(I1
(I2
tp1665
g59
I00
S'\x00\x00\x00\x00\x00\x00\xf0\x7f\x00\x00\x00\x00\x00\x00\xf0\x7f'
p1666
tp1667
bsg52
(dp1668
I139846482338320
g1657
ssg142
g132
(g133
(I0
tp1669
g135
tp1670
Rp1671
(I1
(I2
I2
tp1672
g59
I00
S'\x00\x00\x00\x00\x00\x00\x00\x00\x00\x00\x00\x00\x00\x00\x00\x00\x00\x00\x00\x00\x00\x00\xf0?\x00\x00\x00\x00\x00\x00\xf0?'
p1673
tp1674
bsg149
g132
(g133
(I0
tp1675
g135
tp1676
Rp1677
(I1
(I2
I2
tp1678
g59
I00
S'\x00\x00\x00\x00\x00\x00\x00\x00\x00\x00\x00\x00\x00\x00\x00\x00\x00\x00\x00\x00\x00\x00\xf0?\x00\x00\x00\x00\x00\x00\xf0?'
p1679
tp1680
bsg156
I01
sg51
g7
sbsg52
(dp1681
I139846482338192
g1654
ssg51
g7
sbsg231
I2
sg232
g0
(g157
g2
Ntp1682
Rp1683
(dp1684
g49
I2
sg50
Nsg120
g132
(g133
(I0
tp1685
g135
tp1686
Rp1687
(I1
(I3
I3
tp1688
g59
I00
S'\x00\x00\x00\x00\x00\x00\xf0?\x00\x00\x00\x00\x00\x00\x00\x00\x00\x00\x00\x00\x00\x00\x00\x00\x00\x00\x00\x00\x00\x00\x00\x00\x00\x00\x00\x00\x00\x00\xf0?\x00\x00\x00\x00\x00\x00\x00\x00\x00\x00\x00\x00\x00\x00\x00\x00\x00\x00\x00\x00\x00\x00\x00\x00\x00\x00\x00\x00\x00\x00\xf0?'
p1689
tp1690
bsg51
g7
sg52
(dp1691
I139846482338192
g1654
ssbsg52
(dp1692
I139846482338576
g1651
ssg51
g7
sbsg231
I2
sg232
g234
sg52
(dp1693
I139846482341840
g0
(g122
g2
Ntp1694
Rp1695
(dp1696
g49
I2
sg126
g0
(g127
g2
Ntp1697
Rp1698
(dp1699
g49
I1
sg131
g132
(g133
(I0
tp1700
g135
tp1701
Rp1702
(I1
(I2
tp1703
g59
I00
S'\x00\x00\x00\x00\x00\x00\xf0\x7f\x00\x00\x00\x00\x00\x00\xf0\x7f'
p1704
tp1705
bsg52
(dp1706
I139846482341840
g1695
ssg142
g132
(g133
(I0
tp1707
g135
tp1708
Rp1709
(I1
(I2
I2
tp1710
g59
I00
S'\x00\x00\x00\x00\x00\x00\x00\x00\x00\x00\x00\x00\x00\x00\x00\x00\x00\x00\x00\x00\x00\x00\xf0?\x00\x00\x00\x00\x00\x00\xf0?'
p1711
tp1712
bsg149
g132
(g133
(I0
tp1713
g135
tp1714
Rp1715
(I1
(I2
I2
tp1716
g59
I00
S'\x00\x00\x00\x00\x00\x00\x00\x00\x00\x00\x00\x00\x00\x00\x00\x00\x00\x00\x00\x00\x00\x00\xf0?\x00\x00\x00\x00\x00\x00\xf0?'
p1717
tp1718
bsg156
I01
sg51
g7
sbsg115
g1651
sg149
Nsg52
(dp1719
sg51
g7
sbssg51
g7
sbssg51
g7
sbsg52
(dp1720
I139846490557072
g187
ssg51
g7
sbssbssg51
g7
sbsI139846490557072
g187
ssVinput_dims
p1721
I2
sVchild
p1722
g0
(g613
g2
Ntp1723
Rp1724
(dp1725
g49
I0
sg120
g132
(g133
(I0
tp1726
g135
tp1727
Rp1728
(I1
(I3
I3
tp1729
g59
I00
S'\x00\x00\x00\x00\x00\x00\xf0?\x00\x00\x00\x00\x00\x00\x00\x00\x00\x00\x00\x00\x00\x00\x00\x00\x00\x00\x00\x00\x00\x00\x00\x00\x00\x00\x00\x00\x00\x00\xf0?\x00\x00\x00\x00\x00\x00\x00\x00\x00\x00\x00\x00\x00\x00\x00\x00\x00\x00\x00\x00\x00\x00\x00\x00\x00\x00\x00\x00\x00\x00\xf0?'
p1730
tp1731
bsg75
g0
(g45
g2
Ntp1732
Rp1733
(dp1734
g49
I1
sg50
Nsg51
g7
sg52
(dp1735
I139846481605456
g1724
ssbsg76
g0
(g45
g2
Ntp1736
Rp1737
(dp1738
g49
I1
sg50
Nsg51
g7
sg52
(dp1739
I139846481605456
g1724
ssbsg50
Nsg51
g7
sg52
(dp1740
I139846490557456
g191
ssbsbsg231
I2
sg232
g229
sg52
(dp1741
I139846490554832
g1138
sI139846490557840
g184
ssg51
g7
sbsg76
g234
sg1140
Nsg52
(dp1742
I139846486280528
g0
(g176
g2
Ntp1743
Rp1744
(dp1745
g49
I2
sg180
I2
sg181
g184
sg231
I2
sg232
g0
(g168
g2
Ntp1746
Rp1747
(dp1748
g49
I1
sg120
Nsg172
g159
sg50
Nsg173
(F-0.04722222222222222
I0
tp1749
sg51
g7
sg52
(dp1750
I139846486280528
g1744
ssbsg52
(dp1751
sg51
g7
sbsI139846484039632
g0
(g176
g2
Ntp1752
Rp1753
(dp1754
g49
I2
sg180
I2
sg181
g184
sg231
I2
sg232
g0
(g168
g2
Ntp1755
Rp1756
(dp1757
g49
I1
sg120
Nsg172
g159
sg50
Nsg173
(F0.04722222222222222
I0
tp1758
sg51
g7
sg52
(dp1759
I139846484039632
g1753
ssbsg52
(dp1760
sg51
g7
sbsI139846483928144
g0
(g176
g2
Ntp1761
Rp1762
(dp1763
g49
I2
sg180
I2
sg181
g184
sg231
I2
sg232
g0
(g168
g2
Ntp1764
Rp1765
(dp1766
g49
I1
sg120
Nsg172
g159
sg50
Nsg173
(F-0.04861111111111111
I0
tp1767
sg51
g7
sg52
(dp1768
I139846483928144
g1762
ssbsg52
(dp1769
sg51
g7
sbsI139846486282192
g0
(g176
g2
Ntp1770
Rp1771
(dp1772
g49
I2
sg180
I2
sg181
g184
sg231
I2
sg232
g0
(g168
g2
Ntp1773
Rp1774
(dp1775
g49
I1
sg120
Nsg172
g159
sg50
Nsg173
(F0.04861111111111111
I0
tp1776
sg51
g7
sg52
(dp1777
I139846486282192
g1771
ssbsg52
(dp1778
sg51
g7
sbsI139846486278800
g0
(g176
g2
Ntp1779
Rp1780
(dp1781
g49
I2
sg180
I2
sg181
g184
sg231
I2
sg232
g0
(g168
g2
Ntp1782
Rp1783
(dp1784
g49
I1
sg120
Nsg172
g159
sg50
Nsg173
(F0.04861111111111111
I0
tp1785
sg51
g7
sg52
(dp1786
I139846486278800
g1780
ssbsg52
(dp1787
sg51
g7
sbsI139846477689296
g0
(g176
g2
Ntp1788
Rp1789
(dp1790
g49
I2
sg180
I2
sg181
g184
sg231
I2
sg232
g0
(g168
g2
Ntp1791
Rp1792
(dp1793
g49
I1
sg120
Nsg172
g159
sg50
Nsg173
(F0.04722222222222222
I0
tp1794
sg51
g7
sg52
(dp1795
I139846477689296
g1789
ssbsg52
(dp1796
sg51
g7
sbsI139846486280848
g178
sI139846477690192
g0
(g176
g2
Ntp1797
Rp1798
(dp1799
g49
I2
sg180
I2
sg181
g184
sg231
I2
sg232
g0
(g168
g2
Ntp1800
Rp1801
(dp1802
g49
I1
sg120
Nsg172
g159
sg50
Nsg173
(F-0.04722222222222222
I0
tp1803
sg51
g7
sg52
(dp1804
I139846477690192
g1798
ssbsg52
(dp1805
sg51
g7
sbssg51
g7
sbsg231
I2
sg232
g170
sg52
(dp1806
sg51
g7
sbssbsI139846486281104
g1774
sI139846488861264
g124
sI139846483931088
g1209
sI139846477641808
g1200
sI139846481605328
g1155
sI139846481607824
g906
sI139846486279376
g1747
sI139846477692176
g1792
sI139846483930000
g1164
sI139846477690256
g1801
sI139846483927248
g1783
sI139846483928272
g1765
sI139846477641296
g1146
sI139846484592272
g1191
sI139846486281936
g1756
sI139846477689168
g1182
sI139846481605968
g1173
ssbsg149
Nsg52
(dp1807
I139846488861584
g118
ssg51
g7
sbsg52
(dp1808
I139846482572624
g237
ssg51
g7
sbsS'_us_dashes'
p1809
(NNtp1810
sS'_capstyle'
p1811
Vbutt
p1812
sS'_url'
p1813
Nsg25
NsS'_axes'
p1814
Nsg34
Nsbsg42
Nsg88
NsV_restore_to_pylab
p1815
I01
sS'images'
p1816
(lp1817
sS'_suptitle'
p1818
NsS'dpi_scale_trans'
p1819
g159
sS'number'
p1820
I1
sS'callbacks'
p1821
g0
(cmatplotlib.cbook
CallbackRegistry
p1822
g2
Ntp1823
Rp1824
I01
bsg96
NsS'_tight'
p1825
I00
sg86
I01
sS'bbox'
p1826
g124
sg103
g0
(g104
g105
((lp1827
(lp1828
tp1829
tp1830
Rp1831
sg111
I0
sS'patches'
p1832
(lp1833
sS'legends'
p1834
(lp1835
sS'suppressComposite'
p1836
Nsg112
I00
sg114
NsS'_axstack'
p1837
g0
(cmatplotlib.figure
AxesStack
p1838
g2
Ntp1839
Rp1840
(dp1841
S'_default'
p1842
NsS'_elements'
p1843
(lp1844
(((g0
(cmatplotlib.gridspec
SubplotSpec
p1845
g2
Ntp1846
Rp1847
(dp1848
S'num1'
p1849
I0
sS'num2'
p1850
I0
sS'_gridspec'
p1851
g0
(cmatplotlib.gridspec
GridSpec
p1852
g2
Ntp1853
Rp1854
(dp1855
S'_nrows'
p1856
I1
sS'right'
p1857
NsS'_col_width_ratios'
p1858
NsS'bottom'
p1859
NsS'top'
p1860
NsS'wspace'
p1861
NsS'_ncols'
p1862
I1
sS'hspace'
p1863
NsS'_row_height_ratios'
p1864
NsS'left'
p1865
Nsbsbtp1866
(ttp1867
(I1
g0
(cmatplotlib.axes._subplots
_PicklableSubplotClassConstructor
p1868
g2
Ntp1869
Rp1870
(cmatplotlib.axes._axes
Axes
p1871
tp1872
Rp1873
(dp1874
S'transLimits'
p1875
g224
sS'_get_patches_for_fill'
p1876
g0
(cmatplotlib.axes._base
_process_plot_var_args
p1877
g2
Ntp1878
Rp1879
(dp1880
Vaxes
p1881
g1873
sVcommand
p1882
Vfill
p1883
sbsS'_xcid'
p1884
I1
sg6
V
p1885
sS'legend_'
p1886
Nsg12
(lp1887
sS'_frameon'
p1888
I01
sS'_autoscaleYon'
p1889
I01
sg14
I01
sg15
(lp1890
sg20
I01
sS'tables'
p1891
(lp1892
sg1832
(lp1893
g0
(cmatplotlib.patches
Polygon
p1894
g2
Ntp1895
Rp1896
(dp1897
g6
Nsg8
I01
sg41
I00
sg9
g4
sS'_closed'
p1898
I00
sg10
Nsg42
Nsg17
g18
sg43
Nsg20
I01
sg44
g0
(g45
g2
Ntp1899
Rp1900
(dp1901
g49
I1
sg50
Nsg51
g7
sg52
(dp1902
sbsg54
(g55
(g59
S'\x00\x00\x00\x00\x00\x00\x00\x00'
p1903
tp1904
Rp1905
g55
(g59
S'\x00\x00\x00\x00\x00\x00\x00\x00'
p1906
tp1907
Rp1908
g55
(g59
S'\x00\x00\x00\x00\x00\x00\x00\x00'
p1909
tp1910
Rp1911
I1
tp1912
sg23
Nsg24
Nsg77
Vk
p1913
sg11
Nsg28
I00
sg29
I00
sg30
(dp1914
sg32
I00
sg85
Nsg86
I01
sg87
F1.0
sg88
g1625
sg33
Nsg90
g1912
sg91
Nsg92
I01
sg93
Nsg94
g1913
sg96
Nsg97
(g55
(g59
S'\x00\x00\x00\x00\x00\x00\x00\x00'
p1915
tp1916
Rp1917
g55
(g59
S'\x00\x00\x00\x00\x00\x00\x00\x00'
p1918
tp1919
Rp1920
g55
(g59
S'\x00\x00\x00\x00\x00\x00\x00\x00'
p1921
tp1922
Rp1923
I0
tp1924
sg99
g100
sg101
g102
sg103
g0
(g104
g105
((lp1925
(lp1926
I0
atp1927
tp1928
Rp1929
sg111
I0
sg112
I01
sg114
Nsg115
g187
sg1809
(NNtp1930
sg1811
g1812
sg1813
Nsg25
Nsg1814
g1873
sg34
NsS'_path'
p1931
g0
(cmatplotlib.path
Path
p1932
g2
Ntp1933
Rp1934
(dp1935
S'_should_simplify'
p1936
I00
sS'_codes'
p1937
NsS'_vertices'
p1938
g132
(g133
(I0
tp1939
g135
tp1940
Rp1941
(I1
(I40
I2
tp1942
g59
I00
S'\x00\x00\x00\x00\x00\x00\x00\x00\x00\x00\x00\x00\x00\x00\x00\x00\x00\x00\x00\x00\x00\x00\x00\x00\x00\x00\x00\x00\x00\x00\x00\x00y\r\xe55\x94\xd7\xd0?\x00\x00\x00\x00\x00\x00\x00\x00y\r\xe55\x94\xd7\xd0?\x00\x00\x00\x00\x00\x00\xf0?y\r\xe55\x94\xd7\xe0?\x00\x00\x00\x00\x00\x00\xf0?y\r\xe55\x94\xd7\xe0?\x00\x00\x00\x00\x00\x00\xf0?6\x94\xd7P^C\xe9?\x00\x00\x00\x00\x00\x00\xf0?6\x94\xd7P^C\xe9?\x00\x00\x00\x00\x00\x00\x00\x00y\r\xe55\x94\xd7\xf0?\x00\x00\x00\x00\x00\x00\x00\x00y\r\xe55\x94\xd7\xf0?\x00\x00\x00\x00\x00\x00\x08@\xd7P^Cy\r\xf5?\x00\x00\x00\x00\x00\x00\x08@\xd7P^Cy\r\xf5?\x00\x00\x00\x00\x00\x00\x00@6\x94\xd7P^C\xf9?\x00\x00\x00\x00\x00\x00\x00@6\x94\xd7P^C\xf9?\x00\x00\x00\x00\x00\x00\x10@\x94\xd7P^Cy\xfd?\x00\x00\x00\x00\x00\x00\x10@\x94\xd7P^Cy\xfd?\x00\x00\x00\x00\x00\x00\x10@y\r\xe55\x94\xd7\x00@\x00\x00\x00\x00\x00\x00\x10@y\r\xe55\x94\xd7\x00@\x00\x00\x00\x00\x00\x00\x00@(\xaf\xa1\xbc\x86\xf2\x02@\x00\x00\x00\x00\x00\x00\x00@(\xaf\xa1\xbc\x86\xf2\x02@\x00\x00\x00\x00\x00\x00\x00@\xd7P^Cy\r\x05@\x00\x00\x00\x00\x00\x00\x00@\xd7P^Cy\r\x05@\x00\x00\x00\x00\x00\x00\x00@\x86\xf2\x1a\xcak(\x07@\x00\x00\x00\x00\x00\x00\x00@\x86\xf2\x1a\xcak(\x07@\x00\x00\x00\x00\x00\x00\x00@6\x94\xd7P^C\t@\x00\x00\x00\x00\x00\x00\x00@6\x94\xd7P^C\t@\x00\x00\x00\x00\x00\x00\xf0?\xe55\x94\xd7P^\x0b@\x00\x00\x00\x00\x00\x00\xf0?\xe55\x94\xd7P^\x0b@\x00\x00\x00\x00\x00\x00\x00\x00\x94\xd7P^Cy\r@\x00\x00\x00\x00\x00\x00\x00\x00\x94\xd7P^Cy\r@\x00\x00\x00\x00\x00\x00\x00\x00Cy\r\xe55\x94\x0f@\x00\x00\x00\x00\x00\x00\x00\x00Cy\r\xe55\x94\x0f@\x00\x00\x00\x00\x00\x00\x00\x00y\r\xe55\x94\xd7\x10@\x00\x00\x00\x00\x00\x00\x00\x00y\r\xe55\x94\xd7\x10@\x00\x00\x00\x00\x00\x00\x00\x00Q^Cy\r\xe5\x11@\x00\x00\x00\x00\x00\x00\x00\x00Q^Cy\r\xe5\x11@\x00\x00\x00\x00\x00\x00\x00\x00(\xaf\xa1\xbc\x86\xf2\x12@\x00\x00\x00\x00\x00\x00\x00\x00(\xaf\xa1\xbc\x86\xf2\x12@\x00\x00\x00\x00\x00\x00\x00\x00\x00\x00\x00\x00\x00\x00\x14@\x00\x00\x00\x00\x00\x00\x00\x00\x00\x00\x00\x00\x00\x00\x14@\x00\x00\x00\x00\x00\x00\x00\x00'
p1943
tp1944
bsS'_readonly'
p1945
I00
sS'_simplify_threshold'
p1946
F0.1111111111111111
sS'_interpolation_steps'
p1947
I1
sS'_has_nonfinite'
p1948
I00
sbsbasS'title'
p1949
g0
(cmatplotlib.text
Text
p1950
g2
Ntp1951
Rp1952
(dp1953
g6
g7
sg8
I01
sg9
g4
sg10
NsS'_fontproperties'
p1954
g0
(cmatplotlib.font_manager
FontProperties
p1955
g2
Ntp1956
Rp1957
(dp1958
S'_family'
p1959
(lp1960
Vsans-serif
p1961
asS'_file'
p1962
NsS'_variant'
p1963
Vnormal
p1964
sS'_slant'
p1965
g1964
sS'_size'
p1966
F9.6
sS'_weight'
p1967
I400
sS'_stretch'
p1968
g1964
sbsg42
Nsg17
g18
sS'_multialignment'
p1969
Nsg20
I01
sg23
Nsg75
F1.0
sg76
F0.5
sg24
Nsg25
Nsg11
Nsg28
I00
sg29
I00
sg30
(dp1970
sS'_renderer'
p1971
Nsg32
I00
sg1814
g1873
sg88
Nsg1813
NsS'_rotation_mode'
p1972
Nsg33
Nsg96
Nsg86
I01
sS'_verticalalignment'
p1973
Vbaseline
p1974
sS'_text'
p1975
V
p1976
sS'_bbox_patch'
p1977
Nsg103
g0
(g104
g105
((lp1978
(lp1979
tp1980
tp1981
Rp1982
sg111
I0
sS'_rotation'
p1983
Nsg112
I01
sg114
NsS'_linespacing'
p1984
F1.2
sg115
g911
sS'_usetex'
p1985
I00
sS'_wrap'
p1986
I00
sg43
NsS'_color'
p1987
V0.
p1988
sS'_horizontalalignment'
p1989
Vcenter
p1990
sg34
NsbsS'_current_image'
p1991
NsS'mouseover_set'
p1992
c__builtin__
set
p1993
((lp1994
tp1995
Rp1996
sg11
NsS'_cursorProps'
p1997
(I1
g1912
tp1998
sS'numRows'
p1999
I1
sS'collections'
p2000
(lp2001
sg1814
g1873
sg30
(dp2002
sg32
I00
sS'containers'
p2003
(lp2004
sg29
I00
sg88
NsS'_get_lines'
p2005
g0
(g1877
g2
Ntp2006
Rp2007
(dp2008
g1881
g1873
sg1882
Vplot
p2009
sbsS'_aspect'
p2010
Vauto
p2011
sS'fmt_xdata'
p2012
Nsg1821
g0
(g1822
g2
Ntp2013
Rp2014
I01
bsg96
Nsg97
Vwhite
p2015
sg86
I01
sg1826
g237
sS'ignore_existing_data_limits'
p2016
I00
sg24
Nsg111
I0
sg112
I00
sS'_left_title'
p2017
g0
(g1950
g2
Ntp2018
Rp2019
(dp2020
g6
g7
sg8
I01
sg9
g4
sg10
Nsg1954
g0
(g1955
g2
Ntp2021
Rp2022
(dp2023
g1959
g1960
sg1962
Nsg1963
g1964
sg1965
g1964
sg1966
F9.6
sg1967
I400
sg1968
g1964
sbsg42
Nsg17
g18
sg1969
Nsg20
I01
sg23
Nsg75
F1.0
sg76
F0.0
sg24
Nsg25
Nsg11
Nsg28
I00
sg29
I00
sg30
(dp2024
sg1971
Nsg32
I00
sg1814
g1873
sg88
Nsg1813
Nsg1972
Nsg33
Nsg96
Nsg86
I01
sg1973
Vbaseline
p2025
sg1975
V
p2026
sg1977
Nsg103
g0
(g104
g105
((lp2027
(lp2028
tp2029
tp2030
Rp2031
sg111
I0
sg1983
Nsg112
I01
sg114
Nsg1984
F1.2
sg115
g903
sg1985
I00
sg1986
I00
sg43
Nsg1987
g1988
sg1989
Vleft
p2032
sg34
NsbsS'_right_title'
p2033
g0
(g1950
g2
Ntp2034
Rp2035
(dp2036
g6
g7
sg8
I01
sg9
g4
sg10
Nsg1954
g0
(g1955
g2
Ntp2037
Rp2038
(dp2039
g1959
g1960
sg1962
Nsg1963
g1964
sg1965
g1964
sg1966
F9.6
sg1967
I400
sg1968
g1964
sbsg42
Nsg17
g18
sg1969
Nsg20
I01
sg23
Nsg75
F1.0
sg76
F1.0
sg24
Nsg25
Nsg11
Nsg28
I00
sg29
I00
sg30
(dp2040
sg1971
Nsg32
I00
sg1814
g1873
sg88
Nsg1813
Nsg1972
Nsg33
Nsg96
Nsg86
I01
sg1973
g2025
sg1975
V
p2041
sg1977
Nsg103
g0
(g104
g105
((lp2042
(lp2043
tp2044
tp2045
Rp2046
sg111
I0
sg1983
Nsg112
I01
sg114
Nsg1984
F1.2
sg115
g915
sg1985
I00
sg1986
I00
sg43
Nsg1987
g1988
sg1989
Vright
p2047
sg34
NsbsS'transScale'
p2048
g191
sg115
NsS'axison'
p2049
I01
sS'patch'
p2050
g0
(g36
g2
Ntp2051
Rp2052
(dp2053
g6
g7
sg40
F1.0
sg41
I01
sg9
g4
sg8
I01
sg10
Nsg42
Nsg17
g18
sg43
Nsg20
I01
sg44
g0
(g45
g2
Ntp2054
Rp2055
(dp2056
g49
I1
sg50
Nsg51
g7
sg52
(dp2057
sbsg54
(F0.0
F0.0
F0.0
F0.0
tp2058
sg23
Nsg75
F0.0
sg76
F0.0
sg24
Nsg77
VNone
p2059
sg11
Nsg28
I00
sg29
I00
sg30
(dp2060
sg80
g1584
sg32
I00
sg85
Nsg86
I01
sg87
F0.0
sg88
Nsg89
F1.0
sg33
Nsg90
g2058
sg91
Nsg92
I01
sg93
Nsg94
g2015
sg96
Nsg97
g98
sg99
g100
sg101
g102
sg103
g0
(g104
g105
((lp2061
(lp2062
tp2063
tp2064
Rp2065
sg111
I0
sg112
I01
sg113
F0.0
sg114
Nsg115
g234
sg1809
(NNtp2066
sg1811
g1812
sg1813
Nsg25
Nsg1814
Nsg34
NsbsS'viewLim'
p2067
g200
sg17
g18
sS'_subplotspec'
p2068
g1847
sS'_adjustable'
p2069
Vbox
p2070
sg9
g4
sS'titleOffsetTrans'
p2071
g906
sS'_yaxis_transform'
p2072
g184
sS'_gridOn'
p2073
I00
sg10
NsS'colNum'
p2074
I0
sg42
Nsg1816
(lp2075
sS'_autoscaleXon'
p2076
I00
sS'_xmargin'
p2077
F0.05
sS'rowNum'
p2078
I0
sS'_position'
p2079
g240
sS'_rasterization_zorder'
p2080
NsS'_cachedRenderer'
p2081
NsS'_navigate'
p2082
I01
sg23
NsS'_originalPosition'
p2083
g0
(g127
g2
Ntp2084
Rp2085
(dp2086
g49
I1
sg131
g132
(g133
(I0
tp2087
g135
tp2088
Rp2089
(I1
(I2
tp2090
g59
I00
S'\x00\x00\x00\x00\x00\x00\xf0\x7f\x00\x00\x00\x00\x00\x00\xf0\x7f'
p2091
tp2092
bsg52
(dp2093
sg142
g132
(g133
(I0
tp2094
g135
tp2095
Rp2096
(I1
(I2
I2
tp2097
g59
I00
S'\x00\x00\x00\x00\x00\x00\xc0?\x00\x00\x00\x00\x00\x00\xc0?\xcd\xcc\xcc\xcc\xcc\xcc\xec?)\\\x8f\xc2\xf5(\xec?'
p2098
tp2099
bsg149
g132
(g133
(I0
tp2100
g135
tp2101
Rp2102
(I1
(I2
I2
tp2103
g59
I00
S'\x00\x00\x00\x00\x00\x00\xc0?\x00\x00\x00\x00\x00\x00\xc0?\xcd\xcc\xcc\xcc\xcc\xcc\xec?)\\\x8f\xc2\xf5(\xec?'
p2104
tp2105
bsg156
I01
sg51
g7
sbsg25
NsS'_xaxis_transform'
p2106
g1138
sg28
I00
sS'figbox'
p2107
g240
sS'xaxis'
p2108
g0
(cmatplotlib.axis
XAxis
p2109
g2
Ntp2110
Rp2111
(dp2112
g6
g7
sS'major'
p2113
g0
(cmatplotlib.axis
Ticker
p2114
g2
Ntp2115
Rp2116
(dp2117
S'locator'
p2118
g0
(cmatplotlib.ticker
AutoLocator
p2119
g2
Ntp2120
Rp2121
(dp2122
S'_min_n_ticks'
p2123
I2
sS'_symmetric'
p2124
I00
sS'_nbins'
p2125
Vauto
p2126
sS'_steps'
p2127
g132
(g133
(I0
tp2128
g135
tp2129
Rp2130
(I1
(I5
tp2131
g59
I00
S'\x00\x00\x00\x00\x00\x00\xf0?\x00\x00\x00\x00\x00\x00\x00@\x00\x00\x00\x00\x00\x00\x04@\x00\x00\x00\x00\x00\x00\x14@\x00\x00\x00\x00\x00\x00$@'
p2132
tp2133
bsS'_prune'
p2134
NsS'_extended_steps'
p2135
g132
(g133
(I0
tp2136
g135
tp2137
Rp2138
(I1
(I10
tp2139
g59
I00
S'\x9a\x99\x99\x99\x99\x99\xb9?\x9a\x99\x99\x99\x99\x99\xc9?\x00\x00\x00\x00\x00\x00\xd0?\x00\x00\x00\x00\x00\x00\xe0?\x00\x00\x00\x00\x00\x00\xf0?\x00\x00\x00\x00\x00\x00\x00@\x00\x00\x00\x00\x00\x00\x04@\x00\x00\x00\x00\x00\x00\x14@\x00\x00\x00\x00\x00\x00$@\x00\x00\x00\x00\x00\x004@'
p2140
tp2141
bsS'_integer'
p2142
I00
sS'axis'
p2143
g2111
sbsS'formatter'
p2144
g0
(cmatplotlib.ticker
ScalarFormatter
p2145
g2
Ntp2146
Rp2147
(dp2148
S'_powerlimits'
p2149
(lp2150
I-7
aI7
asS'orderOfMagnitude'
p2151
I0
sS'_useOffset'
p2152
I01
sS'_useLocale'
p2153
I00
sS'format'
p2154
g7
sS'_useMathText'
p2155
I00
sS'_offset_threshold'
p2156
I4
sS'offset'
p2157
I0
sg1985
I00
sS'_scientific'
p2158
I01
sg2143
g2111
sbsbsS'isDefault_label'
p2159
I00
sS'_scale'
p2160
g0
(cmatplotlib.scale
LinearScale
p2161
g2
Ntp2162
Rp2163
sg9
g4
sg8
I01
sS'_gridOnMinor'
p2164
I00
sg10
Nsg42
NsS'_smart_bounds'
p2165
I00
sg17
g18
sg20
I01
sg23
NsS'offsetText'
p2166
g0
(g1950
g2
Ntp2167
Rp2168
(dp2169
g6
g7
sg8
I01
sg9
g4
sg10
Nsg1954
g0
(g1955
g2
Ntp2170
Rp2171
(dp2172
g1959
(lp2173
g1961
asg1962
Nsg1963
g1964
sg1965
g1964
sg1966
F8.0
sg1967
I400
sg1968
g1964
sbsg42
Nsg17
g18
sg1969
Nsg20
I01
sg23
Nsg75
I0
sg76
I1
sg24
Nsg25
Nsg11
Nsg28
I00
sg29
I00
sg30
(dp2174
sg1971
Nsg32
I00
sg1814
Nsg88
Nsg1813
Nsg1972
Nsg33
Nsg96
Nsg86
I01
sg1973
Vtop
p2175
sg1975
V
p2176
sg1977
Nsg103
g0
(g104
g105
((lp2177
(lp2178
tp2179
tp2180
Rp2181
sg111
I0
sg1983
Nsg112
I01
sg114
Nsg1984
F1.2
sg115
g920
sg1985
I00
sg1986
I00
sg43
Nsg1987
V0.
p2182
sg1989
Vright
p2183
sg34
Nsbsg24
Nsg25
Nsg11
NsS'label'
p2184
g0
(g1950
g2
Ntp2185
Rp2186
(dp2187
g6
g7
sg8
I01
sg9
g4
sg10
Nsg1954
g0
(g1955
g2
Ntp2188
Rp2189
(dp2190
g1959
(lp2191
g1961
asg1962
Nsg1963
g1964
sg1965
g1964
sg1966
F10.0
sg1967
I400
sg1968
g1964
sbsg42
Nsg17
g18
sg1969
Nsg20
I01
sg23
Nsg75
I0
sg76
F0.5
sg24
Nsg25
Nsg11
Nsg28
I00
sg29
I00
sg30
(dp2192
sg1971
Nsg32
I00
sg1814
Nsg88
Nsg1813
Nsg1972
Nsg33
Nsg96
Nsg86
I01
sg1973
Vtop
p2193
sg1975
VCA3 jitter (ms)
p2194
sg1977
Nsg103
g0
(g104
g105
((lp2195
(lp2196
tp2197
tp2198
Rp2199
sg111
I0
sg1983
Nsg112
I01
sg114
Nsg1984
F1.2
sg115
g615
sg1985
I00
sg1986
I00
sg43
Nsg1987
V0.
p2200
sg1989
Vcenter
p2201
sg34
Nsbsg28
I00
sS'isDefault_majfmt'
p2202
I01
sg29
I00
sg30
(dp2203
sS'units'
p2204
Nsg32
I00
sS'minor'
p2205
g0
(g2114
g2
Ntp2206
Rp2207
(dp2208
g2118
g0
(cmatplotlib.ticker
NullLocator
p2209
g2
Ntp2210
Rp2211
(dp2212
g2143
g2111
sbsg2144
g0
(cmatplotlib.ticker
NullFormatter
p2213
g2
Ntp2214
Rp2215
(dp2216
g2143
g2111
sbsbsg1814
g1873
sS'_major_tick_kw'
p2217
(dp2218
Vlabel1On
p2219
I01
sVgridOn
p2220
I00
sVlabel2On
p2221
I00
sVtick1On
p2222
I01
sVtick2On
p2223
I00
ssS'isDefault_minloc'
p2224
I01
sg88
g1337
sg33
NsS'_gridOnMajor'
p2225
I00
sS'_lastNumMinorTicks'
p2226
I1
sS'labelpad'
p2227
F4.0
sS'majorTicks'
p2228
(lp2229
g0
(cmatplotlib.axis
XTick
p2230
g2
Ntp2231
Rp2232
(dp2233
g6
g7
sg40
F0.8
sg9
g4
sS'tick1On'
p2234
I01
sg8
I01
sg10
Nsg111
I0
sg42
NsS'_pad'
p2235
F3.5
sS'_labelcolor'
p2236
g2182
sS'gridOn'
p2237
I00
sg1966
F0.0
sg17
g18
sS'_tickdir'
p2238
Vout
p2239
sg2184
g0
(g1950
g2
Ntp2240
Rp2241
(dp2242
g6
g7
sg8
I01
sg9
g4
sg10
Nsg1954
g0
(g1955
g2
Ntp2243
Rp2244
(dp2245
g1959
(lp2246
g1961
asg1962
Nsg1963
g1964
sg1965
g1964
sg1966
F8.0
sg1967
I400
sg1968
g1964
sbsg42
Nsg17
g18
sg1969
Nsg20
I01
sg23
Nsg75
I0
sg76
I0
sg24
Nsg25
Nsg11
Nsg28
I00
sg29
I00
sg30
(dp2247
sg1971
Nsg32
I00
sg1814
Nsg88
Nsg1813
Nsg1972
Nsg33
Nsg96
Nsg86
I01
sg1973
Vtop
p2248
sg1975
V
p2249
sg1977
Nsg103
g0
(g104
g105
((lp2250
(lp2251
tp2252
tp2253
Rp2254
sg111
I0
sg1983
Nsg112
I01
sg114
Nsg1984
F1.2
sg115
g1188
sg1985
I00
sg1986
I00
sg43
Nsg1987
g2182
sg1989
Vcenter
p2255
sg34
Nsbsg20
I01
sg23
NsS'label2On'
p2256
I00
sg24
Nsg25
Nsg11
NsS'tick2On'
p2257
I00
sg28
I00
sg29
I00
sg30
(dp2258
sS'_tickmarkers'
p2259
(I3
I2
tp2260
sg32
I00
sS'_zorder'
p2261
F2.01
sg1814
g1873
sS'label1On'
p2262
I01
sg88
g448
sg1813
NsS'label1'
p2263
g2241
sS'label2'
p2264
g0
(g1950
g2
Ntp2265
Rp2266
(dp2267
g6
g7
sg8
I01
sg9
g4
sg10
Nsg1954
g0
(g1955
g2
Ntp2268
Rp2269
(dp2270
g1959
(lp2271
g1961
asg1962
Nsg1963
g1964
sg1965
g1964
sg1966
F8.0
sg1967
I400
sg1968
g1964
sbsg42
Nsg17
g18
sg1969
Nsg20
I01
sg23
Nsg75
I1
sg76
I0
sg24
Nsg25
Nsg11
Nsg28
I00
sg29
I00
sg30
(dp2272
sg1971
Nsg32
I00
sg1814
Nsg88
Nsg1813
Nsg1972
Nsg33
Nsg96
Nsg86
I01
sg1973
Vbottom
p2273
sg1975
V
p2274
sg1977
Nsg103
g0
(g104
g105
((lp2275
(lp2276
tp2277
tp2278
Rp2279
sg111
I0
sg1983
Nsg112
I01
sg114
Nsg1984
F1.2
sg115
g1179
sg1985
I00
sg1986
I00
sg43
Nsg1987
g2182
sg1989
g2255
sg34
Nsbsg96
NsS'_loc'
p2280
I0
sg86
I01
sg103
g0
(g104
g105
((lp2281
(lp2282
tp2283
tp2284
Rp2285
sS'_base_pad'
p2286
F3.5
sS'tick1line'
p2287
g0
(cmatplotlib.lines
Line2D
p2288
g2
Ntp2289
Rp2290
(dp2291
g6
g7
sS'_dashcapstyle'
p2292
Vbutt
p2293
sS'_linestyles'
p2294
Nsg20
I01
sS'_x_filled'
p2295
NsS'ind_offset'
p2296
I0
sg75
Nsg76
Nsg24
Nsg11
Nsg29
I00
sg30
(dp2297
sg32
I00
sg1814
NsS'_markeredgewidth'
p2298
F0.8
sS'_dashSeq'
p2299
NsS'_markerfacecoloralt'
p2300
Vnone
p2301
sS'_markeredgecolor'
p2302
Vauto
p2303
sg96
Nsg86
I01
sS'_xorig'
p2304
(I0
tp2305
sg111
I0
sg112
I01
sS'_invalidy'
p2306
I01
sS'_invalidx'
p2307
I01
sg115
g1138
sS'_us_dashSeq'
p2308
NsS'zorder'
p2309
F2.01
sg1987
g2182
sS'pickradius'
p2310
I5
sg9
g4
sS'verticalOffset'
p2311
Nsg10
Nsg42
Nsg17
g18
sS'_solidjoinstyle'
p2312
Vround
p2313
sg23
Nsg25
Nsg28
I00
sS'_markevery'
p2314
Nsg34
NsS'_transformed_path'
p2315
NsS'_marker'
p2316
g0
(cmatplotlib.markers
MarkerStyle
p2317
g2
Ntp2318
Rp2319
(dp2320
g2316
I3
sS'_alt_path'
p2321
NsS'_snap_threshold'
p2322
F1.0
sg115
g0
(g157
g2
Ntp2323
Rp2324
(dp2325
g49
I2
sg50
Nsg120
g132
(g133
(I0
tp2326
g135
tp2327
Rp2328
(I1
(I3
I3
tp2329
g59
I00
S'\x00\x00\x00\x00\x00\x00\xf0?\x00\x00\x00\x00\x00\x00\x00\x00\x00\x00\x00\x00\x00\x00\x00\x00\x00\x00\x00\x00\x00\x00\x00\x00\x00\x00\x00\x00\x00\x00\xf0\xbf\x00\x00\x00\x00\x00\x00\x00\x00\x00\x00\x00\x00\x00\x00\x00\x00\x00\x00\x00\x00\x00\x00\x00\x00\x00\x00\x00\x00\x00\x00\xf0?'
p2330
tp2331
bsg51
g7
sg52
(dp2332
sbsS'_filled'
p2333
I00
sS'_fillstyle'
p2334
Vfull
p2335
sS'_alt_transform'
p2336
Nsg1811
Vbutt
p2337
sg99
Vround
p2338
sg1931
g0
(g1932
g2
Ntp2339
Rp2340
(dp2341
g1936
I00
sg1937
Nsg1938
g132
(g133
(I0
tp2342
g135
tp2343
Rp2344
(I1
(I2
I2
tp2345
g59
I00
S'\x00\x00\x00\x00\x00\x00\x00\x80\x00\x00\x00\x00\x00\x00\x00\x00\x00\x00\x00\x00\x00\x00\x00\x80\x00\x00\x00\x00\x00\x00\xf0?'
p2346
tp2347
bsg1945
I00
sg1946
F0.1111111111111111
sg1947
I1
sg1948
I00
sbsbsS'_markerfacecolor'
p2348
Vauto
p2349
sg88
Nsg33
Nsg92
I01
sS'_xy'
p2350
Nsg101
VNone
p2351
sg103
g0
(g104
g105
((lp2352
(lp2353
tp2354
tp2355
Rp2356
sS'_subslice'
p2357
I00
sS'_drawstyle'
p2358
Vdefault
p2359
sS'_solidcapstyle'
p2360
g2313
sS'_us_dashOffset'
p2361
Nsg114
NsS'_dashjoinstyle'
p2362
g2313
sS'_markersize'
p2363
F0.0
sg8
I01
sS'_dashOffset'
p2364
Nsg43
Nsg1813
NsS'_yorig'
p2365
(I0
tp2366
sg87
F0.5
sg1931
Nsbsg112
I00
sS'gridline'
p2367
g0
(g2288
g2
Ntp2368
Rp2369
(dp2370
g6
g7
sg8
I01
sg2360
g2313
sg9
g4
sg2292
g2293
sg2294
Nsg10
Nsg42
Nsg17
g18
sg2312
g2313
sg20
I01
sg2295
Nsg23
Nsg75
g132
(g133
(I0
tp2371
g135
tp2372
Rp2373
(I1
(I2
tp2374
g59
I00
S'\x00\x00\x00\x00\x00\x00\x00\x00\x00\x00\x00\x00\x00\x00\xf0?'
p2375
tp2376
bsg76
g132
(g133
(I0
tp2377
g135
tp2378
Rp2379
(I1
(I2
tp2380
g59
I00
S'\x00\x00\x00\x00\x00\x00\x00\x00\x00\x00\x00\x00\x00\x00\x00\x00'
p2381
tp2382
bsg24
Nsg25
Nsg11
Nsg2304
(F0.0
F0.0
tp2383
sg28
I00
sg2314
Nsg29
I00
sg30
(dp2384
sg2311
Nsg32
I00
sg2357
I00
sg1814
Nsg2315
Nsg2298
F1.0
sg2348
g2349
sg2299
Nsg1987
V.8
p2385
sg2316
g0
(g2317
g2
Ntp2386
Rp2387
(dp2388
g2316
VNone
p2389
sg2321
Nsg2322
Nsg115
g0
(g45
g2
Ntp2390
Rp2391
(dp2392
g49
I1
sg50
Nsg51
g7
sg52
(dp2393
sbsg2333
I00
sg2334
g2335
sg2336
Nsg1811
g2337
sg99
g2338
sg1931
g0
(g1932
g2
Ntp2394
Rp2395
(dp2396
g1936
I00
sg1937
Nsg1938
g132
(g133
(I0
tp2397
g135
tp2398
Rp2399
(I1
(I0
I2
tp2400
g59
I00
S''
p2401
tp2402
bsg1945
I00
sg1946
F0.1111111111111111
sg1947
I1
sg1948
I00
sbsbsg33
Nsg2300
g2301
sg92
I01
sg2302
g2303
sg96
Nsg2363
F0.0
sg86
I01
sg2350
g132
(g133
(I0
tp2403
g135
tp2404
Rp2405
(I1
(I2
I2
tp2406
g59
I00
S'\x00\x00\x00\x00\x00\x00\x00\x00\x00\x00\x00\x00\x00\x00\x00\x00\x00\x00\x00\x00\x00\x00\x00\x00\x00\x00\x00\x00\x00\x00\xf0?'
p2407
tp2408
bsg101
V-
p2409
sg103
g0
(g104
g105
((lp2410
(lp2411
tp2412
tp2413
Rp2414
sg111
I0
sg2358
g2359
sg2296
I0
sg2361
Nsg2310
I5
sg112
I01
sg114
F1.0
sg2362
g2313
sg2307
I00
sg115
g1138
sg2364
Nsg2308
Nsg2306
I00
sg43
Nsg1813
Nsg2365
(I0
F1.0
tp2415
sg88
g807
sg87
F0.8
sg34
Nsg1931
g0
(g1932
g2
Ntp2416
Rp2417
(dp2418
g1936
I00
sg1937
Nsg1938
g2405
sg1945
I00
sg1946
F0.1111111111111111
sg1947
I180
sg1948
I00
sbsbsg114
Nsg33
NsS'tick2line'
p2419
g0
(g2288
g2
Ntp2420
Rp2421
(dp2422
g6
g7
sg2292
g2293
sg2294
Nsg20
I01
sg2295
Nsg2296
I0
sg75
Nsg76
Nsg24
Nsg11
Nsg29
I00
sg30
(dp2423
sg32
I00
sg1814
Nsg2298
F0.8
sg2299
Nsg2300
g2301
sg2302
g2303
sg96
Nsg86
I01
sg2304
(I0
tp2424
sg111
I0
sg112
I01
sg2306
I01
sg2307
I01
sg115
g1138
sg2308
Nsg2309
F2.01
sg1987
g2182
sg2310
I5
sg9
g4
sg2311
Nsg10
Nsg42
Nsg17
g18
sg2312
g2313
sg23
Nsg25
Nsg28
I00
sg2314
Nsg34
Nsg2315
Nsg2316
g0
(g2317
g2
Ntp2425
Rp2426
(dp2427
g2316
I2
sg2321
Nsg2322
F1.0
sg115
g0
(g157
g2
Ntp2428
Rp2429
(dp2430
g49
I2
sg50
Nsg120
g132
(g133
(I0
tp2431
g135
tp2432
Rp2433
(I1
(I3
I3
tp2434
g59
I00
S'\x00\x00\x00\x00\x00\x00\xf0?\x00\x00\x00\x00\x00\x00\x00\x00\x00\x00\x00\x00\x00\x00\x00\x00\x00\x00\x00\x00\x00\x00\x00\x00\x00\x00\x00\x00\x00\x00\xf0?\x00\x00\x00\x00\x00\x00\x00\x00\x00\x00\x00\x00\x00\x00\x00\x00\x00\x00\x00\x00\x00\x00\x00\x00\x00\x00\x00\x00\x00\x00\xf0?'
p2435
tp2436
bsg51
g7
sg52
(dp2437
sbsg2333
I00
sg2334
g2335
sg2336
Nsg1811
g2337
sg99
g2338
sg1931
g2340
sbsg2348
g2349
sg88
Nsg33
Nsg92
I01
sg2350
Nsg101
VNone
p2438
sg103
g0
(g104
g105
((lp2439
(lp2440
tp2441
tp2442
Rp2443
sg2357
I00
sg2358
g2359
sg2360
g2313
sg2361
Nsg114
Nsg2362
g2313
sg2363
F0.0
sg8
I01
sg2364
Nsg43
Nsg1813
Nsg2365
(I1
tp2444
sg87
F0.5
sg1931
Nsbsg115
NsS'_labelsize'
p2445
F8.0
sS'_name'
p2446
Vxtick
p2447
sg43
Nsg1987
g2182
sg34
Nsbag0
(g2230
g2
Ntp2448
Rp2449
(dp2450
g6
g7
sg40
F0.8
sg9
g4
sg2234
I01
sg8
I01
sg10
Nsg111
I0
sg42
Nsg2235
F3.5
sg2236
g2182
sg2237
I00
sg1966
F0.0
sg17
g18
sg2238
g2239
sg2184
g0
(g1950
g2
Ntp2451
Rp2452
(dp2453
g6
g7
sg8
I01
sg9
g4
sg10
Nsg1954
g0
(g1955
g2
Ntp2454
Rp2455
(dp2456
g1959
(lp2457
g1961
asg1962
Nsg1963
g1964
sg1965
g1964
sg1966
F8.0
sg1967
I400
sg1968
g1964
sbsg42
Nsg17
g18
sg1969
Nsg20
I01
sg23
Nsg75
I0
sg76
I0
sg24
Nsg25
Nsg11
Nsg28
I00
sg29
I00
sg30
(dp2458
sg1971
Nsg32
I00
sg1814
Nsg88
Nsg1813
Nsg1972
Nsg33
Nsg96
Nsg86
I01
sg1973
g2248
sg1975
V
p2459
sg1977
Nsg103
g0
(g104
g105
((lp2460
(lp2461
tp2462
tp2463
Rp2464
sg111
I0
sg1983
Nsg112
I01
sg114
Nsg1984
F1.2
sg115
g1161
sg1985
I00
sg1986
I00
sg43
Nsg1987
g2182
sg1989
g2255
sg34
Nsbsg20
I01
sg23
Nsg2256
I00
sg24
Nsg25
Nsg11
Nsg2257
I00
sg28
I00
sg29
I00
sg30
(dp2465
sg2259
(I3
I2
tp2466
sg32
I00
sg2261
F2.01
sg1814
g1873
sg2262
I01
sg88
g877
sg1813
Nsg2263
g2452
sg2264
g0
(g1950
g2
Ntp2467
Rp2468
(dp2469
g6
g7
sg8
I01
sg9
g4
sg10
Nsg1954
g0
(g1955
g2
Ntp2470
Rp2471
(dp2472
g1959
(lp2473
g1961
asg1962
Nsg1963
g1964
sg1965
g1964
sg1966
F8.0
sg1967
I400
sg1968
g1964
sbsg42
Nsg17
g18
sg1969
Nsg20
I01
sg23
Nsg75
I1
sg76
I0
sg24
Nsg25
Nsg11
Nsg28
I00
sg29
I00
sg30
(dp2474
sg1971
Nsg32
I00
sg1814
Nsg88
Nsg1813
Nsg1972
Nsg33
Nsg96
Nsg86
I01
sg1973
g2273
sg1975
V
p2475
sg1977
Nsg103
g0
(g104
g105
((lp2476
(lp2477
tp2478
tp2479
Rp2480
sg111
I0
sg1983
Nsg112
I01
sg114
Nsg1984
F1.2
sg115
g1206
sg1985
I00
sg1986
I00
sg43
Nsg1987
g2182
sg1989
g2255
sg34
Nsbsg96
Nsg2280
I0
sg86
I01
sg103
g0
(g104
g105
((lp2481
(lp2482
tp2483
tp2484
Rp2485
sg2286
F3.5
sg2287
g0
(g2288
g2
Ntp2486
Rp2487
(dp2488
g6
g7
sg2292
g2293
sg2294
Nsg20
I01
sg2295
Nsg2296
I0
sg75
Nsg76
Nsg24
Nsg11
Nsg29
I00
sg30
(dp2489
sg32
I00
sg1814
Nsg2298
F0.8
sg2299
Nsg2300
g2301
sg2302
g2303
sg96
Nsg86
I01
sg2304
(I0
tp2490
sg111
I0
sg112
I01
sg2306
I01
sg2307
I01
sg115
g1138
sg2308
Nsg2309
F2.01
sg1987
g2182
sg2310
I5
sg9
g4
sg2311
Nsg10
Nsg42
Nsg17
g18
sg2312
g2313
sg23
Nsg25
Nsg28
I00
sg2314
Nsg34
Nsg2315
Nsg2316
g0
(g2317
g2
Ntp2491
Rp2492
(dp2493
g2316
I3
sg2321
Nsg2322
F1.0
sg115
g0
(g157
g2
Ntp2494
Rp2495
(dp2496
g49
I2
sg50
Nsg120
g132
(g133
(I0
tp2497
g135
tp2498
Rp2499
(I1
(I3
I3
tp2500
g59
I00
S'\x00\x00\x00\x00\x00\x00\xf0?\x00\x00\x00\x00\x00\x00\x00\x00\x00\x00\x00\x00\x00\x00\x00\x00\x00\x00\x00\x00\x00\x00\x00\x00\x00\x00\x00\x00\x00\x00\xf0\xbf\x00\x00\x00\x00\x00\x00\x00\x00\x00\x00\x00\x00\x00\x00\x00\x00\x00\x00\x00\x00\x00\x00\x00\x00\x00\x00\x00\x00\x00\x00\xf0?'
p2501
tp2502
bsg51
g7
sg52
(dp2503
sbsg2333
I00
sg2334
g2335
sg2336
Nsg1811
g2337
sg99
g2338
sg1931
g2340
sbsg2348
g2349
sg88
Nsg33
Nsg92
I01
sg2350
Nsg101
g2351
sg103
g0
(g104
g105
((lp2504
(lp2505
tp2506
tp2507
Rp2508
sg2357
I00
sg2358
g2359
sg2360
g2313
sg2361
Nsg114
Nsg2362
g2313
sg2363
F0.0
sg8
I01
sg2364
Nsg43
Nsg1813
Nsg2365
g2366
sg87
F0.5
sg1931
Nsbsg112
I00
sg2367
g0
(g2288
g2
Ntp2509
Rp2510
(dp2511
g6
g7
sg8
I01
sg2360
g2313
sg9
g4
sg2292
g2293
sg2294
Nsg10
Nsg42
Nsg17
g18
sg2312
g2313
sg20
I01
sg2295
Nsg23
Nsg75
g132
(g133
(I0
tp2512
g135
tp2513
Rp2514
(I1
(I2
tp2515
g59
I00
S'\x00\x00\x00\x00\x00\x00\x00\x00\x00\x00\x00\x00\x00\x00\xf0?'
p2516
tp2517
bsg76
g132
(g133
(I0
tp2518
g135
tp2519
Rp2520
(I1
(I2
tp2521
g59
I00
S'\x00\x00\x00\x00\x00\x00\x00\x00\x00\x00\x00\x00\x00\x00\x00\x00'
p2522
tp2523
bsg24
Nsg25
Nsg11
Nsg2304
g2383
sg28
I00
sg2314
Nsg29
I00
sg30
(dp2524
sg2311
Nsg32
I00
sg2357
I00
sg1814
Nsg2315
Nsg2298
F1.0
sg2348
g2349
sg2299
Nsg1987
g2385
sg2316
g0
(g2317
g2
Ntp2525
Rp2526
(dp2527
g2316
g2389
sg2321
Nsg2322
Nsg115
g0
(g45
g2
Ntp2528
Rp2529
(dp2530
g49
I1
sg50
Nsg51
g7
sg52
(dp2531
sbsg2333
I00
sg2334
g2335
sg2336
Nsg1811
g2337
sg99
g2338
sg1931
g0
(g1932
g2
Ntp2532
Rp2533
(dp2534
g1936
I00
sg1937
Nsg1938
g132
(g133
(I0
tp2535
g135
tp2536
Rp2537
(I1
(I0
I2
tp2538
g59
I00
g2401
tp2539
bsg1945
I00
sg1946
F0.1111111111111111
sg1947
I1
sg1948
I00
sbsbsg33
Nsg2300
g2301
sg92
I01
sg2302
g2303
sg96
Nsg2363
F0.0
sg86
I01
sg2350
g132
(g133
(I0
tp2540
g135
tp2541
Rp2542
(I1
(I2
I2
tp2543
g59
I00
S'\x00\x00\x00\x00\x00\x00\x00\x00\x00\x00\x00\x00\x00\x00\x00\x00\x00\x00\x00\x00\x00\x00\x00\x00\x00\x00\x00\x00\x00\x00\xf0?'
p2544
tp2545
bsg101
g2409
sg103
g0
(g104
g105
((lp2546
(lp2547
tp2548
tp2549
Rp2550
sg111
I0
sg2358
g2359
sg2296
I0
sg2361
Nsg2310
I5
sg112
I01
sg114
F1.0
sg2362
g2313
sg2307
I00
sg115
g1138
sg2364
Nsg2308
Nsg2306
I00
sg43
Nsg1813
Nsg2365
g2415
sg88
g308
sg87
F0.8
sg34
Nsg1931
g0
(g1932
g2
Ntp2551
Rp2552
(dp2553
g1936
I00
sg1937
Nsg1938
g2542
sg1945
I00
sg1946
F0.1111111111111111
sg1947
I180
sg1948
I00
sbsbsg114
Nsg33
Nsg2419
g0
(g2288
g2
Ntp2554
Rp2555
(dp2556
g6
g7
sg2292
g2293
sg2294
Nsg20
I01
sg2295
Nsg2296
I0
sg75
Nsg76
Nsg24
Nsg11
Nsg29
I00
sg30
(dp2557
sg32
I00
sg1814
Nsg2298
F0.8
sg2299
Nsg2300
g2301
sg2302
g2303
sg96
Nsg86
I01
sg2304
(I0
tp2558
sg111
I0
sg112
I01
sg2306
I01
sg2307
I01
sg115
g1138
sg2308
Nsg2309
F2.01
sg1987
g2182
sg2310
I5
sg9
g4
sg2311
Nsg10
Nsg42
Nsg17
g18
sg2312
g2313
sg23
Nsg25
Nsg28
I00
sg2314
Nsg34
Nsg2315
Nsg2316
g0
(g2317
g2
Ntp2559
Rp2560
(dp2561
g2316
I2
sg2321
Nsg2322
F1.0
sg115
g0
(g157
g2
Ntp2562
Rp2563
(dp2564
g49
I2
sg50
Nsg120
g132
(g133
(I0
tp2565
g135
tp2566
Rp2567
(I1
(I3
I3
tp2568
g59
I00
S'\x00\x00\x00\x00\x00\x00\xf0?\x00\x00\x00\x00\x00\x00\x00\x00\x00\x00\x00\x00\x00\x00\x00\x00\x00\x00\x00\x00\x00\x00\x00\x00\x00\x00\x00\x00\x00\x00\xf0?\x00\x00\x00\x00\x00\x00\x00\x00\x00\x00\x00\x00\x00\x00\x00\x00\x00\x00\x00\x00\x00\x00\x00\x00\x00\x00\x00\x00\x00\x00\xf0?'
p2569
tp2570
bsg51
g7
sg52
(dp2571
sbsg2333
I00
sg2334
g2335
sg2336
Nsg1811
g2337
sg99
g2338
sg1931
g2340
sbsg2348
g2349
sg88
Nsg33
Nsg92
I01
sg2350
Nsg101
g2438
sg103
g0
(g104
g105
((lp2572
(lp2573
tp2574
tp2575
Rp2576
sg2357
I00
sg2358
g2359
sg2360
g2313
sg2361
Nsg114
Nsg2362
g2313
sg2363
F0.0
sg8
I01
sg2364
Nsg43
Nsg1813
Nsg2365
g2444
sg87
F0.5
sg1931
Nsbsg115
Nsg2445
F8.0
sg2446
g2447
sg43
Nsg1987
g2182
sg34
NsbasS'isDefault_majloc'
p2577
I01
sg1821
g0
(g1822
g2
Ntp2578
Rp2579
I01
bsg96
Nsg86
I01
sS'_autolabelpos'
p2580
I01
sg103
g0
(g104
g105
((lp2581
(lp2582
tp2583
tp2584
Rp2585
sg111
I0
sS'_lastNumMajorTicks'
p2586
I1
sS'converter'
p2587
Nsg112
I00
sg114
NsS'offset_text_position'
p2588
Vbottom
p2589
sg115
NsS'label_position'
p2590
Vbottom
p2591
sg43
Nsg1813
Nsg2310
I15
sS'minorTicks'
p2592
(lp2593
g0
(g2230
g2
Ntp2594
Rp2595
(dp2596
g6
g7
sg40
F0.6
sg9
g4
sg2234
I01
sg8
I01
sg10
Nsg111
I0
sg42
Nsg2235
F3.4
sg2236
g2182
sg2237
I00
sg1966
F0.0
sg17
g18
sg2238
g2239
sg2184
g0
(g1950
g2
Ntp2597
Rp2598
(dp2599
g6
g7
sg8
I01
sg9
g4
sg10
Nsg1954
g0
(g1955
g2
Ntp2600
Rp2601
(dp2602
g1959
(lp2603
g1961
asg1962
Nsg1963
g1964
sg1965
g1964
sg1966
F8.0
sg1967
I400
sg1968
g1964
sbsg42
Nsg17
g18
sg1969
Nsg20
I01
sg23
Nsg75
I0
sg76
I0
sg24
Nsg25
Nsg11
Nsg28
I00
sg29
I00
sg30
(dp2604
sg1971
Nsg32
I00
sg1814
Nsg88
Nsg1813
Nsg1972
Nsg33
Nsg96
Nsg86
I01
sg1973
g2248
sg1975
V
p2605
sg1977
Nsg103
g0
(g104
g105
((lp2606
(lp2607
tp2608
tp2609
Rp2610
sg111
I0
sg1983
Nsg112
I01
sg114
Nsg1984
F1.2
sg115
g1197
sg1985
I00
sg1986
I00
sg43
Nsg1987
g2182
sg1989
g2255
sg34
Nsbsg20
I01
sg23
Nsg2256
I00
sg24
Nsg25
Nsg11
Nsg2257
I00
sg28
I00
sg29
I00
sg30
(dp2611
sg2259
(I3
I2
tp2612
sg32
I00
sg2261
I2
sg1814
g1873
sg2262
I01
sg88
g972
sg1813
Nsg2263
g2598
sg2264
g0
(g1950
g2
Ntp2613
Rp2614
(dp2615
g6
g7
sg8
I01
sg9
g4
sg10
Nsg1954
g0
(g1955
g2
Ntp2616
Rp2617
(dp2618
g1959
(lp2619
g1961
asg1962
Nsg1963
g1964
sg1965
g1964
sg1966
F8.0
sg1967
I400
sg1968
g1964
sbsg42
Nsg17
g18
sg1969
Nsg20
I01
sg23
Nsg75
I1
sg76
I0
sg24
Nsg25
Nsg11
Nsg28
I00
sg29
I00
sg30
(dp2620
sg1971
Nsg32
I00
sg1814
Nsg88
Nsg1813
Nsg1972
Nsg33
Nsg96
Nsg86
I01
sg1973
g2273
sg1975
V
p2621
sg1977
Nsg103
g0
(g104
g105
((lp2622
(lp2623
tp2624
tp2625
Rp2626
sg111
I0
sg1983
Nsg112
I01
sg114
Nsg1984
F1.2
sg115
g1143
sg1985
I00
sg1986
I00
sg43
Nsg1987
g2182
sg1989
g2255
sg34
Nsbsg96
Nsg2280
I0
sg86
I01
sg103
g0
(g104
g105
((lp2627
(lp2628
tp2629
tp2630
Rp2631
sg2286
F3.4
sg2287
g0
(g2288
g2
Ntp2632
Rp2633
(dp2634
g6
g7
sg2292
g2293
sg2294
Nsg20
I01
sg2295
Nsg2296
I0
sg75
Nsg76
Nsg24
Nsg11
Nsg29
I00
sg30
(dp2635
sg32
I00
sg1814
Nsg2298
F0.6
sg2299
Nsg2300
g2301
sg2302
g2303
sg96
Nsg86
I01
sg2304
(I0
tp2636
sg111
I0
sg112
I01
sg2306
I01
sg2307
I01
sg115
g1138
sg2308
Nsg2309
I2
sg1987
g2182
sg2310
I5
sg9
g4
sg2311
Nsg10
Nsg42
Nsg17
g18
sg2312
g2313
sg23
Nsg25
Nsg28
I00
sg2314
Nsg34
Nsg2315
Nsg2316
g0
(g2317
g2
Ntp2637
Rp2638
(dp2639
g2316
I3
sg2321
Nsg2322
F1.0
sg115
g0
(g157
g2
Ntp2640
Rp2641
(dp2642
g49
I2
sg50
Nsg120
g132
(g133
(I0
tp2643
g135
tp2644
Rp2645
(I1
(I3
I3
tp2646
g59
I00
S'\x00\x00\x00\x00\x00\x00\xf0?\x00\x00\x00\x00\x00\x00\x00\x00\x00\x00\x00\x00\x00\x00\x00\x00\x00\x00\x00\x00\x00\x00\x00\x00\x00\x00\x00\x00\x00\x00\xf0\xbf\x00\x00\x00\x00\x00\x00\x00\x00\x00\x00\x00\x00\x00\x00\x00\x00\x00\x00\x00\x00\x00\x00\x00\x00\x00\x00\x00\x00\x00\x00\xf0?'
p2647
tp2648
bsg51
g7
sg52
(dp2649
sbsg2333
I00
sg2334
g2335
sg2336
Nsg1811
g2337
sg99
g2338
sg1931
g2340
sbsg2348
g2349
sg88
Nsg33
Nsg92
I01
sg2350
Nsg101
g2351
sg103
g0
(g104
g105
((lp2650
(lp2651
tp2652
tp2653
Rp2654
sg2357
I00
sg2358
g2359
sg2360
g2313
sg2361
Nsg114
Nsg2362
g2313
sg2363
F0.0
sg8
I01
sg2364
Nsg43
Nsg1813
Nsg2365
g2366
sg87
F0.5
sg1931
Nsbsg112
I00
sg2367
g0
(g2288
g2
Ntp2655
Rp2656
(dp2657
g6
g7
sg8
I01
sg2360
g2313
sg9
g4
sg2292
g2293
sg2294
Nsg10
Nsg42
Nsg17
g18
sg2312
g2313
sg20
I01
sg2295
Nsg23
Nsg75
g132
(g133
(I0
tp2658
g135
tp2659
Rp2660
(I1
(I2
tp2661
g59
I00
S'\x00\x00\x00\x00\x00\x00\x00\x00\x00\x00\x00\x00\x00\x00\xf0?'
p2662
tp2663
bsg76
g132
(g133
(I0
tp2664
g135
tp2665
Rp2666
(I1
(I2
tp2667
g59
I00
S'\x00\x00\x00\x00\x00\x00\x00\x00\x00\x00\x00\x00\x00\x00\x00\x00'
p2668
tp2669
bsg24
Nsg25
Nsg11
Nsg2304
g2383
sg28
I00
sg2314
Nsg29
I00
sg30
(dp2670
sg2311
Nsg32
I00
sg2357
I00
sg1814
Nsg2315
Nsg2298
F1.0
sg2348
g2349
sg2299
Nsg1987
g2385
sg2316
g0
(g2317
g2
Ntp2671
Rp2672
(dp2673
g2316
g2389
sg2321
Nsg2322
Nsg115
g0
(g45
g2
Ntp2674
Rp2675
(dp2676
g49
I1
sg50
Nsg51
g7
sg52
(dp2677
sbsg2333
I00
sg2334
g2335
sg2336
Nsg1811
g2337
sg99
g2338
sg1931
g0
(g1932
g2
Ntp2678
Rp2679
(dp2680
g1936
I00
sg1937
Nsg1938
g132
(g133
(I0
tp2681
g135
tp2682
Rp2683
(I1
(I0
I2
tp2684
g59
I00
g2401
tp2685
bsg1945
I00
sg1946
F0.1111111111111111
sg1947
I1
sg1948
I00
sbsbsg33
Nsg2300
g2301
sg92
I01
sg2302
g2303
sg96
Nsg2363
F0.0
sg86
I01
sg2350
g132
(g133
(I0
tp2686
g135
tp2687
Rp2688
(I1
(I2
I2
tp2689
g59
I00
S'\x00\x00\x00\x00\x00\x00\x00\x00\x00\x00\x00\x00\x00\x00\x00\x00\x00\x00\x00\x00\x00\x00\x00\x00\x00\x00\x00\x00\x00\x00\xf0?'
p2690
tp2691
bsg101
g2409
sg103
g0
(g104
g105
((lp2692
(lp2693
tp2694
tp2695
Rp2696
sg111
I0
sg2358
g2359
sg2296
I0
sg2361
Nsg2310
I5
sg112
I01
sg114
F1.0
sg2362
g2313
sg2307
I00
sg115
g1138
sg2364
Nsg2308
Nsg2306
I00
sg43
Nsg1813
Nsg2365
g2415
sg88
g1415
sg87
F0.8
sg34
Nsg1931
g0
(g1932
g2
Ntp2697
Rp2698
(dp2699
g1936
I00
sg1937
Nsg1938
g2688
sg1945
I00
sg1946
F0.1111111111111111
sg1947
I180
sg1948
I00
sbsbsg114
Nsg33
Nsg2419
g0
(g2288
g2
Ntp2700
Rp2701
(dp2702
g6
g7
sg2292
g2293
sg2294
Nsg20
I01
sg2295
Nsg2296
I0
sg75
Nsg76
Nsg24
Nsg11
Nsg29
I00
sg30
(dp2703
sg32
I00
sg1814
Nsg2298
F0.6
sg2299
Nsg2300
g2301
sg2302
g2303
sg96
Nsg86
I01
sg2304
(I0
tp2704
sg111
I0
sg112
I01
sg2306
I01
sg2307
I01
sg115
g1138
sg2308
Nsg2309
I2
sg1987
g2182
sg2310
I5
sg9
g4
sg2311
Nsg10
Nsg42
Nsg17
g18
sg2312
g2313
sg23
Nsg25
Nsg28
I00
sg2314
Nsg34
Nsg2315
Nsg2316
g0
(g2317
g2
Ntp2705
Rp2706
(dp2707
g2316
I2
sg2321
Nsg2322
F1.0
sg115
g0
(g157
g2
Ntp2708
Rp2709
(dp2710
g49
I2
sg50
Nsg120
g132
(g133
(I0
tp2711
g135
tp2712
Rp2713
(I1
(I3
I3
tp2714
g59
I00
S'\x00\x00\x00\x00\x00\x00\xf0?\x00\x00\x00\x00\x00\x00\x00\x00\x00\x00\x00\x00\x00\x00\x00\x00\x00\x00\x00\x00\x00\x00\x00\x00\x00\x00\x00\x00\x00\x00\xf0?\x00\x00\x00\x00\x00\x00\x00\x00\x00\x00\x00\x00\x00\x00\x00\x00\x00\x00\x00\x00\x00\x00\x00\x00\x00\x00\x00\x00\x00\x00\xf0?'
p2715
tp2716
bsg51
g7
sg52
(dp2717
sbsg2333
I00
sg2334
g2335
sg2336
Nsg1811
g2337
sg99
g2338
sg1931
g2340
sbsg2348
g2349
sg88
Nsg33
Nsg92
I01
sg2350
Nsg101
g2438
sg103
g0
(g104
g105
((lp2718
(lp2719
tp2720
tp2721
Rp2722
sg2357
I00
sg2358
g2359
sg2360
g2313
sg2361
Nsg114
Nsg2362
g2313
sg2363
F0.0
sg8
I01
sg2364
Nsg43
Nsg1813
Nsg2365
g2444
sg87
F0.5
sg1931
Nsbsg115
Nsg2445
F8.0
sg2446
g2447
sg43
Nsg1987
g2182
sg34
Nsbag0
(g2230
g2
Ntp2723
Rp2724
(dp2725
g6
g7
sg40
F0.6
sg9
g4
sg2234
I01
sg8
I01
sg10
Nsg111
I0
sg42
Nsg2235
F3.4
sg2236
g2182
sg2237
I00
sg1966
F0.0
sg17
g18
sg2238
g2239
sg2184
g0
(g1950
g2
Ntp2726
Rp2727
(dp2728
g6
g7
sg8
I01
sg9
g4
sg10
Nsg1954
g0
(g1955
g2
Ntp2729
Rp2730
(dp2731
g1959
(lp2732
g1961
asg1962
Nsg1963
g1964
sg1965
g1964
sg1966
F8.0
sg1967
I400
sg1968
g1964
sbsg42
Nsg17
g18
sg1969
Nsg20
I01
sg23
Nsg75
I0
sg76
I0
sg24
Nsg25
Nsg11
Nsg28
I00
sg29
I00
sg30
(dp2733
sg1971
Nsg32
I00
sg1814
Nsg88
Nsg1813
Nsg1972
Nsg33
Nsg96
Nsg86
I01
sg1973
g2248
sg1975
V
p2734
sg1977
Nsg103
g0
(g104
g105
((lp2735
(lp2736
tp2737
tp2738
Rp2739
sg111
I0
sg1983
Nsg112
I01
sg114
Nsg1984
F1.2
sg115
g1152
sg1985
I00
sg1986
I00
sg43
Nsg1987
g2182
sg1989
g2255
sg34
Nsbsg20
I01
sg23
Nsg2256
I00
sg24
Nsg25
Nsg11
Nsg2257
I00
sg28
I00
sg29
I00
sg30
(dp2740
sg2259
(I3
I2
tp2741
sg32
I00
sg2261
I2
sg1814
g1873
sg2262
I01
sg88
g667
sg1813
Nsg2263
g2727
sg2264
g0
(g1950
g2
Ntp2742
Rp2743
(dp2744
g6
g7
sg8
I01
sg9
g4
sg10
Nsg1954
g0
(g1955
g2
Ntp2745
Rp2746
(dp2747
g1959
(lp2748
g1961
asg1962
Nsg1963
g1964
sg1965
g1964
sg1966
F8.0
sg1967
I400
sg1968
g1964
sbsg42
Nsg17
g18
sg1969
Nsg20
I01
sg23
Nsg75
I1
sg76
I0
sg24
Nsg25
Nsg11
Nsg28
I00
sg29
I00
sg30
(dp2749
sg1971
Nsg32
I00
sg1814
Nsg88
Nsg1813
Nsg1972
Nsg33
Nsg96
Nsg86
I01
sg1973
g2273
sg1975
V
p2750
sg1977
Nsg103
g0
(g104
g105
((lp2751
(lp2752
tp2753
tp2754
Rp2755
sg111
I0
sg1983
Nsg112
I01
sg114
Nsg1984
F1.2
sg115
g1170
sg1985
I00
sg1986
I00
sg43
Nsg1987
g2182
sg1989
g2255
sg34
Nsbsg96
Nsg2280
I0
sg86
I01
sg103
g0
(g104
g105
((lp2756
(lp2757
tp2758
tp2759
Rp2760
sg2286
F3.4
sg2287
g0
(g2288
g2
Ntp2761
Rp2762
(dp2763
g6
g7
sg2292
g2293
sg2294
Nsg20
I01
sg2295
Nsg2296
I0
sg75
Nsg76
Nsg24
Nsg11
Nsg29
I00
sg30
(dp2764
sg32
I00
sg1814
Nsg2298
F0.6
sg2299
Nsg2300
g2301
sg2302
g2303
sg96
Nsg86
I01
sg2304
(I0
tp2765
sg111
I0
sg112
I01
sg2306
I01
sg2307
I01
sg115
g1138
sg2308
Nsg2309
I2
sg1987
g2182
sg2310
I5
sg9
g4
sg2311
Nsg10
Nsg42
Nsg17
g18
sg2312
g2313
sg23
Nsg25
Nsg28
I00
sg2314
Nsg34
Nsg2315
Nsg2316
g0
(g2317
g2
Ntp2766
Rp2767
(dp2768
g2316
I3
sg2321
Nsg2322
F1.0
sg115
g0
(g157
g2
Ntp2769
Rp2770
(dp2771
g49
I2
sg50
Nsg120
g132
(g133
(I0
tp2772
g135
tp2773
Rp2774
(I1
(I3
I3
tp2775
g59
I00
S'\x00\x00\x00\x00\x00\x00\xf0?\x00\x00\x00\x00\x00\x00\x00\x00\x00\x00\x00\x00\x00\x00\x00\x00\x00\x00\x00\x00\x00\x00\x00\x00\x00\x00\x00\x00\x00\x00\xf0\xbf\x00\x00\x00\x00\x00\x00\x00\x00\x00\x00\x00\x00\x00\x00\x00\x00\x00\x00\x00\x00\x00\x00\x00\x00\x00\x00\x00\x00\x00\x00\xf0?'
p2776
tp2777
bsg51
g7
sg52
(dp2778
sbsg2333
I00
sg2334
g2335
sg2336
Nsg1811
g2337
sg99
g2338
sg1931
g2340
sbsg2348
g2349
sg88
Nsg33
Nsg92
I01
sg2350
Nsg101
g2351
sg103
g0
(g104
g105
((lp2779
(lp2780
tp2781
tp2782
Rp2783
sg2357
I00
sg2358
g2359
sg2360
g2313
sg2361
Nsg114
Nsg2362
g2313
sg2363
F0.0
sg8
I01
sg2364
Nsg43
Nsg1813
Nsg2365
g2366
sg87
F0.5
sg1931
Nsbsg112
I00
sg2367
g0
(g2288
g2
Ntp2784
Rp2785
(dp2786
g6
g7
sg8
I01
sg2360
g2313
sg9
g4
sg2292
g2293
sg2294
Nsg10
Nsg42
Nsg17
g18
sg2312
g2313
sg20
I01
sg2295
Nsg23
Nsg75
g132
(g133
(I0
tp2787
g135
tp2788
Rp2789
(I1
(I2
tp2790
g59
I00
S'\x00\x00\x00\x00\x00\x00\x00\x00\x00\x00\x00\x00\x00\x00\xf0?'
p2791
tp2792
bsg76
g132
(g133
(I0
tp2793
g135
tp2794
Rp2795
(I1
(I2
tp2796
g59
I00
S'\x00\x00\x00\x00\x00\x00\x00\x00\x00\x00\x00\x00\x00\x00\x00\x00'
p2797
tp2798
bsg24
Nsg25
Nsg11
Nsg2304
g2383
sg28
I00
sg2314
Nsg29
I00
sg30
(dp2799
sg2311
Nsg32
I00
sg2357
I00
sg1814
Nsg2315
Nsg2298
F1.0
sg2348
g2349
sg2299
Nsg1987
g2385
sg2316
g0
(g2317
g2
Ntp2800
Rp2801
(dp2802
g2316
g2389
sg2321
Nsg2322
Nsg115
g0
(g45
g2
Ntp2803
Rp2804
(dp2805
g49
I1
sg50
Nsg51
g7
sg52
(dp2806
sbsg2333
I00
sg2334
g2335
sg2336
Nsg1811
g2337
sg99
g2338
sg1931
g0
(g1932
g2
Ntp2807
Rp2808
(dp2809
g1936
I00
sg1937
Nsg1938
g132
(g133
(I0
tp2810
g135
tp2811
Rp2812
(I1
(I0
I2
tp2813
g59
I00
g2401
tp2814
bsg1945
I00
sg1946
F0.1111111111111111
sg1947
I1
sg1948
I00
sbsbsg33
Nsg2300
g2301
sg92
I01
sg2302
g2303
sg96
Nsg2363
F0.0
sg86
I01
sg2350
g132
(g133
(I0
tp2815
g135
tp2816
Rp2817
(I1
(I2
I2
tp2818
g59
I00
S'\x00\x00\x00\x00\x00\x00\x00\x00\x00\x00\x00\x00\x00\x00\x00\x00\x00\x00\x00\x00\x00\x00\x00\x00\x00\x00\x00\x00\x00\x00\xf0?'
p2819
tp2820
bsg101
g2409
sg103
g0
(g104
g105
((lp2821
(lp2822
tp2823
tp2824
Rp2825
sg111
I0
sg2358
g2359
sg2296
I0
sg2361
Nsg2310
I5
sg112
I01
sg114
F1.0
sg2362
g2313
sg2307
I00
sg115
g1138
sg2364
Nsg2308
Nsg2306
I00
sg43
Nsg1813
Nsg2365
g2415
sg88
g518
sg87
F0.8
sg34
Nsg1931
g0
(g1932
g2
Ntp2826
Rp2827
(dp2828
g1936
I00
sg1937
Nsg1938
g2817
sg1945
I00
sg1946
F0.1111111111111111
sg1947
I180
sg1948
I00
sbsbsg114
Nsg33
Nsg2419
g0
(g2288
g2
Ntp2829
Rp2830
(dp2831
g6
g7
sg2292
g2293
sg2294
Nsg20
I01
sg2295
Nsg2296
I0
sg75
Nsg76
Nsg24
Nsg11
Nsg29
I00
sg30
(dp2832
sg32
I00
sg1814
Nsg2298
F0.6
sg2299
Nsg2300
g2301
sg2302
g2303
sg96
Nsg86
I01
sg2304
(I0
tp2833
sg111
I0
sg112
I01
sg2306
I01
sg2307
I01
sg115
g1138
sg2308
Nsg2309
I2
sg1987
g2182
sg2310
I5
sg9
g4
sg2311
Nsg10
Nsg42
Nsg17
g18
sg2312
g2313
sg23
Nsg25
Nsg28
I00
sg2314
Nsg34
Nsg2315
Nsg2316
g0
(g2317
g2
Ntp2834
Rp2835
(dp2836
g2316
I2
sg2321
Nsg2322
F1.0
sg115
g0
(g157
g2
Ntp2837
Rp2838
(dp2839
g49
I2
sg50
Nsg120
g132
(g133
(I0
tp2840
g135
tp2841
Rp2842
(I1
(I3
I3
tp2843
g59
I00
S'\x00\x00\x00\x00\x00\x00\xf0?\x00\x00\x00\x00\x00\x00\x00\x00\x00\x00\x00\x00\x00\x00\x00\x00\x00\x00\x00\x00\x00\x00\x00\x00\x00\x00\x00\x00\x00\x00\xf0?\x00\x00\x00\x00\x00\x00\x00\x00\x00\x00\x00\x00\x00\x00\x00\x00\x00\x00\x00\x00\x00\x00\x00\x00\x00\x00\x00\x00\x00\x00\xf0?'
p2844
tp2845
bsg51
g7
sg52
(dp2846
sbsg2333
I00
sg2334
g2335
sg2336
Nsg1811
g2337
sg99
g2338
sg1931
g2340
sbsg2348
g2349
sg88
Nsg33
Nsg92
I01
sg2350
Nsg101
g2438
sg103
g0
(g104
g105
((lp2847
(lp2848
tp2849
tp2850
Rp2851
sg2357
I00
sg2358
g2359
sg2360
g2313
sg2361
Nsg114
Nsg2362
g2313
sg2363
F0.0
sg8
I01
sg2364
Nsg43
Nsg1813
Nsg2365
g2444
sg87
F0.5
sg1931
Nsbsg115
Nsg2445
F8.0
sg2446
g2447
sg43
Nsg1987
g2182
sg34
Nsbasg34
NsS'_minor_tick_kw'
p2852
(dp2853
g2219
I01
sg2221
I00
sg2222
I01
sg2223
I00
ssS'isDefault_minfmt'
p2854
I01
sbsS'_navigate_mode'
p2855
Nsg34
NsS'transAxes'
p2856
g234
sS'_connected'
p2857
(dp2858
sS'fmt_ydata'
p2859
NsS'dataLim'
p2860
g0
(g127
g2
Ntp2861
Rp2862
(dp2863
g49
I0
sg131
g132
(g133
(I0
tp2864
g135
tp2865
Rp2866
(I1
(I2
tp2867
g59
I00
S'y\r\xe55\x94\xd7\xd0?\x00\x00\x00\x00\x00\x00\xf0?'
p2868
tp2869
bsg52
(dp2870
sg142
g132
(g133
(I0
tp2871
g135
tp2872
Rp2873
(I1
(I2
I2
tp2874
g59
I00
S'\x00\x00\x00\x00\x00\x00\xf0\x7f\x00\x00\x00\x00\x00\x00\xf0\x7f\x00\x00\x00\x00\x00\x00\xf0\xff\x00\x00\x00\x00\x00\x00\xf0\xff'
p2875
tp2876
bsg149
g132
(g133
(I0
tp2877
g135
tp2878
Rp2879
(I1
(I2
I2
tp2880
g59
I00
S'\x00\x00\x00\x00\x00\x00\x00\x00\x00\x00\x00\x00\x00\x00\x00\x00\x00\x00\x00\x00\x00\x00\x14@\x00\x00\x00\x00\x00\x00\x10@'
p2881
tp2882
bsg156
I01
sg51
g7
sbsS'transData'
p2883
g187
sg33
NsS'_sharey'
p2884
NsS'_sharex'
p2885
NsS'axesPatch'
p2886
g2052
sS'_ymargin'
p2887
F0.05
sS'_axes_locator'
p2888
Nsg103
g0
(g104
g105
((lp2889
(lp2890
tp2891
tp2892
Rp2893
sS'numCols'
p2894
I1
sg114
Nsg1825
NsS'yaxis'
p2895
g0
(cmatplotlib.axis
YAxis
p2896
g2
Ntp2897
Rp2898
(dp2899
g6
g7
sg2113
g0
(g2114
g2
Ntp2900
Rp2901
(dp2902
g2118
g0
(g2119
g2
Ntp2903
Rp2904
(dp2905
g2123
I2
sg2124
I00
sg2125
g2126
sg2127
g132
(g133
(I0
tp2906
g135
tp2907
Rp2908
(I1
(I5
tp2909
g59
I00
S'\x00\x00\x00\x00\x00\x00\xf0?\x00\x00\x00\x00\x00\x00\x00@\x00\x00\x00\x00\x00\x00\x04@\x00\x00\x00\x00\x00\x00\x14@\x00\x00\x00\x00\x00\x00$@'
p2910
tp2911
bsg2134
Nsg2135
g132
(g133
(I0
tp2912
g135
tp2913
Rp2914
(I1
(I10
tp2915
g59
I00
S'\x9a\x99\x99\x99\x99\x99\xb9?\x9a\x99\x99\x99\x99\x99\xc9?\x00\x00\x00\x00\x00\x00\xd0?\x00\x00\x00\x00\x00\x00\xe0?\x00\x00\x00\x00\x00\x00\xf0?\x00\x00\x00\x00\x00\x00\x00@\x00\x00\x00\x00\x00\x00\x04@\x00\x00\x00\x00\x00\x00\x14@\x00\x00\x00\x00\x00\x00$@\x00\x00\x00\x00\x00\x004@'
p2916
tp2917
bsg2142
I00
sg2143
g2898
sbsg2144
g0
(g2145
g2
Ntp2918
Rp2919
(dp2920
g2149
g2150
sg2151
I0
sg2152
I01
sg2153
I00
sg2154
g7
sg2155
I00
sg2156
I4
sg2157
I0
sg1985
I00
sg2158
I01
sg2143
g2898
sbsbsg2159
I00
sg2160
g0
(g2161
g2
Ntp2921
Rp2922
sg9
g4
sg8
I01
sg2164
I00
sg10
Nsg42
Nsg2165
I00
sg17
g18
sg20
I01
sg23
Nsg2166
g0
(g1950
g2
Ntp2923
Rp2924
(dp2925
g6
g7
sg8
I01
sg9
g4
sg10
Nsg1954
g0
(g1955
g2
Ntp2926
Rp2927
(dp2928
g1959
(lp2929
g1961
asg1962
Nsg1963
g1964
sg1965
g1964
sg1966
F8.0
sg1967
I400
sg1968
g1964
sbsg42
Nsg17
g18
sg1969
Nsg20
I01
sg23
Nsg75
F0.5
sg76
I0
sg24
Nsg25
Nsg11
Nsg28
I00
sg29
I00
sg30
(dp2930
sg1971
Nsg32
I00
sg1814
Nsg88
Nsg1813
Nsg1972
Nsg33
Nsg96
Nsg86
I01
sg1973
Vbaseline
p2931
sg1975
V
p2932
sg1977
Nsg103
g0
(g104
g105
((lp2933
(lp2934
tp2935
tp2936
Rp2937
sg111
I0
sg1983
Nsg112
I01
sg114
Nsg1984
F1.2
sg115
g1285
sg1985
I00
sg1986
I00
sg43
Nsg1987
V0.
p2938
sg1989
Vleft
p2939
sg34
Nsbsg24
Nsg25
Nsg11
Nsg2184
g0
(g1950
g2
Ntp2940
Rp2941
(dp2942
g6
g7
sg8
I01
sg9
g4
sg10
Nsg1954
g0
(g1955
g2
Ntp2943
Rp2944
(dp2945
g1959
(lp2946
g1961
asg1962
Nsg1963
g1964
sg1965
g1964
sg1966
F10.0
sg1967
I400
sg1968
g1964
sbsg42
Nsg17
g18
sg1969
Nsg20
I01
sg23
Nsg75
F0.5
sg76
I0
sg24
Nsg25
Nsg11
Nsg28
I00
sg29
I00
sg30
(dp2947
sg1971
Nsg32
I00
sg1814
Nsg88
Nsg1813
Nsg1972
Vanchor
p2948
sg33
Nsg96
Nsg86
I01
sg1973
Vbottom
p2949
sg1975
V# trials
p2950
sg1977
Nsg103
g0
(g104
g105
((lp2951
(lp2952
tp2953
tp2954
Rp2955
sg111
I0
sg1983
Vvertical
p2956
sg112
I01
sg114
Nsg1984
F1.2
sg115
g1363
sg1985
I00
sg1986
I00
sg43
Nsg1987
g2200
sg1989
Vcenter
p2957
sg34
Nsbsg28
I00
sg2202
I01
sg29
I00
sg30
(dp2958
sg2204
Nsg32
I00
sg2205
g0
(g2114
g2
Ntp2959
Rp2960
(dp2961
g2118
g0
(g2209
g2
Ntp2962
Rp2963
(dp2964
g2143
g2898
sbsg2144
g0
(g2213
g2
Ntp2965
Rp2966
(dp2967
g2143
g2898
sbsbsg1814
g1873
sg2217
(dp2968
g2219
I01
sg2220
I00
sg2221
I00
sg2222
I01
sg2223
I00
ssg2224
I01
sg88
g378
sg33
Nsg2225
I00
sg2226
I1
sg2227
F4.0
sg2228
(lp2969
g0
(cmatplotlib.axis
YTick
p2970
g2
Ntp2971
Rp2972
(dp2973
g6
g7
sg40
F0.8
sg9
g4
sg2234
I01
sg8
I01
sg10
Nsg111
I0
sg42
Nsg2235
F3.5
sg2236
g2938
sg2237
I00
sg1966
F0.0
sg17
g18
sg2238
Vout
p2974
sg2184
g0
(g1950
g2
Ntp2975
Rp2976
(dp2977
g6
g7
sg8
I01
sg9
g4
sg10
Nsg1954
g0
(g1955
g2
Ntp2978
Rp2979
(dp2980
g1959
(lp2981
g1961
asg1962
Nsg1963
g1964
sg1965
g1964
sg1966
F8.0
sg1967
I400
sg1968
g1964
sbsg42
Nsg17
g18
sg1969
Nsg20
I01
sg23
Nsg75
I0
sg76
I0
sg24
Nsg25
Nsg11
Nsg28
I00
sg29
I00
sg30
(dp2982
sg1971
Nsg32
I00
sg1814
Nsg88
Nsg1813
Nsg1972
Nsg33
Nsg96
Nsg86
I01
sg1973
Vcenter_baseline
p2983
sg1975
V
p2984
sg1977
Nsg103
g0
(g104
g105
((lp2985
(lp2986
tp2987
tp2988
Rp2989
sg111
I0
sg1983
Nsg112
I01
sg114
Nsg1984
F1.2
sg115
g178
sg1985
I00
sg1986
I00
sg43
Nsg1987
g2938
sg1989
Vright
p2990
sg34
Nsbsg20
I01
sg23
Nsg2256
I00
sg24
Nsg25
Nsg11
Nsg2257
I00
sg28
I00
sg29
I00
sg30
(dp2991
sg2259
(I0
I1
tp2992
sg32
I00
sg2261
F2.01
sg1814
g1873
sg2262
I01
sg88
g1695
sg1813
Nsg2263
g2976
sg2264
g0
(g1950
g2
Ntp2993
Rp2994
(dp2995
g6
g7
sg8
I01
sg9
g4
sg10
Nsg1954
g0
(g1955
g2
Ntp2996
Rp2997
(dp2998
g1959
(lp2999
g1961
asg1962
Nsg1963
g1964
sg1965
g1964
sg1966
F8.0
sg1967
I400
sg1968
g1964
sbsg42
Nsg17
g18
sg1969
Nsg20
I01
sg23
Nsg75
I0
sg76
I1
sg24
Nsg25
Nsg11
Nsg28
I00
sg29
I00
sg30
(dp3000
sg1971
Nsg32
I00
sg1814
Nsg88
Nsg1813
Nsg1972
Nsg33
Nsg96
Nsg86
I01
sg1973
g2983
sg1975
V
p3001
sg1977
Nsg103
g0
(g104
g105
((lp3002
(lp3003
tp3004
tp3005
Rp3006
sg111
I0
sg1983
Nsg112
I01
sg114
Nsg1984
F1.2
sg115
g1771
sg1985
I00
sg1986
I00
sg43
Nsg1987
g2938
sg1989
Vleft
p3007
sg34
Nsbsg96
Nsg2280
I0
sg86
I01
sg103
g0
(g104
g105
((lp3008
(lp3009
tp3010
tp3011
Rp3012
sg2286
F3.5
sg2287
g0
(g2288
g2
Ntp3013
Rp3014
(dp3015
g6
g7
sg2292
g2293
sg2294
Nsg20
I01
sg2295
Nsg2296
I0
sg75
Nsg76
Nsg24
Nsg11
Nsg29
I00
sg30
(dp3016
sg32
I00
sg1814
Nsg2298
F0.8
sg2299
Nsg2300
g2301
sg2302
g2303
sg96
Nsg86
I01
sg2304
(I0
tp3017
sg111
I0
sg112
I01
sg2306
I01
sg2307
I01
sg115
g184
sg2308
Nsg2309
F2.01
sg1987
g2938
sg2310
I5
sg9
g4
sg2311
Nsg10
Nsg42
Nsg17
g18
sg2312
g2313
sg23
Nsg25
Nsg28
I00
sg2314
Nsg34
Nsg2315
Nsg2316
g0
(g2317
g2
Ntp3018
Rp3019
(dp3020
g2316
I0
sg2321
Nsg2322
F1.0
sg115
g0
(g157
g2
Ntp3021
Rp3022
(dp3023
g49
I2
sg50
Nsg120
g132
(g133
(I0
tp3024
g135
tp3025
Rp3026
(I1
(I3
I3
tp3027
g59
I00
S'\x00\x00\x00\x00\x00\x00\xf0\xbf\x00\x00\x00\x00\x00\x00\x00\x00\x00\x00\x00\x00\x00\x00\x00\x00\x00\x00\x00\x00\x00\x00\x00\x00\x00\x00\x00\x00\x00\x00\xf0?\x00\x00\x00\x00\x00\x00\x00\x00\x00\x00\x00\x00\x00\x00\x00\x00\x00\x00\x00\x00\x00\x00\x00\x00\x00\x00\x00\x00\x00\x00\xf0?'
p3028
tp3029
bsg51
g7
sg52
(dp3030
sbsg2333
I00
sg2334
g2335
sg2336
Nsg1811
g2337
sg99
g2338
sg1931
g0
(g1932
g2
Ntp3031
Rp3032
(dp3033
g1936
I00
sg1937
Nsg1938
g132
(g133
(I0
tp3034
g135
tp3035
Rp3036
(I1
(I2
I2
tp3037
g59
I00
S'\x00\x00\x00\x00\x00\x00\x00\x00\x00\x00\x00\x00\x00\x00\x00\x00\x00\x00\x00\x00\x00\x00\xf0?\x00\x00\x00\x00\x00\x00\x00\x00'
p3038
tp3039
bsg1945
I00
sg1946
F0.1111111111111111
sg1947
I1
sg1948
I00
sbsbsg2348
g2349
sg88
Nsg33
Nsg92
I01
sg2350
Nsg101
VNone
p3040
sg103
g0
(g104
g105
((lp3041
(lp3042
tp3043
tp3044
Rp3045
sg2357
I00
sg2358
g2359
sg2360
g2313
sg2361
Nsg114
Nsg2362
g2313
sg2363
F0.0
sg8
I01
sg2364
Nsg43
Nsg1813
Nsg2365
(I0
tp3046
sg87
F0.5
sg1931
Nsbsg112
I00
sg2367
g0
(g2288
g2
Ntp3047
Rp3048
(dp3049
g6
g7
sg8
I01
sg2360
g2313
sg9
g4
sg2292
g2293
sg2294
Nsg10
Nsg42
Nsg17
g18
sg2312
g2313
sg20
I01
sg2295
Nsg23
Nsg75
g132
(g133
(I0
tp3050
g135
tp3051
Rp3052
(I1
(I2
tp3053
g59
I00
S'\x00\x00\x00\x00\x00\x00\x00\x00\x00\x00\x00\x00\x00\x00\x00\x00'
p3054
tp3055
bsg76
g132
(g133
(I0
tp3056
g135
tp3057
Rp3058
(I1
(I2
tp3059
g59
I00
S'\x00\x00\x00\x00\x00\x00\x00\x00\x00\x00\x00\x00\x00\x00\xf0?'
p3060
tp3061
bsg24
Nsg25
Nsg11
Nsg2304
(I0
I1
tp3062
sg28
I00
sg2314
Nsg29
I00
sg30
(dp3063
sg2311
Nsg32
I00
sg2357
I00
sg1814
Nsg2315
Nsg2298
F1.0
sg2348
g2349
sg2299
Nsg1987
g2385
sg2316
g0
(g2317
g2
Ntp3064
Rp3065
(dp3066
g2316
g2389
sg2321
Nsg2322
Nsg115
g0
(g45
g2
Ntp3067
Rp3068
(dp3069
g49
I1
sg50
Nsg51
g7
sg52
(dp3070
sbsg2333
I00
sg2334
g2335
sg2336
Nsg1811
g2337
sg99
g2338
sg1931
g0
(g1932
g2
Ntp3071
Rp3072
(dp3073
g1936
I00
sg1937
Nsg1938
g132
(g133
(I0
tp3074
g135
tp3075
Rp3076
(I1
(I0
I2
tp3077
g59
I00
g2401
tp3078
bsg1945
I00
sg1946
F0.1111111111111111
sg1947
I1
sg1948
I00
sbsbsg33
Nsg2300
g2301
sg92
I01
sg2302
g2303
sg96
Nsg2363
F0.0
sg86
I01
sg2350
g132
(g133
(I0
tp3079
g135
tp3080
Rp3081
(I1
(I2
I2
tp3082
g59
I00
S'\x00\x00\x00\x00\x00\x00\x00\x00\x00\x00\x00\x00\x00\x00\x00\x00\x00\x00\x00\x00\x00\x00\xf0?\x00\x00\x00\x00\x00\x00\x00\x00'
p3083
tp3084
bsg101
g2409
sg103
g0
(g104
g105
((lp3085
(lp3086
tp3087
tp3088
Rp3089
sg111
I0
sg2358
g2359
sg2296
I0
sg2361
Nsg2310
I5
sg112
I01
sg114
F1.0
sg2362
g2313
sg2307
I00
sg115
g184
sg2364
Nsg2308
Nsg2306
I00
sg43
Nsg1813
Nsg2365
(I0
I0
tp3090
sg88
g1042
sg87
F0.8
sg34
Nsg1931
g0
(g1932
g2
Ntp3091
Rp3092
(dp3093
g1936
I00
sg1937
Nsg1938
g3081
sg1945
I00
sg1946
F0.1111111111111111
sg1947
I180
sg1948
I00
sbsbsg114
Nsg33
Nsg2419
g0
(g2288
g2
Ntp3094
Rp3095
(dp3096
g6
g7
sg2292
g2293
sg2294
Nsg20
I01
sg2295
Nsg2296
I0
sg75
Nsg76
Nsg24
Nsg11
Nsg29
I00
sg30
(dp3097
sg32
I00
sg1814
Nsg2298
F0.8
sg2299
Nsg2300
g2301
sg2302
g2303
sg96
Nsg86
I01
sg2304
(I1
tp3098
sg111
I0
sg112
I01
sg2306
I01
sg2307
I01
sg115
g184
sg2308
Nsg2309
F2.01
sg1987
g2938
sg2310
I5
sg9
g4
sg2311
Nsg10
Nsg42
Nsg17
g18
sg2312
g2313
sg23
Nsg25
Nsg28
I00
sg2314
Nsg34
Nsg2315
Nsg2316
g0
(g2317
g2
Ntp3099
Rp3100
(dp3101
g2316
I1
sg2321
Nsg2322
F1.0
sg115
g0
(g157
g2
Ntp3102
Rp3103
(dp3104
g49
I2
sg50
Nsg120
g132
(g133
(I0
tp3105
g135
tp3106
Rp3107
(I1
(I3
I3
tp3108
g59
I00
S'\x00\x00\x00\x00\x00\x00\xf0?\x00\x00\x00\x00\x00\x00\x00\x00\x00\x00\x00\x00\x00\x00\x00\x00\x00\x00\x00\x00\x00\x00\x00\x00\x00\x00\x00\x00\x00\x00\xf0?\x00\x00\x00\x00\x00\x00\x00\x00\x00\x00\x00\x00\x00\x00\x00\x00\x00\x00\x00\x00\x00\x00\x00\x00\x00\x00\x00\x00\x00\x00\xf0?'
p3109
tp3110
bsg51
g7
sg52
(dp3111
sbsg2333
I00
sg2334
g2335
sg2336
Nsg1811
g2337
sg99
g2338
sg1931
g3032
sbsg2348
g2349
sg88
Nsg33
Nsg92
I01
sg2350
Nsg101
VNone
p3112
sg103
g0
(g104
g105
((lp3113
(lp3114
tp3115
tp3116
Rp3117
sg2357
I00
sg2358
g2359
sg2360
g2313
sg2361
Nsg114
Nsg2362
g2313
sg2363
F0.0
sg8
I01
sg2364
Nsg43
Nsg1813
Nsg2365
(I0
tp3118
sg87
F0.5
sg1931
Nsbsg115
Nsg2445
F8.0
sg2446
Vytick
p3119
sg43
Nsg1987
g2938
sg34
Nsbag0
(g2970
g2
Ntp3120
Rp3121
(dp3122
g6
g7
sg40
F0.8
sg9
g4
sg2234
I01
sg8
I01
sg10
Nsg111
I0
sg42
Nsg2235
F3.5
sg2236
g2938
sg2237
I00
sg1966
F0.0
sg17
g18
sg2238
g2974
sg2184
g0
(g1950
g2
Ntp3123
Rp3124
(dp3125
g6
g7
sg8
I01
sg9
g4
sg10
Nsg1954
g0
(g1955
g2
Ntp3126
Rp3127
(dp3128
g1959
(lp3129
g1961
asg1962
Nsg1963
g1964
sg1965
g1964
sg1966
F8.0
sg1967
I400
sg1968
g1964
sbsg42
Nsg17
g18
sg1969
Nsg20
I01
sg23
Nsg75
I0
sg76
I0
sg24
Nsg25
Nsg11
Nsg28
I00
sg29
I00
sg30
(dp3130
sg1971
Nsg32
I00
sg1814
Nsg88
Nsg1813
Nsg1972
Nsg33
Nsg96
Nsg86
I01
sg1973
g2983
sg1975
V
p3131
sg1977
Nsg103
g0
(g104
g105
((lp3132
(lp3133
tp3134
tp3135
Rp3136
sg111
I0
sg1983
Nsg112
I01
sg114
Nsg1984
F1.2
sg115
g1762
sg1985
I00
sg1986
I00
sg43
Nsg1987
g2938
sg1989
g2990
sg34
Nsbsg20
I01
sg23
Nsg2256
I00
sg24
Nsg25
Nsg11
Nsg2257
I00
sg28
I00
sg29
I00
sg30
(dp3137
sg2259
(I0
I1
tp3138
sg32
I00
sg2261
F2.01
sg1814
g1873
sg2262
I01
sg88
g1485
sg1813
Nsg2263
g3124
sg2264
g0
(g1950
g2
Ntp3139
Rp3140
(dp3141
g6
g7
sg8
I01
sg9
g4
sg10
Nsg1954
g0
(g1955
g2
Ntp3142
Rp3143
(dp3144
g1959
(lp3145
g1961
asg1962
Nsg1963
g1964
sg1965
g1964
sg1966
F8.0
sg1967
I400
sg1968
g1964
sbsg42
Nsg17
g18
sg1969
Nsg20
I01
sg23
Nsg75
I0
sg76
I1
sg24
Nsg25
Nsg11
Nsg28
I00
sg29
I00
sg30
(dp3146
sg1971
Nsg32
I00
sg1814
Nsg88
Nsg1813
Nsg1972
Nsg33
Nsg96
Nsg86
I01
sg1973
g2983
sg1975
V
p3147
sg1977
Nsg103
g0
(g104
g105
((lp3148
(lp3149
tp3150
tp3151
Rp3152
sg111
I0
sg1983
Nsg112
I01
sg114
Nsg1984
F1.2
sg115
g1780
sg1985
I00
sg1986
I00
sg43
Nsg1987
g2938
sg1989
g3007
sg34
Nsbsg96
Nsg2280
I0
sg86
I01
sg103
g0
(g104
g105
((lp3153
(lp3154
tp3155
tp3156
Rp3157
sg2286
F3.5
sg2287
g0
(g2288
g2
Ntp3158
Rp3159
(dp3160
g6
g7
sg2292
g2293
sg2294
Nsg20
I01
sg2295
Nsg2296
I0
sg75
Nsg76
Nsg24
Nsg11
Nsg29
I00
sg30
(dp3161
sg32
I00
sg1814
Nsg2298
F0.8
sg2299
Nsg2300
g2301
sg2302
g2303
sg96
Nsg86
I01
sg2304
g3017
sg111
I0
sg112
I01
sg2306
I01
sg2307
I01
sg115
g184
sg2308
Nsg2309
F2.01
sg1987
g2938
sg2310
I5
sg9
g4
sg2311
Nsg10
Nsg42
Nsg17
g18
sg2312
g2313
sg23
Nsg25
Nsg28
I00
sg2314
Nsg34
Nsg2315
Nsg2316
g0
(g2317
g2
Ntp3162
Rp3163
(dp3164
g2316
I0
sg2321
Nsg2322
F1.0
sg115
g0
(g157
g2
Ntp3165
Rp3166
(dp3167
g49
I2
sg50
Nsg120
g132
(g133
(I0
tp3168
g135
tp3169
Rp3170
(I1
(I3
I3
tp3171
g59
I00
S'\x00\x00\x00\x00\x00\x00\xf0\xbf\x00\x00\x00\x00\x00\x00\x00\x00\x00\x00\x00\x00\x00\x00\x00\x00\x00\x00\x00\x00\x00\x00\x00\x00\x00\x00\x00\x00\x00\x00\xf0?\x00\x00\x00\x00\x00\x00\x00\x00\x00\x00\x00\x00\x00\x00\x00\x00\x00\x00\x00\x00\x00\x00\x00\x00\x00\x00\x00\x00\x00\x00\xf0?'
p3172
tp3173
bsg51
g7
sg52
(dp3174
sbsg2333
I00
sg2334
g2335
sg2336
Nsg1811
g2337
sg99
g2338
sg1931
g3032
sbsg2348
g2349
sg88
Nsg33
Nsg92
I01
sg2350
Nsg101
g3040
sg103
g0
(g104
g105
((lp3175
(lp3176
tp3177
tp3178
Rp3179
sg2357
I00
sg2358
g2359
sg2360
g2313
sg2361
Nsg114
Nsg2362
g2313
sg2363
F0.0
sg8
I01
sg2364
Nsg43
Nsg1813
Nsg2365
(I0
tp3180
sg87
F0.5
sg1931
Nsbsg112
I00
sg2367
g0
(g2288
g2
Ntp3181
Rp3182
(dp3183
g6
g7
sg8
I01
sg2360
g2313
sg9
g4
sg2292
g2293
sg2294
Nsg10
Nsg42
Nsg17
g18
sg2312
g2313
sg20
I01
sg2295
Nsg23
Nsg75
g132
(g133
(I0
tp3184
g135
tp3185
Rp3186
(I1
(I2
tp3187
g59
I00
S'\x00\x00\x00\x00\x00\x00\x00\x00\x00\x00\x00\x00\x00\x00\x00\x00'
p3188
tp3189
bsg76
g132
(g133
(I0
tp3190
g135
tp3191
Rp3192
(I1
(I2
tp3193
g59
I00
S'\x00\x00\x00\x00\x00\x00\x00\x00\x00\x00\x00\x00\x00\x00\xf0?'
p3194
tp3195
bsg24
Nsg25
Nsg11
Nsg2304
g3062
sg28
I00
sg2314
Nsg29
I00
sg30
(dp3196
sg2311
Nsg32
I00
sg2357
I00
sg1814
Nsg2315
Nsg2298
F1.0
sg2348
g2349
sg2299
Nsg1987
g2385
sg2316
g0
(g2317
g2
Ntp3197
Rp3198
(dp3199
g2316
g2389
sg2321
Nsg2322
Nsg115
g0
(g45
g2
Ntp3200
Rp3201
(dp3202
g49
I1
sg50
Nsg51
g7
sg52
(dp3203
sbsg2333
I00
sg2334
g2335
sg2336
Nsg1811
g2337
sg99
g2338
sg1931
g0
(g1932
g2
Ntp3204
Rp3205
(dp3206
g1936
I00
sg1937
Nsg1938
g132
(g133
(I0
tp3207
g135
tp3208
Rp3209
(I1
(I0
I2
tp3210
g59
I00
g2401
tp3211
bsg1945
I00
sg1946
F0.1111111111111111
sg1947
I1
sg1948
I00
sbsbsg33
Nsg2300
g2301
sg92
I01
sg2302
g2303
sg96
Nsg2363
F0.0
sg86
I01
sg2350
g132
(g133
(I0
tp3212
g135
tp3213
Rp3214
(I1
(I2
I2
tp3215
g59
I00
S'\x00\x00\x00\x00\x00\x00\x00\x00\x00\x00\x00\x00\x00\x00\x00\x00\x00\x00\x00\x00\x00\x00\xf0?\x00\x00\x00\x00\x00\x00\x00\x00'
p3216
tp3217
bsg101
g2409
sg103
g0
(g104
g105
((lp3218
(lp3219
tp3220
tp3221
Rp3222
sg111
I0
sg2358
g2359
sg2296
I0
sg2361
Nsg2310
I5
sg112
I01
sg114
F1.0
sg2362
g2313
sg2307
I00
sg115
g184
sg2364
Nsg2308
Nsg2306
I00
sg43
Nsg1813
Nsg2365
g3090
sg88
g737
sg87
F0.8
sg34
Nsg1931
g0
(g1932
g2
Ntp3223
Rp3224
(dp3225
g1936
I00
sg1937
Nsg1938
g3214
sg1945
I00
sg1946
F0.1111111111111111
sg1947
I180
sg1948
I00
sbsbsg114
Nsg33
Nsg2419
g0
(g2288
g2
Ntp3226
Rp3227
(dp3228
g6
g7
sg2292
g2293
sg2294
Nsg20
I01
sg2295
Nsg2296
I0
sg75
Nsg76
Nsg24
Nsg11
Nsg29
I00
sg30
(dp3229
sg32
I00
sg1814
Nsg2298
F0.8
sg2299
Nsg2300
g2301
sg2302
g2303
sg96
Nsg86
I01
sg2304
g3098
sg111
I0
sg112
I01
sg2306
I01
sg2307
I01
sg115
g184
sg2308
Nsg2309
F2.01
sg1987
g2938
sg2310
I5
sg9
g4
sg2311
Nsg10
Nsg42
Nsg17
g18
sg2312
g2313
sg23
Nsg25
Nsg28
I00
sg2314
Nsg34
Nsg2315
Nsg2316
g0
(g2317
g2
Ntp3230
Rp3231
(dp3232
g2316
I1
sg2321
Nsg2322
F1.0
sg115
g0
(g157
g2
Ntp3233
Rp3234
(dp3235
g49
I2
sg50
Nsg120
g132
(g133
(I0
tp3236
g135
tp3237
Rp3238
(I1
(I3
I3
tp3239
g59
I00
S'\x00\x00\x00\x00\x00\x00\xf0?\x00\x00\x00\x00\x00\x00\x00\x00\x00\x00\x00\x00\x00\x00\x00\x00\x00\x00\x00\x00\x00\x00\x00\x00\x00\x00\x00\x00\x00\x00\xf0?\x00\x00\x00\x00\x00\x00\x00\x00\x00\x00\x00\x00\x00\x00\x00\x00\x00\x00\x00\x00\x00\x00\x00\x00\x00\x00\x00\x00\x00\x00\xf0?'
p3240
tp3241
bsg51
g7
sg52
(dp3242
sbsg2333
I00
sg2334
g2335
sg2336
Nsg1811
g2337
sg99
g2338
sg1931
g3032
sbsg2348
g2349
sg88
Nsg33
Nsg92
I01
sg2350
Nsg101
g3112
sg103
g0
(g104
g105
((lp3243
(lp3244
tp3245
tp3246
Rp3247
sg2357
I00
sg2358
g2359
sg2360
g2313
sg2361
Nsg114
Nsg2362
g2313
sg2363
F0.0
sg8
I01
sg2364
Nsg43
Nsg1813
Nsg2365
(I0
tp3248
sg87
F0.5
sg1931
Nsbsg115
Nsg2445
F8.0
sg2446
g3119
sg43
Nsg1987
g2938
sg34
Nsbasg2577
I01
sg1821
g0
(g1822
g2
Ntp3249
Rp3250
I01
bsg96
Nsg86
I01
sg2580
I01
sg103
g0
(g104
g105
((lp3251
(lp3252
tp3253
tp3254
Rp3255
sg111
I0
sg2586
I1
sg2587
Nsg112
I00
sg114
Nsg2588
Vleft
p3256
sg115
Nsg2590
Vleft
p3257
sg43
Nsg1813
Nsg2310
I15
sg2592
(lp3258
g0
(g2970
g2
Ntp3259
Rp3260
(dp3261
g6
g7
sg40
F0.6
sg9
g4
sg2234
I01
sg8
I01
sg10
Nsg111
I0
sg42
Nsg2235
F3.4
sg2236
g2938
sg2237
I00
sg1966
F0.0
sg17
g18
sg2238
g2974
sg2184
g0
(g1950
g2
Ntp3262
Rp3263
(dp3264
g6
g7
sg8
I01
sg9
g4
sg10
Nsg1954
g0
(g1955
g2
Ntp3265
Rp3266
(dp3267
g1959
(lp3268
g1961
asg1962
Nsg1963
g1964
sg1965
g1964
sg1966
F8.0
sg1967
I400
sg1968
g1964
sbsg42
Nsg17
g18
sg1969
Nsg20
I01
sg23
Nsg75
I0
sg76
I0
sg24
Nsg25
Nsg11
Nsg28
I00
sg29
I00
sg30
(dp3269
sg1971
Nsg32
I00
sg1814
Nsg88
Nsg1813
Nsg1972
Nsg33
Nsg96
Nsg86
I01
sg1973
g2983
sg1975
V
p3270
sg1977
Nsg103
g0
(g104
g105
((lp3271
(lp3272
tp3273
tp3274
Rp3275
sg111
I0
sg1983
Nsg112
I01
sg114
Nsg1984
F1.2
sg115
g1744
sg1985
I00
sg1986
I00
sg43
Nsg1987
g2938
sg1989
g2990
sg34
Nsbsg20
I01
sg23
Nsg2256
I00
sg24
Nsg25
Nsg11
Nsg2257
I00
sg28
I00
sg29
I00
sg30
(dp3276
sg2259
(I0
I1
tp3277
sg32
I00
sg2261
I2
sg1814
g1873
sg2262
I01
sg88
g1259
sg1813
Nsg2263
g3263
sg2264
g0
(g1950
g2
Ntp3278
Rp3279
(dp3280
g6
g7
sg8
I01
sg9
g4
sg10
Nsg1954
g0
(g1955
g2
Ntp3281
Rp3282
(dp3283
g1959
(lp3284
g1961
asg1962
Nsg1963
g1964
sg1965
g1964
sg1966
F8.0
sg1967
I400
sg1968
g1964
sbsg42
Nsg17
g18
sg1969
Nsg20
I01
sg23
Nsg75
I0
sg76
I1
sg24
Nsg25
Nsg11
Nsg28
I00
sg29
I00
sg30
(dp3285
sg1971
Nsg32
I00
sg1814
Nsg88
Nsg1813
Nsg1972
Nsg33
Nsg96
Nsg86
I01
sg1973
g2983
sg1975
V
p3286
sg1977
Nsg103
g0
(g104
g105
((lp3287
(lp3288
tp3289
tp3290
Rp3291
sg111
I0
sg1983
Nsg112
I01
sg114
Nsg1984
F1.2
sg115
g1753
sg1985
I00
sg1986
I00
sg43
Nsg1987
g2938
sg1989
g3007
sg34
Nsbsg96
Nsg2280
I0
sg86
I01
sg103
g0
(g104
g105
((lp3292
(lp3293
tp3294
tp3295
Rp3296
sg2286
F3.4
sg2287
g0
(g2288
g2
Ntp3297
Rp3298
(dp3299
g6
g7
sg2292
g2293
sg2294
Nsg20
I01
sg2295
Nsg2296
I0
sg75
Nsg76
Nsg24
Nsg11
Nsg29
I00
sg30
(dp3300
sg32
I00
sg1814
Nsg2298
F0.6
sg2299
Nsg2300
g2301
sg2302
g2303
sg96
Nsg86
I01
sg2304
g3017
sg111
I0
sg112
I01
sg2306
I01
sg2307
I01
sg115
g184
sg2308
Nsg2309
I2
sg1987
g2938
sg2310
I5
sg9
g4
sg2311
Nsg10
Nsg42
Nsg17
g18
sg2312
g2313
sg23
Nsg25
Nsg28
I00
sg2314
Nsg34
Nsg2315
Nsg2316
g0
(g2317
g2
Ntp3301
Rp3302
(dp3303
g2316
I0
sg2321
Nsg2322
F1.0
sg115
g0
(g157
g2
Ntp3304
Rp3305
(dp3306
g49
I2
sg50
Nsg120
g132
(g133
(I0
tp3307
g135
tp3308
Rp3309
(I1
(I3
I3
tp3310
g59
I00
S'\x00\x00\x00\x00\x00\x00\xf0\xbf\x00\x00\x00\x00\x00\x00\x00\x00\x00\x00\x00\x00\x00\x00\x00\x00\x00\x00\x00\x00\x00\x00\x00\x00\x00\x00\x00\x00\x00\x00\xf0?\x00\x00\x00\x00\x00\x00\x00\x00\x00\x00\x00\x00\x00\x00\x00\x00\x00\x00\x00\x00\x00\x00\x00\x00\x00\x00\x00\x00\x00\x00\xf0?'
p3311
tp3312
bsg51
g7
sg52
(dp3313
sbsg2333
I00
sg2334
g2335
sg2336
Nsg1811
g2337
sg99
g2338
sg1931
g3032
sbsg2348
g2349
sg88
Nsg33
Nsg92
I01
sg2350
Nsg101
g3040
sg103
g0
(g104
g105
((lp3314
(lp3315
tp3316
tp3317
Rp3318
sg2357
I00
sg2358
g2359
sg2360
g2313
sg2361
Nsg114
Nsg2362
g2313
sg2363
F0.0
sg8
I01
sg2364
Nsg43
Nsg1813
Nsg2365
(I0
tp3319
sg87
F0.5
sg1931
Nsbsg112
I00
sg2367
g0
(g2288
g2
Ntp3320
Rp3321
(dp3322
g6
g7
sg8
I01
sg2360
g2313
sg9
g4
sg2292
g2293
sg2294
Nsg10
Nsg42
Nsg17
g18
sg2312
g2313
sg20
I01
sg2295
Nsg23
Nsg75
g132
(g133
(I0
tp3323
g135
tp3324
Rp3325
(I1
(I2
tp3326
g59
I00
S'\x00\x00\x00\x00\x00\x00\x00\x00\x00\x00\x00\x00\x00\x00\x00\x00'
p3327
tp3328
bsg76
g132
(g133
(I0
tp3329
g135
tp3330
Rp3331
(I1
(I2
tp3332
g59
I00
S'\x00\x00\x00\x00\x00\x00\x00\x00\x00\x00\x00\x00\x00\x00\xf0?'
p3333
tp3334
bsg24
Nsg25
Nsg11
Nsg2304
g3062
sg28
I00
sg2314
Nsg29
I00
sg30
(dp3335
sg2311
Nsg32
I00
sg2357
I00
sg1814
Nsg2315
Nsg2298
F1.0
sg2348
g2349
sg2299
Nsg1987
g2385
sg2316
g0
(g2317
g2
Ntp3336
Rp3337
(dp3338
g2316
g2389
sg2321
Nsg2322
Nsg115
g0
(g45
g2
Ntp3339
Rp3340
(dp3341
g49
I1
sg50
Nsg51
g7
sg52
(dp3342
sbsg2333
I00
sg2334
g2335
sg2336
Nsg1811
g2337
sg99
g2338
sg1931
g0
(g1932
g2
Ntp3343
Rp3344
(dp3345
g1936
I00
sg1937
Nsg1938
g132
(g133
(I0
tp3346
g135
tp3347
Rp3348
(I1
(I0
I2
tp3349
g59
I00
g2401
tp3350
bsg1945
I00
sg1946
F0.1111111111111111
sg1947
I1
sg1948
I00
sbsbsg33
Nsg2300
g2301
sg92
I01
sg2302
g2303
sg96
Nsg2363
F0.0
sg86
I01
sg2350
g132
(g133
(I0
tp3351
g135
tp3352
Rp3353
(I1
(I2
I2
tp3354
g59
I00
S'\x00\x00\x00\x00\x00\x00\x00\x00\x00\x00\x00\x00\x00\x00\x00\x00\x00\x00\x00\x00\x00\x00\xf0?\x00\x00\x00\x00\x00\x00\x00\x00'
p3355
tp3356
bsg101
g2409
sg103
g0
(g104
g105
((lp3357
(lp3358
tp3359
tp3360
Rp3361
sg111
I0
sg2358
g2359
sg2296
I0
sg2361
Nsg2310
I5
sg112
I01
sg114
F1.0
sg2362
g2313
sg2307
I00
sg115
g184
sg2364
Nsg2308
Nsg2306
I00
sg43
Nsg1813
Nsg2365
g3090
sg88
g1112
sg87
F0.8
sg34
Nsg1931
g0
(g1932
g2
Ntp3362
Rp3363
(dp3364
g1936
I00
sg1937
Nsg1938
g3353
sg1945
I00
sg1946
F0.1111111111111111
sg1947
I180
sg1948
I00
sbsbsg114
Nsg33
Nsg2419
g0
(g2288
g2
Ntp3365
Rp3366
(dp3367
g6
g7
sg2292
g2293
sg2294
Nsg20
I01
sg2295
Nsg2296
I0
sg75
Nsg76
Nsg24
Nsg11
Nsg29
I00
sg30
(dp3368
sg32
I00
sg1814
Nsg2298
F0.6
sg2299
Nsg2300
g2301
sg2302
g2303
sg96
Nsg86
I01
sg2304
g3098
sg111
I0
sg112
I01
sg2306
I01
sg2307
I01
sg115
g184
sg2308
Nsg2309
I2
sg1987
g2938
sg2310
I5
sg9
g4
sg2311
Nsg10
Nsg42
Nsg17
g18
sg2312
g2313
sg23
Nsg25
Nsg28
I00
sg2314
Nsg34
Nsg2315
Nsg2316
g0
(g2317
g2
Ntp3369
Rp3370
(dp3371
g2316
I1
sg2321
Nsg2322
F1.0
sg115
g0
(g157
g2
Ntp3372
Rp3373
(dp3374
g49
I2
sg50
Nsg120
g132
(g133
(I0
tp3375
g135
tp3376
Rp3377
(I1
(I3
I3
tp3378
g59
I00
S'\x00\x00\x00\x00\x00\x00\xf0?\x00\x00\x00\x00\x00\x00\x00\x00\x00\x00\x00\x00\x00\x00\x00\x00\x00\x00\x00\x00\x00\x00\x00\x00\x00\x00\x00\x00\x00\x00\xf0?\x00\x00\x00\x00\x00\x00\x00\x00\x00\x00\x00\x00\x00\x00\x00\x00\x00\x00\x00\x00\x00\x00\x00\x00\x00\x00\x00\x00\x00\x00\xf0?'
p3379
tp3380
bsg51
g7
sg52
(dp3381
sbsg2333
I00
sg2334
g2335
sg2336
Nsg1811
g2337
sg99
g2338
sg1931
g3032
sbsg2348
g2349
sg88
Nsg33
Nsg92
I01
sg2350
Nsg101
g3112
sg103
g0
(g104
g105
((lp3382
(lp3383
tp3384
tp3385
Rp3386
sg2357
I00
sg2358
g2359
sg2360
g2313
sg2361
Nsg114
Nsg2362
g2313
sg2363
F0.0
sg8
I01
sg2364
Nsg43
Nsg1813
Nsg2365
(I0
tp3387
sg87
F0.5
sg1931
Nsbsg115
Nsg2445
F8.0
sg2446
g3119
sg43
Nsg1987
g2938
sg34
Nsbag0
(g2970
g2
Ntp3388
Rp3389
(dp3390
g6
g7
sg40
F0.6
sg9
g4
sg2234
I01
sg8
I01
sg10
Nsg111
I0
sg42
Nsg2235
F3.4
sg2236
g2938
sg2237
I00
sg1966
F0.0
sg17
g18
sg2238
g2974
sg2184
g0
(g1950
g2
Ntp3391
Rp3392
(dp3393
g6
g7
sg8
I01
sg9
g4
sg10
Nsg1954
g0
(g1955
g2
Ntp3394
Rp3395
(dp3396
g1959
(lp3397
g1961
asg1962
Nsg1963
g1964
sg1965
g1964
sg1966
F8.0
sg1967
I400
sg1968
g1964
sbsg42
Nsg17
g18
sg1969
Nsg20
I01
sg23
Nsg75
I0
sg76
I0
sg24
Nsg25
Nsg11
Nsg28
I00
sg29
I00
sg30
(dp3398
sg1971
Nsg32
I00
sg1814
Nsg88
Nsg1813
Nsg1972
Nsg33
Nsg96
Nsg86
I01
sg1973
g2983
sg1975
V
p3399
sg1977
Nsg103
g0
(g104
g105
((lp3400
(lp3401
tp3402
tp3403
Rp3404
sg111
I0
sg1983
Nsg112
I01
sg114
Nsg1984
F1.2
sg115
g1798
sg1985
I00
sg1986
I00
sg43
Nsg1987
g2938
sg1989
g2990
sg34
Nsbsg20
I01
sg23
Nsg2256
I00
sg24
Nsg25
Nsg11
Nsg2257
I00
sg28
I00
sg29
I00
sg30
(dp3405
sg2259
(I0
I1
tp3406
sg32
I00
sg2261
I2
sg1814
g1873
sg2262
I01
sg88
g1555
sg1813
Nsg2263
g3392
sg2264
g0
(g1950
g2
Ntp3407
Rp3408
(dp3409
g6
g7
sg8
I01
sg9
g4
sg10
Nsg1954
g0
(g1955
g2
Ntp3410
Rp3411
(dp3412
g1959
(lp3413
g1961
asg1962
Nsg1963
g1964
sg1965
g1964
sg1966
F8.0
sg1967
I400
sg1968
g1964
sbsg42
Nsg17
g18
sg1969
Nsg20
I01
sg23
Nsg75
I0
sg76
I1
sg24
Nsg25
Nsg11
Nsg28
I00
sg29
I00
sg30
(dp3414
sg1971
Nsg32
I00
sg1814
Nsg88
Nsg1813
Nsg1972
Nsg33
Nsg96
Nsg86
I01
sg1973
g2983
sg1975
V
p3415
sg1977
Nsg103
g0
(g104
g105
((lp3416
(lp3417
tp3418
tp3419
Rp3420
sg111
I0
sg1983
Nsg112
I01
sg114
Nsg1984
F1.2
sg115
g1789
sg1985
I00
sg1986
I00
sg43
Nsg1987
g2938
sg1989
g3007
sg34
Nsbsg96
Nsg2280
I0
sg86
I01
sg103
g0
(g104
g105
((lp3421
(lp3422
tp3423
tp3424
Rp3425
sg2286
F3.4
sg2287
g0
(g2288
g2
Ntp3426
Rp3427
(dp3428
g6
g7
sg2292
g2293
sg2294
Nsg20
I01
sg2295
Nsg2296
I0
sg75
Nsg76
Nsg24
Nsg11
Nsg29
I00
sg30
(dp3429
sg32
I00
sg1814
Nsg2298
F0.6
sg2299
Nsg2300
g2301
sg2302
g2303
sg96
Nsg86
I01
sg2304
g3017
sg111
I0
sg112
I01
sg2306
I01
sg2307
I01
sg115
g184
sg2308
Nsg2309
I2
sg1987
g2938
sg2310
I5
sg9
g4
sg2311
Nsg10
Nsg42
Nsg17
g18
sg2312
g2313
sg23
Nsg25
Nsg28
I00
sg2314
Nsg34
Nsg2315
Nsg2316
g0
(g2317
g2
Ntp3430
Rp3431
(dp3432
g2316
I0
sg2321
Nsg2322
F1.0
sg115
g0
(g157
g2
Ntp3433
Rp3434
(dp3435
g49
I2
sg50
Nsg120
g132
(g133
(I0
tp3436
g135
tp3437
Rp3438
(I1
(I3
I3
tp3439
g59
I00
S'\x00\x00\x00\x00\x00\x00\xf0\xbf\x00\x00\x00\x00\x00\x00\x00\x00\x00\x00\x00\x00\x00\x00\x00\x00\x00\x00\x00\x00\x00\x00\x00\x00\x00\x00\x00\x00\x00\x00\xf0?\x00\x00\x00\x00\x00\x00\x00\x00\x00\x00\x00\x00\x00\x00\x00\x00\x00\x00\x00\x00\x00\x00\x00\x00\x00\x00\x00\x00\x00\x00\xf0?'
p3440
tp3441
bsg51
g7
sg52
(dp3442
sbsg2333
I00
sg2334
g2335
sg2336
Nsg1811
g2337
sg99
g2338
sg1931
g3032
sbsg2348
g2349
sg88
Nsg33
Nsg92
I01
sg2350
Nsg101
g3040
sg103
g0
(g104
g105
((lp3443
(lp3444
tp3445
tp3446
Rp3447
sg2357
I00
sg2358
g2359
sg2360
g2313
sg2361
Nsg114
Nsg2362
g2313
sg2363
F0.0
sg8
I01
sg2364
Nsg43
Nsg1813
Nsg2365
(I0
tp3448
sg87
F0.5
sg1931
Nsbsg112
I00
sg2367
g0
(g2288
g2
Ntp3449
Rp3450
(dp3451
g6
g7
sg8
I01
sg2360
g2313
sg9
g4
sg2292
g2293
sg2294
Nsg10
Nsg42
Nsg17
g18
sg2312
g2313
sg20
I01
sg2295
Nsg23
Nsg75
g132
(g133
(I0
tp3452
g135
tp3453
Rp3454
(I1
(I2
tp3455
g59
I00
S'\x00\x00\x00\x00\x00\x00\x00\x00\x00\x00\x00\x00\x00\x00\x00\x00'
p3456
tp3457
bsg76
g132
(g133
(I0
tp3458
g135
tp3459
Rp3460
(I1
(I2
tp3461
g59
I00
S'\x00\x00\x00\x00\x00\x00\x00\x00\x00\x00\x00\x00\x00\x00\xf0?'
p3462
tp3463
bsg24
Nsg25
Nsg11
Nsg2304
g3062
sg28
I00
sg2314
Nsg29
I00
sg30
(dp3464
sg2311
Nsg32
I00
sg2357
I00
sg1814
Nsg2315
Nsg2298
F1.0
sg2348
g2349
sg2299
Nsg1987
g2385
sg2316
g0
(g2317
g2
Ntp3465
Rp3466
(dp3467
g2316
g2389
sg2321
Nsg2322
Nsg115
g0
(g45
g2
Ntp3468
Rp3469
(dp3470
g49
I1
sg50
Nsg51
g7
sg52
(dp3471
sbsg2333
I00
sg2334
g2335
sg2336
Nsg1811
g2337
sg99
g2338
sg1931
g0
(g1932
g2
Ntp3472
Rp3473
(dp3474
g1936
I00
sg1937
Nsg1938
g132
(g133
(I0
tp3475
g135
tp3476
Rp3477
(I1
(I0
I2
tp3478
g59
I00
g2401
tp3479
bsg1945
I00
sg1946
F0.1111111111111111
sg1947
I1
sg1948
I00
sbsbsg33
Nsg2300
g2301
sg92
I01
sg2302
g2303
sg96
Nsg2363
F0.0
sg86
I01
sg2350
g132
(g133
(I0
tp3480
g135
tp3481
Rp3482
(I1
(I2
I2
tp3483
g59
I00
S'\x00\x00\x00\x00\x00\x00\x00\x00\x00\x00\x00\x00\x00\x00\x00\x00\x00\x00\x00\x00\x00\x00\xf0?\x00\x00\x00\x00\x00\x00\x00\x00'
p3484
tp3485
bsg101
g2409
sg103
g0
(g104
g105
((lp3486
(lp3487
tp3488
tp3489
Rp3490
sg111
I0
sg2358
g2359
sg2296
I0
sg2361
Nsg2310
I5
sg112
I01
sg114
F1.0
sg2362
g2313
sg2307
I00
sg115
g184
sg2364
Nsg2308
Nsg2306
I00
sg43
Nsg1813
Nsg2365
g3090
sg88
g588
sg87
F0.8
sg34
Nsg1931
g0
(g1932
g2
Ntp3491
Rp3492
(dp3493
g1936
I00
sg1937
Nsg1938
g3482
sg1945
I00
sg1946
F0.1111111111111111
sg1947
I180
sg1948
I00
sbsbsg114
Nsg33
Nsg2419
g0
(g2288
g2
Ntp3494
Rp3495
(dp3496
g6
g7
sg2292
g2293
sg2294
Nsg20
I01
sg2295
Nsg2296
I0
sg75
Nsg76
Nsg24
Nsg11
Nsg29
I00
sg30
(dp3497
sg32
I00
sg1814
Nsg2298
F0.6
sg2299
Nsg2300
g2301
sg2302
g2303
sg96
Nsg86
I01
sg2304
g3098
sg111
I0
sg112
I01
sg2306
I01
sg2307
I01
sg115
g184
sg2308
Nsg2309
I2
sg1987
g2938
sg2310
I5
sg9
g4
sg2311
Nsg10
Nsg42
Nsg17
g18
sg2312
g2313
sg23
Nsg25
Nsg28
I00
sg2314
Nsg34
Nsg2315
Nsg2316
g0
(g2317
g2
Ntp3498
Rp3499
(dp3500
g2316
I1
sg2321
Nsg2322
F1.0
sg115
g0
(g157
g2
Ntp3501
Rp3502
(dp3503
g49
I2
sg50
Nsg120
g132
(g133
(I0
tp3504
g135
tp3505
Rp3506
(I1
(I3
I3
tp3507
g59
I00
S'\x00\x00\x00\x00\x00\x00\xf0?\x00\x00\x00\x00\x00\x00\x00\x00\x00\x00\x00\x00\x00\x00\x00\x00\x00\x00\x00\x00\x00\x00\x00\x00\x00\x00\x00\x00\x00\x00\xf0?\x00\x00\x00\x00\x00\x00\x00\x00\x00\x00\x00\x00\x00\x00\x00\x00\x00\x00\x00\x00\x00\x00\x00\x00\x00\x00\x00\x00\x00\x00\xf0?'
p3508
tp3509
bsg51
g7
sg52
(dp3510
sbsg2333
I00
sg2334
g2335
sg2336
Nsg1811
g2337
sg99
g2338
sg1931
g3032
sbsg2348
g2349
sg88
Nsg33
Nsg92
I01
sg2350
Nsg101
g3112
sg103
g0
(g104
g105
((lp3511
(lp3512
tp3513
tp3514
Rp3515
sg2357
I00
sg2358
g2359
sg2360
g2313
sg2361
Nsg114
Nsg2362
g2313
sg2363
F0.0
sg8
I01
sg2364
Nsg43
Nsg1813
Nsg2365
(I0
tp3516
sg87
F0.5
sg1931
Nsbsg115
Nsg2445
F8.0
sg2446
g3119
sg43
Nsg1987
g2938
sg34
Nsbasg34
Nsg2852
(dp3517
g2219
I01
sg2221
I00
sg2222
I01
sg2223
I00
ssg2854
I01
sbsS'_axisbelow'
p3518
I00
sg8
I01
sS'lines'
p3519
(lp3520
sS'_ycid'
p3521
I1
sS'spines'
p3522
ccollections
OrderedDict
p3523
((lp3524
(lp3525
Vleft
p3526
ag0
(cmatplotlib.spines
Spine
p3527
g2
Ntp3528
Rp3529
(dp3530
g6
g7
sg2165
I00
sg41
I01
sg9
g4
sS'_bounds'
p3531
Nsg8
I01
sg10
Nsg42
Nsg17
g18
sg43
Nsg20
I01
sg2143
g2898
sg44
g0
(g45
g2
Ntp3532
Rp3533
(dp3534
g49
I1
sg50
Nsg51
g7
sg52
(dp3535
sbsg54
(F0.0
F0.0
F0.0
F1.0
tp3536
sg23
Nsg24
Nsg77
V0.
p3537
sg11
Nsg28
I00
sg29
I00
sg30
(dp3538
sg1809
(NNtp3539
sg2079
(Voutward
p3540
F0.0
tp3541
sg32
I00
sg85
Nsg86
I01
sg87
F1.0
sS'_patch_type'
p3542
Vline
p3543
sg33
Nsg90
g3536
sg91
Nsg92
I01
sg93
Nsg94
Vnone
p3544
sg96
Nsg97
g2058
sg99
g100
sS'_patch_transform'
p3545
g0
(g45
g2
Ntp3546
Rp3547
(dp3548
g49
I1
sg50
Nsg51
g7
sg52
(dp3549
sbsg101
g102
sg103
g0
(g104
g105
((lp3550
(lp3551
tp3552
tp3553
Rp3554
sg111
I0
sS'_spine_transform'
p3555
(Videntity
p3556
g0
(g45
g2
Ntp3557
Rp3558
(dp3559
g49
I1
sg50
Nsg51
g7
sg52
(dp3560
sbtp3561
sg112
I01
sg114
NsS'spine_type'
p3562
g3526
sg115
g184
sg88
Nsg2309
F2.5
sg1811
Vprojecting
p3563
sg1813
Nsg25
Nsg1814
g1873
sg34
Nsg1931
g0
(g1932
g2
Ntp3564
Rp3565
(dp3566
g1936
I00
sg1937
Nsg1938
g132
(g133
(I0
tp3567
g135
tp3568
Rp3569
(I1
(I2
I2
tp3570
g59
I00
S'\x00\x00\x00\x00\x00\x00\x00\x00\x00\x00\x00\x00\x00\x00*@\x00\x00\x00\x00\x00\x00\x00\x00\x00\x00\x00\x00\x00\x00*@'
p3571
tp3572
bsg1945
I00
sg1946
F0.1111111111111111
sg1947
I1
sg1948
I00
sbsbaa(lp3573
Vright
p3574
ag0
(g3527
g2
Ntp3575
Rp3576
(dp3577
g6
g7
sg2165
I00
sg41
I01
sg9
g4
sg3531
Nsg8
I00
sg10
Nsg42
Nsg17
g18
sg43
Nsg20
I01
sg2143
g2898
sg44
g0
(g45
g2
Ntp3578
Rp3579
(dp3580
g49
I1
sg50
Nsg51
g7
sg52
(dp3581
sbsg54
g3536
sg23
Nsg24
Nsg77
g3537
sg11
Nsg28
I00
sg29
I00
sg30
(dp3582
sg1809
(NNtp3583
sg2079
g3541
sg32
I00
sg85
Nsg86
I01
sg87
F1.0
sg3542
g3543
sg33
Nsg90
g3536
sg91
Nsg92
I01
sg93
Nsg94
g3544
sg96
Nsg97
g2058
sg99
g100
sg3545
g0
(g45
g2
Ntp3584
Rp3585
(dp3586
g49
I1
sg50
Nsg51
g7
sg52
(dp3587
sbsg101
g102
sg103
g0
(g104
g105
((lp3588
(lp3589
tp3590
tp3591
Rp3592
sg111
I0
sg3555
(g3556
g0
(g45
g2
Ntp3593
Rp3594
(dp3595
g49
I1
sg50
Nsg51
g7
sg52
(dp3596
sbtp3597
sg112
I01
sg114
Nsg3562
g3574
sg115
g184
sg88
Nsg2309
F2.5
sg1811
g3563
sg1813
Nsg25
Nsg1814
g1873
sg34
Nsg1931
g0
(g1932
g2
Ntp3598
Rp3599
(dp3600
g1936
I00
sg1937
Nsg1938
g132
(g133
(I0
tp3601
g135
tp3602
Rp3603
(I1
(I2
I2
tp3604
g59
I00
S'\x00\x00\x00\x00\x00\x00\xf0?\x00\x00\x00\x00\x00\x00*@\x00\x00\x00\x00\x00\x00\xf0?\x00\x00\x00\x00\x00\x00*@'
p3605
tp3606
bsg1945
I00
sg1946
F0.1111111111111111
sg1947
I1
sg1948
I00
sbsbaa(lp3607
Vbottom
p3608
ag0
(g3527
g2
Ntp3609
Rp3610
(dp3611
g6
g7
sg2165
I00
sg41
I01
sg9
g4
sg3531
Nsg8
I01
sg10
Nsg42
Nsg17
g18
sg43
Nsg20
I01
sg2143
g2111
sg44
g0
(g45
g2
Ntp3612
Rp3613
(dp3614
g49
I1
sg50
Nsg51
g7
sg52
(dp3615
sbsg54
g3536
sg23
Nsg24
Nsg77
g3537
sg11
Nsg28
I00
sg29
I00
sg30
(dp3616
sg1809
(NNtp3617
sg2079
g3541
sg32
I00
sg85
Nsg86
I01
sg87
F1.0
sg3542
g3543
sg33
Nsg90
g3536
sg91
Nsg92
I01
sg93
Nsg94
g3544
sg96
Nsg97
g2058
sg99
g100
sg3545
g0
(g45
g2
Ntp3618
Rp3619
(dp3620
g49
I1
sg50
Nsg51
g7
sg52
(dp3621
sbsg101
g102
sg103
g0
(g104
g105
((lp3622
(lp3623
tp3624
tp3625
Rp3626
sg111
I0
sg3555
(g3556
g0
(g45
g2
Ntp3627
Rp3628
(dp3629
g49
I1
sg50
Nsg51
g7
sg52
(dp3630
sbtp3631
sg112
I01
sg114
Nsg3562
g3608
sg115
g1138
sg88
Nsg2309
F2.5
sg1811
g3563
sg1813
Nsg25
Nsg1814
g1873
sg34
Nsg1931
g0
(g1932
g2
Ntp3632
Rp3633
(dp3634
g1936
I00
sg1937
Nsg1938
g132
(g133
(I0
tp3635
g135
tp3636
Rp3637
(I1
(I2
I2
tp3638
g59
I00
S'\x00\x00\x00\x00\x00\x00*@\x00\x00\x00\x00\x00\x00\x00\x00\x00\x00\x00\x00\x00\x00*@\x00\x00\x00\x00\x00\x00\x00\x00'
p3639
tp3640
bsg1945
I00
sg1946
F0.1111111111111111
sg1947
I1
sg1948
I00
sbsbaa(lp3641
Vtop
p3642
ag0
(g3527
g2
Ntp3643
Rp3644
(dp3645
g6
g7
sg2165
I00
sg41
I01
sg9
g4
sg3531
Nsg8
I00
sg10
Nsg42
Nsg17
g18
sg43
Nsg20
I01
sg2143
g2111
sg44
g0
(g45
g2
Ntp3646
Rp3647
(dp3648
g49
I1
sg50
Nsg51
g7
sg52
(dp3649
sbsg54
g3536
sg23
Nsg24
Nsg77
g3537
sg11
Nsg28
I00
sg29
I00
sg30
(dp3650
sg1809
(NNtp3651
sg2079
g3541
sg32
I00
sg85
Nsg86
I01
sg87
F1.0
sg3542
g3543
sg33
Nsg90
g3536
sg91
Nsg92
I01
sg93
Nsg94
g3544
sg96
Nsg97
g2058
sg99
g100
sg3545
g0
(g45
g2
Ntp3652
Rp3653
(dp3654
g49
I1
sg50
Nsg51
g7
sg52
(dp3655
sbsg101
g102
sg103
g0
(g104
g105
((lp3656
(lp3657
tp3658
tp3659
Rp3660
sg111
I0
sg3555
(g3556
g0
(g45
g2
Ntp3661
Rp3662
(dp3663
g49
I1
sg50
Nsg51
g7
sg52
(dp3664
sbtp3665
sg112
I01
sg114
Nsg3562
g3642
sg115
g1138
sg88
Nsg2309
F2.5
sg1811
g3563
sg1813
Nsg25
Nsg1814
g1873
sg34
Nsg1931
g0
(g1932
g2
Ntp3666
Rp3667
(dp3668
g1936
I00
sg1937
Nsg1938
g132
(g133
(I0
tp3669
g135
tp3670
Rp3671
(I1
(I2
I2
tp3672
g59
I00
S'\x00\x00\x00\x00\x00\x00*@\x00\x00\x00\x00\x00\x00\xf0?\x00\x00\x00\x00\x00\x00*@\x00\x00\x00\x00\x00\x00\xf0?'
p3673
tp3674
bsg1945
I00
sg1946
F0.1111111111111111
sg1947
I1
sg1948
I00
sbsbaatp3675
Rp3676
sS'_anchor'
p3677
VC
p3678
sg43
Nsg1813
NsS'_use_sticky_edges'
p3679
I01
sbtp3680
tp3681
asS'_ind'
p3682
I1
sS'_pos'
p3683
I0
sbsg115
Nsg3519
(lp3684
sg2050
g38
sS'subplotpars'
p3685
g0
(cmatplotlib.figure
SubplotParams
p3686
g2
Ntp3687
Rp3688
(dp3689
g1857
F0.9
sg1859
F0.125
sg1860
F0.88
sg1861
F0.2
sS'validate'
p3690
I01
sg1863
F0.2
sg1865
F0.125
sbsg43
Nsg1813
NsS'bbox_inches'
p3691
g129
sS'transFigure'
p3692
g118
sS'_dpi'
p3693
F72.0
sb.