ccopy_reg
_reconstructor
p0
(cmatplotlib.figure
Figure
p1
c__builtin__
object
p2
Ntp3
Rp4
(dp5
S'_label'
p6
V
p7
sS'_visible'
p8
I01
sS'figure'
p9
NsS'stale_callback'
p10
NsS'_rasterized'
p11
NsS'texts'
p12
(lp13
sS'_hold'
p14
I01
sS'artists'
p15
(lp16
sS'_path_effects'
p17
(lp18
sS'frameon'
p19
I01
sS'_clipon'
p20
I01
sV__mpl_version__
p21
S'2.0.2'
p22
sS'_clippath'
p23
NsS'_sketch'
p24
NsS'_contains'
p25
NsS'_tight_parameters'
p26
(dp27
sS'_mouseover'
p28
I00
sS'_animated'
p29
I00
sS'_propobservers'
p30
(dp31
sS'eventson'
p32
I00
sS'_picker'
p33
NsS'_remove_method'
p34
NsS'figurePatch'
p35
g0
(cmatplotlib.patches
Rectangle
p36
g2
Ntp37
Rp38
(dp39
g6
g7
sS'_width'
p40
F1.0
sS'_fill'
p41
I01
sg9
g4
sg8
I01
sg10
NsS'_agg_filter'
p42
Nsg17
g18
sS'_gid'
p43
Nsg20
I01
sS'_combined_transform'
p44
g0
(cmatplotlib.transforms
IdentityTransform
p45
g2
Ntp46
Rp47
(dp48
S'_invalid'
p49
I1
sS'_inverted'
p50
NsS'_shorthand_name'
p51
g7
sS'_parents'
p52
(dp53
sbsS'_edgecolor'
p54
(cnumpy.core.multiarray
scalar
p55
(cnumpy
dtype
p56
(S'f8'
p57
I0
I1
tp58
Rp59
(I3
S'<'
p60
NNNI-1
I-1
I0
tp61
bS'\x00\x00\x00\x00\x00\x00\xf0?'
p62
tp63
Rp64
g55
(g59
S'\x00\x00\x00\x00\x00\x00\xf0?'
p65
tp66
Rp67
g55
(g59
S'\x00\x00\x00\x00\x00\x00\xf0?'
p68
tp69
Rp70
g55
(g59
S'\x00\x00\x00\x00\x00\x00\x00\x00'
p71
tp72
Rp73
tp74
sg23
NsS'_y'
p75
F0.0
sS'_x'
p76
F0.0
sg24
NsS'_original_edgecolor'
p77
(I1
I1
I1
I0
tp78
sg11
Nsg28
I00
sg29
I00
sg30
(dp79
sS'_rect_transform'
p80
g0
(g45
g2
Ntp81
Rp82
(dp83
g49
I1
sg50
Nsg51
g7
sg52
(dp84
sbsg32
I00
sS'_hatch'
p85
NsS'_stale'
p86
I01
sS'_linewidth'
p87
F0.0
sS'clipbox'
p88
NsS'_height'
p89
F1.0
sg33
NsS'_hatch_color'
p90
g74
sS'_dashes'
p91
NsS'_antialiased'
p92
I00
sS'_dashoffset'
p93
NsS'_original_facecolor'
p94
Vwhite
p95
sS'_snap'
p96
NsS'_facecolor'
p97
(F1.0
F1.0
F1.0
F1.0
tp98
sS'_joinstyle'
p99
Vmiter
p100
sS'_linestyle'
p101
Vsolid
p102
sS'_sticky_edges'
p103
g0
(cmatplotlib.artist
_XYPair
p104
c__builtin__
tuple
p105
((lp106
(lp107
tp108
tp109
Rp110
sS'_oid'
p111
I0
sS'_transformSet'
p112
I01
sS'_angle'
p113
F0.0
sS'_alpha'
p114
NsS'_transform'
p115
g0
(cmatplotlib.transforms
BboxTransformTo
p116
g2
Ntp117
Rp118
(dp119
g49
I2
sS'_mtx'
p120
Nsg50
NsS'_boxout'
p121
g0
(cmatplotlib.transforms
TransformedBbox
p122
g2
Ntp123
Rp124
(dp125
g49
I2
sS'_bbox'
p126
g0
(cmatplotlib.transforms
Bbox
p127
g2
Ntp128
Rp129
(dp130
g49
I2
sS'_minpos'
p131
cnumpy.core.multiarray
_reconstruct
p132
(cnumpy
ndarray
p133
(I0
tp134
S'b'
p135
tp136
Rp137
(I1
(I2
tp138
g59
I00
S'\x00\x00\x00\x00\x00\x00\xf0\x7f\x00\x00\x00\x00\x00\x00\xf0\x7f'
p139
tp140
bsg52
(dp141
I140396922574608
g124
ssS'_points_orig'
p142
g132
(g133
(I0
tp143
g135
tp144
Rp145
(I1
(I2
I2
tp146
g59
I00
S'\x00\x00\x00\x00\x00\x00\x00\x00\x00\x00\x00\x00\x00\x00\x00\x00\x00\x00\x00\x00\x00\x00\x18@\x00\x00\x00\x00\x00\x00\x10@'
p147
tp148
bsS'_points'
p149
g132
(g133
(I0
tp150
g135
tp151
Rp152
(I1
(I2
I2
tp153
g59
I00
S'\x00\x00\x00\x00\x00\x00\x00\x00\x00\x00\x00\x00\x00\x00\x00\x00\x00\x00\x00\x00\x00\x00\xf8?\x00\x00\x00\x00\x00\x00\xf8?'
p154
tp155
bsS'_ignore'
p156
I01
sg51
g7
sbsg115
g0
(cmatplotlib.transforms
Affine2D
p157
g2
Ntp158
Rp159
(dp160
g49
I2
sg50
Nsg120
g132
(g133
(I0
tp161
g135
tp162
Rp163
(I1
(I3
I3
tp164
g59
I00
S'\x00\x00\x00\x00\x00\x00R@\x00\x00\x00\x00\x00\x00\x00\x00\x00\x00\x00\x00\x00\x00\x00\x00\x00\x00\x00\x00\x00\x00\x00\x00\x00\x00\x00\x00\x00\x00R@\x00\x00\x00\x00\x00\x00\x00\x00\x00\x00\x00\x00\x00\x00\x00\x00\x00\x00\x00\x00\x00\x00\x00\x00\x00\x00\x00\x00\x00\x00\xf0?'
p165
tp166
bsg51
g7
sg52
(dp167
I140396921618000
g0
(cmatplotlib.transforms
ScaledTranslation
p168
g2
Ntp169
Rp170
(dp171
g49
I1
sg120
NsS'_scale_trans'
p172
g159
sg50
NsS'_t'
p173
(F-0.04722222222222222
I0
tp174
sg51
g7
sg52
(dp175
I140396921616784
g0
(cmatplotlib.transforms
CompositeGenericTransform
p176
g2
Ntp177
Rp178
(dp179
g49
I2
sS'input_dims'
p180
I2
sS'_a'
p181
g0
(cmatplotlib.transforms
BlendedGenericTransform
p182
g2
Ntp183
Rp184
(dp185
g49
I2
sg75
g0
(g176
g2
Ntp186
Rp187
(dp188
g49
I2
sg180
I2
sg181
g0
(cmatplotlib.transforms
TransformWrapper
p189
g2
Ntp190
Rp191
(dp192
Voutput_dims
p193
I2
sVparents
p194
(dp195
I140396872043472
g0
(g122
g2
Ntp196
Rp197
(dp198
g49
I2
sg126
g0
(g127
g2
Ntp199
Rp200
(dp201
g49
I2
sg131
g132
(g133
(I0
tp202
g135
tp203
Rp204
(I1
(I2
tp205
g59
I00
S'\x00\x00\x00\x00\x00\x00\xf0\x7f\x00\x00\x00\x00\x00\x00\xf0\x7f'
p206
tp207
bsg52
(dp208
I140396872043472
g197
ssg142
g132
(g133
(I0
tp209
g135
tp210
Rp211
(I1
(I2
I2
tp212
g59
I00
S'\x00\x00\x00\x00\x00\x00\x00\x00\x00\x00\x00\x00\x00\x00\x00\x00\x00\x00\x00\x00\x00\x00\xf0?\x00\x00\x00\x00\x00\x00\xf0?'
p213
tp214
bsg149
g132
(g133
(I0
tp215
g135
tp216
Rp217
(I1
(I2
I2
tp218
g59
I00
S'\xd7\xa3p=\n\xd7\xd9\xbf\x00\x00\x00\x00\x00\x00\x00\x00\xc3\xf5(\\\x8fB\xf5?\x00\x00\x00\x00\x00\xf9\xd5@'
p219
tp220
bsg156
I01
sg51
g7
sbsg115
g191
sg149
g132
(g133
(I0
tp221
g135
tp222
Rp223
(I1
(I2
I2
tp224
g59
I00
S'\x00\x00\x00\x00\x00\x00\x00\x00\x00\x00\x00\x00\x00\x00\x00\x00\x00\x00\x00\x00\x00\x00\xf0?\x00\x00\x00\x00\x00\x00\xf0?'
p225
tp226
bsg52
(dp227
I140396872044496
g0
(cmatplotlib.transforms
BboxTransformFrom
p228
g2
Ntp229
Rp230
(dp231
g49
I2
sS'_boxin'
p232
g197
sg120
g132
(g133
(I0
tp233
g135
tp234
Rp235
(I1
(I3
I3
tp236
g59
I00
S'\x00\x00\x00\x00\x00\x00\xf0?\x00\x00\x00\x00\x00\x00\x00\x00\x00\x00\x00\x00\x00\x00\x00\x80\x00\x00\x00\x00\x00\x00\x00\x00\x00\x00\x00\x00\x00\x00\xf0?\x00\x00\x00\x00\x00\x00\x00\x80\x00\x00\x00\x00\x00\x00\x00\x00\x00\x00\x00\x00\x00\x00\x00\x00\x00\x00\x00\x00\x00\x00\xf0?'
p237
tp238
bsg50
Nsg51
g7
sg52
(dp239
I140396872042768
g0
(g176
g2
Ntp240
Rp241
(dp242
g49
I2
sg180
I2
sg181
g230
sS'output_dims'
p243
I2
sS'_b'
p244
g0
(g116
g2
Ntp245
Rp246
(dp247
g49
I2
sg120
Nsg50
Nsg121
g0
(g122
g2
Ntp248
Rp249
(dp250
g49
I2
sg126
g0
(g127
g2
Ntp251
Rp252
(dp253
g49
I0
sg131
g132
(g133
(I0
tp254
g135
tp255
Rp256
(I1
(I2
tp257
g59
I00
S'\x00\x00\x00\x00\x00\x00\xf0\x7f\x00\x00\x00\x00\x00\x00\xf0\x7f'
p258
tp259
bsg52
(dp260
I140396922573136
g249
ssg142
g132
(g133
(I0
tp261
g135
tp262
Rp263
(I1
(I2
I2
tp264
g59
I00
S'\x00\x00\x00\x00\x00\x00\xc0?\x00\x00\x00\x00\x00\x00\xc0?\xcd\xcc\xcc\xcc\xcc\xcc\xec?)\\\x8f\xc2\xf5(\xec?'
p265
tp266
bsg149
g132
(g133
(I0
tp267
g135
tp268
Rp269
(I1
(I2
I2
tp270
g59
I00
S'\x00\x00\x00\x00\x00\x00\xc0?\x00\x00\x00\x00\x00\x00\xc0?\xcd\xcc\xcc\xcc\xcc\xcc\xec?)\\\x8f\xc2\xf5(\xec?'
p271
tp272
bsg156
I01
sg51
g7
sbsg115
g118
sg149
Nsg52
(dp273
I140396872042704
g246
ssg51
g7
sbsg52
(dp274
I140396921050000
g0
(g176
g2
Ntp275
Rp276
(dp277
g49
I2
sg180
I2
sg181
g0
(g176
g2
Ntp278
Rp279
(dp280
g49
I1
sg180
I2
sg181
g0
(g116
g2
Ntp281
Rp282
(dp283
g49
I1
sg120
Nsg50
Nsg121
g0
(g127
g2
Ntp284
Rp285
(dp286
g49
I1
sg131
g132
(g133
(I0
tp287
g135
tp288
Rp289
(I1
(I2
tp290
g59
I00
S'\x00\x00\x00\x00\x00\x00\xf0\x7f\x00\x00\x00\x00\x00\x00\xf0\x7f'
p291
tp292
bsg52
(dp293
I140396921050640
g282
ssg142
g132
(g133
(I0
tp294
g135
tp295
Rp296
(I1
(I2
I2
tp297
g59
I00
S'\x00\x00\x00\x00\x00\x00\x00\x00\x00\x00\x00\x00\x00\x00\x00\x00\x00\x00\x00\x00\x00\x00\xf0?\x00\x00\x00\x00\x00\x00\xf0?'
p298
tp299
bsg149
g132
(g133
(I0
tp300
g135
tp301
Rp302
(I1
(I2
I2
tp303
g59
I00
S'\x00\x00\x00\x00\x00\x00\x00\x00\x00\x00\x00\x00\x00\x00\x00\x00\x00\x00\x00\x00\x00\x00\xf0?\x00\x00\x00\x00\x00\x00\xf0?'
p304
tp305
bsg156
I01
sg51
g7
sbsg52
(dp306
I140396921052688
g279
ssg51
g7
sbsg243
I2
sg244
g0
(g157
g2
Ntp307
Rp308
(dp309
g49
I2
sg50
Nsg120
g132
(g133
(I0
tp310
g135
tp311
Rp312
(I1
(I3
I3
tp313
g59
I00
S'\x00\x00\x00\x00\x00\x00\xf0?\x00\x00\x00\x00\x00\x00\x00\x00\x00\x00\x00\x00\x00\x00\x00\x00\x00\x00\x00\x00\x00\x00\x00\x00\x00\x00\x00\x00\x00\x00\xf0?\x00\x00\x00\x00\x00\x00\x00\x00\x00\x00\x00\x00\x00\x00\x00\x00\x00\x00\x00\x00\x00\x00\x00\x00\x00\x00\x00\x00\x00\x00\xf0?'
p314
tp315
bsg51
g7
sg52
(dp316
I140396921052688
g279
ssbsg52
(dp317
I140396921050000
g276
ssg51
g7
sbsg243
I2
sg244
g246
sg52
(dp318
I140396921049552
g0
(g122
g2
Ntp319
Rp320
(dp321
g49
I2
sg126
g0
(g127
g2
Ntp322
Rp323
(dp324
g49
I1
sg131
g132
(g133
(I0
tp325
g135
tp326
Rp327
(I1
(I2
tp328
g59
I00
S'\x00\x00\x00\x00\x00\x00\xf0\x7f\x00\x00\x00\x00\x00\x00\xf0\x7f'
p329
tp330
bsg52
(dp331
I140396921049552
g320
ssg142
g132
(g133
(I0
tp332
g135
tp333
Rp334
(I1
(I2
I2
tp335
g59
I00
S'\x00\x00\x00\x00\x00\x00\x00\x00\x00\x00\x00\x00\x00\x00\x00\x00\x00\x00\x00\x00\x00\x00\xf0?\x00\x00\x00\x00\x00\x00\xf0?'
p336
tp337
bsg149
g132
(g133
(I0
tp338
g135
tp339
Rp340
(I1
(I2
I2
tp341
g59
I00
S'\x00\x00\x00\x00\x00\x00\x00\x00\x00\x00\x00\x00\x00\x00\x00\x00\x00\x00\x00\x00\x00\x00\xf0?\x00\x00\x00\x00\x00\x00\xf0?'
p342
tp343
bsg156
I01
sg51
g7
sbsg115
g276
sg149
Nsg52
(dp344
sg51
g7
sbssg51
g7
sbsI140396869510224
g0
(cmatplotlib.transforms
BlendedAffine2D
p345
g2
Ntp346
Rp347
(dp348
g49
I2
sg120
Nsg75
g246
sg76
g0
(g45
g2
Ntp349
Rp350
(dp351
g49
I1
sg50
Nsg51
g7
sg52
(dp352
I140396869510224
g347
ssbsg50
Nsg51
g7
sg52
(dp353
sbsI140396872043536
g0
(g182
g2
Ntp354
Rp355
(dp356
g49
I2
sg75
g246
sg76
g187
sS'_affine'
p357
Nsg52
(dp358
I140396921049616
g0
(g176
g2
Ntp359
Rp360
(dp361
g49
I2
sg180
I2
sg181
g355
sg243
I2
sg244
g0
(g168
g2
Ntp362
Rp363
(dp364
g49
I1
sg120
Nsg172
g159
sg50
Nsg173
(I0
F0.04722222222222222
tp365
sg51
g7
sg52
(dp366
I140396921049616
g360
ssbsg52
(dp367
sg51
g7
sbsI140396878002128
g0
(g176
g2
Ntp368
Rp369
(dp370
g49
I2
sg180
I2
sg181
g355
sg243
I2
sg244
g0
(g168
g2
Ntp371
Rp372
(dp373
g49
I1
sg120
Nsg172
g159
sg50
Nsg173
(I0
F0.04722222222222222
tp374
sg51
g7
sg52
(dp375
I140396878002128
g369
ssbsg52
(dp376
sg51
g7
sbsI140396868951120
g0
(g176
g2
Ntp377
Rp378
(dp379
g49
I2
sg180
I2
sg181
g355
sg243
I2
sg244
g0
(g168
g2
Ntp380
Rp381
(dp382
g49
I1
sg120
Nsg172
g159
sg50
Nsg173
(I0
F-0.04722222222222222
tp383
sg51
g7
sg52
(dp384
I140396868951120
g378
ssbsg52
(dp385
sg51
g7
sbsI140396921616720
g0
(g176
g2
Ntp386
Rp387
(dp388
g49
I2
sg180
I2
sg181
g355
sg243
I2
sg244
g0
(g168
g2
Ntp389
Rp390
(dp391
g49
I1
sg120
Nsg172
g159
sg50
Nsg173
(I0
F-0.04861111111111111
tp392
sg51
g7
sg52
(dp393
I140396921616720
g387
ssbsg52
(dp394
sg51
g7
sbsI140396921618256
g0
(g176
g2
Ntp395
Rp396
(dp397
g49
I2
sg180
I2
sg181
g355
sg243
I2
sg244
g0
(g168
g2
Ntp398
Rp399
(dp400
g49
I1
sg120
Nsg172
g159
sg50
Nsg173
(I0
F0.04861111111111111
tp401
sg51
g7
sg52
(dp402
I140396921618256
g396
ssbsg52
(dp403
sg51
g7
sbsI140396921051536
g0
(g176
g2
Ntp404
Rp405
(dp406
g49
I2
sg180
I2
sg181
g355
sg243
I2
sg244
g0
(g168
g2
Ntp407
Rp408
(dp409
g49
I1
sg120
Nsg172
g159
sg50
Nsg173
(I0
F-0.04722222222222222
tp410
sg51
g7
sg52
(dp411
I140396921051536
g405
ssbsg52
(dp412
sg51
g7
sbssg51
g7
sbsI140396926944784
g0
(g176
g2
Ntp413
Rp414
(dp415
g49
I2
sg180
I2
sg181
g0
(g176
g2
Ntp416
Rp417
(dp418
g49
I1
sg180
I2
sg181
g0
(g116
g2
Ntp419
Rp420
(dp421
g49
I1
sg120
Nsg50
Nsg121
g0
(g127
g2
Ntp422
Rp423
(dp424
g49
I1
sg131
g132
(g133
(I0
tp425
g135
tp426
Rp427
(I1
(I2
tp428
g59
I00
S'\x00\x00\x00\x00\x00\x00\xf0\x7f\x00\x00\x00\x00\x00\x00\xf0\x7f'
p429
tp430
bsg52
(dp431
I140396926946960
g420
ssg142
g132
(g133
(I0
tp432
g135
tp433
Rp434
(I1
(I2
I2
tp435
g59
I00
S'\x00\x00\x00\x00\x00\x00\x00\x00\x00\x00\x00\x00\x00\x00\x00\x00\x00\x00\x00\x00\x00\x00\xf0?\x00\x00\x00\x00\x00\x00\xf0?'
p436
tp437
bsg149
g132
(g133
(I0
tp438
g135
tp439
Rp440
(I1
(I2
I2
tp441
g59
I00
S'\x00\x00\x00\x00\x00\x00\x00\x00\x00\x00\x00\x00\x00\x00\x00\x00\x00\x00\x00\x00\x00\x00\xf0?\x00\x00\x00\x00\x00\x00\xf0?'
p442
tp443
bsg156
I01
sg51
g7
sbsg52
(dp444
I140396926945360
g417
ssg51
g7
sbsg243
I2
sg244
g0
(g157
g2
Ntp445
Rp446
(dp447
g49
I2
sg50
Nsg120
g132
(g133
(I0
tp448
g135
tp449
Rp450
(I1
(I3
I3
tp451
g59
I00
S'\x00\x00\x00\x00\x00\x00\xf0?\x00\x00\x00\x00\x00\x00\x00\x00\x00\x00\x00\x00\x00\x00\x00\x00\x00\x00\x00\x00\x00\x00\x00\x00\x00\x00\x00\x00\x00\x00\xf0?\x00\x00\x00\x00\x00\x00\x00\x00\x00\x00\x00\x00\x00\x00\x00\x00\x00\x00\x00\x00\x00\x00\x00\x00\x00\x00\x00\x00\x00\x00\xf0?'
p452
tp453
bsg51
g7
sg52
(dp454
I140396926945360
g417
ssbsg52
(dp455
I140396926944784
g414
ssg51
g7
sbsg243
I2
sg244
g246
sg52
(dp456
I140396926945168
g0
(g122
g2
Ntp457
Rp458
(dp459
g49
I2
sg126
g0
(g127
g2
Ntp460
Rp461
(dp462
g49
I1
sg131
g132
(g133
(I0
tp463
g135
tp464
Rp465
(I1
(I2
tp466
g59
I00
S'\x00\x00\x00\x00\x00\x00\xf0\x7f\x00\x00\x00\x00\x00\x00\xf0\x7f'
p467
tp468
bsg52
(dp469
I140396926945168
g458
ssg142
g132
(g133
(I0
tp470
g135
tp471
Rp472
(I1
(I2
I2
tp473
g59
I00
S'\x00\x00\x00\x00\x00\x00\x00\x00\x00\x00\x00\x00\x00\x00\x00\x00\x00\x00\x00\x00\x00\x00\xf0?\x00\x00\x00\x00\x00\x00\xf0?'
p474
tp475
bsg149
g132
(g133
(I0
tp476
g135
tp477
Rp478
(I1
(I2
I2
tp479
g59
I00
S'\x00\x00\x00\x00\x00\x00\x00\x00\x00\x00\x00\x00\x00\x00\x00\x00\x00\x00\x00\x00\x00\x00\xf0?\x00\x00\x00\x00\x00\x00\xf0?'
p480
tp481
bsg156
I01
sg51
g7
sbsg115
g414
sg149
Nsg52
(dp482
sg51
g7
sbssg51
g7
sbsI140396919625424
g0
(g176
g2
Ntp483
Rp484
(dp485
g49
I2
sg180
I2
sg181
g0
(g176
g2
Ntp486
Rp487
(dp488
g49
I1
sg180
I2
sg181
g0
(g116
g2
Ntp489
Rp490
(dp491
g49
I1
sg120
Nsg50
Nsg121
g0
(g127
g2
Ntp492
Rp493
(dp494
g49
I1
sg131
g132
(g133
(I0
tp495
g135
tp496
Rp497
(I1
(I2
tp498
g59
I00
S'\x00\x00\x00\x00\x00\x00\xf0\x7f\x00\x00\x00\x00\x00\x00\xf0\x7f'
p499
tp500
bsg52
(dp501
I140396919626064
g490
ssg142
g132
(g133
(I0
tp502
g135
tp503
Rp504
(I1
(I2
I2
tp505
g59
I00
S'\x00\x00\x00\x00\x00\x00\x00\x00\x00\x00\x00\x00\x00\x00\x00\x00\x00\x00\x00\x00\x00\x00\xf0?\x00\x00\x00\x00\x00\x00\xf0?'
p506
tp507
bsg149
g132
(g133
(I0
tp508
g135
tp509
Rp510
(I1
(I2
I2
tp511
g59
I00
S'\x00\x00\x00\x00\x00\x00\x00\x00\x00\x00\x00\x00\x00\x00\x00\x00\x00\x00\x00\x00\x00\x00\xf0?\x00\x00\x00\x00\x00\x00\xf0?'
p512
tp513
bsg156
I01
sg51
g7
sbsg52
(dp514
I140396919626704
g487
ssg51
g7
sbsg243
I2
sg244
g0
(g157
g2
Ntp515
Rp516
(dp517
g49
I2
sg50
Nsg120
g132
(g133
(I0
tp518
g135
tp519
Rp520
(I1
(I3
I3
tp521
g59
I00
S'\x00\x00\x00\x00\x00\x00\xf0?\x00\x00\x00\x00\x00\x00\x00\x00\x00\x00\x00\x00\x00\x00\x00\x00\x00\x00\x00\x00\x00\x00\x00\x00\x00\x00\x00\x00\x00\x00\xf0?\x00\x00\x00\x00\x00\x00\x00\x00\x00\x00\x00\x00\x00\x00\x00\x00\x00\x00\x00\x00\x00\x00\x00\x00\x00\x00\x00\x00\x00\x00\xf0?'
p522
tp523
bsg51
g7
sg52
(dp524
I140396919626704
g487
ssbsg52
(dp525
I140396919625424
g484
ssg51
g7
sbsg243
I2
sg244
g246
sg52
(dp526
I140396919627408
g0
(g122
g2
Ntp527
Rp528
(dp529
g49
I2
sg126
g0
(g127
g2
Ntp530
Rp531
(dp532
g49
I1
sg131
g132
(g133
(I0
tp533
g135
tp534
Rp535
(I1
(I2
tp536
g59
I00
S'\x00\x00\x00\x00\x00\x00\xf0\x7f\x00\x00\x00\x00\x00\x00\xf0\x7f'
p537
tp538
bsg52
(dp539
I140396919627408
g528
ssg142
g132
(g133
(I0
tp540
g135
tp541
Rp542
(I1
(I2
I2
tp543
g59
I00
S'\x00\x00\x00\x00\x00\x00\x00\x00\x00\x00\x00\x00\x00\x00\x00\x00\x00\x00\x00\x00\x00\x00\xf0?\x00\x00\x00\x00\x00\x00\xf0?'
p544
tp545
bsg149
g132
(g133
(I0
tp546
g135
tp547
Rp548
(I1
(I2
I2
tp549
g59
I00
S'\x00\x00\x00\x00\x00\x00\x00\x00\x00\x00\x00\x00\x00\x00\x00\x00\x00\x00\x00\x00\x00\x00\xf0?\x00\x00\x00\x00\x00\x00\xf0?'
p550
tp551
bsg156
I01
sg51
g7
sbsg115
g484
sg149
Nsg52
(dp552
sg51
g7
sbssg51
g7
sbsI140396926945104
g0
(g176
g2
Ntp553
Rp554
(dp555
g49
I2
sg180
I2
sg181
g0
(g176
g2
Ntp556
Rp557
(dp558
g49
I1
sg180
I2
sg181
g0
(g116
g2
Ntp559
Rp560
(dp561
g49
I1
sg120
Nsg50
Nsg121
g0
(g127
g2
Ntp562
Rp563
(dp564
g49
I1
sg131
g132
(g133
(I0
tp565
g135
tp566
Rp567
(I1
(I2
tp568
g59
I00
S'\x00\x00\x00\x00\x00\x00\xf0\x7f\x00\x00\x00\x00\x00\x00\xf0\x7f'
p569
tp570
bsg52
(dp571
I140396926946768
g560
ssg142
g132
(g133
(I0
tp572
g135
tp573
Rp574
(I1
(I2
I2
tp575
g59
I00
S'\x00\x00\x00\x00\x00\x00\x00\x00\x00\x00\x00\x00\x00\x00\x00\x00\x00\x00\x00\x00\x00\x00\xf0?\x00\x00\x00\x00\x00\x00\xf0?'
p576
tp577
bsg149
g132
(g133
(I0
tp578
g135
tp579
Rp580
(I1
(I2
I2
tp581
g59
I00
S'\x00\x00\x00\x00\x00\x00\x00\x00\x00\x00\x00\x00\x00\x00\x00\x00\x00\x00\x00\x00\x00\x00\xf0?\x00\x00\x00\x00\x00\x00\xf0?'
p582
tp583
bsg156
I01
sg51
g7
sbsg52
(dp584
I140396926945744
g557
ssg51
g7
sbsg243
I2
sg244
g0
(g157
g2
Ntp585
Rp586
(dp587
g49
I2
sg50
Nsg120
g132
(g133
(I0
tp588
g135
tp589
Rp590
(I1
(I3
I3
tp591
g59
I00
S'\x00\x00\x00\x00\x00\x00\xf0?\x00\x00\x00\x00\x00\x00\x00\x00\x00\x00\x00\x00\x00\x00\x00\x00\x00\x00\x00\x00\x00\x00\x00\x00\x00\x00\x00\x00\x00\x00\xf0?\x00\x00\x00\x00\x00\x00\x00\x00\x00\x00\x00\x00\x00\x00\x00\x00\x00\x00\x00\x00\x00\x00\x00\x00\x00\x00\x00\x00\x00\x00\xf0?'
p592
tp593
bsg51
g7
sg52
(dp594
I140396926945744
g557
ssbsg52
(dp595
I140396926945104
g554
ssg51
g7
sbsg243
I2
sg244
g246
sg52
(dp596
I140396926943632
g0
(g122
g2
Ntp597
Rp598
(dp599
g49
I2
sg126
g0
(g127
g2
Ntp600
Rp601
(dp602
g49
I1
sg131
g132
(g133
(I0
tp603
g135
tp604
Rp605
(I1
(I2
tp606
g59
I00
S'\x00\x00\x00\x00\x00\x00\xf0\x7f\x00\x00\x00\x00\x00\x00\xf0\x7f'
p607
tp608
bsg52
(dp609
I140396926943632
g598
ssg142
g132
(g133
(I0
tp610
g135
tp611
Rp612
(I1
(I2
I2
tp613
g59
I00
S'\x00\x00\x00\x00\x00\x00\x00\x00\x00\x00\x00\x00\x00\x00\x00\x00\x00\x00\x00\x00\x00\x00\xf0?\x00\x00\x00\x00\x00\x00\xf0?'
p614
tp615
bsg149
g132
(g133
(I0
tp616
g135
tp617
Rp618
(I1
(I2
I2
tp619
g59
I00
S'\x00\x00\x00\x00\x00\x00\x00\x00\x00\x00\x00\x00\x00\x00\x00\x00\x00\x00\x00\x00\x00\x00\xf0?\x00\x00\x00\x00\x00\x00\xf0?'
p620
tp621
bsg156
I01
sg51
g7
sbsg115
g554
sg149
Nsg52
(dp622
sg51
g7
sbssg51
g7
sbsI140396919625680
g0
(g176
g2
Ntp623
Rp624
(dp625
g49
I2
sg180
I2
sg181
g0
(g176
g2
Ntp626
Rp627
(dp628
g49
I1
sg180
I2
sg181
g0
(g116
g2
Ntp629
Rp630
(dp631
g49
I1
sg120
Nsg50
Nsg121
g0
(g127
g2
Ntp632
Rp633
(dp634
g49
I1
sg131
g132
(g133
(I0
tp635
g135
tp636
Rp637
(I1
(I2
tp638
g59
I00
S'\x00\x00\x00\x00\x00\x00\xf0\x7f\x00\x00\x00\x00\x00\x00\xf0\x7f'
p639
tp640
bsg52
(dp641
I140396919624336
g630
ssg142
g132
(g133
(I0
tp642
g135
tp643
Rp644
(I1
(I2
I2
tp645
g59
I00
S'\x00\x00\x00\x00\x00\x00\x00\x00\x00\x00\x00\x00\x00\x00\x00\x00\x00\x00\x00\x00\x00\x00\xf0?\x00\x00\x00\x00\x00\x00\xf0?'
p646
tp647
bsg149
g132
(g133
(I0
tp648
g135
tp649
Rp650
(I1
(I2
I2
tp651
g59
I00
S'\x00\x00\x00\x00\x00\x00\x00\x00\x00\x00\x00\x00\x00\x00\x00\x00\x00\x00\x00\x00\x00\x00\xf0?\x00\x00\x00\x00\x00\x00\xf0?'
p652
tp653
bsg156
I01
sg51
g7
sbsg52
(dp654
I140396919624272
g627
ssg51
g7
sbsg243
I2
sg244
g0
(g157
g2
Ntp655
Rp656
(dp657
g49
I2
sg50
Nsg120
g132
(g133
(I0
tp658
g135
tp659
Rp660
(I1
(I3
I3
tp661
g59
I00
S'\x00\x00\x00\x00\x00\x00\xf0?\x00\x00\x00\x00\x00\x00\x00\x00\x00\x00\x00\x00\x00\x00\x00\x00\x00\x00\x00\x00\x00\x00\x00\x00\x00\x00\x00\x00\x00\x00\xf0?\x00\x00\x00\x00\x00\x00\x00\x00\x00\x00\x00\x00\x00\x00\x00\x00\x00\x00\x00\x00\x00\x00\x00\x00\x00\x00\x00\x00\x00\x00\xf0?'
p662
tp663
bsg51
g7
sg52
(dp664
I140396919624272
g627
ssbsg52
(dp665
I140396919625680
g624
ssg51
g7
sbsg243
I2
sg244
g246
sg52
(dp666
I140396919626384
g0
(g122
g2
Ntp667
Rp668
(dp669
g49
I2
sg126
g0
(g127
g2
Ntp670
Rp671
(dp672
g49
I1
sg131
g132
(g133
(I0
tp673
g135
tp674
Rp675
(I1
(I2
tp676
g59
I00
S'\x00\x00\x00\x00\x00\x00\xf0\x7f\x00\x00\x00\x00\x00\x00\xf0\x7f'
p677
tp678
bsg52
(dp679
I140396919626384
g668
ssg142
g132
(g133
(I0
tp680
g135
tp681
Rp682
(I1
(I2
I2
tp683
g59
I00
S'\x00\x00\x00\x00\x00\x00\x00\x00\x00\x00\x00\x00\x00\x00\x00\x00\x00\x00\x00\x00\x00\x00\xf0?\x00\x00\x00\x00\x00\x00\xf0?'
p684
tp685
bsg149
g132
(g133
(I0
tp686
g135
tp687
Rp688
(I1
(I2
I2
tp689
g59
I00
S'\x00\x00\x00\x00\x00\x00\x00\x00\x00\x00\x00\x00\x00\x00\x00\x00\x00\x00\x00\x00\x00\x00\xf0?\x00\x00\x00\x00\x00\x00\xf0?'
p690
tp691
bsg156
I01
sg51
g7
sbsg115
g624
sg149
Nsg52
(dp692
sg51
g7
sbssg51
g7
sbsI140396919625744
g0
(g176
g2
Ntp693
Rp694
(dp695
g49
I2
sg180
I2
sg181
g0
(g176
g2
Ntp696
Rp697
(dp698
g49
I1
sg180
I2
sg181
g0
(g116
g2
Ntp699
Rp700
(dp701
g49
I1
sg120
Nsg50
Nsg121
g0
(g127
g2
Ntp702
Rp703
(dp704
g49
I1
sg131
g132
(g133
(I0
tp705
g135
tp706
Rp707
(I1
(I2
tp708
g59
I00
S'\x00\x00\x00\x00\x00\x00\xf0\x7f\x00\x00\x00\x00\x00\x00\xf0\x7f'
p709
tp710
bsg52
(dp711
I140396919625296
g700
ssg142
g132
(g133
(I0
tp712
g135
tp713
Rp714
(I1
(I2
I2
tp715
g59
I00
S'\x00\x00\x00\x00\x00\x00\x00\x00\x00\x00\x00\x00\x00\x00\x00\x00\x00\x00\x00\x00\x00\x00\xf0?\x00\x00\x00\x00\x00\x00\xf0?'
p716
tp717
bsg149
g132
(g133
(I0
tp718
g135
tp719
Rp720
(I1
(I2
I2
tp721
g59
I00
S'\x00\x00\x00\x00\x00\x00\x00\x00\x00\x00\x00\x00\x00\x00\x00\x00\x00\x00\x00\x00\x00\x00\xf0?\x00\x00\x00\x00\x00\x00\xf0?'
p722
tp723
bsg156
I01
sg51
g7
sbsg52
(dp724
I140396919626000
g697
ssg51
g7
sbsg243
I2
sg244
g0
(g157
g2
Ntp725
Rp726
(dp727
g49
I2
sg50
Nsg120
g132
(g133
(I0
tp728
g135
tp729
Rp730
(I1
(I3
I3
tp731
g59
I00
S'\x00\x00\x00\x00\x00\x00\xf0?\x00\x00\x00\x00\x00\x00\x00\x00\x00\x00\x00\x00\x00\x00\x00\x00\x00\x00\x00\x00\x00\x00\x00\x00\x00\x00\x00\x00\x00\x00\xf0?\x00\x00\x00\x00\x00\x00\x00\x00\x00\x00\x00\x00\x00\x00\x00\x00\x00\x00\x00\x00\x00\x00\x00\x00\x00\x00\x00\x00\x00\x00\xf0?'
p732
tp733
bsg51
g7
sg52
(dp734
I140396919626000
g697
ssbsg52
(dp735
I140396919625744
g694
ssg51
g7
sbsg243
I2
sg244
g246
sg52
(dp736
I140396919624720
g0
(g122
g2
Ntp737
Rp738
(dp739
g49
I2
sg126
g0
(g127
g2
Ntp740
Rp741
(dp742
g49
I1
sg131
g132
(g133
(I0
tp743
g135
tp744
Rp745
(I1
(I2
tp746
g59
I00
S'\x00\x00\x00\x00\x00\x00\xf0\x7f\x00\x00\x00\x00\x00\x00\xf0\x7f'
p747
tp748
bsg52
(dp749
I140396919624720
g738
ssg142
g132
(g133
(I0
tp750
g135
tp751
Rp752
(I1
(I2
I2
tp753
g59
I00
S'\x00\x00\x00\x00\x00\x00\x00\x00\x00\x00\x00\x00\x00\x00\x00\x00\x00\x00\x00\x00\x00\x00\xf0?\x00\x00\x00\x00\x00\x00\xf0?'
p754
tp755
bsg149
g132
(g133
(I0
tp756
g135
tp757
Rp758
(I1
(I2
I2
tp759
g59
I00
S'\x00\x00\x00\x00\x00\x00\x00\x00\x00\x00\x00\x00\x00\x00\x00\x00\x00\x00\x00\x00\x00\x00\xf0?\x00\x00\x00\x00\x00\x00\xf0?'
p760
tp761
bsg156
I01
sg51
g7
sbsg115
g694
sg149
Nsg52
(dp762
sg51
g7
sbssg51
g7
sbsI140396919625808
g0
(g176
g2
Ntp763
Rp764
(dp765
g49
I2
sg180
I2
sg181
g0
(g176
g2
Ntp766
Rp767
(dp768
g49
I1
sg180
I2
sg181
g0
(g116
g2
Ntp769
Rp770
(dp771
g49
I1
sg120
Nsg50
Nsg121
g0
(g127
g2
Ntp772
Rp773
(dp774
g49
I1
sg131
g132
(g133
(I0
tp775
g135
tp776
Rp777
(I1
(I2
tp778
g59
I00
S'\x00\x00\x00\x00\x00\x00\xf0\x7f\x00\x00\x00\x00\x00\x00\xf0\x7f'
p779
tp780
bsg52
(dp781
I140396919627728
g770
ssg142
g132
(g133
(I0
tp782
g135
tp783
Rp784
(I1
(I2
I2
tp785
g59
I00
S'\x00\x00\x00\x00\x00\x00\x00\x00\x00\x00\x00\x00\x00\x00\x00\x00\x00\x00\x00\x00\x00\x00\xf0?\x00\x00\x00\x00\x00\x00\xf0?'
p786
tp787
bsg149
g132
(g133
(I0
tp788
g135
tp789
Rp790
(I1
(I2
I2
tp791
g59
I00
S'\x00\x00\x00\x00\x00\x00\x00\x00\x00\x00\x00\x00\x00\x00\x00\x00\x00\x00\x00\x00\x00\x00\xf0?\x00\x00\x00\x00\x00\x00\xf0?'
p792
tp793
bsg156
I01
sg51
g7
sbsg52
(dp794
I140396919627024
g767
ssg51
g7
sbsg243
I2
sg244
g0
(g157
g2
Ntp795
Rp796
(dp797
g49
I2
sg50
Nsg120
g132
(g133
(I0
tp798
g135
tp799
Rp800
(I1
(I3
I3
tp801
g59
I00
S'\x00\x00\x00\x00\x00\x00\xf0?\x00\x00\x00\x00\x00\x00\x00\x00\x00\x00\x00\x00\x00\x00\x00\x00\x00\x00\x00\x00\x00\x00\x00\x00\x00\x00\x00\x00\x00\x00\xf0?\x00\x00\x00\x00\x00\x00\x00\x00\x00\x00\x00\x00\x00\x00\x00\x00\x00\x00\x00\x00\x00\x00\x00\x00\x00\x00\x00\x00\x00\x00\xf0?'
p802
tp803
bsg51
g7
sg52
(dp804
I140396919627024
g767
ssbsg52
(dp805
I140396919625808
g764
ssg51
g7
sbsg243
I2
sg244
g246
sg52
(dp806
I140396919626896
g0
(g122
g2
Ntp807
Rp808
(dp809
g49
I2
sg126
g0
(g127
g2
Ntp810
Rp811
(dp812
g49
I1
sg131
g132
(g133
(I0
tp813
g135
tp814
Rp815
(I1
(I2
tp816
g59
I00
S'\x00\x00\x00\x00\x00\x00\xf0\x7f\x00\x00\x00\x00\x00\x00\xf0\x7f'
p817
tp818
bsg52
(dp819
I140396919626896
g808
ssg142
g132
(g133
(I0
tp820
g135
tp821
Rp822
(I1
(I2
I2
tp823
g59
I00
S'\x00\x00\x00\x00\x00\x00\x00\x00\x00\x00\x00\x00\x00\x00\x00\x00\x00\x00\x00\x00\x00\x00\xf0?\x00\x00\x00\x00\x00\x00\xf0?'
p824
tp825
bsg149
g132
(g133
(I0
tp826
g135
tp827
Rp828
(I1
(I2
I2
tp829
g59
I00
S'\x00\x00\x00\x00\x00\x00\x00\x00\x00\x00\x00\x00\x00\x00\x00\x00\x00\x00\x00\x00\x00\x00\xf0?\x00\x00\x00\x00\x00\x00\xf0?'
p830
tp831
bsg156
I01
sg51
g7
sbsg115
g764
sg149
Nsg52
(dp832
sg51
g7
sbssg51
g7
sbsI140396926945488
g0
(g176
g2
Ntp833
Rp834
(dp835
g49
I2
sg180
I2
sg181
g0
(g176
g2
Ntp836
Rp837
(dp838
g49
I1
sg180
I2
sg181
g0
(g116
g2
Ntp839
Rp840
(dp841
g49
I1
sg120
Nsg50
Nsg121
g0
(g127
g2
Ntp842
Rp843
(dp844
g49
I1
sg131
g132
(g133
(I0
tp845
g135
tp846
Rp847
(I1
(I2
tp848
g59
I00
S'\x00\x00\x00\x00\x00\x00\xf0\x7f\x00\x00\x00\x00\x00\x00\xf0\x7f'
p849
tp850
bsg52
(dp851
I140396926943440
g840
ssg142
g132
(g133
(I0
tp852
g135
tp853
Rp854
(I1
(I2
I2
tp855
g59
I00
S'\x00\x00\x00\x00\x00\x00\x00\x00\x00\x00\x00\x00\x00\x00\x00\x00\x00\x00\x00\x00\x00\x00\xf0?\x00\x00\x00\x00\x00\x00\xf0?'
p856
tp857
bsg149
g132
(g133
(I0
tp858
g135
tp859
Rp860
(I1
(I2
I2
tp861
g59
I00
S'\x00\x00\x00\x00\x00\x00\x00\x00\x00\x00\x00\x00\x00\x00\x00\x00\x00\x00\x00\x00\x00\x00\xf0?\x00\x00\x00\x00\x00\x00\xf0?'
p862
tp863
bsg156
I01
sg51
g7
sbsg52
(dp864
I140396926944272
g837
ssg51
g7
sbsg243
I2
sg244
g0
(g157
g2
Ntp865
Rp866
(dp867
g49
I2
sg50
Nsg120
g132
(g133
(I0
tp868
g135
tp869
Rp870
(I1
(I3
I3
tp871
g59
I00
S'\x00\x00\x00\x00\x00\x00\xf0?\x00\x00\x00\x00\x00\x00\x00\x00\x00\x00\x00\x00\x00\x00\x00\x00\x00\x00\x00\x00\x00\x00\x00\x00\x00\x00\x00\x00\x00\x00\xf0?\x00\x00\x00\x00\x00\x00\x00\x00\x00\x00\x00\x00\x00\x00\x00\x00\x00\x00\x00\x00\x00\x00\x00\x00\x00\x00\x00\x00\x00\x00\xf0?'
p872
tp873
bsg51
g7
sg52
(dp874
I140396926944272
g837
ssbsg52
(dp875
I140396926945488
g834
ssg51
g7
sbsg243
I2
sg244
g246
sg52
(dp876
I140396926947152
g0
(g122
g2
Ntp877
Rp878
(dp879
g49
I2
sg126
g0
(g127
g2
Ntp880
Rp881
(dp882
g49
I1
sg131
g132
(g133
(I0
tp883
g135
tp884
Rp885
(I1
(I2
tp886
g59
I00
S'\x00\x00\x00\x00\x00\x00\xf0\x7f\x00\x00\x00\x00\x00\x00\xf0\x7f'
p887
tp888
bsg52
(dp889
I140396926947152
g878
ssg142
g132
(g133
(I0
tp890
g135
tp891
Rp892
(I1
(I2
I2
tp893
g59
I00
S'\x00\x00\x00\x00\x00\x00\x00\x00\x00\x00\x00\x00\x00\x00\x00\x00\x00\x00\x00\x00\x00\x00\xf0?\x00\x00\x00\x00\x00\x00\xf0?'
p894
tp895
bsg149
g132
(g133
(I0
tp896
g135
tp897
Rp898
(I1
(I2
I2
tp899
g59
I00
S'\x00\x00\x00\x00\x00\x00\x00\x00\x00\x00\x00\x00\x00\x00\x00\x00\x00\x00\x00\x00\x00\x00\xf0?\x00\x00\x00\x00\x00\x00\xf0?'
p900
tp901
bsg156
I01
sg51
g7
sbsg115
g834
sg149
Nsg52
(dp902
sg51
g7
sbssg51
g7
sbsI140396872042768
g241
sI140396921051472
g0
(g176
g2
Ntp903
Rp904
(dp905
g49
I2
sg180
I2
sg181
g246
sg243
I2
sg244
g0
(g168
g2
Ntp906
Rp907
(dp908
g49
I1
sg120
Nsg172
g159
sg50
Nsg173
(F0.0
F0.08333333333333333
tp909
sg51
g7
sg52
(dp910
I140396921051472
g904
sI140396921053008
g0
(g176
g2
Ntp911
Rp912
(dp913
g49
I2
sg180
I2
sg181
g246
sg243
I2
sg244
g907
sg52
(dp914
sg51
g7
sbsI140396921050448
g0
(g176
g2
Ntp915
Rp916
(dp917
g49
I2
sg180
I2
sg181
g246
sg243
I2
sg244
g907
sg52
(dp918
sg51
g7
sbssbsg52
(dp919
sg51
g7
sbsI140396872042960
g0
(g345
g2
Ntp920
Rp921
(dp922
g49
I2
sg120
Nsg75
g0
(g45
g2
Ntp923
Rp924
(dp925
g49
I1
sg50
Nsg51
g7
sg52
(dp926
I140396872042960
g921
ssbsg76
g246
sg50
Nsg51
g7
sg52
(dp927
sbsI140396926945552
g0
(g176
g2
Ntp928
Rp929
(dp930
g49
I2
sg180
I2
sg181
g0
(g176
g2
Ntp931
Rp932
(dp933
g49
I1
sg180
I2
sg181
g0
(g116
g2
Ntp934
Rp935
(dp936
g49
I1
sg120
Nsg50
Nsg121
g0
(g127
g2
Ntp937
Rp938
(dp939
g49
I1
sg131
g132
(g133
(I0
tp940
g135
tp941
Rp942
(I1
(I2
tp943
g59
I00
S'\x00\x00\x00\x00\x00\x00\xf0\x7f\x00\x00\x00\x00\x00\x00\xf0\x7f'
p944
tp945
bsg52
(dp946
I140396926943376
g935
ssg142
g132
(g133
(I0
tp947
g135
tp948
Rp949
(I1
(I2
I2
tp950
g59
I00
S'\x00\x00\x00\x00\x00\x00\x00\x00\x00\x00\x00\x00\x00\x00\x00\x00\x00\x00\x00\x00\x00\x00\xf0?\x00\x00\x00\x00\x00\x00\xf0?'
p951
tp952
bsg149
g132
(g133
(I0
tp953
g135
tp954
Rp955
(I1
(I2
I2
tp956
g59
I00
S'\x00\x00\x00\x00\x00\x00\x00\x00\x00\x00\x00\x00\x00\x00\x00\x00\x00\x00\x00\x00\x00\x00\xf0?\x00\x00\x00\x00\x00\x00\xf0?'
p957
tp958
bsg156
I01
sg51
g7
sbsg52
(dp959
I140396926946704
g932
ssg51
g7
sbsg243
I2
sg244
g0
(g157
g2
Ntp960
Rp961
(dp962
g49
I2
sg50
Nsg120
g132
(g133
(I0
tp963
g135
tp964
Rp965
(I1
(I3
I3
tp966
g59
I00
S'\x00\x00\x00\x00\x00\x00\xf0?\x00\x00\x00\x00\x00\x00\x00\x00\x00\x00\x00\x00\x00\x00\x00\x00\x00\x00\x00\x00\x00\x00\x00\x00\x00\x00\x00\x00\x00\x00\xf0?\x00\x00\x00\x00\x00\x00\x00\x00\x00\x00\x00\x00\x00\x00\x00\x00\x00\x00\x00\x00\x00\x00\x00\x00\x00\x00\x00\x00\x00\x00\xf0?'
p967
tp968
bsg51
g7
sg52
(dp969
I140396926946704
g932
ssbsg52
(dp970
I140396926945552
g929
ssg51
g7
sbsg243
I2
sg244
g246
sg52
(dp971
I140396926944912
g0
(g122
g2
Ntp972
Rp973
(dp974
g49
I2
sg126
g0
(g127
g2
Ntp975
Rp976
(dp977
g49
I1
sg131
g132
(g133
(I0
tp978
g135
tp979
Rp980
(I1
(I2
tp981
g59
I00
S'\x00\x00\x00\x00\x00\x00\xf0\x7f\x00\x00\x00\x00\x00\x00\xf0\x7f'
p982
tp983
bsg52
(dp984
I140396926944912
g973
ssg142
g132
(g133
(I0
tp985
g135
tp986
Rp987
(I1
(I2
I2
tp988
g59
I00
S'\x00\x00\x00\x00\x00\x00\x00\x00\x00\x00\x00\x00\x00\x00\x00\x00\x00\x00\x00\x00\x00\x00\xf0?\x00\x00\x00\x00\x00\x00\xf0?'
p989
tp990
bsg149
g132
(g133
(I0
tp991
g135
tp992
Rp993
(I1
(I2
I2
tp994
g59
I00
S'\x00\x00\x00\x00\x00\x00\x00\x00\x00\x00\x00\x00\x00\x00\x00\x00\x00\x00\x00\x00\x00\x00\xf0?\x00\x00\x00\x00\x00\x00\xf0?'
p995
tp996
bsg156
I01
sg51
g7
sbsg115
g929
sg149
Nsg52
(dp997
sg51
g7
sbssg51
g7
sbsI140396921051792
g0
(g176
g2
Ntp998
Rp999
(dp1000
g49
I2
sg180
I2
sg181
g0
(g176
g2
Ntp1001
Rp1002
(dp1003
g49
I1
sg180
I2
sg181
g0
(g116
g2
Ntp1004
Rp1005
(dp1006
g49
I1
sg120
Nsg50
Nsg121
g0
(g127
g2
Ntp1007
Rp1008
(dp1009
g49
I1
sg131
g132
(g133
(I0
tp1010
g135
tp1011
Rp1012
(I1
(I2
tp1013
g59
I00
S'\x00\x00\x00\x00\x00\x00\xf0\x7f\x00\x00\x00\x00\x00\x00\xf0\x7f'
p1014
tp1015
bsg52
(dp1016
I140396921051024
g1005
ssg142
g132
(g133
(I0
tp1017
g135
tp1018
Rp1019
(I1
(I2
I2
tp1020
g59
I00
S'\x00\x00\x00\x00\x00\x00\x00\x00\x00\x00\x00\x00\x00\x00\x00\x00\x00\x00\x00\x00\x00\x00\xf0?\x00\x00\x00\x00\x00\x00\xf0?'
p1021
tp1022
bsg149
g132
(g133
(I0
tp1023
g135
tp1024
Rp1025
(I1
(I2
I2
tp1026
g59
I00
S'\x00\x00\x00\x00\x00\x00\x00\x00\x00\x00\x00\x00\x00\x00\x00\x00\x00\x00\x00\x00\x00\x00\xf0?\x00\x00\x00\x00\x00\x00\xf0?'
p1027
tp1028
bsg156
I01
sg51
g7
sbsg52
(dp1029
I140396921051280
g1002
ssg51
g7
sbsg243
I2
sg244
g0
(g157
g2
Ntp1030
Rp1031
(dp1032
g49
I2
sg50
Nsg120
g132
(g133
(I0
tp1033
g135
tp1034
Rp1035
(I1
(I3
I3
tp1036
g59
I00
S'\x00\x00\x00\x00\x00\x00\xf0?\x00\x00\x00\x00\x00\x00\x00\x00\x00\x00\x00\x00\x00\x00\x00\x00\x00\x00\x00\x00\x00\x00\x00\x00\x00\x00\x00\x00\x00\x00\xf0?\x00\x00\x00\x00\x00\x00\x00\x00\x00\x00\x00\x00\x00\x00\x00\x00\x00\x00\x00\x00\x00\x00\x00\x00\x00\x00\x00\x00\x00\x00\xf0?'
p1037
tp1038
bsg51
g7
sg52
(dp1039
I140396921051280
g1002
ssbsg52
(dp1040
I140396921051792
g999
ssg51
g7
sbsg243
I2
sg244
g246
sg52
(dp1041
I140396919627344
g0
(g122
g2
Ntp1042
Rp1043
(dp1044
g49
I2
sg126
g0
(g127
g2
Ntp1045
Rp1046
(dp1047
g49
I1
sg131
g132
(g133
(I0
tp1048
g135
tp1049
Rp1050
(I1
(I2
tp1051
g59
I00
S'\x00\x00\x00\x00\x00\x00\xf0\x7f\x00\x00\x00\x00\x00\x00\xf0\x7f'
p1052
tp1053
bsg52
(dp1054
I140396919627344
g1043
ssg142
g132
(g133
(I0
tp1055
g135
tp1056
Rp1057
(I1
(I2
I2
tp1058
g59
I00
S'\x00\x00\x00\x00\x00\x00\x00\x00\x00\x00\x00\x00\x00\x00\x00\x00\x00\x00\x00\x00\x00\x00\xf0?\x00\x00\x00\x00\x00\x00\xf0?'
p1059
tp1060
bsg149
g132
(g133
(I0
tp1061
g135
tp1062
Rp1063
(I1
(I2
I2
tp1064
g59
I00
S'\x00\x00\x00\x00\x00\x00\x00\x00\x00\x00\x00\x00\x00\x00\x00\x00\x00\x00\x00\x00\x00\x00\xf0?\x00\x00\x00\x00\x00\x00\xf0?'
p1065
tp1066
bsg156
I01
sg51
g7
sbsg115
g999
sg149
Nsg52
(dp1067
sg51
g7
sbssg51
g7
sbsI140396867791760
g0
(g176
g2
Ntp1068
Rp1069
(dp1070
g49
I2
sg180
I2
sg181
g0
(g176
g2
Ntp1071
Rp1072
(dp1073
g49
I1
sg180
I2
sg181
g0
(g116
g2
Ntp1074
Rp1075
(dp1076
g49
I1
sg120
Nsg50
Nsg121
g0
(g127
g2
Ntp1077
Rp1078
(dp1079
g49
I1
sg131
g132
(g133
(I0
tp1080
g135
tp1081
Rp1082
(I1
(I2
tp1083
g59
I00
S'\x00\x00\x00\x00\x00\x00\xf0\x7f\x00\x00\x00\x00\x00\x00\xf0\x7f'
p1084
tp1085
bsg52
(dp1086
I140396926224336
g1075
ssg142
g132
(g133
(I0
tp1087
g135
tp1088
Rp1089
(I1
(I2
I2
tp1090
g59
I00
S'\x00\x00\x00\x00\x00\x00\x00\x00\x00\x00\x00\x00\x00\x00\x00\x00\x00\x00\x00\x00\x00\x00\xf0?\x00\x00\x00\x00\x00\x00\xf0?'
p1091
tp1092
bsg149
g132
(g133
(I0
tp1093
g135
tp1094
Rp1095
(I1
(I2
I2
tp1096
g59
I00
S'\x00\x00\x00\x00\x00\x00\x00\x00\x00\x00\x00\x00\x00\x00\x00\x00\x00\x00\x00\x00\x00\x00\xf0?\x00\x00\x00\x00\x00\x00\xf0?'
p1097
tp1098
bsg156
I01
sg51
g7
sbsg52
(dp1099
I140396867791824
g1072
ssg51
g7
sbsg243
I2
sg244
g0
(g157
g2
Ntp1100
Rp1101
(dp1102
g49
I2
sg50
Nsg120
g132
(g133
(I0
tp1103
g135
tp1104
Rp1105
(I1
(I3
I3
tp1106
g59
I00
S'\x00\x00\x00\x00\x00\x00\xf0?\x00\x00\x00\x00\x00\x00\x00\x00\x00\x00\x00\x00\x00\x00\x00\x00\x00\x00\x00\x00\x00\x00\x00\x00\x00\x00\x00\x00\x00\x00\xf0?\x00\x00\x00\x00\x00\x00\x00\x00\x00\x00\x00\x00\x00\x00\x00\x00\x00\x00\x00\x00\x00\x00\x00\x00\x00\x00\x00\x00\x00\x00\xf0?'
p1107
tp1108
bsg51
g7
sg52
(dp1109
I140396867791824
g1072
ssbsg52
(dp1110
I140396867791760
g1069
ssg51
g7
sbsg243
I2
sg244
g246
sg52
(dp1111
I140396884100880
g0
(g122
g2
Ntp1112
Rp1113
(dp1114
g49
I2
sg126
g0
(g127
g2
Ntp1115
Rp1116
(dp1117
g49
I1
sg131
g132
(g133
(I0
tp1118
g135
tp1119
Rp1120
(I1
(I2
tp1121
g59
I00
S'\x00\x00\x00\x00\x00\x00\xf0\x7f\x00\x00\x00\x00\x00\x00\xf0\x7f'
p1122
tp1123
bsg52
(dp1124
I140396884100880
g1113
ssg142
g132
(g133
(I0
tp1125
g135
tp1126
Rp1127
(I1
(I2
I2
tp1128
g59
I00
S'\x00\x00\x00\x00\x00\x00\x00\x00\x00\x00\x00\x00\x00\x00\x00\x00\x00\x00\x00\x00\x00\x00\xf0?\x00\x00\x00\x00\x00\x00\xf0?'
p1129
tp1130
bsg149
g132
(g133
(I0
tp1131
g135
tp1132
Rp1133
(I1
(I2
I2
tp1134
g59
I00
S'\x00\x00\x00\x00\x00\x00\x00\x00\x00\x00\x00\x00\x00\x00\x00\x00\x00\x00\x00\x00\x00\x00\xf0?\x00\x00\x00\x00\x00\x00\xf0?'
p1135
tp1136
bsg156
I01
sg51
g7
sbsg115
g1069
sg149
Nsg52
(dp1137
sg51
g7
sbssg51
g7
sbsI140396926946384
g0
(g176
g2
Ntp1138
Rp1139
(dp1140
g49
I2
sg180
I2
sg181
g0
(g176
g2
Ntp1141
Rp1142
(dp1143
g49
I1
sg180
I2
sg181
g0
(g116
g2
Ntp1144
Rp1145
(dp1146
g49
I1
sg120
Nsg50
Nsg121
g0
(g127
g2
Ntp1147
Rp1148
(dp1149
g49
I1
sg131
g132
(g133
(I0
tp1150
g135
tp1151
Rp1152
(I1
(I2
tp1153
g59
I00
S'\x00\x00\x00\x00\x00\x00\xf0\x7f\x00\x00\x00\x00\x00\x00\xf0\x7f'
p1154
tp1155
bsg52
(dp1156
I140396926944400
g1145
ssg142
g132
(g133
(I0
tp1157
g135
tp1158
Rp1159
(I1
(I2
I2
tp1160
g59
I00
S'\x00\x00\x00\x00\x00\x00\x00\x00\x00\x00\x00\x00\x00\x00\x00\x00\x00\x00\x00\x00\x00\x00\xf0?\x00\x00\x00\x00\x00\x00\xf0?'
p1161
tp1162
bsg149
g132
(g133
(I0
tp1163
g135
tp1164
Rp1165
(I1
(I2
I2
tp1166
g59
I00
S'\x00\x00\x00\x00\x00\x00\x00\x00\x00\x00\x00\x00\x00\x00\x00\x00\x00\x00\x00\x00\x00\x00\xf0?\x00\x00\x00\x00\x00\x00\xf0?'
p1167
tp1168
bsg156
I01
sg51
g7
sbsg52
(dp1169
I140396926944976
g1142
ssg51
g7
sbsg243
I2
sg244
g0
(g157
g2
Ntp1170
Rp1171
(dp1172
g49
I2
sg50
Nsg120
g132
(g133
(I0
tp1173
g135
tp1174
Rp1175
(I1
(I3
I3
tp1176
g59
I00
S'\x00\x00\x00\x00\x00\x00\xf0?\x00\x00\x00\x00\x00\x00\x00\x00\x00\x00\x00\x00\x00\x00\x00\x00\x00\x00\x00\x00\x00\x00\x00\x00\x00\x00\x00\x00\x00\x00\xf0?\x00\x00\x00\x00\x00\x00\x00\x00\x00\x00\x00\x00\x00\x00\x00\x00\x00\x00\x00\x00\x00\x00\x00\x00\x00\x00\x00\x00\x00\x00\xf0?'
p1177
tp1178
bsg51
g7
sg52
(dp1179
I140396926944976
g1142
ssbsg52
(dp1180
I140396926946384
g1139
ssg51
g7
sbsg243
I2
sg244
g246
sg52
(dp1181
I140396926944208
g0
(g122
g2
Ntp1182
Rp1183
(dp1184
g49
I2
sg126
g0
(g127
g2
Ntp1185
Rp1186
(dp1187
g49
I1
sg131
g132
(g133
(I0
tp1188
g135
tp1189
Rp1190
(I1
(I2
tp1191
g59
I00
S'\x00\x00\x00\x00\x00\x00\xf0\x7f\x00\x00\x00\x00\x00\x00\xf0\x7f'
p1192
tp1193
bsg52
(dp1194
I140396926944208
g1183
ssg142
g132
(g133
(I0
tp1195
g135
tp1196
Rp1197
(I1
(I2
I2
tp1198
g59
I00
S'\x00\x00\x00\x00\x00\x00\x00\x00\x00\x00\x00\x00\x00\x00\x00\x00\x00\x00\x00\x00\x00\x00\xf0?\x00\x00\x00\x00\x00\x00\xf0?'
p1199
tp1200
bsg149
g132
(g133
(I0
tp1201
g135
tp1202
Rp1203
(I1
(I2
I2
tp1204
g59
I00
S'\x00\x00\x00\x00\x00\x00\x00\x00\x00\x00\x00\x00\x00\x00\x00\x00\x00\x00\x00\x00\x00\x00\xf0?\x00\x00\x00\x00\x00\x00\xf0?'
p1205
tp1206
bsg156
I01
sg51
g7
sbsg115
g1139
sg149
Nsg52
(dp1207
sg51
g7
sbssg51
g7
sbsI140396921052368
g0
(g176
g2
Ntp1208
Rp1209
(dp1210
g49
I2
sg180
I2
sg181
g0
(g176
g2
Ntp1211
Rp1212
(dp1213
g49
I1
sg180
I2
sg181
g0
(g116
g2
Ntp1214
Rp1215
(dp1216
g49
I1
sg120
Nsg50
Nsg121
g0
(g127
g2
Ntp1217
Rp1218
(dp1219
g49
I1
sg131
g132
(g133
(I0
tp1220
g135
tp1221
Rp1222
(I1
(I2
tp1223
g59
I00
S'\x00\x00\x00\x00\x00\x00\xf0\x7f\x00\x00\x00\x00\x00\x00\xf0\x7f'
p1224
tp1225
bsg52
(dp1226
I140396921051984
g1215
ssg142
g132
(g133
(I0
tp1227
g135
tp1228
Rp1229
(I1
(I2
I2
tp1230
g59
I00
S'\x00\x00\x00\x00\x00\x00\x00\x00\x00\x00\x00\x00\x00\x00\x00\x00\x00\x00\x00\x00\x00\x00\xf0?\x00\x00\x00\x00\x00\x00\xf0?'
p1231
tp1232
bsg149
g132
(g133
(I0
tp1233
g135
tp1234
Rp1235
(I1
(I2
I2
tp1236
g59
I00
S'\x00\x00\x00\x00\x00\x00\x00\x00\x00\x00\x00\x00\x00\x00\x00\x00\x00\x00\x00\x00\x00\x00\xf0?\x00\x00\x00\x00\x00\x00\xf0?'
p1237
tp1238
bsg156
I01
sg51
g7
sbsg52
(dp1239
I140396921050832
g1212
ssg51
g7
sbsg243
I2
sg244
g0
(g157
g2
Ntp1240
Rp1241
(dp1242
g49
I2
sg50
Nsg120
g132
(g133
(I0
tp1243
g135
tp1244
Rp1245
(I1
(I3
I3
tp1246
g59
I00
S'\x00\x00\x00\x00\x00\x00\xf0?\x00\x00\x00\x00\x00\x00\x00\x00\x00\x00\x00\x00\x00\x00\x00\x00\x00\x00\x00\x00\x00\x00\x00\x00\x00\x00\x00\x00\x00\x00\xf0?\x00\x00\x00\x00\x00\x00\x00\x00\x00\x00\x00\x00\x00\x00\x00\x00\x00\x00\x00\x00\x00\x00\x00\x00\x00\x00\x00\x00\x00\x00\xf0?'
p1247
tp1248
bsg51
g7
sg52
(dp1249
I140396921050832
g1212
ssbsg52
(dp1250
I140396921052368
g1209
ssg51
g7
sbsg243
I2
sg244
g246
sg52
(dp1251
I140396921051600
g0
(g122
g2
Ntp1252
Rp1253
(dp1254
g49
I2
sg126
g0
(g127
g2
Ntp1255
Rp1256
(dp1257
g49
I1
sg131
g132
(g133
(I0
tp1258
g135
tp1259
Rp1260
(I1
(I2
tp1261
g59
I00
S'\x00\x00\x00\x00\x00\x00\xf0\x7f\x00\x00\x00\x00\x00\x00\xf0\x7f'
p1262
tp1263
bsg52
(dp1264
I140396921051600
g1253
ssg142
g132
(g133
(I0
tp1265
g135
tp1266
Rp1267
(I1
(I2
I2
tp1268
g59
I00
S'\x00\x00\x00\x00\x00\x00\x00\x00\x00\x00\x00\x00\x00\x00\x00\x00\x00\x00\x00\x00\x00\x00\xf0?\x00\x00\x00\x00\x00\x00\xf0?'
p1269
tp1270
bsg149
g132
(g133
(I0
tp1271
g135
tp1272
Rp1273
(I1
(I2
I2
tp1274
g59
I00
S'\x00\x00\x00\x00\x00\x00\x00\x00\x00\x00\x00\x00\x00\x00\x00\x00\x00\x00\x00\x00\x00\x00\xf0?\x00\x00\x00\x00\x00\x00\xf0?'
p1275
tp1276
bsg156
I01
sg51
g7
sbsg115
g1209
sg149
Nsg52
(dp1277
sg51
g7
sbssg51
g7
sbsI140396919625552
g0
(g176
g2
Ntp1278
Rp1279
(dp1280
g49
I2
sg180
I2
sg181
g0
(g176
g2
Ntp1281
Rp1282
(dp1283
g49
I1
sg180
I2
sg181
g0
(g116
g2
Ntp1284
Rp1285
(dp1286
g49
I1
sg120
Nsg50
Nsg121
g0
(g127
g2
Ntp1287
Rp1288
(dp1289
g49
I1
sg131
g132
(g133
(I0
tp1290
g135
tp1291
Rp1292
(I1
(I2
tp1293
g59
I00
S'\x00\x00\x00\x00\x00\x00\xf0\x7f\x00\x00\x00\x00\x00\x00\xf0\x7f'
p1294
tp1295
bsg52
(dp1296
I140396919627664
g1285
ssg142
g132
(g133
(I0
tp1297
g135
tp1298
Rp1299
(I1
(I2
I2
tp1300
g59
I00
S'\x00\x00\x00\x00\x00\x00\x00\x00\x00\x00\x00\x00\x00\x00\x00\x00\x00\x00\x00\x00\x00\x00\xf0?\x00\x00\x00\x00\x00\x00\xf0?'
p1301
tp1302
bsg149
g132
(g133
(I0
tp1303
g135
tp1304
Rp1305
(I1
(I2
I2
tp1306
g59
I00
S'\x00\x00\x00\x00\x00\x00\x00\x00\x00\x00\x00\x00\x00\x00\x00\x00\x00\x00\x00\x00\x00\x00\xf0?\x00\x00\x00\x00\x00\x00\xf0?'
p1307
tp1308
bsg156
I01
sg51
g7
sbsg52
(dp1309
I140396919625488
g1282
ssg51
g7
sbsg243
I2
sg244
g0
(g157
g2
Ntp1310
Rp1311
(dp1312
g49
I2
sg50
Nsg120
g132
(g133
(I0
tp1313
g135
tp1314
Rp1315
(I1
(I3
I3
tp1316
g59
I00
S'\x00\x00\x00\x00\x00\x00\xf0?\x00\x00\x00\x00\x00\x00\x00\x00\x00\x00\x00\x00\x00\x00\x00\x00\x00\x00\x00\x00\x00\x00\x00\x00\x00\x00\x00\x00\x00\x00\xf0?\x00\x00\x00\x00\x00\x00\x00\x00\x00\x00\x00\x00\x00\x00\x00\x00\x00\x00\x00\x00\x00\x00\x00\x00\x00\x00\x00\x00\x00\x00\xf0?'
p1317
tp1318
bsg51
g7
sg52
(dp1319
I140396919625488
g1282
ssbsg52
(dp1320
I140396919625552
g1279
ssg51
g7
sbsg243
I2
sg244
g246
sg52
(dp1321
I140396919626256
g0
(g122
g2
Ntp1322
Rp1323
(dp1324
g49
I2
sg126
g0
(g127
g2
Ntp1325
Rp1326
(dp1327
g49
I1
sg131
g132
(g133
(I0
tp1328
g135
tp1329
Rp1330
(I1
(I2
tp1331
g59
I00
S'\x00\x00\x00\x00\x00\x00\xf0\x7f\x00\x00\x00\x00\x00\x00\xf0\x7f'
p1332
tp1333
bsg52
(dp1334
I140396919626256
g1323
ssg142
g132
(g133
(I0
tp1335
g135
tp1336
Rp1337
(I1
(I2
I2
tp1338
g59
I00
S'\x00\x00\x00\x00\x00\x00\x00\x00\x00\x00\x00\x00\x00\x00\x00\x00\x00\x00\x00\x00\x00\x00\xf0?\x00\x00\x00\x00\x00\x00\xf0?'
p1339
tp1340
bsg149
g132
(g133
(I0
tp1341
g135
tp1342
Rp1343
(I1
(I2
I2
tp1344
g59
I00
S'\x00\x00\x00\x00\x00\x00\x00\x00\x00\x00\x00\x00\x00\x00\x00\x00\x00\x00\x00\x00\x00\x00\xf0?\x00\x00\x00\x00\x00\x00\xf0?'
p1345
tp1346
bsg156
I01
sg51
g7
sbsg115
g1279
sg149
Nsg52
(dp1347
sg51
g7
sbssg51
g7
sbsI140396919627216
g0
(g176
g2
Ntp1348
Rp1349
(dp1350
g49
I2
sg180
I2
sg181
g0
(g176
g2
Ntp1351
Rp1352
(dp1353
g49
I1
sg180
I2
sg181
g0
(g116
g2
Ntp1354
Rp1355
(dp1356
g49
I1
sg120
Nsg50
Nsg121
g0
(g127
g2
Ntp1357
Rp1358
(dp1359
g49
I1
sg131
g132
(g133
(I0
tp1360
g135
tp1361
Rp1362
(I1
(I2
tp1363
g59
I00
S'\x00\x00\x00\x00\x00\x00\xf0\x7f\x00\x00\x00\x00\x00\x00\xf0\x7f'
p1364
tp1365
bsg52
(dp1366
I140396919626448
g1355
ssg142
g132
(g133
(I0
tp1367
g135
tp1368
Rp1369
(I1
(I2
I2
tp1370
g59
I00
S'\x00\x00\x00\x00\x00\x00\x00\x00\x00\x00\x00\x00\x00\x00\x00\x00\x00\x00\x00\x00\x00\x00\xf0?\x00\x00\x00\x00\x00\x00\xf0?'
p1371
tp1372
bsg149
g132
(g133
(I0
tp1373
g135
tp1374
Rp1375
(I1
(I2
I2
tp1376
g59
I00
S'\x00\x00\x00\x00\x00\x00\x00\x00\x00\x00\x00\x00\x00\x00\x00\x00\x00\x00\x00\x00\x00\x00\xf0?\x00\x00\x00\x00\x00\x00\xf0?'
p1377
tp1378
bsg156
I01
sg51
g7
sbsg52
(dp1379
I140396919627472
g1352
ssg51
g7
sbsg243
I2
sg244
g0
(g157
g2
Ntp1380
Rp1381
(dp1382
g49
I2
sg50
Nsg120
g132
(g133
(I0
tp1383
g135
tp1384
Rp1385
(I1
(I3
I3
tp1386
g59
I00
S'\x00\x00\x00\x00\x00\x00\xf0?\x00\x00\x00\x00\x00\x00\x00\x00\x00\x00\x00\x00\x00\x00\x00\x00\x00\x00\x00\x00\x00\x00\x00\x00\x00\x00\x00\x00\x00\x00\xf0?\x00\x00\x00\x00\x00\x00\x00\x00\x00\x00\x00\x00\x00\x00\x00\x00\x00\x00\x00\x00\x00\x00\x00\x00\x00\x00\x00\x00\x00\x00\xf0?'
p1387
tp1388
bsg51
g7
sg52
(dp1389
I140396919627472
g1352
ssbsg52
(dp1390
I140396919627216
g1349
ssg51
g7
sbsg243
I2
sg244
g246
sg52
(dp1391
I140396919625232
g0
(g122
g2
Ntp1392
Rp1393
(dp1394
g49
I2
sg126
g0
(g127
g2
Ntp1395
Rp1396
(dp1397
g49
I1
sg131
g132
(g133
(I0
tp1398
g135
tp1399
Rp1400
(I1
(I2
tp1401
g59
I00
S'\x00\x00\x00\x00\x00\x00\xf0\x7f\x00\x00\x00\x00\x00\x00\xf0\x7f'
p1402
tp1403
bsg52
(dp1404
I140396919625232
g1393
ssg142
g132
(g133
(I0
tp1405
g135
tp1406
Rp1407
(I1
(I2
I2
tp1408
g59
I00
S'\x00\x00\x00\x00\x00\x00\x00\x00\x00\x00\x00\x00\x00\x00\x00\x00\x00\x00\x00\x00\x00\x00\xf0?\x00\x00\x00\x00\x00\x00\xf0?'
p1409
tp1410
bsg149
g132
(g133
(I0
tp1411
g135
tp1412
Rp1413
(I1
(I2
I2
tp1414
g59
I00
S'\x00\x00\x00\x00\x00\x00\x00\x00\x00\x00\x00\x00\x00\x00\x00\x00\x00\x00\x00\x00\x00\x00\xf0?\x00\x00\x00\x00\x00\x00\xf0?'
p1415
tp1416
bsg156
I01
sg51
g7
sbsg115
g1349
sg149
Nsg52
(dp1417
sg51
g7
sbssg51
g7
sbsI140396872044048
g0
(g345
g2
Ntp1418
Rp1419
(dp1420
g49
I2
sg120
Nsg75
g0
(g45
g2
Ntp1421
Rp1422
(dp1423
g49
I1
sg50
Nsg51
g7
sg52
(dp1424
I140396872044048
g1419
ssbsg76
g246
sg50
Nsg51
g7
sg52
(dp1425
sbsI140396924346128
g0
(g176
g2
Ntp1426
Rp1427
(dp1428
g49
I2
sg180
I2
sg181
g0
(g176
g2
Ntp1429
Rp1430
(dp1431
g49
I1
sg180
I2
sg181
g0
(g116
g2
Ntp1432
Rp1433
(dp1434
g49
I1
sg120
Nsg50
Nsg121
g0
(g127
g2
Ntp1435
Rp1436
(dp1437
g49
I1
sg131
g132
(g133
(I0
tp1438
g135
tp1439
Rp1440
(I1
(I2
tp1441
g59
I00
S'\x00\x00\x00\x00\x00\x00\xf0\x7f\x00\x00\x00\x00\x00\x00\xf0\x7f'
p1442
tp1443
bsg52
(dp1444
I140396924343760
g1433
ssg142
g132
(g133
(I0
tp1445
g135
tp1446
Rp1447
(I1
(I2
I2
tp1448
g59
I00
S'\x00\x00\x00\x00\x00\x00\x00\x00\x00\x00\x00\x00\x00\x00\x00\x00\x00\x00\x00\x00\x00\x00\xf0?\x00\x00\x00\x00\x00\x00\xf0?'
p1449
tp1450
bsg149
g132
(g133
(I0
tp1451
g135
tp1452
Rp1453
(I1
(I2
I2
tp1454
g59
I00
S'\x00\x00\x00\x00\x00\x00\x00\x00\x00\x00\x00\x00\x00\x00\x00\x00\x00\x00\x00\x00\x00\x00\xf0?\x00\x00\x00\x00\x00\x00\xf0?'
p1455
tp1456
bsg156
I01
sg51
g7
sbsg52
(dp1457
I140396924344208
g1430
ssg51
g7
sbsg243
I2
sg244
g0
(g157
g2
Ntp1458
Rp1459
(dp1460
g49
I2
sg50
Nsg120
g132
(g133
(I0
tp1461
g135
tp1462
Rp1463
(I1
(I3
I3
tp1464
g59
I00
S'\x00\x00\x00\x00\x00\x00\xf0?\x00\x00\x00\x00\x00\x00\x00\x00\x00\x00\x00\x00\x00\x00\x00\x00\x00\x00\x00\x00\x00\x00\x00\x00\x00\x00\x00\x00\x00\x00\xf0?\x00\x00\x00\x00\x00\x00\x00\x00\x00\x00\x00\x00\x00\x00\x00\x00\x00\x00\x00\x00\x00\x00\x00\x00\x00\x00\x00\x00\x00\x00\xf0?'
p1465
tp1466
bsg51
g7
sg52
(dp1467
I140396924344208
g1430
ssbsg52
(dp1468
I140396924346128
g1427
ssg51
g7
sbsg243
I2
sg244
g246
sg52
(dp1469
I140396924344720
g0
(g122
g2
Ntp1470
Rp1471
(dp1472
g49
I2
sg126
g0
(g127
g2
Ntp1473
Rp1474
(dp1475
g49
I1
sg131
g132
(g133
(I0
tp1476
g135
tp1477
Rp1478
(I1
(I2
tp1479
g59
I00
S'\x00\x00\x00\x00\x00\x00\xf0\x7f\x00\x00\x00\x00\x00\x00\xf0\x7f'
p1480
tp1481
bsg52
(dp1482
I140396924344720
g1471
ssg142
g132
(g133
(I0
tp1483
g135
tp1484
Rp1485
(I1
(I2
I2
tp1486
g59
I00
S'\x00\x00\x00\x00\x00\x00\x00\x00\x00\x00\x00\x00\x00\x00\x00\x00\x00\x00\x00\x00\x00\x00\xf0?\x00\x00\x00\x00\x00\x00\xf0?'
p1487
tp1488
bsg149
g132
(g133
(I0
tp1489
g135
tp1490
Rp1491
(I1
(I2
I2
tp1492
g59
I00
S'\x00\x00\x00\x00\x00\x00\x00\x00\x00\x00\x00\x00\x00\x00\x00\x00\x00\x00\x00\x00\x00\x00\xf0?\x00\x00\x00\x00\x00\x00\xf0?'
p1493
tp1494
bsg156
I01
sg51
g7
sbsg115
g1427
sg149
Nsg52
(dp1495
sg51
g7
sbssg51
g7
sbsI140396921053008
g912
sI140396926944592
g0
(g176
g2
Ntp1496
Rp1497
(dp1498
g49
I2
sg180
I2
sg181
g0
(g176
g2
Ntp1499
Rp1500
(dp1501
g49
I1
sg180
I2
sg181
g0
(g116
g2
Ntp1502
Rp1503
(dp1504
g49
I1
sg120
Nsg50
Nsg121
g0
(g127
g2
Ntp1505
Rp1506
(dp1507
g49
I1
sg131
g132
(g133
(I0
tp1508
g135
tp1509
Rp1510
(I1
(I2
tp1511
g59
I00
S'\x00\x00\x00\x00\x00\x00\xf0\x7f\x00\x00\x00\x00\x00\x00\xf0\x7f'
p1512
tp1513
bsg52
(dp1514
I140396926944848
g1503
ssg142
g132
(g133
(I0
tp1515
g135
tp1516
Rp1517
(I1
(I2
I2
tp1518
g59
I00
S'\x00\x00\x00\x00\x00\x00\x00\x00\x00\x00\x00\x00\x00\x00\x00\x00\x00\x00\x00\x00\x00\x00\xf0?\x00\x00\x00\x00\x00\x00\xf0?'
p1519
tp1520
bsg149
g132
(g133
(I0
tp1521
g135
tp1522
Rp1523
(I1
(I2
I2
tp1524
g59
I00
S'\x00\x00\x00\x00\x00\x00\x00\x00\x00\x00\x00\x00\x00\x00\x00\x00\x00\x00\x00\x00\x00\x00\xf0?\x00\x00\x00\x00\x00\x00\xf0?'
p1525
tp1526
bsg156
I01
sg51
g7
sbsg52
(dp1527
I140396926946640
g1500
ssg51
g7
sbsg243
I2
sg244
g0
(g157
g2
Ntp1528
Rp1529
(dp1530
g49
I2
sg50
Nsg120
g132
(g133
(I0
tp1531
g135
tp1532
Rp1533
(I1
(I3
I3
tp1534
g59
I00
S'\x00\x00\x00\x00\x00\x00\xf0?\x00\x00\x00\x00\x00\x00\x00\x00\x00\x00\x00\x00\x00\x00\x00\x00\x00\x00\x00\x00\x00\x00\x00\x00\x00\x00\x00\x00\x00\x00\xf0?\x00\x00\x00\x00\x00\x00\x00\x00\x00\x00\x00\x00\x00\x00\x00\x00\x00\x00\x00\x00\x00\x00\x00\x00\x00\x00\x00\x00\x00\x00\xf0?'
p1535
tp1536
bsg51
g7
sg52
(dp1537
I140396926946640
g1500
ssbsg52
(dp1538
I140396926944592
g1497
ssg51
g7
sbsg243
I2
sg244
g246
sg52
(dp1539
I140396926947280
g0
(g122
g2
Ntp1540
Rp1541
(dp1542
g49
I2
sg126
g0
(g127
g2
Ntp1543
Rp1544
(dp1545
g49
I1
sg131
g132
(g133
(I0
tp1546
g135
tp1547
Rp1548
(I1
(I2
tp1549
g59
I00
S'\x00\x00\x00\x00\x00\x00\xf0\x7f\x00\x00\x00\x00\x00\x00\xf0\x7f'
p1550
tp1551
bsg52
(dp1552
I140396926947280
g1541
ssg142
g132
(g133
(I0
tp1553
g135
tp1554
Rp1555
(I1
(I2
I2
tp1556
g59
I00
S'\x00\x00\x00\x00\x00\x00\x00\x00\x00\x00\x00\x00\x00\x00\x00\x00\x00\x00\x00\x00\x00\x00\xf0?\x00\x00\x00\x00\x00\x00\xf0?'
p1557
tp1558
bsg149
g132
(g133
(I0
tp1559
g135
tp1560
Rp1561
(I1
(I2
I2
tp1562
g59
I00
S'\x00\x00\x00\x00\x00\x00\x00\x00\x00\x00\x00\x00\x00\x00\x00\x00\x00\x00\x00\x00\x00\x00\xf0?\x00\x00\x00\x00\x00\x00\xf0?'
p1563
tp1564
bsg156
I01
sg51
g7
sbsg115
g1497
sg149
Nsg52
(dp1565
sg51
g7
sbssg51
g7
sbsI140396869509456
g0
(g345
g2
Ntp1566
Rp1567
(dp1568
g49
I2
sg120
Nsg75
g0
(g45
g2
Ntp1569
Rp1570
(dp1571
g49
I1
sg50
Nsg51
g7
sg52
(dp1572
I140396869509456
g1567
ssbsg76
g246
sg50
Nsg51
g7
sg52
(dp1573
sbsI140396867789136
g0
(g176
g2
Ntp1574
Rp1575
(dp1576
g49
I2
sg180
I2
sg181
g0
(g176
g2
Ntp1577
Rp1578
(dp1579
g49
I1
sg180
I2
sg181
g0
(g116
g2
Ntp1580
Rp1581
(dp1582
g49
I1
sg120
Nsg50
Nsg121
g0
(g127
g2
Ntp1583
Rp1584
(dp1585
g49
I1
sg131
g132
(g133
(I0
tp1586
g135
tp1587
Rp1588
(I1
(I2
tp1589
g59
I00
S'\x00\x00\x00\x00\x00\x00\xf0\x7f\x00\x00\x00\x00\x00\x00\xf0\x7f'
p1590
tp1591
bsg52
(dp1592
I140396867792720
g1581
ssg142
g132
(g133
(I0
tp1593
g135
tp1594
Rp1595
(I1
(I2
I2
tp1596
g59
I00
S'\x00\x00\x00\x00\x00\x00\x00\x00\x00\x00\x00\x00\x00\x00\x00\x00\x00\x00\x00\x00\x00\x00\xf0?\x00\x00\x00\x00\x00\x00\xf0?'
p1597
tp1598
bsg149
g132
(g133
(I0
tp1599
g135
tp1600
Rp1601
(I1
(I2
I2
tp1602
g59
I00
S'\x00\x00\x00\x00\x00\x00\x00\x00\x00\x00\x00\x00\x00\x00\x00\x00\x00\x00\x00\x00\x00\x00\xf0?\x00\x00\x00\x00\x00\x00\xf0?'
p1603
tp1604
bsg156
I01
sg51
g7
sbsg52
(dp1605
I140396867791056
g1578
ssg51
g7
sbsg243
I2
sg244
g0
(g157
g2
Ntp1606
Rp1607
(dp1608
g49
I2
sg50
Nsg120
g132
(g133
(I0
tp1609
g135
tp1610
Rp1611
(I1
(I3
I3
tp1612
g59
I00
S'\x00\x00\x00\x00\x00\x00\xf0?\x00\x00\x00\x00\x00\x00\x00\x00\x00\x00\x00\x00\x00\x00\x00\x00\x00\x00\x00\x00\x00\x00\x00\x00\x00\x00\x00\x00\x00\x00\xf0?\x00\x00\x00\x00\x00\x00\x00\x00\x00\x00\x00\x00\x00\x00\x00\x00\x00\x00\x00\x00\x00\x00\x00\x00\x00\x00\x00\x00\x00\x00\xf0?'
p1613
tp1614
bsg51
g7
sg52
(dp1615
I140396867791056
g1578
ssbsg52
(dp1616
I140396867789136
g1575
ssg51
g7
sbsg243
I2
sg244
g246
sg52
(dp1617
I140396867790352
g0
(g122
g2
Ntp1618
Rp1619
(dp1620
g49
I2
sg126
g0
(g127
g2
Ntp1621
Rp1622
(dp1623
g49
I1
sg131
g132
(g133
(I0
tp1624
g135
tp1625
Rp1626
(I1
(I2
tp1627
g59
I00
S'\x00\x00\x00\x00\x00\x00\xf0\x7f\x00\x00\x00\x00\x00\x00\xf0\x7f'
p1628
tp1629
bsg52
(dp1630
I140396867790352
g1619
ssg142
g132
(g133
(I0
tp1631
g135
tp1632
Rp1633
(I1
(I2
I2
tp1634
g59
I00
S'\x00\x00\x00\x00\x00\x00\x00\x00\x00\x00\x00\x00\x00\x00\x00\x00\x00\x00\x00\x00\x00\x00\xf0?\x00\x00\x00\x00\x00\x00\xf0?'
p1635
tp1636
bsg149
g132
(g133
(I0
tp1637
g135
tp1638
Rp1639
(I1
(I2
I2
tp1640
g59
I00
S'\x00\x00\x00\x00\x00\x00\x00\x00\x00\x00\x00\x00\x00\x00\x00\x00\x00\x00\x00\x00\x00\x00\xf0?\x00\x00\x00\x00\x00\x00\xf0?'
p1641
tp1642
bsg156
I01
sg51
g7
sbsg115
g1575
sg149
Nsg52
(dp1643
sg51
g7
sbssg51
g7
sbsI140396919624080
g0
(g176
g2
Ntp1644
Rp1645
(dp1646
g49
I2
sg180
I2
sg181
g0
(g176
g2
Ntp1647
Rp1648
(dp1649
g49
I1
sg180
I2
sg181
g0
(g116
g2
Ntp1650
Rp1651
(dp1652
g49
I1
sg120
Nsg50
Nsg121
g0
(g127
g2
Ntp1653
Rp1654
(dp1655
g49
I1
sg131
g132
(g133
(I0
tp1656
g135
tp1657
Rp1658
(I1
(I2
tp1659
g59
I00
S'\x00\x00\x00\x00\x00\x00\xf0\x7f\x00\x00\x00\x00\x00\x00\xf0\x7f'
p1660
tp1661
bsg52
(dp1662
I140396919624976
g1651
ssg142
g132
(g133
(I0
tp1663
g135
tp1664
Rp1665
(I1
(I2
I2
tp1666
g59
I00
S'\x00\x00\x00\x00\x00\x00\x00\x00\x00\x00\x00\x00\x00\x00\x00\x00\x00\x00\x00\x00\x00\x00\xf0?\x00\x00\x00\x00\x00\x00\xf0?'
p1667
tp1668
bsg149
g132
(g133
(I0
tp1669
g135
tp1670
Rp1671
(I1
(I2
I2
tp1672
g59
I00
S'\x00\x00\x00\x00\x00\x00\x00\x00\x00\x00\x00\x00\x00\x00\x00\x00\x00\x00\x00\x00\x00\x00\xf0?\x00\x00\x00\x00\x00\x00\xf0?'
p1673
tp1674
bsg156
I01
sg51
g7
sbsg52
(dp1675
I140396919626576
g1648
ssg51
g7
sbsg243
I2
sg244
g0
(g157
g2
Ntp1676
Rp1677
(dp1678
g49
I2
sg50
Nsg120
g132
(g133
(I0
tp1679
g135
tp1680
Rp1681
(I1
(I3
I3
tp1682
g59
I00
S'\x00\x00\x00\x00\x00\x00\xf0?\x00\x00\x00\x00\x00\x00\x00\x00\x00\x00\x00\x00\x00\x00\x00\x00\x00\x00\x00\x00\x00\x00\x00\x00\x00\x00\x00\x00\x00\x00\xf0?\x00\x00\x00\x00\x00\x00\x00\x00\x00\x00\x00\x00\x00\x00\x00\x00\x00\x00\x00\x00\x00\x00\x00\x00\x00\x00\x00\x00\x00\x00\xf0?'
p1683
tp1684
bsg51
g7
sg52
(dp1685
I140396919626576
g1648
ssbsg52
(dp1686
I140396919624080
g1645
ssg51
g7
sbsg243
I2
sg244
g246
sg52
(dp1687
I140396919624016
g0
(g122
g2
Ntp1688
Rp1689
(dp1690
g49
I2
sg126
g0
(g127
g2
Ntp1691
Rp1692
(dp1693
g49
I1
sg131
g132
(g133
(I0
tp1694
g135
tp1695
Rp1696
(I1
(I2
tp1697
g59
I00
S'\x00\x00\x00\x00\x00\x00\xf0\x7f\x00\x00\x00\x00\x00\x00\xf0\x7f'
p1698
tp1699
bsg52
(dp1700
I140396919624016
g1689
ssg142
g132
(g133
(I0
tp1701
g135
tp1702
Rp1703
(I1
(I2
I2
tp1704
g59
I00
S'\x00\x00\x00\x00\x00\x00\x00\x00\x00\x00\x00\x00\x00\x00\x00\x00\x00\x00\x00\x00\x00\x00\xf0?\x00\x00\x00\x00\x00\x00\xf0?'
p1705
tp1706
bsg149
g132
(g133
(I0
tp1707
g135
tp1708
Rp1709
(I1
(I2
I2
tp1710
g59
I00
S'\x00\x00\x00\x00\x00\x00\x00\x00\x00\x00\x00\x00\x00\x00\x00\x00\x00\x00\x00\x00\x00\x00\xf0?\x00\x00\x00\x00\x00\x00\xf0?'
p1711
tp1712
bsg156
I01
sg51
g7
sbsg115
g1645
sg149
Nsg52
(dp1713
sg51
g7
sbssg51
g7
sbsI140396921050448
g916
sI140396919627088
g0
(g176
g2
Ntp1714
Rp1715
(dp1716
g49
I2
sg180
I2
sg181
g0
(g176
g2
Ntp1717
Rp1718
(dp1719
g49
I1
sg180
I2
sg181
g0
(g116
g2
Ntp1720
Rp1721
(dp1722
g49
I1
sg120
Nsg50
Nsg121
g0
(g127
g2
Ntp1723
Rp1724
(dp1725
g49
I1
sg131
g132
(g133
(I0
tp1726
g135
tp1727
Rp1728
(I1
(I2
tp1729
g59
I00
S'\x00\x00\x00\x00\x00\x00\xf0\x7f\x00\x00\x00\x00\x00\x00\xf0\x7f'
p1730
tp1731
bsg52
(dp1732
I140396919624912
g1721
ssg142
g132
(g133
(I0
tp1733
g135
tp1734
Rp1735
(I1
(I2
I2
tp1736
g59
I00
S'\x00\x00\x00\x00\x00\x00\x00\x00\x00\x00\x00\x00\x00\x00\x00\x00\x00\x00\x00\x00\x00\x00\xf0?\x00\x00\x00\x00\x00\x00\xf0?'
p1737
tp1738
bsg149
g132
(g133
(I0
tp1739
g135
tp1740
Rp1741
(I1
(I2
I2
tp1742
g59
I00
S'\x00\x00\x00\x00\x00\x00\x00\x00\x00\x00\x00\x00\x00\x00\x00\x00\x00\x00\x00\x00\x00\x00\xf0?\x00\x00\x00\x00\x00\x00\xf0?'
p1743
tp1744
bsg156
I01
sg51
g7
sbsg52
(dp1745
I140396919626320
g1718
ssg51
g7
sbsg243
I2
sg244
g0
(g157
g2
Ntp1746
Rp1747
(dp1748
g49
I2
sg50
Nsg120
g132
(g133
(I0
tp1749
g135
tp1750
Rp1751
(I1
(I3
I3
tp1752
g59
I00
S'\x00\x00\x00\x00\x00\x00\xf0?\x00\x00\x00\x00\x00\x00\x00\x00\x00\x00\x00\x00\x00\x00\x00\x00\x00\x00\x00\x00\x00\x00\x00\x00\x00\x00\x00\x00\x00\x00\xf0?\x00\x00\x00\x00\x00\x00\x00\x00\x00\x00\x00\x00\x00\x00\x00\x00\x00\x00\x00\x00\x00\x00\x00\x00\x00\x00\x00\x00\x00\x00\xf0?'
p1753
tp1754
bsg51
g7
sg52
(dp1755
I140396919626320
g1718
ssbsg52
(dp1756
I140396919627088
g1715
ssg51
g7
sbsg243
I2
sg244
g246
sg52
(dp1757
I140396919624464
g0
(g122
g2
Ntp1758
Rp1759
(dp1760
g49
I2
sg126
g0
(g127
g2
Ntp1761
Rp1762
(dp1763
g49
I1
sg131
g132
(g133
(I0
tp1764
g135
tp1765
Rp1766
(I1
(I2
tp1767
g59
I00
S'\x00\x00\x00\x00\x00\x00\xf0\x7f\x00\x00\x00\x00\x00\x00\xf0\x7f'
p1768
tp1769
bsg52
(dp1770
I140396919624464
g1759
ssg142
g132
(g133
(I0
tp1771
g135
tp1772
Rp1773
(I1
(I2
I2
tp1774
g59
I00
S'\x00\x00\x00\x00\x00\x00\x00\x00\x00\x00\x00\x00\x00\x00\x00\x00\x00\x00\x00\x00\x00\x00\xf0?\x00\x00\x00\x00\x00\x00\xf0?'
p1775
tp1776
bsg149
g132
(g133
(I0
tp1777
g135
tp1778
Rp1779
(I1
(I2
I2
tp1780
g59
I00
S'\x00\x00\x00\x00\x00\x00\x00\x00\x00\x00\x00\x00\x00\x00\x00\x00\x00\x00\x00\x00\x00\x00\xf0?\x00\x00\x00\x00\x00\x00\xf0?'
p1781
tp1782
bsg156
I01
sg51
g7
sbsg115
g1715
sg149
Nsg52
(dp1783
sg51
g7
sbssg51
g7
sbsI140396872041104
g184
ssg51
g7
sbsg52
(dp1784
I140396872041680
g187
ssg51
g7
sbssbssg51
g7
sbsI140396872041680
g187
ssVinput_dims
p1785
I2
sVchild
p1786
g0
(g345
g2
Ntp1787
Rp1788
(dp1789
g49
I0
sg120
g132
(g133
(I0
tp1790
g135
tp1791
Rp1792
(I1
(I3
I3
tp1793
g59
I00
S'\x00\x00\x00\x00\x00\x00\xf0?\x00\x00\x00\x00\x00\x00\x00\x00\x00\x00\x00\x00\x00\x00\x00\x00\x00\x00\x00\x00\x00\x00\x00\x00\x00\x00\x00\x00\x00\x00\xf0?\x00\x00\x00\x00\x00\x00\x00\x00\x00\x00\x00\x00\x00\x00\x00\x00\x00\x00\x00\x00\x00\x00\x00\x00\x00\x00\x00\x00\x00\x00\xf0?'
p1794
tp1795
bsg75
g0
(g45
g2
Ntp1796
Rp1797
(dp1798
g49
I1
sg50
Nsg51
g7
sg52
(dp1799
I140396921050768
g1788
ssbsg76
g0
(g45
g2
Ntp1800
Rp1801
(dp1802
g49
I1
sg50
Nsg51
g7
sg52
(dp1803
I140396921050768
g1788
ssbsg50
Nsg51
g7
sg52
(dp1804
I140396872043408
g191
ssbsbsg243
I2
sg244
g241
sg52
(dp1805
I140396872043536
g355
sI140396872041104
g184
ssg51
g7
sbsg76
g246
sg357
Nsg52
(dp1806
I140396878000976
g0
(g176
g2
Ntp1807
Rp1808
(dp1809
g49
I2
sg180
I2
sg181
g184
sg243
I2
sg244
g0
(g168
g2
Ntp1810
Rp1811
(dp1812
g49
I1
sg120
Nsg172
g159
sg50
Nsg173
(F-0.04861111111111111
I0
tp1813
sg51
g7
sg52
(dp1814
I140396878000976
g1808
ssbsg52
(dp1815
sg51
g7
sbsI140396873116368
g0
(g176
g2
Ntp1816
Rp1817
(dp1818
g49
I2
sg180
I2
sg181
g184
sg243
I2
sg244
g0
(g168
g2
Ntp1819
Rp1820
(dp1821
g49
I1
sg120
Nsg172
g159
sg50
Nsg173
(F0.04861111111111111
I0
tp1822
sg51
g7
sg52
(dp1823
I140396873116368
g1817
ssbsg52
(dp1824
sg51
g7
sbsI140396873115728
g0
(g176
g2
Ntp1825
Rp1826
(dp1827
g49
I2
sg180
I2
sg181
g184
sg243
I2
sg244
g0
(g168
g2
Ntp1828
Rp1829
(dp1830
g49
I1
sg120
Nsg172
g159
sg50
Nsg173
(F0.04722222222222222
I0
tp1831
sg51
g7
sg52
(dp1832
I140396873115728
g1826
ssbsg52
(dp1833
sg51
g7
sbsI140396873116496
g0
(g176
g2
Ntp1834
Rp1835
(dp1836
g49
I2
sg180
I2
sg181
g184
sg243
I2
sg244
g0
(g168
g2
Ntp1837
Rp1838
(dp1839
g49
I1
sg120
Nsg172
g159
sg50
Nsg173
(F-0.04722222222222222
I0
tp1840
sg51
g7
sg52
(dp1841
I140396873116496
g1835
ssbsg52
(dp1842
sg51
g7
sbsI140396921614736
g0
(g176
g2
Ntp1843
Rp1844
(dp1845
g49
I2
sg180
I2
sg181
g184
sg243
I2
sg244
g0
(g168
g2
Ntp1846
Rp1847
(dp1848
g49
I1
sg120
Nsg172
g159
sg50
Nsg173
(F-0.04861111111111111
I0
tp1849
sg51
g7
sg52
(dp1850
I140396921614736
g1844
ssbsg52
(dp1851
sg51
g7
sbsI140396921615952
g0
(g176
g2
Ntp1852
Rp1853
(dp1854
g49
I2
sg180
I2
sg181
g184
sg243
I2
sg244
g0
(g168
g2
Ntp1855
Rp1856
(dp1857
g49
I1
sg120
Nsg172
g159
sg50
Nsg173
(F0.04861111111111111
I0
tp1858
sg51
g7
sg52
(dp1859
I140396921615952
g1853
ssbsg52
(dp1860
sg51
g7
sbsI140396921616784
g178
sI140396921618064
g0
(g176
g2
Ntp1861
Rp1862
(dp1863
g49
I2
sg180
I2
sg181
g184
sg243
I2
sg244
g0
(g168
g2
Ntp1864
Rp1865
(dp1866
g49
I1
sg120
Nsg172
g159
sg50
Nsg173
(F0.04722222222222222
I0
tp1867
sg51
g7
sg52
(dp1868
I140396921618064
g1862
ssbsg52
(dp1869
sg51
g7
sbssg51
g7
sbsg243
I2
sg244
g170
sg52
(dp1870
sg51
g7
sbssbsI140396878003216
g372
sI140396921614608
g399
sI140396921617424
g390
sI140396873113936
g1829
sI140396921614864
g1856
sI140396873115408
g1838
sI140396878002704
g1820
sI140396921050384
g408
sI140396869903120
g1847
sI140396873114448
g381
sI140396921617872
g1865
sI140396878000656
g1811
sI140396921051728
g907
sI140396922574608
g124
sI140396921052432
g363
ssbsg149
Nsg52
(dp1871
I140396922574544
g118
ssg51
g7
sbsg52
(dp1872
I140396922573136
g249
ssg51
g7
sbsS'_us_dashes'
p1873
(NNtp1874
sS'_capstyle'
p1875
Vbutt
p1876
sS'_url'
p1877
Nsg25
NsS'_axes'
p1878
Nsg34
Nsbsg42
Nsg88
NsV_restore_to_pylab
p1879
I01
sS'images'
p1880
(lp1881
sS'_suptitle'
p1882
NsS'dpi_scale_trans'
p1883
g159
sS'number'
p1884
I1
sS'callbacks'
p1885
g0
(cmatplotlib.cbook
CallbackRegistry
p1886
g2
Ntp1887
Rp1888
I01
bsg96
NsS'_tight'
p1889
I00
sg86
I01
sS'bbox'
p1890
g124
sg103
g0
(g104
g105
((lp1891
(lp1892
tp1893
tp1894
Rp1895
sg111
I0
sS'patches'
p1896
(lp1897
sS'legends'
p1898
(lp1899
sS'suppressComposite'
p1900
Nsg112
I00
sg114
NsS'_axstack'
p1901
g0
(cmatplotlib.figure
AxesStack
p1902
g2
Ntp1903
Rp1904
(dp1905
S'_default'
p1906
NsS'_elements'
p1907
(lp1908
(((g0
(cmatplotlib.gridspec
SubplotSpec
p1909
g2
Ntp1910
Rp1911
(dp1912
S'num1'
p1913
I0
sS'num2'
p1914
I0
sS'_gridspec'
p1915
g0
(cmatplotlib.gridspec
GridSpec
p1916
g2
Ntp1917
Rp1918
(dp1919
S'_nrows'
p1920
I1
sS'right'
p1921
NsS'_col_width_ratios'
p1922
NsS'bottom'
p1923
NsS'top'
p1924
NsS'wspace'
p1925
NsS'_ncols'
p1926
I1
sS'hspace'
p1927
NsS'_row_height_ratios'
p1928
NsS'left'
p1929
Nsbsbtp1930
(ttp1931
(I1
g0
(cmatplotlib.axes._subplots
_PicklableSubplotClassConstructor
p1932
g2
Ntp1933
Rp1934
(cmatplotlib.axes._axes
Axes
p1935
tp1936
Rp1937
(dp1938
S'transLimits'
p1939
g230
sS'_get_patches_for_fill'
p1940
g0
(cmatplotlib.axes._base
_process_plot_var_args
p1941
g2
Ntp1942
Rp1943
(dp1944
Vaxes
p1945
g1937
sVcommand
p1946
Vfill
p1947
sbsS'_xcid'
p1948
I1
sg6
V
p1949
sS'legend_'
p1950
Nsg12
(lp1951
g0
(cmatplotlib.text
Annotation
p1952
g2
Ntp1953
Rp1954
(dp1955
g6
g7
sg115
g0
(g45
g2
Ntp1956
Rp1957
(dp1958
g49
I1
sg50
Nsg51
g7
sg52
(dp1959
sbsg9
g4
sg10
NsS'_draggable'
p1960
NsS'_fontproperties'
p1961
g0
(cmatplotlib.font_manager
FontProperties
p1962
g2
Ntp1963
Rp1964
(dp1965
S'_family'
p1966
(lp1967
Vsans-serif
p1968
asS'_file'
p1969
NsS'_variant'
p1970
Vnormal
p1971
sS'_slant'
p1972
g1971
sS'_size'
p1973
F8.0
sS'_weight'
p1974
I400
sS'_stretch'
p1975
g1971
sbsg42
NsS'xy'
p1976
(F0.8
F366.0
tp1977
sg17
g18
sS'_multialignment'
p1978
Nsg20
I01
sS'xycoords'
p1979
Vdata
p1980
sg23
Nsg75
I915
sg76
F0.75
sg24
Nsg25
Nsg11
Nsg28
I00
sg29
I00
sg30
(dp1981
sS'_renderer'
p1982
Nsg32
I00
sS'arrowprops'
p1983
Nsg1878
g1937
sg88
NsS'_textcoords'
p1984
S'data'
p1985
sg1877
NsS'_rotation_mode'
p1986
Nsg33
NsS'_annotation_clip'
p1987
Nsg96
NsS'arrow_patch'
p1988
Nsg86
I01
sS'_verticalalignment'
p1989
Vbaseline
p1990
sS'_text'
p1991
V0.99 %
p1992
sS'_bbox_patch'
p1993
Nsg103
g0
(g104
g105
((lp1994
(lp1995
tp1996
tp1997
Rp1998
sg111
I0
sS'_rotation'
p1999
Nsg112
I01
sg114
NsS'_linespacing'
p2000
F1.2
sg8
I01
sS'arrow'
p2001
NsS'_usetex'
p2002
I00
sS'_wrap'
p2003
I00
sg43
NsS'_color'
p2004
V0.
p2005
sS'_horizontalalignment'
p2006
Vleft
p2007
sg34
NsbasS'_frameon'
p2008
I01
sS'_autoscaleYon'
p2009
I00
sg14
I01
sg15
(lp2010
sg20
I01
sS'tables'
p2011
(lp2012
sg1896
(lp2013
g0
(g36
g2
Ntp2014
Rp2015
(dp2016
g6
V_nolegend_
p2017
sg40
F0.5
sg41
I01
sg9
g4
sg8
I01
sg10
Nsg42
Nsg17
g18
sg43
Nsg20
I01
sg44
g0
(g45
g2
Ntp2018
Rp2019
(dp2020
g49
I1
sg50
Nsg51
g7
sg52
(dp2021
sbsg54
(F0.0
F0.0
F0.0
F0.0
tp2022
sg23
Nsg75
F0.0
sg76
F-0.25
sg24
Nsg77
Nsg11
Nsg28
I00
sg29
I00
sg30
(dp2023
sg80
g0
(g176
g2
Ntp2024
Rp2025
(dp2026
g49
I1
sg180
I2
sg181
g0
(g116
g2
Ntp2027
Rp2028
(dp2029
g49
I1
sg120
Nsg50
Nsg121
g0
(g127
g2
Ntp2030
Rp2031
(dp2032
g49
I1
sg131
g132
(g133
(I0
tp2033
g135
tp2034
Rp2035
(I1
(I2
tp2036
g59
I00
S'\x00\x00\x00\x00\x00\x00\xf0\x7f\x00\x00\x00\x00\x00\x00\xf0\x7f'
p2037
tp2038
bsg52
(dp2039
I140396924344528
g2028
ssg142
g132
(g133
(I0
tp2040
g135
tp2041
Rp2042
(I1
(I2
I2
tp2043
g59
I00
S'\x00\x00\x00\x00\x00\x00\xd0\xbf\x00\x00\x00\x00\x00\x00\x00\x00\x00\x00\x00\x00\x00\x00\xd0?\x00\x00\x00\x00@\r\xd2@'
p2044
tp2045
bsg149
g132
(g133
(I0
tp2046
g135
tp2047
Rp2048
(I1
(I2
I2
tp2049
g59
I00
S'\x00\x00\x00\x00\x00\x00\xd0\xbf\x00\x00\x00\x00\x00\x00\x00\x00\x00\x00\x00\x00\x00\x00\xd0?\x00\x00\x00\x00@\r\xd2@'
p2050
tp2051
bsg156
I01
sg51
g7
sbsg52
(dp2052
I140396924344144
g2025
ssg51
g7
sbsg243
I2
sg244
g0
(g157
g2
Ntp2053
Rp2054
(dp2055
g49
I0
sg50
Nsg120
g132
(g133
(I0
tp2056
g135
tp2057
Rp2058
(I1
(I3
I3
tp2059
g59
I00
S'\x00\x00\x00\x00\x00\x00\xf0?\x00\x00\x00\x00\x00\x00\x00\x00\x00\x00\x00\x00\x00\x00\x00\x00\x00\x00\x00\x00\x00\x00\x00\x00\x00\x00\x00\x00\x00\x00\xf0?\x00\x00\x00\x00\x00\x00\x00\x00\x00\x00\x00\x00\x00\x00\x00\x00\x00\x00\x00\x00\x00\x00\x00\x00\x00\x00\x00\x00\x00\x00\xf0?'
p2060
tp2061
bsg51
g7
sg52
(dp2062
I140396924344144
g2025
ssbsg52
(dp2063
sg51
g7
sbsg32
I00
sg85
Nsg86
I01
sg87
F1.0
sg88
g1471
sg89
F18485.0
sg33
Nsg90
(g55
(g59
S'\x00\x00\x00\x00\x00\x00\x00\x00'
p2064
tp2065
Rp2066
g55
(g59
S'\x00\x00\x00\x00\x00\x00\x00\x00'
p2067
tp2068
Rp2069
g55
(g59
S'\x00\x00\x00\x00\x00\x00\x00\x00'
p2070
tp2071
Rp2072
I1
tp2073
sg91
Nsg92
I01
sg93
Nsg94
g132
(g133
(I0
tp2074
g135
tp2075
Rp2076
(I1
(I4
tp2077
g59
I00
S'\x00\x00\x00\x00\x00\x00\x00\x00\x00\x00\x00\x00\x00\x00\x00\x00\x00\x00\x00\x00\x00\x00\x00\x00\x00\x00\x00\x00\x00\x00\xf0?'
p2078
tp2079
bsg96
Nsg97
(g55
(g59
S'\x00\x00\x00\x00\x00\x00\x00\x00'
p2080
tp2081
Rp2082
g55
(g59
S'\x00\x00\x00\x00\x00\x00\x00\x00'
p2083
tp2084
Rp2085
g55
(g59
S'\x00\x00\x00\x00\x00\x00\x00\x00'
p2086
tp2087
Rp2088
g55
(g59
S'\x00\x00\x00\x00\x00\x00\xf0?'
p2089
tp2090
Rp2091
tp2092
sg99
g100
sg101
g102
sg103
g0
(g104
g105
((lp2093
(lp2094
I0
atp2095
tp2096
Rp2097
sg111
I0
sg112
I01
sg113
F0.0
sg114
Nsg115
g187
sg1873
(NNtp2098
sg1875
g1876
sg1877
Nsg25
Nsg1878
g1937
sg34
Nsbag0
(g36
g2
Ntp2099
Rp2100
(dp2101
g6
V_nolegend_
p2102
sg40
F0.5
sg41
I01
sg9
g4
sg8
I01
sg10
Nsg42
Nsg17
g18
sg43
Nsg20
I01
sg44
g0
(g45
g2
Ntp2103
Rp2104
(dp2105
g49
I1
sg50
Nsg51
g7
sg52
(dp2106
sbsg54
g2022
sg23
Nsg75
F0.0
sg76
F0.75
sg24
Nsg77
Nsg11
Nsg28
I00
sg29
I00
sg30
(dp2107
sg80
g0
(g176
g2
Ntp2108
Rp2109
(dp2110
g49
I1
sg180
I2
sg181
g0
(g116
g2
Ntp2111
Rp2112
(dp2113
g49
I1
sg120
Nsg50
Nsg121
g0
(g127
g2
Ntp2114
Rp2115
(dp2116
g49
I1
sg131
g132
(g133
(I0
tp2117
g135
tp2118
Rp2119
(I1
(I2
tp2120
g59
I00
S'\x00\x00\x00\x00\x00\x00\xf0\x7f\x00\x00\x00\x00\x00\x00\xf0\x7f'
p2121
tp2122
bsg52
(dp2123
I140396884099728
g2112
ssg142
g132
(g133
(I0
tp2124
g135
tp2125
Rp2126
(I1
(I2
I2
tp2127
g59
I00
S'\x00\x00\x00\x00\x00\x00\xe8?\x00\x00\x00\x00\x00\x00\x00\x00\x00\x00\x00\x00\x00\x00\xf4?\x00\x00\x00\x00\x00\xe0f@'
p2128
tp2129
bsg149
g132
(g133
(I0
tp2130
g135
tp2131
Rp2132
(I1
(I2
I2
tp2133
g59
I00
S'\x00\x00\x00\x00\x00\x00\xe8?\x00\x00\x00\x00\x00\x00\x00\x00\x00\x00\x00\x00\x00\x00\xf4?\x00\x00\x00\x00\x00\xe0f@'
p2134
tp2135
bsg156
I01
sg51
g7
sbsg52
(dp2136
I140396924342736
g2109
ssg51
g7
sbsg243
I2
sg244
g0
(g157
g2
Ntp2137
Rp2138
(dp2139
g49
I0
sg50
Nsg120
g132
(g133
(I0
tp2140
g135
tp2141
Rp2142
(I1
(I3
I3
tp2143
g59
I00
S'\x00\x00\x00\x00\x00\x00\xf0?\x00\x00\x00\x00\x00\x00\x00\x00\x00\x00\x00\x00\x00\x00\x00\x00\x00\x00\x00\x00\x00\x00\x00\x00\x00\x00\x00\x00\x00\x00\xf0?\x00\x00\x00\x00\x00\x00\x00\x00\x00\x00\x00\x00\x00\x00\x00\x00\x00\x00\x00\x00\x00\x00\x00\x00\x00\x00\x00\x00\x00\x00\xf0?'
p2144
tp2145
bsg51
g7
sg52
(dp2146
I140396924342736
g2109
ssbsg52
(dp2147
sg51
g7
sbsg32
I00
sg85
Nsg86
I01
sg87
F1.0
sg88
g1619
sg89
F183.0
sg33
Nsg90
g2073
sg91
Nsg92
I01
sg93
Nsg94
g2076
sg96
Nsg97
(g55
(g59
S'\x00\x00\x00\x00\x00\x00\x00\x00'
p2148
tp2149
Rp2150
g55
(g59
S'\x00\x00\x00\x00\x00\x00\x00\x00'
p2151
tp2152
Rp2153
g55
(g59
S'\x00\x00\x00\x00\x00\x00\x00\x00'
p2154
tp2155
Rp2156
g55
(g59
S'\x00\x00\x00\x00\x00\x00\xf0?'
p2157
tp2158
Rp2159
tp2160
sg99
g100
sg101
g102
sg103
g0
(g104
g105
((lp2161
(lp2162
I0
atp2163
tp2164
Rp2165
sg111
I0
sg112
I01
sg113
F0.0
sg114
Nsg115
g187
sg1873
(NNtp2166
sg1875
g1876
sg1877
Nsg25
Nsg1878
g1937
sg34
NsbasS'title'
p2167
g0
(cmatplotlib.text
Text
p2168
g2
Ntp2169
Rp2170
(dp2171
g6
g7
sg8
I01
sg9
g4
sg10
Nsg1961
g0
(g1962
g2
Ntp2172
Rp2173
(dp2174
g1966
(lp2175
g1968
asg1969
Nsg1970
g1971
sg1972
g1971
sg1973
F9.6
sg1974
I400
sg1975
g1971
sbsg42
Nsg17
g18
sg1978
Nsg20
I01
sg23
Nsg75
F1.0
sg76
F0.5
sg24
Nsg25
Nsg11
Nsg28
I00
sg29
I00
sg30
(dp2176
sg1982
Nsg32
I00
sg1878
g1937
sg88
Nsg1877
Nsg1986
Nsg33
Nsg96
Nsg86
I01
sg1989
Vbaseline
p2177
sg1991
V
p2178
sg1993
Nsg103
g0
(g104
g105
((lp2179
(lp2180
tp2181
tp2182
Rp2183
sg111
I0
sg1999
Nsg112
I01
sg114
Nsg2000
F1.2
sg115
g904
sg2002
I00
sg2003
I00
sg43
Nsg2004
g2005
sg2006
Vcenter
p2184
sg34
NsbsS'_current_image'
p2185
NsS'mouseover_set'
p2186
c__builtin__
set
p2187
((lp2188
tp2189
Rp2190
sg11
NsS'_cursorProps'
p2191
(I1
g2073
tp2192
sS'numRows'
p2193
I1
sS'collections'
p2194
(lp2195
g0
(cmatplotlib.collections
LineCollection
p2196
g2
Ntp2197
Rp2198
(dp2199
g6
V_collection0
p2200
sg8
I01
sg9
g4
sS'_linestyles'
p2201
(lp2202
(F0.0
(lp2203
F1.85
aF0.8
atp2204
asS'_offset_position'
p2205
Vscreen
p2206
sg10
Nsg42
NsS'callbacksSM'
p2207
g0
(g1886
g2
Ntp2208
Rp2209
I01
bsg17
NsS'_offsets'
p2210
g132
(g133
(I0
tp2211
g135
tp2212
Rp2213
(I1
(I1
I2
tp2214
g59
I00
S'\x00\x00\x00\x00\x00\x00\x00\x00\x00\x00\x00\x00\x00\x00\x00\x00'
p2215
tp2216
bsS'_paths'
p2217
(lp2218
g0
(cmatplotlib.path
Path
p2219
g2
Ntp2220
Rp2221
(dp2222
S'_should_simplify'
p2223
I00
sS'_codes'
p2224
NsS'_vertices'
p2225
g132
(g133
(I0
tp2226
g135
tp2227
Rp2228
(I1
(I2
I2
tp2229
g59
I00
S'\xcd\xcc\xcc\xcc\xcc\xcc\xd4\xbf\x00\x00\x00\x00\x00\xe0f@\x00\x00\x00\x00\x00\x00\xf0?\x00\x00\x00\x00\x00\xe0f@'
p2230
tp2231
bsS'_readonly'
p2232
I00
sS'_simplify_threshold'
p2233
F0.1111111111111111
sS'_interpolation_steps'
p2234
I1
sS'_has_nonfinite'
p2235
I00
sbasg20
I01
sS'_A'
p2236
NsS'_us_linestyles'
p2237
(lp2238
(F0.0
(F3.7
F1.6
tp2239
tp2240
asg23
Nsg24
Nsg77
g132
(g133
(I0
tp2241
g135
tp2242
Rp2243
(I1
(I1
I4
tp2244
g59
I00
S'\x00\x00\x00\x00\x00\x00\x00\x00\x00\x00\x00\x00\x00\x00\x00\x00\x00\x00\x00\x00\x00\x00\x00\x00\x00\x00\x00\x00\x00\x00\xf0?'
p2245
tp2246
bsg11
Nsg28
I00
sS'_facecolors'
p2247
g132
(g133
(I0
tp2248
g135
tp2249
Rp2250
(I1
(I0
I4
tp2251
g59
I00
S''
p2252
tp2253
bsS'_uniform_offsets'
p2254
Nsg29
I00
sg30
(dp2255
sS'_antialiaseds'
p2256
(I01
tp2257
sS'zorder'
p2258
I2
sg32
I00
sS'norm'
p2259
g0
(cmatplotlib.colors
Normalize
p2260
g2
Ntp2261
Rp2262
(dp2263
S'vmax'
p2264
NsS'clip'
p2265
I00
sS'vmin'
p2266
Nsbsg85
NsS'_urls'
p2267
(lp2268
NasS'_edgecolors'
p2269
g132
(g133
(I0
tp2270
g135
tp2271
Rp2272
(I1
(I1
I4
tp2273
g59
I00
S'\x00\x00\x00\x00\x00\x00\x00\x00\x00\x00\x00\x00\x00\x00\x00\x00\x00\x00\x00\x00\x00\x00\x00\x00\x00\x00\x00\x00\x00\x00\xf0?'
p2274
tp2275
bsg88
g1113
sS'_pickradius'
p2276
I5
sg33
Nsg90
(g55
(g59
S'\x00\x00\x00\x00\x00\x00\x00\x00'
p2277
tp2278
Rp2279
g55
(g59
S'\x00\x00\x00\x00\x00\x00\x00\x00'
p2280
tp2281
Rp2282
g55
(g59
S'\x00\x00\x00\x00\x00\x00\x00\x00'
p2283
tp2284
Rp2285
g55
(g59
S'\x00\x00\x00\x00\x00\x00\xf0?'
p2286
tp2287
Rp2288
tp2289
sg94
Vnone
p2290
sS'update_dict'
p2291
(dp2292
Varray
p2293
I00
ssg96
Nsg86
I01
sS'_linewidths'
p2294
(F0.5
tp2295
sg103
g0
(g104
g105
((lp2296
(lp2297
tp2298
tp2299
Rp2300
sg111
I0
sS'_is_stroked'
p2301
I01
sS'_is_filled'
p2302
I00
sg112
I01
sg114
Nsg115
g187
sS'colorbar'
p2303
NsS'_us_lw'
p2304
g2295
sS'cmap'
p2305
g0
(cmatplotlib.colors
LinearSegmentedColormap
p2306
g2
Ntp2307
Rp2308
(dp2309
S'_gamma'
p2310
F1.0
sS'_i_bad'
p2311
I258
sS'_rgba_over'
p2312
NsS'name'
p2313
VGreys
p2314
sS'_i_under'
p2315
I256
sS'_i_over'
p2316
I257
sS'N'
p2317
I256
sS'_segmentdata'
p2318
(dp2319
S'blue'
p2320
(lp2321
(g55
(g59
S'\x00\x00\x00\x00\x00\x00\x00\x00'
p2322
tp2323
Rp2324
g55
(g59
S'\x00\x00\x00\x00\x00\x00\xf0?'
p2325
tp2326
Rp2327
g2327
tp2328
a(g55
(g59
S'\x00\x00\x00\x00\x00\x00\xc0?'
p2329
tp2330
Rp2331
g55
(g59
S'\x1e\x1e\x1e\x1e\x1e\x1e\xee?'
p2332
tp2333
Rp2334
g2334
tp2335
a(g55
(g59
S'\x00\x00\x00\x00\x00\x00\xd0?'
p2336
tp2337
Rp2338
g55
(g59
S';;;;;;\xeb?'
p2339
tp2340
Rp2341
g2341
tp2342
a(g55
(g59
S'\x00\x00\x00\x00\x00\x00\xd8?'
p2343
tp2344
Rp2345
g55
(g59
S'\xb8\xb7\xb7\xb7\xb7\xb7\xe7?'
p2346
tp2347
Rp2348
g2348
tp2349
a(g55
(g59
S'\x00\x00\x00\x00\x00\x00\xe0?'
p2350
tp2351
Rp2352
g55
(g59
S'\xd3\xd2\xd2\xd2\xd2\xd2\xe2?'
p2353
tp2354
Rp2355
g2355
tp2356
a(g55
(g59
S'\x00\x00\x00\x00\x00\x00\xe4?'
p2357
tp2358
Rp2359
g55
(g59
S'\xdd\xdc\xdc\xdc\xdc\xdc\xdc?'
p2360
tp2361
Rp2362
g2362
tp2363
a(g55
(g59
S'\x00\x00\x00\x00\x00\x00\xe8?'
p2364
tp2365
Rp2366
g55
(g59
S'\x95\x94\x94\x94\x94\x94\xd4?'
p2367
tp2368
Rp2369
g2369
tp2370
a(g55
(g59
S'\x00\x00\x00\x00\x00\x00\xec?'
p2371
tp2372
Rp2373
g55
(g59
S'\x93\x92\x92\x92\x92\x92\xc2?'
p2374
tp2375
Rp2376
g2376
tp2377
a(g55
(g59
S'\x00\x00\x00\x00\x00\x00\xf0?'
p2378
tp2379
Rp2380
g55
(g59
S'\x00\x00\x00\x00\x00\x00\x00\x00'
p2381
tp2382
Rp2383
g2383
tp2384
asS'alpha'
p2385
(lp2386
(g2324
I1
I1
tp2387
a(g2331
I1
I1
tp2388
a(g2338
I1
I1
tp2389
a(g2345
I1
I1
tp2390
a(g2352
I1
I1
tp2391
a(g2359
I1
I1
tp2392
a(g2366
I1
I1
tp2393
a(g2373
I1
I1
tp2394
a(g2380
I1
I1
tp2395
asS'green'
p2396
(lp2397
(g2324
g55
(g59
S'\x00\x00\x00\x00\x00\x00\xf0?'
p2398
tp2399
Rp2400
g2400
tp2401
a(g2331
g55
(g59
S'\x1e\x1e\x1e\x1e\x1e\x1e\xee?'
p2402
tp2403
Rp2404
g2404
tp2405
a(g2338
g55
(g59
S';;;;;;\xeb?'
p2406
tp2407
Rp2408
g2408
tp2409
a(g2345
g55
(g59
S'\xb8\xb7\xb7\xb7\xb7\xb7\xe7?'
p2410
tp2411
Rp2412
g2412
tp2413
a(g2352
g55
(g59
S'\xd3\xd2\xd2\xd2\xd2\xd2\xe2?'
p2414
tp2415
Rp2416
g2416
tp2417
a(g2359
g55
(g59
S'\xdd\xdc\xdc\xdc\xdc\xdc\xdc?'
p2418
tp2419
Rp2420
g2420
tp2421
a(g2366
g55
(g59
S'\x95\x94\x94\x94\x94\x94\xd4?'
p2422
tp2423
Rp2424
g2424
tp2425
a(g2373
g55
(g59
S'\x93\x92\x92\x92\x92\x92\xc2?'
p2426
tp2427
Rp2428
g2428
tp2429
a(g2380
g55
(g59
S'\x00\x00\x00\x00\x00\x00\x00\x00'
p2430
tp2431
Rp2432
g2432
tp2433
asS'red'
p2434
(lp2435
(g2324
g55
(g59
S'\x00\x00\x00\x00\x00\x00\xf0?'
p2436
tp2437
Rp2438
g2438
tp2439
a(g2331
g55
(g59
S'\x1e\x1e\x1e\x1e\x1e\x1e\xee?'
p2440
tp2441
Rp2442
g2442
tp2443
a(g2338
g55
(g59
S';;;;;;\xeb?'
p2444
tp2445
Rp2446
g2446
tp2447
a(g2345
g55
(g59
S'\xb8\xb7\xb7\xb7\xb7\xb7\xe7?'
p2448
tp2449
Rp2450
g2450
tp2451
a(g2352
g55
(g59
S'\xd3\xd2\xd2\xd2\xd2\xd2\xe2?'
p2452
tp2453
Rp2454
g2454
tp2455
a(g2359
g55
(g59
S'\xdd\xdc\xdc\xdc\xdc\xdc\xdc?'
p2456
tp2457
Rp2458
g2458
tp2459
a(g2366
g55
(g59
S'\x95\x94\x94\x94\x94\x94\xd4?'
p2460
tp2461
Rp2462
g2462
tp2463
a(g2373
g55
(g59
S'\x93\x92\x92\x92\x92\x92\xc2?'
p2464
tp2465
Rp2466
g2466
tp2467
a(g2380
g55
(g59
S'\x00\x00\x00\x00\x00\x00\x00\x00'
p2468
tp2469
Rp2470
g2470
tp2471
assS'_rgba_under'
p2472
NsS'_rgba_bad'
p2473
(F0.0
F0.0
F0.0
F0.0
tp2474
sS'monochrome'
p2475
I00
sS'colorbar_extend'
p2476
I00
sS'_isinit'
p2477
I00
sbsg43
Nsg1877
Nsg25
Nsg1878
g1937
sg34
Nsbasg1878
g1937
sg30
(dp2478
sg32
I00
sS'containers'
p2479
(lp2480
g0
(cmatplotlib.container
BarContainer
p2481
g105
(g2015
g2100
tp2482
tp2483
Rp2484
(dp2485
g6
V_container0
p2486
sg1896
(lp2487
g2015
ag2100
asg30
(dp2488
sg34
Nsg32
I00
sS'errorbar'
p2489
Nsg111
I0
sbasg29
I00
sg88
NsS'_get_lines'
p2490
g0
(g1941
g2
Ntp2491
Rp2492
(dp2493
g1945
g1937
sg1946
Vplot
p2494
sbsS'_aspect'
p2495
Vauto
p2496
sS'fmt_xdata'
p2497
Nsg1885
g0
(g1886
g2
Ntp2498
Rp2499
I01
bsg96
Nsg97
Vwhite
p2500
sg86
I01
sg1890
g249
sS'ignore_existing_data_limits'
p2501
I00
sg24
Nsg111
I0
sg112
I00
sS'_left_title'
p2502
g0
(g2168
g2
Ntp2503
Rp2504
(dp2505
g6
g7
sg8
I01
sg9
g4
sg10
Nsg1961
g0
(g1962
g2
Ntp2506
Rp2507
(dp2508
g1966
g2175
sg1969
Nsg1970
g1971
sg1972
g1971
sg1973
F9.6
sg1974
I400
sg1975
g1971
sbsg42
Nsg17
g18
sg1978
Nsg20
I01
sg23
Nsg75
F1.0
sg76
F0.0
sg24
Nsg25
Nsg11
Nsg28
I00
sg29
I00
sg30
(dp2509
sg1982
Nsg32
I00
sg1878
g1937
sg88
Nsg1877
Nsg1986
Nsg33
Nsg96
Nsg86
I01
sg1989
Vbaseline
p2510
sg1991
V
p2511
sg1993
Nsg103
g0
(g104
g105
((lp2512
(lp2513
tp2514
tp2515
Rp2516
sg111
I0
sg1999
Nsg112
I01
sg114
Nsg2000
F1.2
sg115
g912
sg2002
I00
sg2003
I00
sg43
Nsg2004
g2005
sg2006
Vleft
p2517
sg34
NsbsS'_right_title'
p2518
g0
(g2168
g2
Ntp2519
Rp2520
(dp2521
g6
g7
sg8
I01
sg9
g4
sg10
Nsg1961
g0
(g1962
g2
Ntp2522
Rp2523
(dp2524
g1966
g2175
sg1969
Nsg1970
g1971
sg1972
g1971
sg1973
F9.6
sg1974
I400
sg1975
g1971
sbsg42
Nsg17
g18
sg1978
Nsg20
I01
sg23
Nsg75
F1.0
sg76
F1.0
sg24
Nsg25
Nsg11
Nsg28
I00
sg29
I00
sg30
(dp2525
sg1982
Nsg32
I00
sg1878
g1937
sg88
Nsg1877
Nsg1986
Nsg33
Nsg96
Nsg86
I01
sg1989
g2510
sg1991
V
p2526
sg1993
Nsg103
g0
(g104
g105
((lp2527
(lp2528
tp2529
tp2530
Rp2531
sg111
I0
sg1999
Nsg112
I01
sg114
Nsg2000
F1.2
sg115
g916
sg2002
I00
sg2003
I00
sg43
Nsg2004
g2005
sg2006
Vright
p2532
sg34
NsbsS'transScale'
p2533
g191
sg115
NsS'axison'
p2534
I01
sS'patch'
p2535
g0
(g36
g2
Ntp2536
Rp2537
(dp2538
g6
g7
sg40
F1.0
sg41
I01
sg9
g4
sg8
I01
sg10
Nsg42
Nsg17
g18
sg43
Nsg20
I01
sg44
g0
(g45
g2
Ntp2539
Rp2540
(dp2541
g49
I1
sg50
Nsg51
g7
sg52
(dp2542
sbsg54
g2022
sg23
Nsg75
F0.0
sg76
F0.0
sg24
Nsg77
VNone
p2543
sg11
Nsg28
I00
sg29
I00
sg30
(dp2544
sg80
g1072
sg32
I00
sg85
Nsg86
I01
sg87
F0.0
sg88
Nsg89
F1.0
sg33
Nsg90
g2022
sg91
Nsg92
I01
sg93
Nsg94
g2500
sg96
Nsg97
g98
sg99
g100
sg101
g102
sg103
g0
(g104
g105
((lp2545
(lp2546
tp2547
tp2548
Rp2549
sg111
I0
sg112
I01
sg113
F0.0
sg114
Nsg115
g246
sg1873
(NNtp2550
sg1875
g1876
sg1877
Nsg25
Nsg1878
Nsg34
NsbsS'viewLim'
p2551
g200
sg17
g18
sS'_subplotspec'
p2552
g1911
sS'_adjustable'
p2553
Vbox
p2554
sg9
g4
sS'titleOffsetTrans'
p2555
g907
sS'_yaxis_transform'
p2556
g184
sS'_gridOn'
p2557
I00
sg10
NsS'colNum'
p2558
I0
sg42
Nsg1880
(lp2559
sS'_autoscaleXon'
p2560
I01
sS'_xmargin'
p2561
F0.05
sS'rowNum'
p2562
I0
sS'_position'
p2563
g252
sS'_rasterization_zorder'
p2564
NsS'_cachedRenderer'
p2565
NsS'_navigate'
p2566
I01
sg23
NsS'_originalPosition'
p2567
g0
(g127
g2
Ntp2568
Rp2569
(dp2570
g49
I1
sg131
g132
(g133
(I0
tp2571
g135
tp2572
Rp2573
(I1
(I2
tp2574
g59
I00
S'\x00\x00\x00\x00\x00\x00\xf0\x7f\x00\x00\x00\x00\x00\x00\xf0\x7f'
p2575
tp2576
bsg52
(dp2577
sg142
g132
(g133
(I0
tp2578
g135
tp2579
Rp2580
(I1
(I2
I2
tp2581
g59
I00
S'\x00\x00\x00\x00\x00\x00\xc0?\x00\x00\x00\x00\x00\x00\xc0?\xcd\xcc\xcc\xcc\xcc\xcc\xec?)\\\x8f\xc2\xf5(\xec?'
p2582
tp2583
bsg149
g132
(g133
(I0
tp2584
g135
tp2585
Rp2586
(I1
(I2
I2
tp2587
g59
I00
S'\x00\x00\x00\x00\x00\x00\xc0?\x00\x00\x00\x00\x00\x00\xc0?\xcd\xcc\xcc\xcc\xcc\xcc\xec?)\\\x8f\xc2\xf5(\xec?'
p2588
tp2589
bsg156
I01
sg51
g7
sbsg25
NsS'_xaxis_transform'
p2590
g355
sg28
I00
sS'figbox'
p2591
g252
sS'xaxis'
p2592
g0
(cmatplotlib.axis
XAxis
p2593
g2
Ntp2594
Rp2595
(dp2596
g6
g7
sS'major'
p2597
g0
(cmatplotlib.axis
Ticker
p2598
g2
Ntp2599
Rp2600
(dp2601
S'locator'
p2602
g0
(cmatplotlib.ticker
FixedLocator
p2603
g2
Ntp2604
Rp2605
(dp2606
S'locs'
p2607
g132
(g133
(I0
tp2608
g135
tp2609
Rp2610
(I1
(I2
tp2611
g56
(S'i8'
p2612
I0
I1
tp2613
Rp2614
(I3
S'<'
p2615
NNNI-1
I-1
I0
tp2616
bI00
S'\x00\x00\x00\x00\x00\x00\x00\x00\x01\x00\x00\x00\x00\x00\x00\x00'
p2617
tp2618
bsS'axis'
p2619
g2595
sS'nbins'
p2620
NsbsS'formatter'
p2621
g0
(cmatplotlib.ticker
FixedFormatter
p2622
g2
Ntp2623
Rp2624
(dp2625
S'offset_string'
p2626
g7
sS'seq'
p2627
(lp2628
S'PSP'
p2629
aS'AP'
p2630
asg2619
g2595
sbsbsS'isDefault_label'
p2631
I01
sS'_scale'
p2632
g0
(cmatplotlib.scale
LinearScale
p2633
g2
Ntp2634
Rp2635
sg9
g4
sg8
I01
sS'_gridOnMinor'
p2636
I00
sg10
Nsg42
NsS'_smart_bounds'
p2637
I00
sg17
g18
sg20
I01
sg23
NsS'offsetText'
p2638
g0
(g2168
g2
Ntp2639
Rp2640
(dp2641
g6
g7
sg8
I01
sg9
g4
sg10
Nsg1961
g0
(g1962
g2
Ntp2642
Rp2643
(dp2644
g1966
(lp2645
g1968
asg1969
Nsg1970
g1971
sg1972
g1971
sg1973
F8.0
sg1974
I400
sg1975
g1971
sbsg42
Nsg17
g18
sg1978
Nsg20
I01
sg23
Nsg75
I0
sg76
I1
sg24
Nsg25
Nsg11
Nsg28
I00
sg29
I00
sg30
(dp2646
sg1982
Nsg32
I00
sg1878
Nsg88
Nsg1877
Nsg1986
Nsg33
Nsg96
Nsg86
I01
sg1989
Vtop
p2647
sg1991
V
p2648
sg1993
Nsg103
g0
(g104
g105
((lp2649
(lp2650
tp2651
tp2652
Rp2653
sg111
I0
sg1999
Nsg112
I01
sg114
Nsg2000
F1.2
sg115
g1419
sg2002
I00
sg2003
I00
sg43
Nsg2004
V0.
p2654
sg2006
Vright
p2655
sg34
Nsbsg24
Nsg25
Nsg11
NsS'label'
p2656
g0
(g2168
g2
Ntp2657
Rp2658
(dp2659
g6
g7
sg8
I01
sg9
g4
sg10
Nsg1961
g0
(g1962
g2
Ntp2660
Rp2661
(dp2662
g1966
(lp2663
g1968
asg1969
Nsg1970
g1971
sg1972
g1971
sg1973
F10.0
sg1974
I400
sg1975
g1971
sbsg42
Nsg17
g18
sg1978
Nsg20
I01
sg23
Nsg75
I0
sg76
F0.5
sg24
Nsg25
Nsg11
Nsg28
I00
sg29
I00
sg30
(dp2664
sg1982
Nsg32
I00
sg1878
Nsg88
Nsg1877
Nsg1986
Nsg33
Nsg96
Nsg86
I01
sg1989
Vtop
p2665
sg1991
V
p2666
sg1993
Nsg103
g0
(g104
g105
((lp2667
(lp2668
tp2669
tp2670
Rp2671
sg111
I0
sg1999
Nsg112
I01
sg114
Nsg2000
F1.2
sg115
g921
sg2002
I00
sg2003
I00
sg43
Nsg2004
V0.
p2672
sg2006
Vcenter
p2673
sg34
Nsbsg28
I00
sS'isDefault_majfmt'
p2674
I00
sg29
I00
sg30
(dp2675
sS'units'
p2676
Nsg32
I00
sS'minor'
p2677
g0
(g2598
g2
Ntp2678
Rp2679
(dp2680
g2602
g0
(cmatplotlib.ticker
NullLocator
p2681
g2
Ntp2682
Rp2683
(dp2684
g2619
g2595
sbsg2621
g0
(cmatplotlib.ticker
NullFormatter
p2685
g2
Ntp2686
Rp2687
(dp2688
g2619
g2595
sbsbsg1878
g1937
sS'_major_tick_kw'
p2689
(dp2690
Vlabel1On
p2691
I01
sVgridOn
p2692
I00
sVlabel2On
p2693
I00
sVtick1On
p2694
I01
sVtick2On
p2695
I00
ssS'isDefault_minloc'
p2696
I01
sg88
g320
sg33
NsS'_gridOnMajor'
p2697
I00
sS'_lastNumMinorTicks'
p2698
I1
sS'labelpad'
p2699
F4.0
sS'majorTicks'
p2700
(lp2701
g0
(cmatplotlib.axis
XTick
p2702
g2
Ntp2703
Rp2704
(dp2705
g6
g7
sg40
F0.8
sg9
g4
sS'tick1On'
p2706
I01
sg8
I01
sg10
Nsg111
I0
sg42
NsS'_pad'
p2707
F3.5
sS'_labelcolor'
p2708
g2654
sS'gridOn'
p2709
I00
sg1973
F0.0
sg17
g18
sS'_tickdir'
p2710
Vout
p2711
sg2656
g0
(g2168
g2
Ntp2712
Rp2713
(dp2714
g6
g7
sg8
I01
sg9
g4
sg10
Nsg1961
g0
(g1962
g2
Ntp2715
Rp2716
(dp2717
g1966
(lp2718
g1968
asg1969
Nsg1970
g1971
sg1972
g1971
sg1973
F8.0
sg1974
I400
sg1975
g1971
sbsg42
Nsg17
g18
sg1978
Nsg20
I01
sg23
Nsg75
I0
sg76
I0
sg24
Nsg25
Nsg11
Nsg28
I00
sg29
I00
sg30
(dp2719
sg1982
Nsg32
I00
sg1878
Nsg88
Nsg1877
Nsg1986
Nsg33
Nsg96
Nsg86
I01
sg1989
Vtop
p2720
sg1991
VPSP
p2721
sg1993
Nsg103
g0
(g104
g105
((lp2722
(lp2723
tp2724
tp2725
Rp2726
sg111
I0
sg1999
Nsg112
I01
sg114
Nsg2000
F1.2
sg115
g387
sg2002
I00
sg2003
I00
sg43
Nsg2004
g2654
sg2006
Vcenter
p2727
sg34
Nsbsg20
I01
sg23
NsS'label2On'
p2728
I00
sg24
Nsg25
Nsg11
NsS'tick2On'
p2729
I00
sg28
I00
sg29
I00
sg30
(dp2730
sS'_tickmarkers'
p2731
(I3
I2
tp2732
sg32
I00
sS'_zorder'
p2733
F2.01
sg1878
g1937
sS'label1On'
p2734
I01
sg88
g1253
sg1877
NsS'label1'
p2735
g2713
sS'label2'
p2736
g0
(g2168
g2
Ntp2737
Rp2738
(dp2739
g6
g7
sg8
I01
sg9
g4
sg10
Nsg1961
g0
(g1962
g2
Ntp2740
Rp2741
(dp2742
g1966
(lp2743
g1968
asg1969
Nsg1970
g1971
sg1972
g1971
sg1973
F8.0
sg1974
I400
sg1975
g1971
sbsg42
Nsg17
g18
sg1978
Nsg20
I01
sg23
Nsg75
I1
sg76
I0
sg24
Nsg25
Nsg11
Nsg28
I00
sg29
I00
sg30
(dp2744
sg1982
Nsg32
I00
sg1878
Nsg88
Nsg1877
Nsg1986
Nsg33
Nsg96
Nsg86
I01
sg1989
Vbottom
p2745
sg1991
VPSP
p2746
sg1993
Nsg103
g0
(g104
g105
((lp2747
(lp2748
tp2749
tp2750
Rp2751
sg111
I0
sg1999
Nsg112
I01
sg114
Nsg2000
F1.2
sg115
g396
sg2002
I00
sg2003
I00
sg43
Nsg2004
g2654
sg2006
g2727
sg34
Nsbsg96
NsS'_loc'
p2752
I0
sg86
I01
sg103
g0
(g104
g105
((lp2753
(lp2754
tp2755
tp2756
Rp2757
sS'_base_pad'
p2758
F3.5
sS'tick1line'
p2759
g0
(cmatplotlib.lines
Line2D
p2760
g2
Ntp2761
Rp2762
(dp2763
g6
g7
sS'_dashcapstyle'
p2764
Vbutt
p2765
sg2201
Nsg20
I01
sS'_x_filled'
p2766
NsS'ind_offset'
p2767
I0
sg75
Nsg76
Nsg24
Nsg11
Nsg29
I00
sg30
(dp2768
sg32
I00
sg1878
NsS'_markeredgewidth'
p2769
F0.8
sS'_dashSeq'
p2770
NsS'_markerfacecoloralt'
p2771
Vnone
p2772
sS'_markeredgecolor'
p2773
Vauto
p2774
sg96
Nsg86
I01
sS'_xorig'
p2775
(I0
tp2776
sg111
I0
sg112
I01
sS'_invalidy'
p2777
I01
sS'_invalidx'
p2778
I01
sg115
g355
sS'_us_dashSeq'
p2779
Nsg2258
F2.01
sg2004
g2654
sS'pickradius'
p2780
I5
sg9
g4
sS'verticalOffset'
p2781
Nsg10
Nsg42
Nsg17
g18
sS'_solidjoinstyle'
p2782
Vround
p2783
sg23
Nsg25
Nsg28
I00
sS'_markevery'
p2784
Nsg34
NsS'_transformed_path'
p2785
NsS'_marker'
p2786
g0
(cmatplotlib.markers
MarkerStyle
p2787
g2
Ntp2788
Rp2789
(dp2790
g2786
I3
sS'_alt_path'
p2791
NsS'_snap_threshold'
p2792
F1.0
sg115
g0
(g157
g2
Ntp2793
Rp2794
(dp2795
g49
I2
sg50
Nsg120
g132
(g133
(I0
tp2796
g135
tp2797
Rp2798
(I1
(I3
I3
tp2799
g59
I00
S'\x00\x00\x00\x00\x00\x00\xf0?\x00\x00\x00\x00\x00\x00\x00\x00\x00\x00\x00\x00\x00\x00\x00\x00\x00\x00\x00\x00\x00\x00\x00\x00\x00\x00\x00\x00\x00\x00\xf0\xbf\x00\x00\x00\x00\x00\x00\x00\x00\x00\x00\x00\x00\x00\x00\x00\x00\x00\x00\x00\x00\x00\x00\x00\x00\x00\x00\x00\x00\x00\x00\xf0?'
p2800
tp2801
bsg51
g7
sg52
(dp2802
sbsS'_filled'
p2803
I00
sS'_fillstyle'
p2804
Vfull
p2805
sS'_alt_transform'
p2806
Nsg1875
Vbutt
p2807
sg99
Vround
p2808
sS'_path'
p2809
g0
(g2219
g2
Ntp2810
Rp2811
(dp2812
g2223
I00
sg2224
Nsg2225
g132
(g133
(I0
tp2813
g135
tp2814
Rp2815
(I1
(I2
I2
tp2816
g59
I00
S'\x00\x00\x00\x00\x00\x00\x00\x80\x00\x00\x00\x00\x00\x00\x00\x00\x00\x00\x00\x00\x00\x00\x00\x80\x00\x00\x00\x00\x00\x00\xf0?'
p2817
tp2818
bsg2232
I00
sg2233
F0.1111111111111111
sg2234
I1
sg2235
I00
sbsbsS'_markerfacecolor'
p2819
Vauto
p2820
sg88
Nsg33
Nsg92
I01
sS'_xy'
p2821
Nsg101
VNone
p2822
sg103
g0
(g104
g105
((lp2823
(lp2824
tp2825
tp2826
Rp2827
sS'_subslice'
p2828
I00
sS'_drawstyle'
p2829
Vdefault
p2830
sS'_solidcapstyle'
p2831
g2783
sS'_us_dashOffset'
p2832
Nsg114
NsS'_dashjoinstyle'
p2833
g2783
sS'_markersize'
p2834
F0.0
sg8
I01
sS'_dashOffset'
p2835
Nsg43
Nsg1877
NsS'_yorig'
p2836
(I0
tp2837
sg87
F0.5
sg2809
Nsbsg112
I00
sS'gridline'
p2838
g0
(g2760
g2
Ntp2839
Rp2840
(dp2841
g6
g7
sg8
I01
sg2831
g2783
sg9
g4
sg2764
g2765
sg2201
Nsg10
Nsg42
Nsg17
g18
sg2782
g2783
sg20
I01
sg2766
Nsg23
Nsg75
g132
(g133
(I0
tp2842
g135
tp2843
Rp2844
(I1
(I2
tp2845
g59
I00
S'\x00\x00\x00\x00\x00\x00\x00\x00\x00\x00\x00\x00\x00\x00\xf0?'
p2846
tp2847
bsg76
g132
(g133
(I0
tp2848
g135
tp2849
Rp2850
(I1
(I2
tp2851
g59
I00
S'\x00\x00\x00\x00\x00\x00\x00\x00\x00\x00\x00\x00\x00\x00\x00\x00'
p2852
tp2853
bsg24
Nsg25
Nsg11
Nsg2775
(F0.0
F0.0
tp2854
sg28
I00
sg2784
Nsg29
I00
sg30
(dp2855
sg2781
Nsg32
I00
sg2828
I00
sg1878
Nsg2785
Nsg2769
F1.0
sg2819
g2820
sg2770
Nsg2004
V.8
p2856
sg2786
g0
(g2787
g2
Ntp2857
Rp2858
(dp2859
g2786
VNone
p2860
sg2791
Nsg2792
Nsg115
g0
(g45
g2
Ntp2861
Rp2862
(dp2863
g49
I1
sg50
Nsg51
g7
sg52
(dp2864
sbsg2803
I00
sg2804
g2805
sg2806
Nsg1875
g2807
sg99
g2808
sg2809
g0
(g2219
g2
Ntp2865
Rp2866
(dp2867
g2223
I00
sg2224
Nsg2225
g132
(g133
(I0
tp2868
g135
tp2869
Rp2870
(I1
(I0
I2
tp2871
g59
I00
g2252
tp2872
bsg2232
I00
sg2233
F0.1111111111111111
sg2234
I1
sg2235
I00
sbsbsg33
Nsg2771
g2772
sg92
I01
sg2773
g2774
sg96
Nsg2834
F0.0
sg86
I01
sg2821
g132
(g133
(I0
tp2873
g135
tp2874
Rp2875
(I1
(I2
I2
tp2876
g59
I00
S'\x00\x00\x00\x00\x00\x00\x00\x00\x00\x00\x00\x00\x00\x00\x00\x00\x00\x00\x00\x00\x00\x00\x00\x00\x00\x00\x00\x00\x00\x00\xf0?'
p2877
tp2878
bsg101
V-
p2879
sg103
g0
(g104
g105
((lp2880
(lp2881
tp2882
tp2883
Rp2884
sg111
I0
sg2829
g2830
sg2767
I0
sg2832
Nsg2780
I5
sg112
I01
sg114
F1.0
sg2833
g2783
sg2778
I00
sg115
g355
sg2835
Nsg2779
Nsg2777
I00
sg43
Nsg1877
Nsg2836
(I0
F1.0
tp2885
sg88
g1043
sg87
F0.8
sg34
Nsg2809
g0
(g2219
g2
Ntp2886
Rp2887
(dp2888
g2223
I00
sg2224
Nsg2225
g2875
sg2232
I00
sg2233
F0.1111111111111111
sg2234
I180
sg2235
I00
sbsbsg114
Nsg33
NsS'tick2line'
p2889
g0
(g2760
g2
Ntp2890
Rp2891
(dp2892
g6
g7
sg2764
g2765
sg2201
Nsg20
I01
sg2766
Nsg2767
I0
sg75
Nsg76
Nsg24
Nsg11
Nsg29
I00
sg30
(dp2893
sg32
I00
sg1878
Nsg2769
F0.8
sg2770
Nsg2771
g2772
sg2773
g2774
sg96
Nsg86
I01
sg2775
(I0
tp2894
sg111
I0
sg112
I01
sg2777
I01
sg2778
I01
sg115
g355
sg2779
Nsg2258
F2.01
sg2004
g2654
sg2780
I5
sg9
g4
sg2781
Nsg10
Nsg42
Nsg17
g18
sg2782
g2783
sg23
Nsg25
Nsg28
I00
sg2784
Nsg34
Nsg2785
Nsg2786
g0
(g2787
g2
Ntp2895
Rp2896
(dp2897
g2786
I2
sg2791
Nsg2792
F1.0
sg115
g0
(g157
g2
Ntp2898
Rp2899
(dp2900
g49
I2
sg50
Nsg120
g132
(g133
(I0
tp2901
g135
tp2902
Rp2903
(I1
(I3
I3
tp2904
g59
I00
S'\x00\x00\x00\x00\x00\x00\xf0?\x00\x00\x00\x00\x00\x00\x00\x00\x00\x00\x00\x00\x00\x00\x00\x00\x00\x00\x00\x00\x00\x00\x00\x00\x00\x00\x00\x00\x00\x00\xf0?\x00\x00\x00\x00\x00\x00\x00\x00\x00\x00\x00\x00\x00\x00\x00\x00\x00\x00\x00\x00\x00\x00\x00\x00\x00\x00\x00\x00\x00\x00\xf0?'
p2905
tp2906
bsg51
g7
sg52
(dp2907
sbsg2803
I00
sg2804
g2805
sg2806
Nsg1875
g2807
sg99
g2808
sg2809
g2811
sbsg2819
g2820
sg88
Nsg33
Nsg92
I01
sg2821
Nsg101
VNone
p2908
sg103
g0
(g104
g105
((lp2909
(lp2910
tp2911
tp2912
Rp2913
sg2828
I00
sg2829
g2830
sg2831
g2783
sg2832
Nsg114
Nsg2833
g2783
sg2834
F0.0
sg8
I01
sg2835
Nsg43
Nsg1877
Nsg2836
(I1
tp2914
sg87
F0.5
sg2809
Nsbsg115
NsS'_labelsize'
p2915
F8.0
sS'_name'
p2916
Vxtick
p2917
sg43
Nsg2004
g2654
sg34
Nsbag0
(g2702
g2
Ntp2918
Rp2919
(dp2920
g6
g7
sg40
F0.8
sg9
g4
sg2706
I01
sg8
I01
sg10
Nsg111
I0
sg42
Nsg2707
F3.5
sg2708
g2654
sg2709
I00
sg1973
F0.0
sg17
g18
sg2710
g2711
sg2656
g0
(g2168
g2
Ntp2921
Rp2922
(dp2923
g6
g7
sg8
I01
sg9
g4
sg10
Nsg1961
g0
(g1962
g2
Ntp2924
Rp2925
(dp2926
g1966
g2718
sg1969
Nsg1970
g1971
sg1972
g1971
sg1973
F8.0
sg1974
I400
sg1975
g1971
sbsg42
Nsg17
g18
sg1978
Nsg20
I01
sg23
Nsg75
I0
sg76
I0
sg24
Nsg25
Nsg11
Nsg28
I00
sg29
I00
sg30
(dp2927
sg1982
Nsg32
I00
sg1878
Nsg88
Nsg1877
Nsg1986
Nsg33
Nsg96
Nsg86
I01
sg1989
g2720
sg1991
VAP
p2928
sg1993
Nsg103
g0
(g104
g105
((lp2929
(lp2930
tp2931
tp2932
Rp2933
sg111
I0
sg1999
Nsg112
I01
sg114
Nsg2000
F1.2
sg115
g387
sg2002
I00
sg2003
I00
sg43
Nsg2004
g2654
sg2006
g2727
sg34
Nsbsg20
I01
sg23
Nsg2728
I00
sg24
Nsg25
Nsg11
Nsg2729
I00
sg28
I00
sg29
I00
sg30
(dp2934
sg2731
(I3
I2
tp2935
sg32
I00
sg2733
F2.01
sg1878
g1937
sg2734
I01
sg88
g738
sg1877
Nsg2735
g2922
sg2736
g0
(g2168
g2
Ntp2936
Rp2937
(dp2938
g6
g7
sg8
I01
sg9
g4
sg10
Nsg1961
g0
(g1962
g2
Ntp2939
Rp2940
(dp2941
g1966
g2743
sg1969
Nsg1970
g1971
sg1972
g1971
sg1973
F8.0
sg1974
I400
sg1975
g1971
sbsg42
Nsg17
g18
sg1978
Nsg20
I01
sg23
Nsg75
I1
sg76
I0
sg24
Nsg25
Nsg11
Nsg28
I00
sg29
I00
sg30
(dp2942
sg1982
Nsg32
I00
sg1878
Nsg88
Nsg1877
Nsg1986
Nsg33
Nsg96
Nsg86
I01
sg1989
g2745
sg1991
VAP
p2943
sg1993
Nsg103
g0
(g104
g105
((lp2944
(lp2945
tp2946
tp2947
Rp2948
sg111
I0
sg1999
Nsg112
I01
sg114
Nsg2000
F1.2
sg115
g396
sg2002
I00
sg2003
I00
sg43
Nsg2004
g2654
sg2006
g2727
sg34
Nsbsg96
Nsg2752
I0
sg86
I01
sg103
g0
(g104
g105
((lp2949
(lp2950
tp2951
tp2952
Rp2953
sg2758
F3.5
sg2759
g0
(g2760
g2
Ntp2954
Rp2955
(dp2956
g6
g7
sg2764
g2765
sg2201
Nsg20
I01
sg2766
Nsg2767
I0
sg75
Nsg76
Nsg24
Nsg11
Nsg29
I00
sg30
(dp2957
sg32
I00
sg1878
Nsg2769
F0.8
sg2770
Nsg2771
g2772
sg2773
g2774
sg96
Nsg86
I01
sg2775
(I0
tp2958
sg111
I0
sg112
I01
sg2777
I01
sg2778
I01
sg115
g355
sg2779
Nsg2258
F2.01
sg2004
g2654
sg2780
I5
sg9
g4
sg2781
Nsg10
Nsg42
Nsg17
g18
sg2782
g2783
sg23
Nsg25
Nsg28
I00
sg2784
Nsg34
Nsg2785
Nsg2786
g0
(g2787
g2
Ntp2959
Rp2960
(dp2961
g2786
I3
sg2791
Nsg2792
F1.0
sg115
g0
(g157
g2
Ntp2962
Rp2963
(dp2964
g49
I2
sg50
Nsg120
g132
(g133
(I0
tp2965
g135
tp2966
Rp2967
(I1
(I3
I3
tp2968
g59
I00
S'\x00\x00\x00\x00\x00\x00\xf0?\x00\x00\x00\x00\x00\x00\x00\x00\x00\x00\x00\x00\x00\x00\x00\x00\x00\x00\x00\x00\x00\x00\x00\x00\x00\x00\x00\x00\x00\x00\xf0\xbf\x00\x00\x00\x00\x00\x00\x00\x00\x00\x00\x00\x00\x00\x00\x00\x00\x00\x00\x00\x00\x00\x00\x00\x00\x00\x00\x00\x00\x00\x00\xf0?'
p2969
tp2970
bsg51
g7
sg52
(dp2971
sbsg2803
I00
sg2804
g2805
sg2806
Nsg1875
g2807
sg99
g2808
sg2809
g2811
sbsg2819
g2820
sg88
Nsg33
Nsg92
I01
sg2821
Nsg101
g2822
sg103
g0
(g104
g105
((lp2972
(lp2973
tp2974
tp2975
Rp2976
sg2828
I00
sg2829
g2830
sg2831
g2783
sg2832
Nsg114
Nsg2833
g2783
sg2834
F0.0
sg8
I01
sg2835
Nsg43
Nsg1877
Nsg2836
g2837
sg87
F0.5
sg2809
Nsbsg112
I00
sg2838
g0
(g2760
g2
Ntp2977
Rp2978
(dp2979
g6
g7
sg8
I01
sg2831
g2783
sg9
g4
sg2764
g2765
sg2201
Nsg10
Nsg42
Nsg17
g18
sg2782
g2783
sg20
I01
sg2766
Nsg23
Nsg75
g132
(g133
(I0
tp2980
g135
tp2981
Rp2982
(I1
(I2
tp2983
g59
I00
S'\x00\x00\x00\x00\x00\x00\x00\x00\x00\x00\x00\x00\x00\x00\xf0?'
p2984
tp2985
bsg76
g132
(g133
(I0
tp2986
g135
tp2987
Rp2988
(I1
(I2
tp2989
g59
I00
S'\x00\x00\x00\x00\x00\x00\x00\x00\x00\x00\x00\x00\x00\x00\x00\x00'
p2990
tp2991
bsg24
Nsg25
Nsg11
Nsg2775
g2854
sg28
I00
sg2784
Nsg29
I00
sg30
(dp2992
sg2781
Nsg32
I00
sg2828
I00
sg1878
Nsg2785
Nsg2769
F1.0
sg2819
g2820
sg2770
Nsg2004
g2856
sg2786
g0
(g2787
g2
Ntp2993
Rp2994
(dp2995
g2786
g2860
sg2791
Nsg2792
Nsg115
g0
(g45
g2
Ntp2996
Rp2997
(dp2998
g49
I1
sg50
Nsg51
g7
sg52
(dp2999
sbsg2803
I00
sg2804
g2805
sg2806
Nsg1875
g2807
sg99
g2808
sg2809
g0
(g2219
g2
Ntp3000
Rp3001
(dp3002
g2223
I00
sg2224
Nsg2225
g132
(g133
(I0
tp3003
g135
tp3004
Rp3005
(I1
(I0
I2
tp3006
g59
I00
g2252
tp3007
bsg2232
I00
sg2233
F0.1111111111111111
sg2234
I1
sg2235
I00
sbsbsg33
Nsg2771
g2772
sg92
I01
sg2773
g2774
sg96
Nsg2834
F0.0
sg86
I01
sg2821
g132
(g133
(I0
tp3008
g135
tp3009
Rp3010
(I1
(I2
I2
tp3011
g59
I00
S'\x00\x00\x00\x00\x00\x00\x00\x00\x00\x00\x00\x00\x00\x00\x00\x00\x00\x00\x00\x00\x00\x00\x00\x00\x00\x00\x00\x00\x00\x00\xf0?'
p3012
tp3013
bsg101
g2879
sg103
g0
(g104
g105
((lp3014
(lp3015
tp3016
tp3017
Rp3018
sg111
I0
sg2829
g2830
sg2767
I0
sg2832
Nsg2780
I5
sg112
I01
sg114
F1.0
sg2833
g2783
sg2778
I00
sg115
g355
sg2835
Nsg2779
Nsg2777
I00
sg43
Nsg1877
Nsg2836
g2885
sg88
g1043
sg87
F0.8
sg34
Nsg2809
g0
(g2219
g2
Ntp3019
Rp3020
(dp3021
g2223
I00
sg2224
Nsg2225
g3010
sg2232
I00
sg2233
F0.1111111111111111
sg2234
I180
sg2235
I00
sbsbsg114
Nsg33
Nsg2889
g0
(g2760
g2
Ntp3022
Rp3023
(dp3024
g6
g7
sg2764
g2765
sg2201
Nsg20
I01
sg2766
Nsg2767
I0
sg75
Nsg76
Nsg24
Nsg11
Nsg29
I00
sg30
(dp3025
sg32
I00
sg1878
Nsg2769
F0.8
sg2770
Nsg2771
g2772
sg2773
g2774
sg96
Nsg86
I01
sg2775
(I0
tp3026
sg111
I0
sg112
I01
sg2777
I01
sg2778
I01
sg115
g355
sg2779
Nsg2258
F2.01
sg2004
g2654
sg2780
I5
sg9
g4
sg2781
Nsg10
Nsg42
Nsg17
g18
sg2782
g2783
sg23
Nsg25
Nsg28
I00
sg2784
Nsg34
Nsg2785
Nsg2786
g0
(g2787
g2
Ntp3027
Rp3028
(dp3029
g2786
I2
sg2791
Nsg2792
F1.0
sg115
g0
(g157
g2
Ntp3030
Rp3031
(dp3032
g49
I2
sg50
Nsg120
g132
(g133
(I0
tp3033
g135
tp3034
Rp3035
(I1
(I3
I3
tp3036
g59
I00
S'\x00\x00\x00\x00\x00\x00\xf0?\x00\x00\x00\x00\x00\x00\x00\x00\x00\x00\x00\x00\x00\x00\x00\x00\x00\x00\x00\x00\x00\x00\x00\x00\x00\x00\x00\x00\x00\x00\xf0?\x00\x00\x00\x00\x00\x00\x00\x00\x00\x00\x00\x00\x00\x00\x00\x00\x00\x00\x00\x00\x00\x00\x00\x00\x00\x00\x00\x00\x00\x00\xf0?'
p3037
tp3038
bsg51
g7
sg52
(dp3039
sbsg2803
I00
sg2804
g2805
sg2806
Nsg1875
g2807
sg99
g2808
sg2809
g2811
sbsg2819
g2820
sg88
Nsg33
Nsg92
I01
sg2821
Nsg101
g2908
sg103
g0
(g104
g105
((lp3040
(lp3041
tp3042
tp3043
Rp3044
sg2828
I00
sg2829
g2830
sg2831
g2783
sg2832
Nsg114
Nsg2833
g2783
sg2834
F0.0
sg8
I01
sg2835
Nsg43
Nsg1877
Nsg2836
g2914
sg87
F0.5
sg2809
Nsbsg115
Nsg2915
F8.0
sg2916
g2917
sg43
Nsg2004
g2654
sg34
NsbasS'isDefault_majloc'
p3045
I00
sg1885
g0
(g1886
g2
Ntp3046
Rp3047
I01
bsg96
Nsg86
I01
sS'_autolabelpos'
p3048
I01
sg103
g0
(g104
g105
((lp3049
(lp3050
tp3051
tp3052
Rp3053
sg111
I0
sS'_lastNumMajorTicks'
p3054
I2
sS'converter'
p3055
Nsg112
I00
sg114
NsS'offset_text_position'
p3056
Vbottom
p3057
sg115
NsS'label_position'
p3058
Vbottom
p3059
sg43
Nsg1877
Nsg2780
I15
sS'minorTicks'
p3060
(lp3061
g0
(g2702
g2
Ntp3062
Rp3063
(dp3064
g6
g7
sg40
F0.6
sg9
g4
sg2706
I01
sg8
I01
sg10
Nsg111
I0
sg42
Nsg2707
F3.4
sg2708
g2654
sg2709
I00
sg1973
F0.0
sg17
g18
sg2710
g2711
sg2656
g0
(g2168
g2
Ntp3065
Rp3066
(dp3067
g6
g7
sg8
I01
sg9
g4
sg10
Nsg1961
g0
(g1962
g2
Ntp3068
Rp3069
(dp3070
g1966
(lp3071
g1968
asg1969
Nsg1970
g1971
sg1972
g1971
sg1973
F8.0
sg1974
I400
sg1975
g1971
sbsg42
Nsg17
g18
sg1978
Nsg20
I01
sg23
Nsg75
I0
sg76
I0
sg24
Nsg25
Nsg11
Nsg28
I00
sg29
I00
sg30
(dp3072
sg1982
Nsg32
I00
sg1878
Nsg88
Nsg1877
Nsg1986
Nsg33
Nsg96
Nsg86
I01
sg1989
g2720
sg1991
V
p3073
sg1993
Nsg103
g0
(g104
g105
((lp3074
(lp3075
tp3076
tp3077
Rp3078
sg111
I0
sg1999
Nsg112
I01
sg114
Nsg2000
F1.2
sg115
g378
sg2002
I00
sg2003
I00
sg43
Nsg2004
g2654
sg2006
g2727
sg34
Nsbsg20
I01
sg23
Nsg2728
I00
sg24
Nsg25
Nsg11
Nsg2729
I00
sg28
I00
sg29
I00
sg30
(dp3079
sg2731
(I3
I2
tp3080
sg32
I00
sg2733
I2
sg1878
g1937
sg2734
I01
sg88
g1323
sg1877
Nsg2735
g3066
sg2736
g0
(g2168
g2
Ntp3081
Rp3082
(dp3083
g6
g7
sg8
I01
sg9
g4
sg10
Nsg1961
g0
(g1962
g2
Ntp3084
Rp3085
(dp3086
g1966
(lp3087
g1968
asg1969
Nsg1970
g1971
sg1972
g1971
sg1973
F8.0
sg1974
I400
sg1975
g1971
sbsg42
Nsg17
g18
sg1978
Nsg20
I01
sg23
Nsg75
I1
sg76
I0
sg24
Nsg25
Nsg11
Nsg28
I00
sg29
I00
sg30
(dp3088
sg1982
Nsg32
I00
sg1878
Nsg88
Nsg1877
Nsg1986
Nsg33
Nsg96
Nsg86
I01
sg1989
g2745
sg1991
V
p3089
sg1993
Nsg103
g0
(g104
g105
((lp3090
(lp3091
tp3092
tp3093
Rp3094
sg111
I0
sg1999
Nsg112
I01
sg114
Nsg2000
F1.2
sg115
g369
sg2002
I00
sg2003
I00
sg43
Nsg2004
g2654
sg2006
g2727
sg34
Nsbsg96
Nsg2752
I0
sg86
I01
sg103
g0
(g104
g105
((lp3095
(lp3096
tp3097
tp3098
Rp3099
sg2758
F3.4
sg2759
g0
(g2760
g2
Ntp3100
Rp3101
(dp3102
g6
g7
sg2764
g2765
sg2201
Nsg20
I01
sg2766
Nsg2767
I0
sg75
Nsg76
Nsg24
Nsg11
Nsg29
I00
sg30
(dp3103
sg32
I00
sg1878
Nsg2769
F0.6
sg2770
Nsg2771
g2772
sg2773
g2774
sg96
Nsg86
I01
sg2775
(I0
tp3104
sg111
I0
sg112
I01
sg2777
I01
sg2778
I01
sg115
g355
sg2779
Nsg2258
I2
sg2004
g2654
sg2780
I5
sg9
g4
sg2781
Nsg10
Nsg42
Nsg17
g18
sg2782
g2783
sg23
Nsg25
Nsg28
I00
sg2784
Nsg34
Nsg2785
Nsg2786
g0
(g2787
g2
Ntp3105
Rp3106
(dp3107
g2786
I3
sg2791
Nsg2792
F1.0
sg115
g0
(g157
g2
Ntp3108
Rp3109
(dp3110
g49
I2
sg50
Nsg120
g132
(g133
(I0
tp3111
g135
tp3112
Rp3113
(I1
(I3
I3
tp3114
g59
I00
S'\x00\x00\x00\x00\x00\x00\xf0?\x00\x00\x00\x00\x00\x00\x00\x00\x00\x00\x00\x00\x00\x00\x00\x00\x00\x00\x00\x00\x00\x00\x00\x00\x00\x00\x00\x00\x00\x00\xf0\xbf\x00\x00\x00\x00\x00\x00\x00\x00\x00\x00\x00\x00\x00\x00\x00\x00\x00\x00\x00\x00\x00\x00\x00\x00\x00\x00\x00\x00\x00\x00\xf0?'
p3115
tp3116
bsg51
g7
sg52
(dp3117
sbsg2803
I00
sg2804
g2805
sg2806
Nsg1875
g2807
sg99
g2808
sg2809
g2811
sbsg2819
g2820
sg88
Nsg33
Nsg92
I01
sg2821
Nsg101
g2822
sg103
g0
(g104
g105
((lp3118
(lp3119
tp3120
tp3121
Rp3122
sg2828
I00
sg2829
g2830
sg2831
g2783
sg2832
Nsg114
Nsg2833
g2783
sg2834
F0.0
sg8
I01
sg2835
Nsg43
Nsg1877
Nsg2836
g2837
sg87
F0.5
sg2809
Nsbsg112
I00
sg2838
g0
(g2760
g2
Ntp3123
Rp3124
(dp3125
g6
g7
sg8
I01
sg2831
g2783
sg9
g4
sg2764
g2765
sg2201
Nsg10
Nsg42
Nsg17
g18
sg2782
g2783
sg20
I01
sg2766
Nsg23
Nsg75
g132
(g133
(I0
tp3126
g135
tp3127
Rp3128
(I1
(I2
tp3129
g59
I00
S'\x00\x00\x00\x00\x00\x00\x00\x00\x00\x00\x00\x00\x00\x00\xf0?'
p3130
tp3131
bsg76
g132
(g133
(I0
tp3132
g135
tp3133
Rp3134
(I1
(I2
tp3135
g59
I00
S'\x00\x00\x00\x00\x00\x00\x00\x00\x00\x00\x00\x00\x00\x00\x00\x00'
p3136
tp3137
bsg24
Nsg25
Nsg11
Nsg2775
g2854
sg28
I00
sg2784
Nsg29
I00
sg30
(dp3138
sg2781
Nsg32
I00
sg2828
I00
sg1878
Nsg2785
Nsg2769
F1.0
sg2819
g2820
sg2770
Nsg2004
g2856
sg2786
g0
(g2787
g2
Ntp3139
Rp3140
(dp3141
g2786
g2860
sg2791
Nsg2792
Nsg115
g0
(g45
g2
Ntp3142
Rp3143
(dp3144
g49
I1
sg50
Nsg51
g7
sg52
(dp3145
sbsg2803
I00
sg2804
g2805
sg2806
Nsg1875
g2807
sg99
g2808
sg2809
g0
(g2219
g2
Ntp3146
Rp3147
(dp3148
g2223
I00
sg2224
Nsg2225
g132
(g133
(I0
tp3149
g135
tp3150
Rp3151
(I1
(I0
I2
tp3152
g59
I00
g2252
tp3153
bsg2232
I00
sg2233
F0.1111111111111111
sg2234
I1
sg2235
I00
sbsbsg33
Nsg2771
g2772
sg92
I01
sg2773
g2774
sg96
Nsg2834
F0.0
sg86
I01
sg2821
g132
(g133
(I0
tp3154
g135
tp3155
Rp3156
(I1
(I2
I2
tp3157
g59
I00
S'\x00\x00\x00\x00\x00\x00\x00\x00\x00\x00\x00\x00\x00\x00\x00\x00\x00\x00\x00\x00\x00\x00\x00\x00\x00\x00\x00\x00\x00\x00\xf0?'
p3158
tp3159
bsg101
g2879
sg103
g0
(g104
g105
((lp3160
(lp3161
tp3162
tp3163
Rp3164
sg111
I0
sg2829
g2830
sg2767
I0
sg2832
Nsg2780
I5
sg112
I01
sg114
F1.0
sg2833
g2783
sg2778
I00
sg115
g355
sg2835
Nsg2779
Nsg2777
I00
sg43
Nsg1877
Nsg2836
g2885
sg88
g528
sg87
F0.8
sg34
Nsg2809
g0
(g2219
g2
Ntp3165
Rp3166
(dp3167
g2223
I00
sg2224
Nsg2225
g3156
sg2232
I00
sg2233
F0.1111111111111111
sg2234
I180
sg2235
I00
sbsbsg114
Nsg33
Nsg2889
g0
(g2760
g2
Ntp3168
Rp3169
(dp3170
g6
g7
sg2764
g2765
sg2201
Nsg20
I01
sg2766
Nsg2767
I0
sg75
Nsg76
Nsg24
Nsg11
Nsg29
I00
sg30
(dp3171
sg32
I00
sg1878
Nsg2769
F0.6
sg2770
Nsg2771
g2772
sg2773
g2774
sg96
Nsg86
I01
sg2775
(I0
tp3172
sg111
I0
sg112
I01
sg2777
I01
sg2778
I01
sg115
g355
sg2779
Nsg2258
I2
sg2004
g2654
sg2780
I5
sg9
g4
sg2781
Nsg10
Nsg42
Nsg17
g18
sg2782
g2783
sg23
Nsg25
Nsg28
I00
sg2784
Nsg34
Nsg2785
Nsg2786
g0
(g2787
g2
Ntp3173
Rp3174
(dp3175
g2786
I2
sg2791
Nsg2792
F1.0
sg115
g0
(g157
g2
Ntp3176
Rp3177
(dp3178
g49
I2
sg50
Nsg120
g132
(g133
(I0
tp3179
g135
tp3180
Rp3181
(I1
(I3
I3
tp3182
g59
I00
S'\x00\x00\x00\x00\x00\x00\xf0?\x00\x00\x00\x00\x00\x00\x00\x00\x00\x00\x00\x00\x00\x00\x00\x00\x00\x00\x00\x00\x00\x00\x00\x00\x00\x00\x00\x00\x00\x00\xf0?\x00\x00\x00\x00\x00\x00\x00\x00\x00\x00\x00\x00\x00\x00\x00\x00\x00\x00\x00\x00\x00\x00\x00\x00\x00\x00\x00\x00\x00\x00\xf0?'
p3183
tp3184
bsg51
g7
sg52
(dp3185
sbsg2803
I00
sg2804
g2805
sg2806
Nsg1875
g2807
sg99
g2808
sg2809
g2811
sbsg2819
g2820
sg88
Nsg33
Nsg92
I01
sg2821
Nsg101
g2908
sg103
g0
(g104
g105
((lp3186
(lp3187
tp3188
tp3189
Rp3190
sg2828
I00
sg2829
g2830
sg2831
g2783
sg2832
Nsg114
Nsg2833
g2783
sg2834
F0.0
sg8
I01
sg2835
Nsg43
Nsg1877
Nsg2836
g2914
sg87
F0.5
sg2809
Nsbsg115
Nsg2915
F8.0
sg2916
g2917
sg43
Nsg2004
g2654
sg34
Nsbag0
(g2702
g2
Ntp3191
Rp3192
(dp3193
g6
g7
sg40
F0.6
sg9
g4
sg2706
I01
sg8
I01
sg10
Nsg111
I0
sg42
Nsg2707
F3.4
sg2708
g2654
sg2709
I00
sg1973
F0.0
sg17
g18
sg2710
g2711
sg2656
g0
(g2168
g2
Ntp3194
Rp3195
(dp3196
g6
g7
sg8
I01
sg9
g4
sg10
Nsg1961
g0
(g1962
g2
Ntp3197
Rp3198
(dp3199
g1966
(lp3200
g1968
asg1969
Nsg1970
g1971
sg1972
g1971
sg1973
F8.0
sg1974
I400
sg1975
g1971
sbsg42
Nsg17
g18
sg1978
Nsg20
I01
sg23
Nsg75
I0
sg76
I0
sg24
Nsg25
Nsg11
Nsg28
I00
sg29
I00
sg30
(dp3201
sg1982
Nsg32
I00
sg1878
Nsg88
Nsg1877
Nsg1986
Nsg33
Nsg96
Nsg86
I01
sg1989
g2720
sg1991
V
p3202
sg1993
Nsg103
g0
(g104
g105
((lp3203
(lp3204
tp3205
tp3206
Rp3207
sg111
I0
sg1999
Nsg112
I01
sg114
Nsg2000
F1.2
sg115
g405
sg2002
I00
sg2003
I00
sg43
Nsg2004
g2654
sg2006
g2727
sg34
Nsbsg20
I01
sg23
Nsg2728
I00
sg24
Nsg25
Nsg11
Nsg2729
I00
sg28
I00
sg29
I00
sg30
(dp3208
sg2731
(I3
I2
tp3209
sg32
I00
sg2733
I2
sg1878
g1937
sg2734
I01
sg88
g1393
sg1877
Nsg2735
g3195
sg2736
g0
(g2168
g2
Ntp3210
Rp3211
(dp3212
g6
g7
sg8
I01
sg9
g4
sg10
Nsg1961
g0
(g1962
g2
Ntp3213
Rp3214
(dp3215
g1966
(lp3216
g1968
asg1969
Nsg1970
g1971
sg1972
g1971
sg1973
F8.0
sg1974
I400
sg1975
g1971
sbsg42
Nsg17
g18
sg1978
Nsg20
I01
sg23
Nsg75
I1
sg76
I0
sg24
Nsg25
Nsg11
Nsg28
I00
sg29
I00
sg30
(dp3217
sg1982
Nsg32
I00
sg1878
Nsg88
Nsg1877
Nsg1986
Nsg33
Nsg96
Nsg86
I01
sg1989
g2745
sg1991
V
p3218
sg1993
Nsg103
g0
(g104
g105
((lp3219
(lp3220
tp3221
tp3222
Rp3223
sg111
I0
sg1999
Nsg112
I01
sg114
Nsg2000
F1.2
sg115
g360
sg2002
I00
sg2003
I00
sg43
Nsg2004
g2654
sg2006
g2727
sg34
Nsbsg96
Nsg2752
I0
sg86
I01
sg103
g0
(g104
g105
((lp3224
(lp3225
tp3226
tp3227
Rp3228
sg2758
F3.4
sg2759
g0
(g2760
g2
Ntp3229
Rp3230
(dp3231
g6
g7
sg2764
g2765
sg2201
Nsg20
I01
sg2766
Nsg2767
I0
sg75
Nsg76
Nsg24
Nsg11
Nsg29
I00
sg30
(dp3232
sg32
I00
sg1878
Nsg2769
F0.6
sg2770
Nsg2771
g2772
sg2773
g2774
sg96
Nsg86
I01
sg2775
(I0
tp3233
sg111
I0
sg112
I01
sg2777
I01
sg2778
I01
sg115
g355
sg2779
Nsg2258
I2
sg2004
g2654
sg2780
I5
sg9
g4
sg2781
Nsg10
Nsg42
Nsg17
g18
sg2782
g2783
sg23
Nsg25
Nsg28
I00
sg2784
Nsg34
Nsg2785
Nsg2786
g0
(g2787
g2
Ntp3234
Rp3235
(dp3236
g2786
I3
sg2791
Nsg2792
F1.0
sg115
g0
(g157
g2
Ntp3237
Rp3238
(dp3239
g49
I2
sg50
Nsg120
g132
(g133
(I0
tp3240
g135
tp3241
Rp3242
(I1
(I3
I3
tp3243
g59
I00
S'\x00\x00\x00\x00\x00\x00\xf0?\x00\x00\x00\x00\x00\x00\x00\x00\x00\x00\x00\x00\x00\x00\x00\x00\x00\x00\x00\x00\x00\x00\x00\x00\x00\x00\x00\x00\x00\x00\xf0\xbf\x00\x00\x00\x00\x00\x00\x00\x00\x00\x00\x00\x00\x00\x00\x00\x00\x00\x00\x00\x00\x00\x00\x00\x00\x00\x00\x00\x00\x00\x00\xf0?'
p3244
tp3245
bsg51
g7
sg52
(dp3246
sbsg2803
I00
sg2804
g2805
sg2806
Nsg1875
g2807
sg99
g2808
sg2809
g2811
sbsg2819
g2820
sg88
Nsg33
Nsg92
I01
sg2821
Nsg101
g2822
sg103
g0
(g104
g105
((lp3247
(lp3248
tp3249
tp3250
Rp3251
sg2828
I00
sg2829
g2830
sg2831
g2783
sg2832
Nsg114
Nsg2833
g2783
sg2834
F0.0
sg8
I01
sg2835
Nsg43
Nsg1877
Nsg2836
g2837
sg87
F0.5
sg2809
Nsbsg112
I00
sg2838
g0
(g2760
g2
Ntp3252
Rp3253
(dp3254
g6
g7
sg8
I01
sg2831
g2783
sg9
g4
sg2764
g2765
sg2201
Nsg10
Nsg42
Nsg17
g18
sg2782
g2783
sg20
I01
sg2766
Nsg23
Nsg75
g132
(g133
(I0
tp3255
g135
tp3256
Rp3257
(I1
(I2
tp3258
g59
I00
S'\x00\x00\x00\x00\x00\x00\x00\x00\x00\x00\x00\x00\x00\x00\xf0?'
p3259
tp3260
bsg76
g132
(g133
(I0
tp3261
g135
tp3262
Rp3263
(I1
(I2
tp3264
g59
I00
S'\x00\x00\x00\x00\x00\x00\x00\x00\x00\x00\x00\x00\x00\x00\x00\x00'
p3265
tp3266
bsg24
Nsg25
Nsg11
Nsg2775
g2854
sg28
I00
sg2784
Nsg29
I00
sg30
(dp3267
sg2781
Nsg32
I00
sg2828
I00
sg1878
Nsg2785
Nsg2769
F1.0
sg2819
g2820
sg2770
Nsg2004
g2856
sg2786
g0
(g2787
g2
Ntp3268
Rp3269
(dp3270
g2786
g2860
sg2791
Nsg2792
Nsg115
g0
(g45
g2
Ntp3271
Rp3272
(dp3273
g49
I1
sg50
Nsg51
g7
sg52
(dp3274
sbsg2803
I00
sg2804
g2805
sg2806
Nsg1875
g2807
sg99
g2808
sg2809
g0
(g2219
g2
Ntp3275
Rp3276
(dp3277
g2223
I00
sg2224
Nsg2225
g132
(g133
(I0
tp3278
g135
tp3279
Rp3280
(I1
(I0
I2
tp3281
g59
I00
g2252
tp3282
bsg2232
I00
sg2233
F0.1111111111111111
sg2234
I1
sg2235
I00
sbsbsg33
Nsg2771
g2772
sg92
I01
sg2773
g2774
sg96
Nsg2834
F0.0
sg86
I01
sg2821
g132
(g133
(I0
tp3283
g135
tp3284
Rp3285
(I1
(I2
I2
tp3286
g59
I00
S'\x00\x00\x00\x00\x00\x00\x00\x00\x00\x00\x00\x00\x00\x00\x00\x00\x00\x00\x00\x00\x00\x00\x00\x00\x00\x00\x00\x00\x00\x00\xf0?'
p3287
tp3288
bsg101
g2879
sg103
g0
(g104
g105
((lp3289
(lp3290
tp3291
tp3292
Rp3293
sg111
I0
sg2829
g2830
sg2767
I0
sg2832
Nsg2780
I5
sg112
I01
sg114
F1.0
sg2833
g2783
sg2778
I00
sg115
g355
sg2835
Nsg2779
Nsg2777
I00
sg43
Nsg1877
Nsg2836
g2885
sg88
g1689
sg87
F0.8
sg34
Nsg2809
g0
(g2219
g2
Ntp3294
Rp3295
(dp3296
g2223
I00
sg2224
Nsg2225
g3285
sg2232
I00
sg2233
F0.1111111111111111
sg2234
I180
sg2235
I00
sbsbsg114
Nsg33
Nsg2889
g0
(g2760
g2
Ntp3297
Rp3298
(dp3299
g6
g7
sg2764
g2765
sg2201
Nsg20
I01
sg2766
Nsg2767
I0
sg75
Nsg76
Nsg24
Nsg11
Nsg29
I00
sg30
(dp3300
sg32
I00
sg1878
Nsg2769
F0.6
sg2770
Nsg2771
g2772
sg2773
g2774
sg96
Nsg86
I01
sg2775
(I0
tp3301
sg111
I0
sg112
I01
sg2777
I01
sg2778
I01
sg115
g355
sg2779
Nsg2258
I2
sg2004
g2654
sg2780
I5
sg9
g4
sg2781
Nsg10
Nsg42
Nsg17
g18
sg2782
g2783
sg23
Nsg25
Nsg28
I00
sg2784
Nsg34
Nsg2785
Nsg2786
g0
(g2787
g2
Ntp3302
Rp3303
(dp3304
g2786
I2
sg2791
Nsg2792
F1.0
sg115
g0
(g157
g2
Ntp3305
Rp3306
(dp3307
g49
I2
sg50
Nsg120
g132
(g133
(I0
tp3308
g135
tp3309
Rp3310
(I1
(I3
I3
tp3311
g59
I00
S'\x00\x00\x00\x00\x00\x00\xf0?\x00\x00\x00\x00\x00\x00\x00\x00\x00\x00\x00\x00\x00\x00\x00\x00\x00\x00\x00\x00\x00\x00\x00\x00\x00\x00\x00\x00\x00\x00\xf0?\x00\x00\x00\x00\x00\x00\x00\x00\x00\x00\x00\x00\x00\x00\x00\x00\x00\x00\x00\x00\x00\x00\x00\x00\x00\x00\x00\x00\x00\x00\xf0?'
p3312
tp3313
bsg51
g7
sg52
(dp3314
sbsg2803
I00
sg2804
g2805
sg2806
Nsg1875
g2807
sg99
g2808
sg2809
g2811
sbsg2819
g2820
sg88
Nsg33
Nsg92
I01
sg2821
Nsg101
g2908
sg103
g0
(g104
g105
((lp3315
(lp3316
tp3317
tp3318
Rp3319
sg2828
I00
sg2829
g2830
sg2831
g2783
sg2832
Nsg114
Nsg2833
g2783
sg2834
F0.0
sg8
I01
sg2835
Nsg43
Nsg1877
Nsg2836
g2914
sg87
F0.5
sg2809
Nsbsg115
Nsg2915
F8.0
sg2916
g2917
sg43
Nsg2004
g2654
sg34
Nsbasg34
NsS'_minor_tick_kw'
p3320
(dp3321
g2691
I01
sg2693
I00
sg2694
I01
sg2695
I00
ssS'isDefault_minfmt'
p3322
I01
sbsS'_navigate_mode'
p3323
Nsg34
NsS'transAxes'
p3324
g246
sS'_connected'
p3325
(dp3326
sS'fmt_ydata'
p3327
NsS'dataLim'
p3328
g0
(g127
g2
Ntp3329
Rp3330
(dp3331
g49
I0
sg131
g132
(g133
(I0
tp3332
g135
tp3333
Rp3334
(I1
(I2
tp3335
g59
I00
S'\x00\x00\x00\x00\x00\x00\xd0?\x00\x00\x00\x00\x00\xe0f@'
p3336
tp3337
bsg52
(dp3338
sg142
g132
(g133
(I0
tp3339
g135
tp3340
Rp3341
(I1
(I2
I2
tp3342
g59
I00
S'\x00\x00\x00\x00\x00\x00\xf0\x7f\x00\x00\x00\x00\x00\x00\xf0\x7f\x00\x00\x00\x00\x00\x00\xf0\xff\x00\x00\x00\x00\x00\x00\xf0\xff'
p3343
tp3344
bsg149
g132
(g133
(I0
tp3345
g135
tp3346
Rp3347
(I1
(I2
I2
tp3348
g59
I00
S'\xcd\xcc\xcc\xcc\xcc\xcc\xd4\xbf\x00\x00\x00\x00\x00\x00\x00\x00\x00\x00\x00\x00\x00\x00\xf4?\x00\x00\x00\x00@\r\xd2@'
p3349
tp3350
bsg156
I01
sg51
g7
sbsS'transData'
p3351
g187
sg33
NsS'_sharey'
p3352
NsS'_sharex'
p3353
NsS'axesPatch'
p3354
g2537
sS'_ymargin'
p3355
F0.05
sS'_axes_locator'
p3356
Nsg103
g0
(g104
g105
((lp3357
(lp3358
tp3359
tp3360
Rp3361
sS'numCols'
p3362
I1
sg114
Nsg1889
NsS'yaxis'
p3363
g0
(cmatplotlib.axis
YAxis
p3364
g2
Ntp3365
Rp3366
(dp3367
g6
g7
sg2597
g0
(g2598
g2
Ntp3368
Rp3369
(dp3370
g2602
g0
(cmatplotlib.ticker
AutoLocator
p3371
g2
Ntp3372
Rp3373
(dp3374
S'_min_n_ticks'
p3375
I2
sS'_symmetric'
p3376
I00
sS'_nbins'
p3377
Vauto
p3378
sS'_steps'
p3379
g132
(g133
(I0
tp3380
g135
tp3381
Rp3382
(I1
(I5
tp3383
g59
I00
S'\x00\x00\x00\x00\x00\x00\xf0?\x00\x00\x00\x00\x00\x00\x00@\x00\x00\x00\x00\x00\x00\x04@\x00\x00\x00\x00\x00\x00\x14@\x00\x00\x00\x00\x00\x00$@'
p3384
tp3385
bsS'_prune'
p3386
NsS'_extended_steps'
p3387
g132
(g133
(I0
tp3388
g135
tp3389
Rp3390
(I1
(I10
tp3391
g59
I00
S'\x9a\x99\x99\x99\x99\x99\xb9?\x9a\x99\x99\x99\x99\x99\xc9?\x00\x00\x00\x00\x00\x00\xd0?\x00\x00\x00\x00\x00\x00\xe0?\x00\x00\x00\x00\x00\x00\xf0?\x00\x00\x00\x00\x00\x00\x00@\x00\x00\x00\x00\x00\x00\x04@\x00\x00\x00\x00\x00\x00\x14@\x00\x00\x00\x00\x00\x00$@\x00\x00\x00\x00\x00\x004@'
p3392
tp3393
bsS'_integer'
p3394
I00
sg2619
g3366
sbsg2621
g0
(cmatplotlib.ticker
ScalarFormatter
p3395
g2
Ntp3396
Rp3397
(dp3398
S'_powerlimits'
p3399
(I0
I0
tp3400
sS'orderOfMagnitude'
p3401
I0
sS'_useOffset'
p3402
I01
sS'_useLocale'
p3403
I00
sS'format'
p3404
g7
sS'_useMathText'
p3405
I01
sS'_offset_threshold'
p3406
I4
sS'offset'
p3407
I0
sg2002
I00
sS'_scientific'
p3408
I01
sg2619
g3366
sbsbsg2631
I00
sg2632
g0
(g2633
g2
Ntp3409
Rp3410
sg9
g4
sg8
I01
sg2636
I00
sg10
Nsg42
Nsg2637
I00
sg17
g18
sg20
I01
sg23
Nsg2638
g0
(g2168
g2
Ntp3411
Rp3412
(dp3413
g6
g7
sg8
I01
sg9
g4
sg10
Nsg1961
g0
(g1962
g2
Ntp3414
Rp3415
(dp3416
g1966
(lp3417
g1968
asg1969
Nsg1970
g1971
sg1972
g1971
sg1973
F8.0
sg1974
I400
sg1975
g1971
sbsg42
Nsg17
g18
sg1978
Nsg20
I01
sg23
Nsg75
F0.5
sg76
I0
sg24
Nsg25
Nsg11
Nsg28
I00
sg29
I00
sg30
(dp3418
sg1982
Nsg32
I00
sg1878
Nsg88
Nsg1877
Nsg1986
Nsg33
Nsg96
Nsg86
I01
sg1989
Vbaseline
p3419
sg1991
V
p3420
sg1993
Nsg103
g0
(g104
g105
((lp3421
(lp3422
tp3423
tp3424
Rp3425
sg111
I0
sg1999
Nsg112
I01
sg114
Nsg2000
F1.2
sg115
g1567
sg2002
I00
sg2003
I00
sg43
Nsg2004
V0.
p3426
sg2006
Vleft
p3427
sg34
Nsbsg24
Nsg25
Nsg11
Nsg2656
g0
(g2168
g2
Ntp3428
Rp3429
(dp3430
g6
g7
sg8
I01
sg9
g4
sg10
Nsg1961
g0
(g1962
g2
Ntp3431
Rp3432
(dp3433
g1966
(lp3434
g1968
asg1969
Nsg1970
g1971
sg1972
g1971
sg1973
F10.0
sg1974
I400
sg1975
g1971
sbsg42
Nsg17
g18
sg1978
Nsg20
I01
sg23
Nsg75
F0.5
sg76
I0
sg24
Nsg25
Nsg11
Nsg28
I00
sg29
I00
sg30
(dp3435
sg1982
Nsg32
I00
sg1878
Nsg88
Nsg1877
Nsg1986
Vanchor
p3436
sg33
Nsg96
Nsg86
I01
sg1989
Vbottom
p3437
sg1991
VFrequency
p3438
sg1993
Nsg103
g0
(g104
g105
((lp3439
(lp3440
tp3441
tp3442
Rp3443
sg111
I0
sg1999
Vvertical
p3444
sg112
I01
sg114
Nsg2000
F1.2
sg115
g347
sg2002
I00
sg2003
I00
sg43
Nsg2004
g2672
sg2006
Vcenter
p3445
sg34
Nsbsg28
I00
sg2674
I01
sg29
I00
sg30
(dp3446
sg2676
Nsg32
I00
sg2677
g0
(g2598
g2
Ntp3447
Rp3448
(dp3449
g2602
g0
(g2681
g2
Ntp3450
Rp3451
(dp3452
g2619
g3366
sbsg2621
g0
(g2685
g2
Ntp3453
Rp3454
(dp3455
g2619
g3366
sbsbsg1878
g1937
sg2689
(dp3456
g2691
I01
sg2692
I00
sg2693
I00
sg2694
I01
sg2695
I00
ssg2696
I01
sg88
g668
sg33
Nsg2697
I00
sg2698
I1
sg2699
F4.0
sg2700
(lp3457
g0
(cmatplotlib.axis
YTick
p3458
g2
Ntp3459
Rp3460
(dp3461
g6
g7
sg40
F0.8
sg9
g4
sg2706
I01
sg8
I01
sg10
Nsg111
I0
sg42
Nsg2707
F3.5
sg2708
g3426
sg2709
I00
sg1973
F0.0
sg17
g18
sg2710
Vout
p3462
sg2656
g0
(g2168
g2
Ntp3463
Rp3464
(dp3465
g6
g7
sg8
I01
sg9
g4
sg10
Nsg1961
g0
(g1962
g2
Ntp3466
Rp3467
(dp3468
g1966
(lp3469
g1968
asg1969
Nsg1970
g1971
sg1972
g1971
sg1973
F8.0
sg1974
I400
sg1975
g1971
sbsg42
Nsg17
g18
sg1978
Nsg20
I01
sg23
Nsg75
I0
sg76
I0
sg24
Nsg25
Nsg11
Nsg28
I00
sg29
I00
sg30
(dp3470
sg1982
Nsg32
I00
sg1878
Nsg88
Nsg1877
Nsg1986
Nsg33
Nsg96
Nsg86
I01
sg1989
Vcenter_baseline
p3471
sg1991
V
p3472
sg1993
Nsg103
g0
(g104
g105
((lp3473
(lp3474
tp3475
tp3476
Rp3477
sg111
I0
sg1999
Nsg112
I01
sg114
Nsg2000
F1.2
sg115
g1808
sg2002
I00
sg2003
I00
sg43
Nsg2004
g3426
sg2006
Vright
p3478
sg34
Nsbsg20
I01
sg23
Nsg2728
I00
sg24
Nsg25
Nsg11
Nsg2729
I00
sg28
I00
sg29
I00
sg30
(dp3479
sg2731
(I0
I1
tp3480
sg32
I00
sg2733
F2.01
sg1878
g1937
sg2734
I01
sg88
g808
sg1877
Nsg2735
g3464
sg2736
g0
(g2168
g2
Ntp3481
Rp3482
(dp3483
g6
g7
sg8
I01
sg9
g4
sg10
Nsg1961
g0
(g1962
g2
Ntp3484
Rp3485
(dp3486
g1966
(lp3487
g1968
asg1969
Nsg1970
g1971
sg1972
g1971
sg1973
F8.0
sg1974
I400
sg1975
g1971
sbsg42
Nsg17
g18
sg1978
Nsg20
I01
sg23
Nsg75
I0
sg76
I1
sg24
Nsg25
Nsg11
Nsg28
I00
sg29
I00
sg30
(dp3488
sg1982
Nsg32
I00
sg1878
Nsg88
Nsg1877
Nsg1986
Nsg33
Nsg96
Nsg86
I01
sg1989
g3471
sg1991
V
p3489
sg1993
Nsg103
g0
(g104
g105
((lp3490
(lp3491
tp3492
tp3493
Rp3494
sg111
I0
sg1999
Nsg112
I01
sg114
Nsg2000
F1.2
sg115
g1817
sg2002
I00
sg2003
I00
sg43
Nsg2004
g3426
sg2006
Vleft
p3495
sg34
Nsbsg96
Nsg2752
I0
sg86
I01
sg103
g0
(g104
g105
((lp3496
(lp3497
tp3498
tp3499
Rp3500
sg2758
F3.5
sg2759
g0
(g2760
g2
Ntp3501
Rp3502
(dp3503
g6
g7
sg2764
g2765
sg2201
Nsg20
I01
sg2766
Nsg2767
I0
sg75
Nsg76
Nsg24
Nsg11
Nsg29
I00
sg30
(dp3504
sg32
I00
sg1878
Nsg2769
F0.8
sg2770
Nsg2771
g2772
sg2773
g2774
sg96
Nsg86
I01
sg2775
(I0
tp3505
sg111
I0
sg112
I01
sg2777
I01
sg2778
I01
sg115
g184
sg2779
Nsg2258
F2.01
sg2004
g3426
sg2780
I5
sg9
g4
sg2781
Nsg10
Nsg42
Nsg17
g18
sg2782
g2783
sg23
Nsg25
Nsg28
I00
sg2784
Nsg34
Nsg2785
Nsg2786
g0
(g2787
g2
Ntp3506
Rp3507
(dp3508
g2786
I0
sg2791
Nsg2792
F1.0
sg115
g0
(g157
g2
Ntp3509
Rp3510
(dp3511
g49
I2
sg50
Nsg120
g132
(g133
(I0
tp3512
g135
tp3513
Rp3514
(I1
(I3
I3
tp3515
g59
I00
S'\x00\x00\x00\x00\x00\x00\xf0\xbf\x00\x00\x00\x00\x00\x00\x00\x00\x00\x00\x00\x00\x00\x00\x00\x00\x00\x00\x00\x00\x00\x00\x00\x00\x00\x00\x00\x00\x00\x00\xf0?\x00\x00\x00\x00\x00\x00\x00\x00\x00\x00\x00\x00\x00\x00\x00\x00\x00\x00\x00\x00\x00\x00\x00\x00\x00\x00\x00\x00\x00\x00\xf0?'
p3516
tp3517
bsg51
g7
sg52
(dp3518
sbsg2803
I00
sg2804
g2805
sg2806
Nsg1875
g2807
sg99
g2808
sg2809
g0
(g2219
g2
Ntp3519
Rp3520
(dp3521
g2223
I00
sg2224
Nsg2225
g132
(g133
(I0
tp3522
g135
tp3523
Rp3524
(I1
(I2
I2
tp3525
g59
I00
S'\x00\x00\x00\x00\x00\x00\x00\x00\x00\x00\x00\x00\x00\x00\x00\x00\x00\x00\x00\x00\x00\x00\xf0?\x00\x00\x00\x00\x00\x00\x00\x00'
p3526
tp3527
bsg2232
I00
sg2233
F0.1111111111111111
sg2234
I1
sg2235
I00
sbsbsg2819
g2820
sg88
Nsg33
Nsg92
I01
sg2821
Nsg101
VNone
p3528
sg103
g0
(g104
g105
((lp3529
(lp3530
tp3531
tp3532
Rp3533
sg2828
I00
sg2829
g2830
sg2831
g2783
sg2832
Nsg114
Nsg2833
g2783
sg2834
F0.0
sg8
I01
sg2835
Nsg43
Nsg1877
Nsg2836
(I0
tp3534
sg87
F0.5
sg2809
Nsbsg112
I00
sg2838
g0
(g2760
g2
Ntp3535
Rp3536
(dp3537
g6
g7
sg8
I01
sg2831
g2783
sg9
g4
sg2764
g2765
sg2201
Nsg10
Nsg42
Nsg17
g18
sg2782
g2783
sg20
I01
sg2766
Nsg23
Nsg75
g132
(g133
(I0
tp3538
g135
tp3539
Rp3540
(I1
(I2
tp3541
g59
I00
S'\x00\x00\x00\x00\x00\x00\x00\x00\x00\x00\x00\x00\x00\x00\x00\x00'
p3542
tp3543
bsg76
g132
(g133
(I0
tp3544
g135
tp3545
Rp3546
(I1
(I2
tp3547
g59
I00
S'\x00\x00\x00\x00\x00\x00\x00\x00\x00\x00\x00\x00\x00\x00\xf0?'
p3548
tp3549
bsg24
Nsg25
Nsg11
Nsg2775
(I0
I1
tp3550
sg28
I00
sg2784
Nsg29
I00
sg30
(dp3551
sg2781
Nsg32
I00
sg2828
I00
sg1878
Nsg2785
Nsg2769
F1.0
sg2819
g2820
sg2770
Nsg2004
g2856
sg2786
g0
(g2787
g2
Ntp3552
Rp3553
(dp3554
g2786
g2860
sg2791
Nsg2792
Nsg115
g0
(g45
g2
Ntp3555
Rp3556
(dp3557
g49
I1
sg50
Nsg51
g7
sg52
(dp3558
sbsg2803
I00
sg2804
g2805
sg2806
Nsg1875
g2807
sg99
g2808
sg2809
g0
(g2219
g2
Ntp3559
Rp3560
(dp3561
g2223
I00
sg2224
Nsg2225
g132
(g133
(I0
tp3562
g135
tp3563
Rp3564
(I1
(I0
I2
tp3565
g59
I00
g2252
tp3566
bsg2232
I00
sg2233
F0.1111111111111111
sg2234
I1
sg2235
I00
sbsbsg33
Nsg2771
g2772
sg92
I01
sg2773
g2774
sg96
Nsg2834
F0.0
sg86
I01
sg2821
g132
(g133
(I0
tp3567
g135
tp3568
Rp3569
(I1
(I2
I2
tp3570
g59
I00
S'\x00\x00\x00\x00\x00\x00\x00\x00\x00\x00\x00\x00\x00\x00\x00\x00\x00\x00\x00\x00\x00\x00\xf0?\x00\x00\x00\x00\x00\x00\x00\x00'
p3571
tp3572
bsg101
g2879
sg103
g0
(g104
g105
((lp3573
(lp3574
tp3575
tp3576
Rp3577
sg111
I0
sg2829
g2830
sg2767
I0
sg2832
Nsg2780
I5
sg112
I01
sg114
F1.0
sg2833
g2783
sg2778
I00
sg115
g184
sg2835
Nsg2779
Nsg2777
I00
sg43
Nsg1877
Nsg2836
(I0
I0
tp3578
sg88
g1759
sg87
F0.8
sg34
Nsg2809
g0
(g2219
g2
Ntp3579
Rp3580
(dp3581
g2223
I00
sg2224
Nsg2225
g3569
sg2232
I00
sg2233
F0.1111111111111111
sg2234
I180
sg2235
I00
sbsbsg114
Nsg33
Nsg2889
g0
(g2760
g2
Ntp3582
Rp3583
(dp3584
g6
g7
sg2764
g2765
sg2201
Nsg20
I01
sg2766
Nsg2767
I0
sg75
Nsg76
Nsg24
Nsg11
Nsg29
I00
sg30
(dp3585
sg32
I00
sg1878
Nsg2769
F0.8
sg2770
Nsg2771
g2772
sg2773
g2774
sg96
Nsg86
I01
sg2775
(I1
tp3586
sg111
I0
sg112
I01
sg2777
I01
sg2778
I01
sg115
g184
sg2779
Nsg2258
F2.01
sg2004
g3426
sg2780
I5
sg9
g4
sg2781
Nsg10
Nsg42
Nsg17
g18
sg2782
g2783
sg23
Nsg25
Nsg28
I00
sg2784
Nsg34
Nsg2785
Nsg2786
g0
(g2787
g2
Ntp3587
Rp3588
(dp3589
g2786
I1
sg2791
Nsg2792
F1.0
sg115
g0
(g157
g2
Ntp3590
Rp3591
(dp3592
g49
I2
sg50
Nsg120
g132
(g133
(I0
tp3593
g135
tp3594
Rp3595
(I1
(I3
I3
tp3596
g59
I00
S'\x00\x00\x00\x00\x00\x00\xf0?\x00\x00\x00\x00\x00\x00\x00\x00\x00\x00\x00\x00\x00\x00\x00\x00\x00\x00\x00\x00\x00\x00\x00\x00\x00\x00\x00\x00\x00\x00\xf0?\x00\x00\x00\x00\x00\x00\x00\x00\x00\x00\x00\x00\x00\x00\x00\x00\x00\x00\x00\x00\x00\x00\x00\x00\x00\x00\x00\x00\x00\x00\xf0?'
p3597
tp3598
bsg51
g7
sg52
(dp3599
sbsg2803
I00
sg2804
g2805
sg2806
Nsg1875
g2807
sg99
g2808
sg2809
g3520
sbsg2819
g2820
sg88
Nsg33
Nsg92
I01
sg2821
Nsg101
VNone
p3600
sg103
g0
(g104
g105
((lp3601
(lp3602
tp3603
tp3604
Rp3605
sg2828
I00
sg2829
g2830
sg2831
g2783
sg2832
Nsg114
Nsg2833
g2783
sg2834
F0.0
sg8
I01
sg2835
Nsg43
Nsg1877
Nsg2836
(I0
tp3606
sg87
F0.5
sg2809
Nsbsg115
Nsg2915
F8.0
sg2916
Vytick
p3607
sg43
Nsg2004
g3426
sg34
Nsbag0
(g3458
g2
Ntp3608
Rp3609
(dp3610
g6
g7
sg40
F0.8
sg9
g4
sg2706
I01
sg8
I01
sg10
Nsg111
I0
sg42
Nsg2707
F3.5
sg2708
g3426
sg2709
I00
sg1973
F0.0
sg17
g18
sg2710
g3462
sg2656
g0
(g2168
g2
Ntp3611
Rp3612
(dp3613
g6
g7
sg8
I01
sg9
g4
sg10
Nsg1961
g0
(g1962
g2
Ntp3614
Rp3615
(dp3616
g1966
(lp3617
g1968
asg1969
Nsg1970
g1971
sg1972
g1971
sg1973
F8.0
sg1974
I400
sg1975
g1971
sbsg42
Nsg17
g18
sg1978
Nsg20
I01
sg23
Nsg75
I0
sg76
I0
sg24
Nsg25
Nsg11
Nsg28
I00
sg29
I00
sg30
(dp3618
sg1982
Nsg32
I00
sg1878
Nsg88
Nsg1877
Nsg1986
Nsg33
Nsg96
Nsg86
I01
sg1989
g3471
sg1991
V
p3619
sg1993
Nsg103
g0
(g104
g105
((lp3620
(lp3621
tp3622
tp3623
Rp3624
sg111
I0
sg1999
Nsg112
I01
sg114
Nsg2000
F1.2
sg115
g1844
sg2002
I00
sg2003
I00
sg43
Nsg2004
g3426
sg2006
g3478
sg34
Nsbsg20
I01
sg23
Nsg2728
I00
sg24
Nsg25
Nsg11
Nsg2729
I00
sg28
I00
sg29
I00
sg30
(dp3625
sg2731
(I0
I1
tp3626
sg32
I00
sg2733
F2.01
sg1878
g1937
sg2734
I01
sg88
g878
sg1877
Nsg2735
g3612
sg2736
g0
(g2168
g2
Ntp3627
Rp3628
(dp3629
g6
g7
sg8
I01
sg9
g4
sg10
Nsg1961
g0
(g1962
g2
Ntp3630
Rp3631
(dp3632
g1966
(lp3633
g1968
asg1969
Nsg1970
g1971
sg1972
g1971
sg1973
F8.0
sg1974
I400
sg1975
g1971
sbsg42
Nsg17
g18
sg1978
Nsg20
I01
sg23
Nsg75
I0
sg76
I1
sg24
Nsg25
Nsg11
Nsg28
I00
sg29
I00
sg30
(dp3634
sg1982
Nsg32
I00
sg1878
Nsg88
Nsg1877
Nsg1986
Nsg33
Nsg96
Nsg86
I01
sg1989
g3471
sg1991
V
p3635
sg1993
Nsg103
g0
(g104
g105
((lp3636
(lp3637
tp3638
tp3639
Rp3640
sg111
I0
sg1999
Nsg112
I01
sg114
Nsg2000
F1.2
sg115
g1853
sg2002
I00
sg2003
I00
sg43
Nsg2004
g3426
sg2006
g3495
sg34
Nsbsg96
Nsg2752
I0
sg86
I01
sg103
g0
(g104
g105
((lp3641
(lp3642
tp3643
tp3644
Rp3645
sg2758
F3.5
sg2759
g0
(g2760
g2
Ntp3646
Rp3647
(dp3648
g6
g7
sg2764
g2765
sg2201
Nsg20
I01
sg2766
Nsg2767
I0
sg75
Nsg76
Nsg24
Nsg11
Nsg29
I00
sg30
(dp3649
sg32
I00
sg1878
Nsg2769
F0.8
sg2770
Nsg2771
g2772
sg2773
g2774
sg96
Nsg86
I01
sg2775
g3505
sg111
I0
sg112
I01
sg2777
I01
sg2778
I01
sg115
g184
sg2779
Nsg2258
F2.01
sg2004
g3426
sg2780
I5
sg9
g4
sg2781
Nsg10
Nsg42
Nsg17
g18
sg2782
g2783
sg23
Nsg25
Nsg28
I00
sg2784
Nsg34
Nsg2785
Nsg2786
g0
(g2787
g2
Ntp3650
Rp3651
(dp3652
g2786
I0
sg2791
Nsg2792
F1.0
sg115
g0
(g157
g2
Ntp3653
Rp3654
(dp3655
g49
I2
sg50
Nsg120
g132
(g133
(I0
tp3656
g135
tp3657
Rp3658
(I1
(I3
I3
tp3659
g59
I00
S'\x00\x00\x00\x00\x00\x00\xf0\xbf\x00\x00\x00\x00\x00\x00\x00\x00\x00\x00\x00\x00\x00\x00\x00\x00\x00\x00\x00\x00\x00\x00\x00\x00\x00\x00\x00\x00\x00\x00\xf0?\x00\x00\x00\x00\x00\x00\x00\x00\x00\x00\x00\x00\x00\x00\x00\x00\x00\x00\x00\x00\x00\x00\x00\x00\x00\x00\x00\x00\x00\x00\xf0?'
p3660
tp3661
bsg51
g7
sg52
(dp3662
sbsg2803
I00
sg2804
g2805
sg2806
Nsg1875
g2807
sg99
g2808
sg2809
g3520
sbsg2819
g2820
sg88
Nsg33
Nsg92
I01
sg2821
Nsg101
g3528
sg103
g0
(g104
g105
((lp3663
(lp3664
tp3665
tp3666
Rp3667
sg2828
I00
sg2829
g2830
sg2831
g2783
sg2832
Nsg114
Nsg2833
g2783
sg2834
F0.0
sg8
I01
sg2835
Nsg43
Nsg1877
Nsg2836
(I0
tp3668
sg87
F0.5
sg2809
Nsbsg112
I00
sg2838
g0
(g2760
g2
Ntp3669
Rp3670
(dp3671
g6
g7
sg8
I01
sg2831
g2783
sg9
g4
sg2764
g2765
sg2201
Nsg10
Nsg42
Nsg17
g18
sg2782
g2783
sg20
I01
sg2766
Nsg23
Nsg75
g132
(g133
(I0
tp3672
g135
tp3673
Rp3674
(I1
(I2
tp3675
g59
I00
S'\x00\x00\x00\x00\x00\x00\x00\x00\x00\x00\x00\x00\x00\x00\x00\x00'
p3676
tp3677
bsg76
g132
(g133
(I0
tp3678
g135
tp3679
Rp3680
(I1
(I2
tp3681
g59
I00
S'\x00\x00\x00\x00\x00\x00\x00\x00\x00\x00\x00\x00\x00\x00\xf0?'
p3682
tp3683
bsg24
Nsg25
Nsg11
Nsg2775
g3550
sg28
I00
sg2784
Nsg29
I00
sg30
(dp3684
sg2781
Nsg32
I00
sg2828
I00
sg1878
Nsg2785
Nsg2769
F1.0
sg2819
g2820
sg2770
Nsg2004
g2856
sg2786
g0
(g2787
g2
Ntp3685
Rp3686
(dp3687
g2786
g2860
sg2791
Nsg2792
Nsg115
g0
(g45
g2
Ntp3688
Rp3689
(dp3690
g49
I1
sg50
Nsg51
g7
sg52
(dp3691
sbsg2803
I00
sg2804
g2805
sg2806
Nsg1875
g2807
sg99
g2808
sg2809
g0
(g2219
g2
Ntp3692
Rp3693
(dp3694
g2223
I00
sg2224
Nsg2225
g132
(g133
(I0
tp3695
g135
tp3696
Rp3697
(I1
(I0
I2
tp3698
g59
I00
g2252
tp3699
bsg2232
I00
sg2233
F0.1111111111111111
sg2234
I1
sg2235
I00
sbsbsg33
Nsg2771
g2772
sg92
I01
sg2773
g2774
sg96
Nsg2834
F0.0
sg86
I01
sg2821
g132
(g133
(I0
tp3700
g135
tp3701
Rp3702
(I1
(I2
I2
tp3703
g59
I00
S'\x00\x00\x00\x00\x00\x00\x00\x00\x00\x00\x00\x00\x00\x00\x00\x00\x00\x00\x00\x00\x00\x00\xf0?\x00\x00\x00\x00\x00\x00\x00\x00'
p3704
tp3705
bsg101
g2879
sg103
g0
(g104
g105
((lp3706
(lp3707
tp3708
tp3709
Rp3710
sg111
I0
sg2829
g2830
sg2767
I0
sg2832
Nsg2780
I5
sg112
I01
sg114
F1.0
sg2833
g2783
sg2778
I00
sg115
g184
sg2835
Nsg2779
Nsg2777
I00
sg43
Nsg1877
Nsg2836
g3578
sg88
g1541
sg87
F0.8
sg34
Nsg2809
g0
(g2219
g2
Ntp3711
Rp3712
(dp3713
g2223
I00
sg2224
Nsg2225
g3702
sg2232
I00
sg2233
F0.1111111111111111
sg2234
I180
sg2235
I00
sbsbsg114
Nsg33
Nsg2889
g0
(g2760
g2
Ntp3714
Rp3715
(dp3716
g6
g7
sg2764
g2765
sg2201
Nsg20
I01
sg2766
Nsg2767
I0
sg75
Nsg76
Nsg24
Nsg11
Nsg29
I00
sg30
(dp3717
sg32
I00
sg1878
Nsg2769
F0.8
sg2770
Nsg2771
g2772
sg2773
g2774
sg96
Nsg86
I01
sg2775
g3586
sg111
I0
sg112
I01
sg2777
I01
sg2778
I01
sg115
g184
sg2779
Nsg2258
F2.01
sg2004
g3426
sg2780
I5
sg9
g4
sg2781
Nsg10
Nsg42
Nsg17
g18
sg2782
g2783
sg23
Nsg25
Nsg28
I00
sg2784
Nsg34
Nsg2785
Nsg2786
g0
(g2787
g2
Ntp3718
Rp3719
(dp3720
g2786
I1
sg2791
Nsg2792
F1.0
sg115
g0
(g157
g2
Ntp3721
Rp3722
(dp3723
g49
I2
sg50
Nsg120
g132
(g133
(I0
tp3724
g135
tp3725
Rp3726
(I1
(I3
I3
tp3727
g59
I00
S'\x00\x00\x00\x00\x00\x00\xf0?\x00\x00\x00\x00\x00\x00\x00\x00\x00\x00\x00\x00\x00\x00\x00\x00\x00\x00\x00\x00\x00\x00\x00\x00\x00\x00\x00\x00\x00\x00\xf0?\x00\x00\x00\x00\x00\x00\x00\x00\x00\x00\x00\x00\x00\x00\x00\x00\x00\x00\x00\x00\x00\x00\x00\x00\x00\x00\x00\x00\x00\x00\xf0?'
p3728
tp3729
bsg51
g7
sg52
(dp3730
sbsg2803
I00
sg2804
g2805
sg2806
Nsg1875
g2807
sg99
g2808
sg2809
g3520
sbsg2819
g2820
sg88
Nsg33
Nsg92
I01
sg2821
Nsg101
g3600
sg103
g0
(g104
g105
((lp3731
(lp3732
tp3733
tp3734
Rp3735
sg2828
I00
sg2829
g2830
sg2831
g2783
sg2832
Nsg114
Nsg2833
g2783
sg2834
F0.0
sg8
I01
sg2835
Nsg43
Nsg1877
Nsg2836
(I0
tp3736
sg87
F0.5
sg2809
Nsbsg115
Nsg2915
F8.0
sg2916
g3607
sg43
Nsg2004
g3426
sg34
Nsbasg3045
I01
sg1885
g0
(g1886
g2
Ntp3737
Rp3738
I01
bsg96
Nsg86
I01
sg3048
I01
sg103
g0
(g104
g105
((lp3739
(lp3740
tp3741
tp3742
Rp3743
sg111
I0
sg3054
I1
sg3055
Nsg112
I00
sg114
Nsg3056
Vleft
p3744
sg115
Nsg3058
Vleft
p3745
sg43
Nsg1877
Nsg2780
I15
sg3060
(lp3746
g0
(g3458
g2
Ntp3747
Rp3748
(dp3749
g6
g7
sg40
F0.6
sg9
g4
sg2706
I01
sg8
I01
sg10
Nsg111
I0
sg42
Nsg2707
F3.4
sg2708
g3426
sg2709
I00
sg1973
F0.0
sg17
g18
sg2710
g3462
sg2656
g0
(g2168
g2
Ntp3750
Rp3751
(dp3752
g6
g7
sg8
I01
sg9
g4
sg10
Nsg1961
g0
(g1962
g2
Ntp3753
Rp3754
(dp3755
g1966
(lp3756
g1968
asg1969
Nsg1970
g1971
sg1972
g1971
sg1973
F8.0
sg1974
I400
sg1975
g1971
sbsg42
Nsg17
g18
sg1978
Nsg20
I01
sg23
Nsg75
I0
sg76
I0
sg24
Nsg25
Nsg11
Nsg28
I00
sg29
I00
sg30
(dp3757
sg1982
Nsg32
I00
sg1878
Nsg88
Nsg1877
Nsg1986
Nsg33
Nsg96
Nsg86
I01
sg1989
g3471
sg1991
V
p3758
sg1993
Nsg103
g0
(g104
g105
((lp3759
(lp3760
tp3761
tp3762
Rp3763
sg111
I0
sg1999
Nsg112
I01
sg114
Nsg2000
F1.2
sg115
g1835
sg2002
I00
sg2003
I00
sg43
Nsg2004
g3426
sg2006
g3478
sg34
Nsbsg20
I01
sg23
Nsg2728
I00
sg24
Nsg25
Nsg11
Nsg2729
I00
sg28
I00
sg29
I00
sg30
(dp3764
sg2731
(I0
I1
tp3765
sg32
I00
sg2733
I2
sg1878
g1937
sg2734
I01
sg88
g598
sg1877
Nsg2735
g3751
sg2736
g0
(g2168
g2
Ntp3766
Rp3767
(dp3768
g6
g7
sg8
I01
sg9
g4
sg10
Nsg1961
g0
(g1962
g2
Ntp3769
Rp3770
(dp3771
g1966
(lp3772
g1968
asg1969
Nsg1970
g1971
sg1972
g1971
sg1973
F8.0
sg1974
I400
sg1975
g1971
sbsg42
Nsg17
g18
sg1978
Nsg20
I01
sg23
Nsg75
I0
sg76
I1
sg24
Nsg25
Nsg11
Nsg28
I00
sg29
I00
sg30
(dp3773
sg1982
Nsg32
I00
sg1878
Nsg88
Nsg1877
Nsg1986
Nsg33
Nsg96
Nsg86
I01
sg1989
g3471
sg1991
V
p3774
sg1993
Nsg103
g0
(g104
g105
((lp3775
(lp3776
tp3777
tp3778
Rp3779
sg111
I0
sg1999
Nsg112
I01
sg114
Nsg2000
F1.2
sg115
g1826
sg2002
I00
sg2003
I00
sg43
Nsg2004
g3426
sg2006
g3495
sg34
Nsbsg96
Nsg2752
I0
sg86
I01
sg103
g0
(g104
g105
((lp3780
(lp3781
tp3782
tp3783
Rp3784
sg2758
F3.4
sg2759
g0
(g2760
g2
Ntp3785
Rp3786
(dp3787
g6
g7
sg2764
g2765
sg2201
Nsg20
I01
sg2766
Nsg2767
I0
sg75
Nsg76
Nsg24
Nsg11
Nsg29
I00
sg30
(dp3788
sg32
I00
sg1878
Nsg2769
F0.6
sg2770
Nsg2771
g2772
sg2773
g2774
sg96
Nsg86
I01
sg2775
g3505
sg111
I0
sg112
I01
sg2777
I01
sg2778
I01
sg115
g184
sg2779
Nsg2258
I2
sg2004
g3426
sg2780
I5
sg9
g4
sg2781
Nsg10
Nsg42
Nsg17
g18
sg2782
g2783
sg23
Nsg25
Nsg28
I00
sg2784
Nsg34
Nsg2785
Nsg2786
g0
(g2787
g2
Ntp3789
Rp3790
(dp3791
g2786
I0
sg2791
Nsg2792
F1.0
sg115
g0
(g157
g2
Ntp3792
Rp3793
(dp3794
g49
I2
sg50
Nsg120
g132
(g133
(I0
tp3795
g135
tp3796
Rp3797
(I1
(I3
I3
tp3798
g59
I00
S'\x00\x00\x00\x00\x00\x00\xf0\xbf\x00\x00\x00\x00\x00\x00\x00\x00\x00\x00\x00\x00\x00\x00\x00\x00\x00\x00\x00\x00\x00\x00\x00\x00\x00\x00\x00\x00\x00\x00\xf0?\x00\x00\x00\x00\x00\x00\x00\x00\x00\x00\x00\x00\x00\x00\x00\x00\x00\x00\x00\x00\x00\x00\x00\x00\x00\x00\x00\x00\x00\x00\xf0?'
p3799
tp3800
bsg51
g7
sg52
(dp3801
sbsg2803
I00
sg2804
g2805
sg2806
Nsg1875
g2807
sg99
g2808
sg2809
g3520
sbsg2819
g2820
sg88
Nsg33
Nsg92
I01
sg2821
Nsg101
g3528
sg103
g0
(g104
g105
((lp3802
(lp3803
tp3804
tp3805
Rp3806
sg2828
I00
sg2829
g2830
sg2831
g2783
sg2832
Nsg114
Nsg2833
g2783
sg2834
F0.0
sg8
I01
sg2835
Nsg43
Nsg1877
Nsg2836
(I0
tp3807
sg87
F0.5
sg2809
Nsbsg112
I00
sg2838
g0
(g2760
g2
Ntp3808
Rp3809
(dp3810
g6
g7
sg8
I01
sg2831
g2783
sg9
g4
sg2764
g2765
sg2201
Nsg10
Nsg42
Nsg17
g18
sg2782
g2783
sg20
I01
sg2766
Nsg23
Nsg75
g132
(g133
(I0
tp3811
g135
tp3812
Rp3813
(I1
(I2
tp3814
g59
I00
S'\x00\x00\x00\x00\x00\x00\x00\x00\x00\x00\x00\x00\x00\x00\x00\x00'
p3815
tp3816
bsg76
g132
(g133
(I0
tp3817
g135
tp3818
Rp3819
(I1
(I2
tp3820
g59
I00
S'\x00\x00\x00\x00\x00\x00\x00\x00\x00\x00\x00\x00\x00\x00\xf0?'
p3821
tp3822
bsg24
Nsg25
Nsg11
Nsg2775
g3550
sg28
I00
sg2784
Nsg29
I00
sg30
(dp3823
sg2781
Nsg32
I00
sg2828
I00
sg1878
Nsg2785
Nsg2769
F1.0
sg2819
g2820
sg2770
Nsg2004
g2856
sg2786
g0
(g2787
g2
Ntp3824
Rp3825
(dp3826
g2786
g2860
sg2791
Nsg2792
Nsg115
g0
(g45
g2
Ntp3827
Rp3828
(dp3829
g49
I1
sg50
Nsg51
g7
sg52
(dp3830
sbsg2803
I00
sg2804
g2805
sg2806
Nsg1875
g2807
sg99
g2808
sg2809
g0
(g2219
g2
Ntp3831
Rp3832
(dp3833
g2223
I00
sg2224
Nsg2225
g132
(g133
(I0
tp3834
g135
tp3835
Rp3836
(I1
(I0
I2
tp3837
g59
I00
g2252
tp3838
bsg2232
I00
sg2233
F0.1111111111111111
sg2234
I1
sg2235
I00
sbsbsg33
Nsg2771
g2772
sg92
I01
sg2773
g2774
sg96
Nsg2834
F0.0
sg86
I01
sg2821
g132
(g133
(I0
tp3839
g135
tp3840
Rp3841
(I1
(I2
I2
tp3842
g59
I00
S'\x00\x00\x00\x00\x00\x00\x00\x00\x00\x00\x00\x00\x00\x00\x00\x00\x00\x00\x00\x00\x00\x00\xf0?\x00\x00\x00\x00\x00\x00\x00\x00'
p3843
tp3844
bsg101
g2879
sg103
g0
(g104
g105
((lp3845
(lp3846
tp3847
tp3848
Rp3849
sg111
I0
sg2829
g2830
sg2767
I0
sg2832
Nsg2780
I5
sg112
I01
sg114
F1.0
sg2833
g2783
sg2778
I00
sg115
g184
sg2835
Nsg2779
Nsg2777
I00
sg43
Nsg1877
Nsg2836
g3578
sg88
g1183
sg87
F0.8
sg34
Nsg2809
g0
(g2219
g2
Ntp3850
Rp3851
(dp3852
g2223
I00
sg2224
Nsg2225
g3841
sg2232
I00
sg2233
F0.1111111111111111
sg2234
I180
sg2235
I00
sbsbsg114
Nsg33
Nsg2889
g0
(g2760
g2
Ntp3853
Rp3854
(dp3855
g6
g7
sg2764
g2765
sg2201
Nsg20
I01
sg2766
Nsg2767
I0
sg75
Nsg76
Nsg24
Nsg11
Nsg29
I00
sg30
(dp3856
sg32
I00
sg1878
Nsg2769
F0.6
sg2770
Nsg2771
g2772
sg2773
g2774
sg96
Nsg86
I01
sg2775
g3586
sg111
I0
sg112
I01
sg2777
I01
sg2778
I01
sg115
g184
sg2779
Nsg2258
I2
sg2004
g3426
sg2780
I5
sg9
g4
sg2781
Nsg10
Nsg42
Nsg17
g18
sg2782
g2783
sg23
Nsg25
Nsg28
I00
sg2784
Nsg34
Nsg2785
Nsg2786
g0
(g2787
g2
Ntp3857
Rp3858
(dp3859
g2786
I1
sg2791
Nsg2792
F1.0
sg115
g0
(g157
g2
Ntp3860
Rp3861
(dp3862
g49
I2
sg50
Nsg120
g132
(g133
(I0
tp3863
g135
tp3864
Rp3865
(I1
(I3
I3
tp3866
g59
I00
S'\x00\x00\x00\x00\x00\x00\xf0?\x00\x00\x00\x00\x00\x00\x00\x00\x00\x00\x00\x00\x00\x00\x00\x00\x00\x00\x00\x00\x00\x00\x00\x00\x00\x00\x00\x00\x00\x00\xf0?\x00\x00\x00\x00\x00\x00\x00\x00\x00\x00\x00\x00\x00\x00\x00\x00\x00\x00\x00\x00\x00\x00\x00\x00\x00\x00\x00\x00\x00\x00\xf0?'
p3867
tp3868
bsg51
g7
sg52
(dp3869
sbsg2803
I00
sg2804
g2805
sg2806
Nsg1875
g2807
sg99
g2808
sg2809
g3520
sbsg2819
g2820
sg88
Nsg33
Nsg92
I01
sg2821
Nsg101
g3600
sg103
g0
(g104
g105
((lp3870
(lp3871
tp3872
tp3873
Rp3874
sg2828
I00
sg2829
g2830
sg2831
g2783
sg2832
Nsg114
Nsg2833
g2783
sg2834
F0.0
sg8
I01
sg2835
Nsg43
Nsg1877
Nsg2836
(I0
tp3875
sg87
F0.5
sg2809
Nsbsg115
Nsg2915
F8.0
sg2916
g3607
sg43
Nsg2004
g3426
sg34
Nsbag0
(g3458
g2
Ntp3876
Rp3877
(dp3878
g6
g7
sg40
F0.6
sg9
g4
sg2706
I01
sg8
I01
sg10
Nsg111
I0
sg42
Nsg2707
F3.4
sg2708
g3426
sg2709
I00
sg1973
F0.0
sg17
g18
sg2710
g3462
sg2656
g0
(g2168
g2
Ntp3879
Rp3880
(dp3881
g6
g7
sg8
I01
sg9
g4
sg10
Nsg1961
g0
(g1962
g2
Ntp3882
Rp3883
(dp3884
g1966
(lp3885
g1968
asg1969
Nsg1970
g1971
sg1972
g1971
sg1973
F8.0
sg1974
I400
sg1975
g1971
sbsg42
Nsg17
g18
sg1978
Nsg20
I01
sg23
Nsg75
I0
sg76
I0
sg24
Nsg25
Nsg11
Nsg28
I00
sg29
I00
sg30
(dp3886
sg1982
Nsg32
I00
sg1878
Nsg88
Nsg1877
Nsg1986
Nsg33
Nsg96
Nsg86
I01
sg1989
g3471
sg1991
V
p3887
sg1993
Nsg103
g0
(g104
g105
((lp3888
(lp3889
tp3890
tp3891
Rp3892
sg111
I0
sg1999
Nsg112
I01
sg114
Nsg2000
F1.2
sg115
g178
sg2002
I00
sg2003
I00
sg43
Nsg2004
g3426
sg2006
g3478
sg34
Nsbsg20
I01
sg23
Nsg2728
I00
sg24
Nsg25
Nsg11
Nsg2729
I00
sg28
I00
sg29
I00
sg30
(dp3893
sg2731
(I0
I1
tp3894
sg32
I00
sg2733
I2
sg1878
g1937
sg2734
I01
sg88
g458
sg1877
Nsg2735
g3880
sg2736
g0
(g2168
g2
Ntp3895
Rp3896
(dp3897
g6
g7
sg8
I01
sg9
g4
sg10
Nsg1961
g0
(g1962
g2
Ntp3898
Rp3899
(dp3900
g1966
(lp3901
g1968
asg1969
Nsg1970
g1971
sg1972
g1971
sg1973
F8.0
sg1974
I400
sg1975
g1971
sbsg42
Nsg17
g18
sg1978
Nsg20
I01
sg23
Nsg75
I0
sg76
I1
sg24
Nsg25
Nsg11
Nsg28
I00
sg29
I00
sg30
(dp3902
sg1982
Nsg32
I00
sg1878
Nsg88
Nsg1877
Nsg1986
Nsg33
Nsg96
Nsg86
I01
sg1989
g3471
sg1991
V
p3903
sg1993
Nsg103
g0
(g104
g105
((lp3904
(lp3905
tp3906
tp3907
Rp3908
sg111
I0
sg1999
Nsg112
I01
sg114
Nsg2000
F1.2
sg115
g1862
sg2002
I00
sg2003
I00
sg43
Nsg2004
g3426
sg2006
g3495
sg34
Nsbsg96
Nsg2752
I0
sg86
I01
sg103
g0
(g104
g105
((lp3909
(lp3910
tp3911
tp3912
Rp3913
sg2758
F3.4
sg2759
g0
(g2760
g2
Ntp3914
Rp3915
(dp3916
g6
g7
sg2764
g2765
sg2201
Nsg20
I01
sg2766
Nsg2767
I0
sg75
Nsg76
Nsg24
Nsg11
Nsg29
I00
sg30
(dp3917
sg32
I00
sg1878
Nsg2769
F0.6
sg2770
Nsg2771
g2772
sg2773
g2774
sg96
Nsg86
I01
sg2775
g3505
sg111
I0
sg112
I01
sg2777
I01
sg2778
I01
sg115
g184
sg2779
Nsg2258
I2
sg2004
g3426
sg2780
I5
sg9
g4
sg2781
Nsg10
Nsg42
Nsg17
g18
sg2782
g2783
sg23
Nsg25
Nsg28
I00
sg2784
Nsg34
Nsg2785
Nsg2786
g0
(g2787
g2
Ntp3918
Rp3919
(dp3920
g2786
I0
sg2791
Nsg2792
F1.0
sg115
g0
(g157
g2
Ntp3921
Rp3922
(dp3923
g49
I2
sg50
Nsg120
g132
(g133
(I0
tp3924
g135
tp3925
Rp3926
(I1
(I3
I3
tp3927
g59
I00
S'\x00\x00\x00\x00\x00\x00\xf0\xbf\x00\x00\x00\x00\x00\x00\x00\x00\x00\x00\x00\x00\x00\x00\x00\x00\x00\x00\x00\x00\x00\x00\x00\x00\x00\x00\x00\x00\x00\x00\xf0?\x00\x00\x00\x00\x00\x00\x00\x00\x00\x00\x00\x00\x00\x00\x00\x00\x00\x00\x00\x00\x00\x00\x00\x00\x00\x00\x00\x00\x00\x00\xf0?'
p3928
tp3929
bsg51
g7
sg52
(dp3930
sbsg2803
I00
sg2804
g2805
sg2806
Nsg1875
g2807
sg99
g2808
sg2809
g3520
sbsg2819
g2820
sg88
Nsg33
Nsg92
I01
sg2821
Nsg101
g3528
sg103
g0
(g104
g105
((lp3931
(lp3932
tp3933
tp3934
Rp3935
sg2828
I00
sg2829
g2830
sg2831
g2783
sg2832
Nsg114
Nsg2833
g2783
sg2834
F0.0
sg8
I01
sg2835
Nsg43
Nsg1877
Nsg2836
(I0
tp3936
sg87
F0.5
sg2809
Nsbsg112
I00
sg2838
g0
(g2760
g2
Ntp3937
Rp3938
(dp3939
g6
g7
sg8
I01
sg2831
g2783
sg9
g4
sg2764
g2765
sg2201
Nsg10
Nsg42
Nsg17
g18
sg2782
g2783
sg20
I01
sg2766
Nsg23
Nsg75
g132
(g133
(I0
tp3940
g135
tp3941
Rp3942
(I1
(I2
tp3943
g59
I00
S'\x00\x00\x00\x00\x00\x00\x00\x00\x00\x00\x00\x00\x00\x00\x00\x00'
p3944
tp3945
bsg76
g132
(g133
(I0
tp3946
g135
tp3947
Rp3948
(I1
(I2
tp3949
g59
I00
S'\x00\x00\x00\x00\x00\x00\x00\x00\x00\x00\x00\x00\x00\x00\xf0?'
p3950
tp3951
bsg24
Nsg25
Nsg11
Nsg2775
g3550
sg28
I00
sg2784
Nsg29
I00
sg30
(dp3952
sg2781
Nsg32
I00
sg2828
I00
sg1878
Nsg2785
Nsg2769
F1.0
sg2819
g2820
sg2770
Nsg2004
g2856
sg2786
g0
(g2787
g2
Ntp3953
Rp3954
(dp3955
g2786
g2860
sg2791
Nsg2792
Nsg115
g0
(g45
g2
Ntp3956
Rp3957
(dp3958
g49
I1
sg50
Nsg51
g7
sg52
(dp3959
sbsg2803
I00
sg2804
g2805
sg2806
Nsg1875
g2807
sg99
g2808
sg2809
g0
(g2219
g2
Ntp3960
Rp3961
(dp3962
g2223
I00
sg2224
Nsg2225
g132
(g133
(I0
tp3963
g135
tp3964
Rp3965
(I1
(I0
I2
tp3966
g59
I00
g2252
tp3967
bsg2232
I00
sg2233
F0.1111111111111111
sg2234
I1
sg2235
I00
sbsbsg33
Nsg2771
g2772
sg92
I01
sg2773
g2774
sg96
Nsg2834
F0.0
sg86
I01
sg2821
g132
(g133
(I0
tp3968
g135
tp3969
Rp3970
(I1
(I2
I2
tp3971
g59
I00
S'\x00\x00\x00\x00\x00\x00\x00\x00\x00\x00\x00\x00\x00\x00\x00\x00\x00\x00\x00\x00\x00\x00\xf0?\x00\x00\x00\x00\x00\x00\x00\x00'
p3972
tp3973
bsg101
g2879
sg103
g0
(g104
g105
((lp3974
(lp3975
tp3976
tp3977
Rp3978
sg111
I0
sg2829
g2830
sg2767
I0
sg2832
Nsg2780
I5
sg112
I01
sg114
F1.0
sg2833
g2783
sg2778
I00
sg115
g184
sg2835
Nsg2779
Nsg2777
I00
sg43
Nsg1877
Nsg2836
g3578
sg88
g973
sg87
F0.8
sg34
Nsg2809
g0
(g2219
g2
Ntp3979
Rp3980
(dp3981
g2223
I00
sg2224
Nsg2225
g3970
sg2232
I00
sg2233
F0.1111111111111111
sg2234
I180
sg2235
I00
sbsbsg114
Nsg33
Nsg2889
g0
(g2760
g2
Ntp3982
Rp3983
(dp3984
g6
g7
sg2764
g2765
sg2201
Nsg20
I01
sg2766
Nsg2767
I0
sg75
Nsg76
Nsg24
Nsg11
Nsg29
I00
sg30
(dp3985
sg32
I00
sg1878
Nsg2769
F0.6
sg2770
Nsg2771
g2772
sg2773
g2774
sg96
Nsg86
I01
sg2775
g3586
sg111
I0
sg112
I01
sg2777
I01
sg2778
I01
sg115
g184
sg2779
Nsg2258
I2
sg2004
g3426
sg2780
I5
sg9
g4
sg2781
Nsg10
Nsg42
Nsg17
g18
sg2782
g2783
sg23
Nsg25
Nsg28
I00
sg2784
Nsg34
Nsg2785
Nsg2786
g0
(g2787
g2
Ntp3986
Rp3987
(dp3988
g2786
I1
sg2791
Nsg2792
F1.0
sg115
g0
(g157
g2
Ntp3989
Rp3990
(dp3991
g49
I2
sg50
Nsg120
g132
(g133
(I0
tp3992
g135
tp3993
Rp3994
(I1
(I3
I3
tp3995
g59
I00
S'\x00\x00\x00\x00\x00\x00\xf0?\x00\x00\x00\x00\x00\x00\x00\x00\x00\x00\x00\x00\x00\x00\x00\x00\x00\x00\x00\x00\x00\x00\x00\x00\x00\x00\x00\x00\x00\x00\xf0?\x00\x00\x00\x00\x00\x00\x00\x00\x00\x00\x00\x00\x00\x00\x00\x00\x00\x00\x00\x00\x00\x00\x00\x00\x00\x00\x00\x00\x00\x00\xf0?'
p3996
tp3997
bsg51
g7
sg52
(dp3998
sbsg2803
I00
sg2804
g2805
sg2806
Nsg1875
g2807
sg99
g2808
sg2809
g3520
sbsg2819
g2820
sg88
Nsg33
Nsg92
I01
sg2821
Nsg101
g3600
sg103
g0
(g104
g105
((lp3999
(lp4000
tp4001
tp4002
Rp4003
sg2828
I00
sg2829
g2830
sg2831
g2783
sg2832
Nsg114
Nsg2833
g2783
sg2834
F0.0
sg8
I01
sg2835
Nsg43
Nsg1877
Nsg2836
(I0
tp4004
sg87
F0.5
sg2809
Nsbsg115
Nsg2915
F8.0
sg2916
g3607
sg43
Nsg2004
g3426
sg34
Nsbasg34
Nsg3320
(dp4005
g2691
I01
sg2693
I00
sg2694
I01
sg2695
I00
ssg3322
I01
sbsS'_axisbelow'
p4006
I00
sg8
I01
sS'lines'
p4007
(lp4008
sS'_ycid'
p4009
I1
sS'spines'
p4010
ccollections
OrderedDict
p4011
((lp4012
(lp4013
Vleft
p4014
ag0
(cmatplotlib.spines
Spine
p4015
g2
Ntp4016
Rp4017
(dp4018
g6
g7
sg2637
I00
sg41
I01
sg9
g4
sS'_bounds'
p4019
Nsg8
I01
sg10
Nsg42
Nsg17
g18
sg43
Nsg20
I01
sg2619
g3366
sg44
g0
(g45
g2
Ntp4020
Rp4021
(dp4022
g49
I1
sg50
Nsg51
g7
sg52
(dp4023
sbsg54
(F0.0
F0.0
F0.0
F1.0
tp4024
sg23
Nsg24
Nsg77
V0.
p4025
sg11
Nsg28
I00
sg29
I00
sg30
(dp4026
sg1873
(NNtp4027
sg2563
(Voutward
p4028
F0.0
tp4029
sg32
I00
sg85
Nsg86
I01
sg87
F1.0
sS'_patch_type'
p4030
Vline
p4031
sg33
Nsg90
g4024
sg91
Nsg92
I01
sg93
Nsg94
Vnone
p4032
sg96
Nsg97
g2022
sg99
g100
sS'_patch_transform'
p4033
g0
(g45
g2
Ntp4034
Rp4035
(dp4036
g49
I1
sg50
Nsg51
g7
sg52
(dp4037
sbsg101
g102
sg103
g0
(g104
g105
((lp4038
(lp4039
tp4040
tp4041
Rp4042
sg111
I0
sS'_spine_transform'
p4043
(Videntity
p4044
g0
(g45
g2
Ntp4045
Rp4046
(dp4047
g49
I1
sg50
Nsg51
g7
sg52
(dp4048
sbtp4049
sg112
I01
sg114
NsS'spine_type'
p4050
g4014
sg115
g184
sg88
Nsg2258
F2.5
sg1875
Vprojecting
p4051
sg1877
Nsg25
Nsg1878
g1937
sg34
Nsg2809
g0
(g2219
g2
Ntp4052
Rp4053
(dp4054
g2223
I00
sg2224
Nsg2225
g132
(g133
(I0
tp4055
g135
tp4056
Rp4057
(I1
(I2
I2
tp4058
g59
I00
S'\x00\x00\x00\x00\x00\x00\x00\x00\x00\x00\x00\x00\x00\x00*@\x00\x00\x00\x00\x00\x00\x00\x00\x00\x00\x00\x00\x00\x00*@'
p4059
tp4060
bsg2232
I00
sg2233
F0.1111111111111111
sg2234
I1
sg2235
I00
sbsbaa(lp4061
Vright
p4062
ag0
(g4015
g2
Ntp4063
Rp4064
(dp4065
g6
g7
sg2637
I00
sg41
I01
sg9
g4
sg4019
Nsg8
I00
sg10
Nsg42
Nsg17
g18
sg43
Nsg20
I01
sg2619
g3366
sg44
g0
(g45
g2
Ntp4066
Rp4067
(dp4068
g49
I1
sg50
Nsg51
g7
sg52
(dp4069
sbsg54
g4024
sg23
Nsg24
Nsg77
g4025
sg11
Nsg28
I00
sg29
I00
sg30
(dp4070
sg1873
(NNtp4071
sg2563
g4029
sg32
I00
sg85
Nsg86
I01
sg87
F1.0
sg4030
g4031
sg33
Nsg90
g4024
sg91
Nsg92
I01
sg93
Nsg94
g4032
sg96
Nsg97
g2022
sg99
g100
sg4033
g0
(g45
g2
Ntp4072
Rp4073
(dp4074
g49
I1
sg50
Nsg51
g7
sg52
(dp4075
sbsg101
g102
sg103
g0
(g104
g105
((lp4076
(lp4077
tp4078
tp4079
Rp4080
sg111
I0
sg4043
(g4044
g0
(g45
g2
Ntp4081
Rp4082
(dp4083
g49
I1
sg50
Nsg51
g7
sg52
(dp4084
sbtp4085
sg112
I01
sg114
Nsg4050
g4062
sg115
g184
sg88
Nsg2258
F2.5
sg1875
g4051
sg1877
Nsg25
Nsg1878
g1937
sg34
Nsg2809
g0
(g2219
g2
Ntp4086
Rp4087
(dp4088
g2223
I00
sg2224
Nsg2225
g132
(g133
(I0
tp4089
g135
tp4090
Rp4091
(I1
(I2
I2
tp4092
g59
I00
S'\x00\x00\x00\x00\x00\x00\xf0?\x00\x00\x00\x00\x00\x00*@\x00\x00\x00\x00\x00\x00\xf0?\x00\x00\x00\x00\x00\x00*@'
p4093
tp4094
bsg2232
I00
sg2233
F0.1111111111111111
sg2234
I1
sg2235
I00
sbsbaa(lp4095
Vbottom
p4096
ag0
(g4015
g2
Ntp4097
Rp4098
(dp4099
g6
g7
sg2637
I00
sg41
I01
sg9
g4
sg4019
Nsg8
I01
sg10
Nsg42
Nsg17
g18
sg43
Nsg20
I01
sg2619
g2595
sg44
g0
(g45
g2
Ntp4100
Rp4101
(dp4102
g49
I1
sg50
Nsg51
g7
sg52
(dp4103
sbsg54
g4024
sg23
Nsg24
Nsg77
g4025
sg11
Nsg28
I00
sg29
I00
sg30
(dp4104
sg1873
(NNtp4105
sg2563
g4029
sg32
I00
sg85
Nsg86
I01
sg87
F1.0
sg4030
g4031
sg33
Nsg90
g4024
sg91
Nsg92
I01
sg93
Nsg94
g4032
sg96
Nsg97
g2022
sg99
g100
sg4033
g0
(g45
g2
Ntp4106
Rp4107
(dp4108
g49
I1
sg50
Nsg51
g7
sg52
(dp4109
sbsg101
g102
sg103
g0
(g104
g105
((lp4110
(lp4111
tp4112
tp4113
Rp4114
sg111
I0
sg4043
(g4044
g0
(g45
g2
Ntp4115
Rp4116
(dp4117
g49
I1
sg50
Nsg51
g7
sg52
(dp4118
sbtp4119
sg112
I01
sg114
Nsg4050
g4096
sg115
g355
sg88
Nsg2258
F2.5
sg1875
g4051
sg1877
Nsg25
Nsg1878
g1937
sg34
Nsg2809
g0
(g2219
g2
Ntp4120
Rp4121
(dp4122
g2223
I00
sg2224
Nsg2225
g132
(g133
(I0
tp4123
g135
tp4124
Rp4125
(I1
(I2
I2
tp4126
g59
I00
S'\x00\x00\x00\x00\x00\x00*@\x00\x00\x00\x00\x00\x00\x00\x00\x00\x00\x00\x00\x00\x00*@\x00\x00\x00\x00\x00\x00\x00\x00'
p4127
tp4128
bsg2232
I00
sg2233
F0.1111111111111111
sg2234
I1
sg2235
I00
sbsbaa(lp4129
Vtop
p4130
ag0
(g4015
g2
Ntp4131
Rp4132
(dp4133
g6
g7
sg2637
I00
sg41
I01
sg9
g4
sg4019
Nsg8
I00
sg10
Nsg42
Nsg17
g18
sg43
Nsg20
I01
sg2619
g2595
sg44
g0
(g45
g2
Ntp4134
Rp4135
(dp4136
g49
I1
sg50
Nsg51
g7
sg52
(dp4137
sbsg54
g4024
sg23
Nsg24
Nsg77
g4025
sg11
Nsg28
I00
sg29
I00
sg30
(dp4138
sg1873
(NNtp4139
sg2563
g4029
sg32
I00
sg85
Nsg86
I01
sg87
F1.0
sg4030
g4031
sg33
Nsg90
g4024
sg91
Nsg92
I01
sg93
Nsg94
g4032
sg96
Nsg97
g2022
sg99
g100
sg4033
g0
(g45
g2
Ntp4140
Rp4141
(dp4142
g49
I1
sg50
Nsg51
g7
sg52
(dp4143
sbsg101
g102
sg103
g0
(g104
g105
((lp4144
(lp4145
tp4146
tp4147
Rp4148
sg111
I0
sg4043
(g4044
g0
(g45
g2
Ntp4149
Rp4150
(dp4151
g49
I1
sg50
Nsg51
g7
sg52
(dp4152
sbtp4153
sg112
I01
sg114
Nsg4050
g4130
sg115
g355
sg88
Nsg2258
F2.5
sg1875
g4051
sg1877
Nsg25
Nsg1878
g1937
sg34
Nsg2809
g0
(g2219
g2
Ntp4154
Rp4155
(dp4156
g2223
I00
sg2224
Nsg2225
g132
(g133
(I0
tp4157
g135
tp4158
Rp4159
(I1
(I2
I2
tp4160
g59
I00
S'\x00\x00\x00\x00\x00\x00*@\x00\x00\x00\x00\x00\x00\xf0?\x00\x00\x00\x00\x00\x00*@\x00\x00\x00\x00\x00\x00\xf0?'
p4161
tp4162
bsg2232
I00
sg2233
F0.1111111111111111
sg2234
I1
sg2235
I00
sbsbaatp4163
Rp4164
sS'_anchor'
p4165
VC
p4166
sg43
Nsg1877
NsS'_use_sticky_edges'
p4167
I01
sbtp4168
tp4169
asS'_ind'
p4170
I1
sS'_pos'
p4171
I0
sbsg115
Nsg4007
(lp4172
sg2535
g38
sS'subplotpars'
p4173
g0
(cmatplotlib.figure
SubplotParams
p4174
g2
Ntp4175
Rp4176
(dp4177
g1921
F0.9
sg1923
F0.125
sg1924
F0.88
sg1925
F0.2
sS'validate'
p4178
I01
sg1927
F0.2
sg1929
F0.125
sbsg43
Nsg1877
NsS'bbox_inches'
p4179
g129
sS'transFigure'
p4180
g118
sS'_dpi'
p4181
F72.0
sb.