ccopy_reg
_reconstructor
p0
(cmatplotlib.figure
Figure
p1
c__builtin__
object
p2
Ntp3
Rp4
(dp5
S'_label'
p6
V
p7
sS'_visible'
p8
I01
sS'figure'
p9
NsS'stale_callback'
p10
NsS'_rasterized'
p11
NsS'texts'
p12
(lp13
sS'_hold'
p14
I01
sS'artists'
p15
(lp16
sS'_path_effects'
p17
(lp18
sS'frameon'
p19
I01
sS'_clipon'
p20
I01
sV__mpl_version__
p21
S'2.0.2'
p22
sS'_clippath'
p23
NsS'_sketch'
p24
NsS'_contains'
p25
NsS'_tight_parameters'
p26
(dp27
sS'_mouseover'
p28
I00
sS'_animated'
p29
I00
sS'_propobservers'
p30
(dp31
sS'eventson'
p32
I00
sS'_picker'
p33
NsS'_remove_method'
p34
NsS'figurePatch'
p35
g0
(cmatplotlib.patches
Rectangle
p36
g2
Ntp37
Rp38
(dp39
g6
g7
sS'_width'
p40
F1.0
sS'_fill'
p41
I01
sg9
g4
sg8
I01
sg10
NsS'_agg_filter'
p42
Nsg17
g18
sS'_gid'
p43
Nsg20
I01
sS'_combined_transform'
p44
g0
(cmatplotlib.transforms
IdentityTransform
p45
g2
Ntp46
Rp47
(dp48
S'_invalid'
p49
I1
sS'_inverted'
p50
NsS'_shorthand_name'
p51
g7
sS'_parents'
p52
(dp53
sbsS'_edgecolor'
p54
(cnumpy.core.multiarray
scalar
p55
(cnumpy
dtype
p56
(S'f8'
p57
I0
I1
tp58
Rp59
(I3
S'<'
p60
NNNI-1
I-1
I0
tp61
bS'\x00\x00\x00\x00\x00\x00\xf0?'
p62
tp63
Rp64
g55
(g59
S'\x00\x00\x00\x00\x00\x00\xf0?'
p65
tp66
Rp67
g55
(g59
S'\x00\x00\x00\x00\x00\x00\xf0?'
p68
tp69
Rp70
g55
(g59
S'\x00\x00\x00\x00\x00\x00\x00\x00'
p71
tp72
Rp73
tp74
sg23
NsS'_y'
p75
F0.0
sS'_x'
p76
F0.0
sg24
NsS'_original_edgecolor'
p77
(I1
I1
I1
I0
tp78
sg11
Nsg28
I00
sg29
I00
sg30
(dp79
sS'_rect_transform'
p80
g0
(g45
g2
Ntp81
Rp82
(dp83
g49
I1
sg50
Nsg51
g7
sg52
(dp84
sbsg32
I00
sS'_hatch'
p85
NsS'_stale'
p86
I01
sS'_linewidth'
p87
F0.0
sS'clipbox'
p88
NsS'_height'
p89
F1.0
sg33
NsS'_hatch_color'
p90
g74
sS'_dashes'
p91
NsS'_antialiased'
p92
I00
sS'_dashoffset'
p93
NsS'_original_facecolor'
p94
Vwhite
p95
sS'_snap'
p96
NsS'_facecolor'
p97
(F1.0
F1.0
F1.0
F1.0
tp98
sS'_joinstyle'
p99
Vmiter
p100
sS'_linestyle'
p101
Vsolid
p102
sS'_sticky_edges'
p103
g0
(cmatplotlib.artist
_XYPair
p104
c__builtin__
tuple
p105
((lp106
(lp107
tp108
tp109
Rp110
sS'_oid'
p111
I0
sS'_transformSet'
p112
I01
sS'_angle'
p113
F0.0
sS'_alpha'
p114
NsS'_transform'
p115
g0
(cmatplotlib.transforms
BboxTransformTo
p116
g2
Ntp117
Rp118
(dp119
g49
I2
sS'_mtx'
p120
Nsg50
NsS'_boxout'
p121
g0
(cmatplotlib.transforms
TransformedBbox
p122
g2
Ntp123
Rp124
(dp125
g49
I2
sS'_bbox'
p126
g0
(cmatplotlib.transforms
Bbox
p127
g2
Ntp128
Rp129
(dp130
g49
I2
sS'_minpos'
p131
cnumpy.core.multiarray
_reconstruct
p132
(cnumpy
ndarray
p133
(I0
tp134
S'b'
p135
tp136
Rp137
(I1
(I2
tp138
g59
I00
S'\x00\x00\x00\x00\x00\x00\xf0\x7f\x00\x00\x00\x00\x00\x00\xf0\x7f'
p139
tp140
bsg52
(dp141
I139695122949072
g124
ssS'_points_orig'
p142
g132
(g133
(I0
tp143
g135
tp144
Rp145
(I1
(I2
I2
tp146
g59
I00
S'\x00\x00\x00\x00\x00\x00\x00\x00\x00\x00\x00\x00\x00\x00\x00\x00\x00\x00\x00\x00\x00\x00\x18@\x00\x00\x00\x00\x00\x00\x10@'
p147
tp148
bsS'_points'
p149
g132
(g133
(I0
tp150
g135
tp151
Rp152
(I1
(I2
I2
tp153
g59
I00
S'\x00\x00\x00\x00\x00\x00\x00\x00\x00\x00\x00\x00\x00\x00\x00\x00\x00\x00\x00\x00\x00\x00\xf8?\x00\x00\x00\x00\x00\x00\xf8?'
p154
tp155
bsS'_ignore'
p156
I01
sg51
g7
sbsg115
g0
(cmatplotlib.transforms
Affine2D
p157
g2
Ntp158
Rp159
(dp160
g49
I2
sg50
Nsg120
g132
(g133
(I0
tp161
g135
tp162
Rp163
(I1
(I3
I3
tp164
g59
I00
S'\x00\x00\x00\x00\x00\x00R@\x00\x00\x00\x00\x00\x00\x00\x00\x00\x00\x00\x00\x00\x00\x00\x00\x00\x00\x00\x00\x00\x00\x00\x00\x00\x00\x00\x00\x00\x00R@\x00\x00\x00\x00\x00\x00\x00\x00\x00\x00\x00\x00\x00\x00\x00\x00\x00\x00\x00\x00\x00\x00\x00\x00\x00\x00\x00\x00\x00\x00\xf0?'
p165
tp166
bsg51
g7
sg52
(dp167
I139695073545936
g0
(cmatplotlib.transforms
ScaledTranslation
p168
g2
Ntp169
Rp170
(dp171
g49
I1
sg120
NsS'_scale_trans'
p172
g159
sg50
NsS'_t'
p173
(I0
F-0.04722222222222222
tp174
sg51
g7
sg52
(dp175
I139695165692560
g0
(cmatplotlib.transforms
CompositeGenericTransform
p176
g2
Ntp177
Rp178
(dp179
g49
I2
sS'input_dims'
p180
I2
sS'_a'
p181
g0
(cmatplotlib.transforms
BlendedGenericTransform
p182
g2
Ntp183
Rp184
(dp185
g49
I2
sg75
g0
(g116
g2
Ntp186
Rp187
(dp188
g49
I2
sg120
Nsg50
Nsg121
g0
(g122
g2
Ntp189
Rp190
(dp191
g49
I2
sg126
g0
(g127
g2
Ntp192
Rp193
(dp194
g49
I0
sg131
g132
(g133
(I0
tp195
g135
tp196
Rp197
(I1
(I2
tp198
g59
I00
S'\x00\x00\x00\x00\x00\x00\xf0\x7f\x00\x00\x00\x00\x00\x00\xf0\x7f'
p199
tp200
bsg52
(dp201
I139695164573648
g190
ssg142
g132
(g133
(I0
tp202
g135
tp203
Rp204
(I1
(I2
I2
tp205
g59
I00
S'\x00\x00\x00\x00\x00\x00\xc0?\x00\x00\x00\x00\x00\x00\xc0?\xcd\xcc\xcc\xcc\xcc\xcc\xec?)\\\x8f\xc2\xf5(\xec?'
p206
tp207
bsg149
g132
(g133
(I0
tp208
g135
tp209
Rp210
(I1
(I2
I2
tp211
g59
I00
S'\x00\x00\x00\x00\x00\x00\xc0?\x00\x00\x00\x00\x00\x00\xc0?\xcd\xcc\xcc\xcc\xcc\xcc\xec?)\\\x8f\xc2\xf5(\xec?'
p212
tp213
bsg156
I01
sg51
g7
sbsg115
g118
sg149
Nsg52
(dp214
I139695080107280
g187
ssg51
g7
sbsg52
(dp215
I139695013954448
g0
(g176
g2
Ntp216
Rp217
(dp218
g49
I2
sg180
I2
sg181
g0
(g176
g2
Ntp219
Rp220
(dp221
g49
I1
sg180
I2
sg181
g0
(g116
g2
Ntp222
Rp223
(dp224
g49
I1
sg120
Nsg50
Nsg121
g0
(g127
g2
Ntp225
Rp226
(dp227
g49
I1
sg131
g132
(g133
(I0
tp228
g135
tp229
Rp230
(I1
(I2
tp231
g59
I00
S'\x00\x00\x00\x00\x00\x00\xf0\x7f\x00\x00\x00\x00\x00\x00\xf0\x7f'
p232
tp233
bsg52
(dp234
I139695013956048
g223
ssg142
g132
(g133
(I0
tp235
g135
tp236
Rp237
(I1
(I2
I2
tp238
g59
I00
S'\x00\x00\x00\x00\x00\x00\x00\x00\x00\x00\x00\x00\x00\x00\x00\x00\x00\x00\x00\x00\x00\x00\xf0?\x00\x00\x00\x00\x00\x00\xf0?'
p239
tp240
bsg149
g132
(g133
(I0
tp241
g135
tp242
Rp243
(I1
(I2
I2
tp244
g59
I00
S'\x00\x00\x00\x00\x00\x00\x00\x00\x00\x00\x00\x00\x00\x00\x00\x00\x00\x00\x00\x00\x00\x00\xf0?\x00\x00\x00\x00\x00\x00\xf0?'
p245
tp246
bsg156
I01
sg51
g7
sbsg52
(dp247
I139695013954704
g220
ssg51
g7
sbsS'output_dims'
p248
I2
sS'_b'
p249
g0
(g157
g2
Ntp250
Rp251
(dp252
g49
I2
sg50
Nsg120
g132
(g133
(I0
tp253
g135
tp254
Rp255
(I1
(I3
I3
tp256
g59
I00
S'\x00\x00\x00\x00\x00\x00\xf0?\x00\x00\x00\x00\x00\x00\x00\x00\x00\x00\x00\x00\x00\x00\x00\x00\x00\x00\x00\x00\x00\x00\x00\x00\x00\x00\x00\x00\x00\x00\xf0?\x00\x00\x00\x00\x00\x00\x00\x00\x00\x00\x00\x00\x00\x00\x00\x00\x00\x00\x00\x00\x00\x00\x00\x00\x00\x00\x00\x00\x00\x00\xf0?'
p257
tp258
bsg51
g7
sg52
(dp259
I139695013954704
g220
ssbsg52
(dp260
I139695013954448
g217
ssg51
g7
sbsg248
I2
sg249
g187
sg52
(dp261
I139695013955600
g0
(g122
g2
Ntp262
Rp263
(dp264
g49
I2
sg126
g0
(g127
g2
Ntp265
Rp266
(dp267
g49
I1
sg131
g132
(g133
(I0
tp268
g135
tp269
Rp270
(I1
(I2
tp271
g59
I00
S'\x00\x00\x00\x00\x00\x00\xf0\x7f\x00\x00\x00\x00\x00\x00\xf0\x7f'
p272
tp273
bsg52
(dp274
I139695013955600
g263
ssg142
g132
(g133
(I0
tp275
g135
tp276
Rp277
(I1
(I2
I2
tp278
g59
I00
S'\x00\x00\x00\x00\x00\x00\x00\x00\x00\x00\x00\x00\x00\x00\x00\x00\x00\x00\x00\x00\x00\x00\xf0?\x00\x00\x00\x00\x00\x00\xf0?'
p279
tp280
bsg149
g132
(g133
(I0
tp281
g135
tp282
Rp283
(I1
(I2
I2
tp284
g59
I00
S'\x00\x00\x00\x00\x00\x00\x00\x00\x00\x00\x00\x00\x00\x00\x00\x00\x00\x00\x00\x00\x00\x00\xf0?\x00\x00\x00\x00\x00\x00\xf0?'
p285
tp286
bsg156
I01
sg51
g7
sbsg115
g217
sg149
Nsg52
(dp287
sg51
g7
sbssg51
g7
sbsI139695014392784
g0
(g176
g2
Ntp288
Rp289
(dp290
g49
I2
sg180
I2
sg181
g0
(g176
g2
Ntp291
Rp292
(dp293
g49
I1
sg180
I2
sg181
g0
(g116
g2
Ntp294
Rp295
(dp296
g49
I1
sg120
Nsg50
Nsg121
g0
(g127
g2
Ntp297
Rp298
(dp299
g49
I1
sg131
g132
(g133
(I0
tp300
g135
tp301
Rp302
(I1
(I2
tp303
g59
I00
S'\x00\x00\x00\x00\x00\x00\xf0\x7f\x00\x00\x00\x00\x00\x00\xf0\x7f'
p304
tp305
bsg52
(dp306
I139695014393104
g295
ssg142
g132
(g133
(I0
tp307
g135
tp308
Rp309
(I1
(I2
I2
tp310
g59
I00
S'\x00\x00\x00\x00\x00\x00\x00\x00\x00\x00\x00\x00\x00\x00\x00\x00\x00\x00\x00\x00\x00\x00\xf0?\x00\x00\x00\x00\x00\x00\xf0?'
p311
tp312
bsg149
g132
(g133
(I0
tp313
g135
tp314
Rp315
(I1
(I2
I2
tp316
g59
I00
S'\x00\x00\x00\x00\x00\x00\x00\x00\x00\x00\x00\x00\x00\x00\x00\x00\x00\x00\x00\x00\x00\x00\xf0?\x00\x00\x00\x00\x00\x00\xf0?'
p317
tp318
bsg156
I01
sg51
g7
sbsg52
(dp319
I139695014393040
g292
ssg51
g7
sbsg248
I2
sg249
g0
(g157
g2
Ntp320
Rp321
(dp322
g49
I2
sg50
Nsg120
g132
(g133
(I0
tp323
g135
tp324
Rp325
(I1
(I3
I3
tp326
g59
I00
S'\x00\x00\x00\x00\x00\x00\xf0?\x00\x00\x00\x00\x00\x00\x00\x00\x00\x00\x00\x00\x00\x00\x00\x00\x00\x00\x00\x00\x00\x00\x00\x00\x00\x00\x00\x00\x00\x00\xf0?\x00\x00\x00\x00\x00\x00\x00\x00\x00\x00\x00\x00\x00\x00\x00\x00\x00\x00\x00\x00\x00\x00\x00\x00\x00\x00\x00\x00\x00\x00\xf0?'
p327
tp328
bsg51
g7
sg52
(dp329
I139695014393040
g292
ssbsg52
(dp330
I139695014392784
g289
ssg51
g7
sbsg248
I2
sg249
g187
sg52
(dp331
I139695014392464
g0
(g122
g2
Ntp332
Rp333
(dp334
g49
I2
sg126
g0
(g127
g2
Ntp335
Rp336
(dp337
g49
I1
sg131
g132
(g133
(I0
tp338
g135
tp339
Rp340
(I1
(I2
tp341
g59
I00
S'\x00\x00\x00\x00\x00\x00\xf0\x7f\x00\x00\x00\x00\x00\x00\xf0\x7f'
p342
tp343
bsg52
(dp344
I139695014392464
g333
ssg142
g132
(g133
(I0
tp345
g135
tp346
Rp347
(I1
(I2
I2
tp348
g59
I00
S'\x00\x00\x00\x00\x00\x00\x00\x00\x00\x00\x00\x00\x00\x00\x00\x00\x00\x00\x00\x00\x00\x00\xf0?\x00\x00\x00\x00\x00\x00\xf0?'
p349
tp350
bsg149
g132
(g133
(I0
tp351
g135
tp352
Rp353
(I1
(I2
I2
tp354
g59
I00
S'\x00\x00\x00\x00\x00\x00\x00\x00\x00\x00\x00\x00\x00\x00\x00\x00\x00\x00\x00\x00\x00\x00\xf0?\x00\x00\x00\x00\x00\x00\xf0?'
p355
tp356
bsg156
I01
sg51
g7
sbsg115
g289
sg149
Nsg52
(dp357
sg51
g7
sbssg51
g7
sbsI139695011767568
g0
(g176
g2
Ntp358
Rp359
(dp360
g49
I2
sg180
I2
sg181
g0
(g176
g2
Ntp361
Rp362
(dp363
g49
I1
sg180
I2
sg181
g0
(g116
g2
Ntp364
Rp365
(dp366
g49
I1
sg120
Nsg50
Nsg121
g0
(g127
g2
Ntp367
Rp368
(dp369
g49
I1
sg131
g132
(g133
(I0
tp370
g135
tp371
Rp372
(I1
(I2
tp373
g59
I00
S'\x00\x00\x00\x00\x00\x00\xf0\x7f\x00\x00\x00\x00\x00\x00\xf0\x7f'
p374
tp375
bsg52
(dp376
I139695011766352
g365
ssg142
g132
(g133
(I0
tp377
g135
tp378
Rp379
(I1
(I2
I2
tp380
g59
I00
S'\x00\x00\x00\x00\x00\x00\x00\x00\x00\x00\x00\x00\x00\x00\x00\x00\x00\x00\x00\x00\x00\x00\xf0?\x00\x00\x00\x00\x00\x00\xf0?'
p381
tp382
bsg149
g132
(g133
(I0
tp383
g135
tp384
Rp385
(I1
(I2
I2
tp386
g59
I00
S'\x00\x00\x00\x00\x00\x00\x00\x00\x00\x00\x00\x00\x00\x00\x00\x00\x00\x00\x00\x00\x00\x00\xf0?\x00\x00\x00\x00\x00\x00\xf0?'
p387
tp388
bsg156
I01
sg51
g7
sbsg52
(dp389
I139695011766480
g362
ssg51
g7
sbsg248
I2
sg249
g0
(g157
g2
Ntp390
Rp391
(dp392
g49
I2
sg50
Nsg120
g132
(g133
(I0
tp393
g135
tp394
Rp395
(I1
(I3
I3
tp396
g59
I00
S'\x00\x00\x00\x00\x00\x00\xf0?\x00\x00\x00\x00\x00\x00\x00\x00\x00\x00\x00\x00\x00\x00\x00\x00\x00\x00\x00\x00\x00\x00\x00\x00\x00\x00\x00\x00\x00\x00\xf0?\x00\x00\x00\x00\x00\x00\x00\x00\x00\x00\x00\x00\x00\x00\x00\x00\x00\x00\x00\x00\x00\x00\x00\x00\x00\x00\x00\x00\x00\x00\xf0?'
p397
tp398
bsg51
g7
sg52
(dp399
I139695011766480
g362
ssbsg52
(dp400
I139695011767568
g359
ssg51
g7
sbsg248
I2
sg249
g187
sg52
(dp401
I139695011769552
g0
(g122
g2
Ntp402
Rp403
(dp404
g49
I2
sg126
g0
(g127
g2
Ntp405
Rp406
(dp407
g49
I1
sg131
g132
(g133
(I0
tp408
g135
tp409
Rp410
(I1
(I2
tp411
g59
I00
S'\x00\x00\x00\x00\x00\x00\xf0\x7f\x00\x00\x00\x00\x00\x00\xf0\x7f'
p412
tp413
bsg52
(dp414
I139695011769552
g403
ssg142
g132
(g133
(I0
tp415
g135
tp416
Rp417
(I1
(I2
I2
tp418
g59
I00
S'\x00\x00\x00\x00\x00\x00\x00\x00\x00\x00\x00\x00\x00\x00\x00\x00\x00\x00\x00\x00\x00\x00\xf0?\x00\x00\x00\x00\x00\x00\xf0?'
p419
tp420
bsg149
g132
(g133
(I0
tp421
g135
tp422
Rp423
(I1
(I2
I2
tp424
g59
I00
S'\x00\x00\x00\x00\x00\x00\x00\x00\x00\x00\x00\x00\x00\x00\x00\x00\x00\x00\x00\x00\x00\x00\xf0?\x00\x00\x00\x00\x00\x00\xf0?'
p425
tp426
bsg156
I01
sg51
g7
sbsg115
g359
sg149
Nsg52
(dp427
sg51
g7
sbssg51
g7
sbsI139695014246672
g0
(g176
g2
Ntp428
Rp429
(dp430
g49
I2
sg180
I2
sg181
g187
sg248
I2
sg249
g0
(g168
g2
Ntp431
Rp432
(dp433
g49
I1
sg120
Nsg172
g159
sg50
Nsg173
(F0.0
F0.08333333333333333
tp434
sg51
g7
sg52
(dp435
I139695014246672
g429
sI139695014247504
g0
(g176
g2
Ntp436
Rp437
(dp438
g49
I2
sg180
I2
sg181
g187
sg248
I2
sg249
g432
sg52
(dp439
sg51
g7
sbsI139695014248400
g0
(g176
g2
Ntp440
Rp441
(dp442
g49
I2
sg180
I2
sg181
g187
sg248
I2
sg249
g432
sg52
(dp443
sg51
g7
sbssbsg52
(dp444
sg51
g7
sbsI139695160165776
g0
(g176
g2
Ntp445
Rp446
(dp447
g49
I2
sg180
I2
sg181
g0
(g176
g2
Ntp448
Rp449
(dp450
g49
I1
sg180
I2
sg181
g0
(g116
g2
Ntp451
Rp452
(dp453
g49
I1
sg120
Nsg50
Nsg121
g0
(g127
g2
Ntp454
Rp455
(dp456
g49
I1
sg131
g132
(g133
(I0
tp457
g135
tp458
Rp459
(I1
(I2
tp460
g59
I00
S'\x00\x00\x00\x00\x00\x00\xf0\x7f\x00\x00\x00\x00\x00\x00\xf0\x7f'
p461
tp462
bsg52
(dp463
I139695160165584
g452
ssg142
g132
(g133
(I0
tp464
g135
tp465
Rp466
(I1
(I2
I2
tp467
g59
I00
S'\x00\x00\x00\x00\x00\x00\x00\x00\x00\x00\x00\x00\x00\x00\x00\x00\x00\x00\x00\x00\x00\x00\xf0?\x00\x00\x00\x00\x00\x00\xf0?'
p468
tp469
bsg149
g132
(g133
(I0
tp470
g135
tp471
Rp472
(I1
(I2
I2
tp473
g59
I00
S'\x00\x00\x00\x00\x00\x00\x00\x00\x00\x00\x00\x00\x00\x00\x00\x00\x00\x00\x00\x00\x00\x00\xf0?\x00\x00\x00\x00\x00\x00\xf0?'
p474
tp475
bsg156
I01
sg51
g7
sbsg52
(dp476
I139695160167760
g449
ssg51
g7
sbsg248
I2
sg249
g0
(g157
g2
Ntp477
Rp478
(dp479
g49
I2
sg50
Nsg120
g132
(g133
(I0
tp480
g135
tp481
Rp482
(I1
(I3
I3
tp483
g59
I00
S'\x00\x00\x00\x00\x00\x00\xf0?\x00\x00\x00\x00\x00\x00\x00\x00\x00\x00\x00\x00\x00\x00\x00\x00\x00\x00\x00\x00\x00\x00\x00\x00\x00\x00\x00\x00\x00\x00\xf0?\x00\x00\x00\x00\x00\x00\x00\x00\x00\x00\x00\x00\x00\x00\x00\x00\x00\x00\x00\x00\x00\x00\x00\x00\x00\x00\x00\x00\x00\x00\xf0?'
p484
tp485
bsg51
g7
sg52
(dp486
I139695160167760
g449
ssbsg52
(dp487
I139695160165776
g446
ssg51
g7
sbsg248
I2
sg249
g187
sg52
(dp488
I139695160168336
g0
(g122
g2
Ntp489
Rp490
(dp491
g49
I2
sg126
g0
(g127
g2
Ntp492
Rp493
(dp494
g49
I1
sg131
g132
(g133
(I0
tp495
g135
tp496
Rp497
(I1
(I2
tp498
g59
I00
S'\x00\x00\x00\x00\x00\x00\xf0\x7f\x00\x00\x00\x00\x00\x00\xf0\x7f'
p499
tp500
bsg52
(dp501
I139695160168336
g490
ssg142
g132
(g133
(I0
tp502
g135
tp503
Rp504
(I1
(I2
I2
tp505
g59
I00
S'\x00\x00\x00\x00\x00\x00\x00\x00\x00\x00\x00\x00\x00\x00\x00\x00\x00\x00\x00\x00\x00\x00\xf0?\x00\x00\x00\x00\x00\x00\xf0?'
p506
tp507
bsg149
g132
(g133
(I0
tp508
g135
tp509
Rp510
(I1
(I2
I2
tp511
g59
I00
S'\x00\x00\x00\x00\x00\x00\x00\x00\x00\x00\x00\x00\x00\x00\x00\x00\x00\x00\x00\x00\x00\x00\xf0?\x00\x00\x00\x00\x00\x00\xf0?'
p512
tp513
bsg156
I01
sg51
g7
sbsg115
g446
sg149
Nsg52
(dp514
sg51
g7
sbssg51
g7
sbsI139695160166032
g0
(g176
g2
Ntp515
Rp516
(dp517
g49
I2
sg180
I2
sg181
g0
(g176
g2
Ntp518
Rp519
(dp520
g49
I1
sg180
I2
sg181
g0
(g116
g2
Ntp521
Rp522
(dp523
g49
I1
sg120
Nsg50
Nsg121
g0
(g127
g2
Ntp524
Rp525
(dp526
g49
I1
sg131
g132
(g133
(I0
tp527
g135
tp528
Rp529
(I1
(I2
tp530
g59
I00
S'\x00\x00\x00\x00\x00\x00\xf0\x7f\x00\x00\x00\x00\x00\x00\xf0\x7f'
p531
tp532
bsg52
(dp533
I139695166440528
g522
ssg142
g132
(g133
(I0
tp534
g135
tp535
Rp536
(I1
(I2
I2
tp537
g59
I00
S'\x00\x00\x00\x00\x00\x00\x00\x00\x00\x00\x00\x00\x00\x00\x00\x00\x00\x00\x00\x00\x00\x00\xf0?\x00\x00\x00\x00\x00\x00\xf0?'
p538
tp539
bsg149
g132
(g133
(I0
tp540
g135
tp541
Rp542
(I1
(I2
I2
tp543
g59
I00
S'\x00\x00\x00\x00\x00\x00\x00\x00\x00\x00\x00\x00\x00\x00\x00\x00\x00\x00\x00\x00\x00\x00\xf0?\x00\x00\x00\x00\x00\x00\xf0?'
p544
tp545
bsg156
I01
sg51
g7
sbsg52
(dp546
I139695166441488
g519
ssg51
g7
sbsg248
I2
sg249
g0
(g157
g2
Ntp547
Rp548
(dp549
g49
I2
sg50
Nsg120
g132
(g133
(I0
tp550
g135
tp551
Rp552
(I1
(I3
I3
tp553
g59
I00
S'\x00\x00\x00\x00\x00\x00\xf0?\x00\x00\x00\x00\x00\x00\x00\x00\x00\x00\x00\x00\x00\x00\x00\x00\x00\x00\x00\x00\x00\x00\x00\x00\x00\x00\x00\x00\x00\x00\xf0?\x00\x00\x00\x00\x00\x00\x00\x00\x00\x00\x00\x00\x00\x00\x00\x00\x00\x00\x00\x00\x00\x00\x00\x00\x00\x00\x00\x00\x00\x00\xf0?'
p554
tp555
bsg51
g7
sg52
(dp556
I139695166441488
g519
ssbsg52
(dp557
I139695160166032
g516
ssg51
g7
sbsg248
I2
sg249
g187
sg52
(dp558
I139695160166736
g0
(g122
g2
Ntp559
Rp560
(dp561
g49
I2
sg126
g0
(g127
g2
Ntp562
Rp563
(dp564
g49
I1
sg131
g132
(g133
(I0
tp565
g135
tp566
Rp567
(I1
(I2
tp568
g59
I00
S'\x00\x00\x00\x00\x00\x00\xf0\x7f\x00\x00\x00\x00\x00\x00\xf0\x7f'
p569
tp570
bsg52
(dp571
I139695160166736
g560
ssg142
g132
(g133
(I0
tp572
g135
tp573
Rp574
(I1
(I2
I2
tp575
g59
I00
S'\x00\x00\x00\x00\x00\x00\x00\x00\x00\x00\x00\x00\x00\x00\x00\x00\x00\x00\x00\x00\x00\x00\xf0?\x00\x00\x00\x00\x00\x00\xf0?'
p576
tp577
bsg149
g132
(g133
(I0
tp578
g135
tp579
Rp580
(I1
(I2
I2
tp581
g59
I00
S'\x00\x00\x00\x00\x00\x00\x00\x00\x00\x00\x00\x00\x00\x00\x00\x00\x00\x00\x00\x00\x00\x00\xf0?\x00\x00\x00\x00\x00\x00\xf0?'
p582
tp583
bsg156
I01
sg51
g7
sbsg115
g516
sg149
Nsg52
(dp584
sg51
g7
sbssg51
g7
sbsI139695075293392
g0
(cmatplotlib.transforms
BlendedAffine2D
p585
g2
Ntp586
Rp587
(dp588
g49
I2
sg120
Nsg75
g0
(g45
g2
Ntp589
Rp590
(dp591
g49
I1
sg50
Nsg51
g7
sg52
(dp592
I139695075293392
g587
ssbsg76
g187
sg50
Nsg51
g7
sg52
(dp593
sbsI139695165208336
g0
(g176
g2
Ntp594
Rp595
(dp596
g49
I2
sg180
I2
sg181
g0
(g176
g2
Ntp597
Rp598
(dp599
g49
I1
sg180
I2
sg181
g0
(g116
g2
Ntp600
Rp601
(dp602
g49
I1
sg120
Nsg50
Nsg121
g0
(g127
g2
Ntp603
Rp604
(dp605
g49
I1
sg131
g132
(g133
(I0
tp606
g135
tp607
Rp608
(I1
(I2
tp609
g59
I00
S'\x00\x00\x00\x00\x00\x00\xf0\x7f\x00\x00\x00\x00\x00\x00\xf0\x7f'
p610
tp611
bsg52
(dp612
I139695011767760
g601
ssg142
g132
(g133
(I0
tp613
g135
tp614
Rp615
(I1
(I2
I2
tp616
g59
I00
S'\x00\x00\x00\x00\x00\x00\x00\x00\x00\x00\x00\x00\x00\x00\x00\x00\x00\x00\x00\x00\x00\x00\xf0?\x00\x00\x00\x00\x00\x00\xf0?'
p617
tp618
bsg149
g132
(g133
(I0
tp619
g135
tp620
Rp621
(I1
(I2
I2
tp622
g59
I00
S'\x00\x00\x00\x00\x00\x00\x00\x00\x00\x00\x00\x00\x00\x00\x00\x00\x00\x00\x00\x00\x00\x00\xf0?\x00\x00\x00\x00\x00\x00\xf0?'
p623
tp624
bsg156
I01
sg51
g7
sbsg52
(dp625
I139695165209232
g598
ssg51
g7
sbsg248
I2
sg249
g0
(g157
g2
Ntp626
Rp627
(dp628
g49
I2
sg50
Nsg120
g132
(g133
(I0
tp629
g135
tp630
Rp631
(I1
(I3
I3
tp632
g59
I00
S'\x00\x00\x00\x00\x00\x00\xf0?\x00\x00\x00\x00\x00\x00\x00\x00\x00\x00\x00\x00\x00\x00\x00\x00\x00\x00\x00\x00\x00\x00\x00\x00\x00\x00\x00\x00\x00\x00\xf0?\x00\x00\x00\x00\x00\x00\x00\x00\x00\x00\x00\x00\x00\x00\x00\x00\x00\x00\x00\x00\x00\x00\x00\x00\x00\x00\x00\x00\x00\x00\xf0?'
p633
tp634
bsg51
g7
sg52
(dp635
I139695165209232
g598
ssbsg52
(dp636
I139695165208336
g595
ssg51
g7
sbsg248
I2
sg249
g187
sg52
(dp637
I139695165208208
g0
(g122
g2
Ntp638
Rp639
(dp640
g49
I2
sg126
g0
(g127
g2
Ntp641
Rp642
(dp643
g49
I1
sg131
g132
(g133
(I0
tp644
g135
tp645
Rp646
(I1
(I2
tp647
g59
I00
S'\x00\x00\x00\x00\x00\x00\xf0\x7f\x00\x00\x00\x00\x00\x00\xf0\x7f'
p648
tp649
bsg52
(dp650
I139695165208208
g639
ssg142
g132
(g133
(I0
tp651
g135
tp652
Rp653
(I1
(I2
I2
tp654
g59
I00
S'\x00\x00\x00\x00\x00\x00\x00\x00\x00\x00\x00\x00\x00\x00\x00\x00\x00\x00\x00\x00\x00\x00\xf0?\x00\x00\x00\x00\x00\x00\xf0?'
p655
tp656
bsg149
g132
(g133
(I0
tp657
g135
tp658
Rp659
(I1
(I2
I2
tp660
g59
I00
S'\x00\x00\x00\x00\x00\x00\x00\x00\x00\x00\x00\x00\x00\x00\x00\x00\x00\x00\x00\x00\x00\x00\xf0?\x00\x00\x00\x00\x00\x00\xf0?'
p661
tp662
bsg156
I01
sg51
g7
sbsg115
g595
sg149
Nsg52
(dp663
sg51
g7
sbssg51
g7
sbsI139695166442192
g0
(g176
g2
Ntp664
Rp665
(dp666
g49
I2
sg180
I2
sg181
g0
(g176
g2
Ntp667
Rp668
(dp669
g49
I1
sg180
I2
sg181
g0
(g116
g2
Ntp670
Rp671
(dp672
g49
I1
sg120
Nsg50
Nsg121
g0
(g127
g2
Ntp673
Rp674
(dp675
g49
I1
sg131
g132
(g133
(I0
tp676
g135
tp677
Rp678
(I1
(I2
tp679
g59
I00
S'\x00\x00\x00\x00\x00\x00\xf0\x7f\x00\x00\x00\x00\x00\x00\xf0\x7f'
p680
tp681
bsg52
(dp682
I139695166441424
g671
ssg142
g132
(g133
(I0
tp683
g135
tp684
Rp685
(I1
(I2
I2
tp686
g59
I00
S'\x00\x00\x00\x00\x00\x00\x00\x00\x00\x00\x00\x00\x00\x00\x00\x00\x00\x00\x00\x00\x00\x00\xf0?\x00\x00\x00\x00\x00\x00\xf0?'
p687
tp688
bsg149
g132
(g133
(I0
tp689
g135
tp690
Rp691
(I1
(I2
I2
tp692
g59
I00
S'\x00\x00\x00\x00\x00\x00\x00\x00\x00\x00\x00\x00\x00\x00\x00\x00\x00\x00\x00\x00\x00\x00\xf0?\x00\x00\x00\x00\x00\x00\xf0?'
p693
tp694
bsg156
I01
sg51
g7
sbsg52
(dp695
I139695166442704
g668
ssg51
g7
sbsg248
I2
sg249
g0
(g157
g2
Ntp696
Rp697
(dp698
g49
I2
sg50
Nsg120
g132
(g133
(I0
tp699
g135
tp700
Rp701
(I1
(I3
I3
tp702
g59
I00
S'\x00\x00\x00\x00\x00\x00\xf0?\x00\x00\x00\x00\x00\x00\x00\x00\x00\x00\x00\x00\x00\x00\x00\x00\x00\x00\x00\x00\x00\x00\x00\x00\x00\x00\x00\x00\x00\x00\xf0?\x00\x00\x00\x00\x00\x00\x00\x00\x00\x00\x00\x00\x00\x00\x00\x00\x00\x00\x00\x00\x00\x00\x00\x00\x00\x00\x00\x00\x00\x00\xf0?'
p703
tp704
bsg51
g7
sg52
(dp705
I139695166442704
g668
ssbsg52
(dp706
I139695166442192
g665
ssg51
g7
sbsg248
I2
sg249
g187
sg52
(dp707
I139695166441808
g0
(g122
g2
Ntp708
Rp709
(dp710
g49
I2
sg126
g0
(g127
g2
Ntp711
Rp712
(dp713
g49
I1
sg131
g132
(g133
(I0
tp714
g135
tp715
Rp716
(I1
(I2
tp717
g59
I00
S'\x00\x00\x00\x00\x00\x00\xf0\x7f\x00\x00\x00\x00\x00\x00\xf0\x7f'
p718
tp719
bsg52
(dp720
I139695166441808
g709
ssg142
g132
(g133
(I0
tp721
g135
tp722
Rp723
(I1
(I2
I2
tp724
g59
I00
S'\x00\x00\x00\x00\x00\x00\x00\x00\x00\x00\x00\x00\x00\x00\x00\x00\x00\x00\x00\x00\x00\x00\xf0?\x00\x00\x00\x00\x00\x00\xf0?'
p725
tp726
bsg149
g132
(g133
(I0
tp727
g135
tp728
Rp729
(I1
(I2
I2
tp730
g59
I00
S'\x00\x00\x00\x00\x00\x00\x00\x00\x00\x00\x00\x00\x00\x00\x00\x00\x00\x00\x00\x00\x00\x00\xf0?\x00\x00\x00\x00\x00\x00\xf0?'
p731
tp732
bsg156
I01
sg51
g7
sbsg115
g665
sg149
Nsg52
(dp733
sg51
g7
sbssg51
g7
sbsI139695011514448
g0
(g176
g2
Ntp734
Rp735
(dp736
g49
I2
sg180
I2
sg181
g0
(g176
g2
Ntp737
Rp738
(dp739
g49
I1
sg180
I2
sg181
g0
(g116
g2
Ntp740
Rp741
(dp742
g49
I1
sg120
Nsg50
Nsg121
g0
(g127
g2
Ntp743
Rp744
(dp745
g49
I1
sg131
g132
(g133
(I0
tp746
g135
tp747
Rp748
(I1
(I2
tp749
g59
I00
S'\x00\x00\x00\x00\x00\x00\xf0\x7f\x00\x00\x00\x00\x00\x00\xf0\x7f'
p750
tp751
bsg52
(dp752
I139695011513104
g741
ssg142
g132
(g133
(I0
tp753
g135
tp754
Rp755
(I1
(I2
I2
tp756
g59
I00
S'\x00\x00\x00\x00\x00\x00\x00\x00\x00\x00\x00\x00\x00\x00\x00\x00\x00\x00\x00\x00\x00\x00\xf0?\x00\x00\x00\x00\x00\x00\xf0?'
p757
tp758
bsg149
g132
(g133
(I0
tp759
g135
tp760
Rp761
(I1
(I2
I2
tp762
g59
I00
S'\x00\x00\x00\x00\x00\x00\x00\x00\x00\x00\x00\x00\x00\x00\x00\x00\x00\x00\x00\x00\x00\x00\xf0?\x00\x00\x00\x00\x00\x00\xf0?'
p763
tp764
bsg156
I01
sg51
g7
sbsg52
(dp765
I139695011512400
g738
ssg51
g7
sbsg248
I2
sg249
g0
(g157
g2
Ntp766
Rp767
(dp768
g49
I2
sg50
Nsg120
g132
(g133
(I0
tp769
g135
tp770
Rp771
(I1
(I3
I3
tp772
g59
I00
S'\x00\x00\x00\x00\x00\x00\xf0?\x00\x00\x00\x00\x00\x00\x00\x00\x00\x00\x00\x00\x00\x00\x00\x00\x00\x00\x00\x00\x00\x00\x00\x00\x00\x00\x00\x00\x00\x00\xf0?\x00\x00\x00\x00\x00\x00\x00\x00\x00\x00\x00\x00\x00\x00\x00\x00\x00\x00\x00\x00\x00\x00\x00\x00\x00\x00\x00\x00\x00\x00\xf0?'
p773
tp774
bsg51
g7
sg52
(dp775
I139695011512400
g738
ssbsg52
(dp776
I139695011514448
g735
ssg51
g7
sbsg248
I2
sg249
g187
sg52
(dp777
I139695011513808
g0
(g122
g2
Ntp778
Rp779
(dp780
g49
I2
sg126
g0
(g127
g2
Ntp781
Rp782
(dp783
g49
I1
sg131
g132
(g133
(I0
tp784
g135
tp785
Rp786
(I1
(I2
tp787
g59
I00
S'\x00\x00\x00\x00\x00\x00\xf0\x7f\x00\x00\x00\x00\x00\x00\xf0\x7f'
p788
tp789
bsg52
(dp790
I139695011513808
g779
ssg142
g132
(g133
(I0
tp791
g135
tp792
Rp793
(I1
(I2
I2
tp794
g59
I00
S'\x00\x00\x00\x00\x00\x00\x00\x00\x00\x00\x00\x00\x00\x00\x00\x00\x00\x00\x00\x00\x00\x00\xf0?\x00\x00\x00\x00\x00\x00\xf0?'
p795
tp796
bsg149
g132
(g133
(I0
tp797
g135
tp798
Rp799
(I1
(I2
I2
tp800
g59
I00
S'\x00\x00\x00\x00\x00\x00\x00\x00\x00\x00\x00\x00\x00\x00\x00\x00\x00\x00\x00\x00\x00\x00\xf0?\x00\x00\x00\x00\x00\x00\xf0?'
p801
tp802
bsg156
I01
sg51
g7
sbsg115
g735
sg149
Nsg52
(dp803
sg51
g7
sbssg51
g7
sbsI139695120565520
g184
sI139695117728336
g0
(g585
g2
Ntp804
Rp805
(dp806
g49
I2
sg120
Nsg75
g0
(g45
g2
Ntp807
Rp808
(dp809
g49
I1
sg50
Nsg51
g7
sg52
(dp810
I139695117728336
g805
ssbsg76
g187
sg50
Nsg51
g7
sg52
(dp811
sbsI139695011514960
g0
(g176
g2
Ntp812
Rp813
(dp814
g49
I2
sg180
I2
sg181
g0
(g176
g2
Ntp815
Rp816
(dp817
g49
I1
sg180
I2
sg181
g0
(g116
g2
Ntp818
Rp819
(dp820
g49
I1
sg120
Nsg50
Nsg121
g0
(g127
g2
Ntp821
Rp822
(dp823
g49
I1
sg131
g132
(g133
(I0
tp824
g135
tp825
Rp826
(I1
(I2
tp827
g59
I00
S'\x00\x00\x00\x00\x00\x00\xf0\x7f\x00\x00\x00\x00\x00\x00\xf0\x7f'
p828
tp829
bsg52
(dp830
I139695011514896
g819
ssg142
g132
(g133
(I0
tp831
g135
tp832
Rp833
(I1
(I2
I2
tp834
g59
I00
S'\x00\x00\x00\x00\x00\x00\x00\x00\x00\x00\x00\x00\x00\x00\x00\x00\x00\x00\x00\x00\x00\x00\xf0?\x00\x00\x00\x00\x00\x00\xf0?'
p835
tp836
bsg149
g132
(g133
(I0
tp837
g135
tp838
Rp839
(I1
(I2
I2
tp840
g59
I00
S'\x00\x00\x00\x00\x00\x00\x00\x00\x00\x00\x00\x00\x00\x00\x00\x00\x00\x00\x00\x00\x00\x00\xf0?\x00\x00\x00\x00\x00\x00\xf0?'
p841
tp842
bsg156
I01
sg51
g7
sbsg52
(dp843
I139695014246544
g816
ssg51
g7
sbsg248
I2
sg249
g0
(g157
g2
Ntp844
Rp845
(dp846
g49
I2
sg50
Nsg120
g132
(g133
(I0
tp847
g135
tp848
Rp849
(I1
(I3
I3
tp850
g59
I00
S'\x00\x00\x00\x00\x00\x00\xf0?\x00\x00\x00\x00\x00\x00\x00\x00\x00\x00\x00\x00\x00\x00\x00\x00\x00\x00\x00\x00\x00\x00\x00\x00\x00\x00\x00\x00\x00\x00\xf0?\x00\x00\x00\x00\x00\x00\x00\x00\x00\x00\x00\x00\x00\x00\x00\x00\x00\x00\x00\x00\x00\x00\x00\x00\x00\x00\x00\x00\x00\x00\xf0?'
p851
tp852
bsg51
g7
sg52
(dp853
I139695014246544
g816
ssbsg52
(dp854
I139695011514960
g813
ssg51
g7
sbsg248
I2
sg249
g187
sg52
(dp855
I139695011513616
g0
(g122
g2
Ntp856
Rp857
(dp858
g49
I2
sg126
g0
(g127
g2
Ntp859
Rp860
(dp861
g49
I1
sg131
g132
(g133
(I0
tp862
g135
tp863
Rp864
(I1
(I2
tp865
g59
I00
S'\x00\x00\x00\x00\x00\x00\xf0\x7f\x00\x00\x00\x00\x00\x00\xf0\x7f'
p866
tp867
bsg52
(dp868
I139695011513616
g857
ssg142
g132
(g133
(I0
tp869
g135
tp870
Rp871
(I1
(I2
I2
tp872
g59
I00
S'\x00\x00\x00\x00\x00\x00\x00\x00\x00\x00\x00\x00\x00\x00\x00\x00\x00\x00\x00\x00\x00\x00\xf0?\x00\x00\x00\x00\x00\x00\xf0?'
p873
tp874
bsg149
g132
(g133
(I0
tp875
g135
tp876
Rp877
(I1
(I2
I2
tp878
g59
I00
S'\x00\x00\x00\x00\x00\x00\x00\x00\x00\x00\x00\x00\x00\x00\x00\x00\x00\x00\x00\x00\x00\x00\xf0?\x00\x00\x00\x00\x00\x00\xf0?'
p879
tp880
bsg156
I01
sg51
g7
sbsg115
g813
sg149
Nsg52
(dp881
sg51
g7
sbssg51
g7
sbsI139695166441552
g0
(g176
g2
Ntp882
Rp883
(dp884
g49
I2
sg180
I2
sg181
g0
(g176
g2
Ntp885
Rp886
(dp887
g49
I1
sg180
I2
sg181
g0
(g116
g2
Ntp888
Rp889
(dp890
g49
I1
sg120
Nsg50
Nsg121
g0
(g127
g2
Ntp891
Rp892
(dp893
g49
I1
sg131
g132
(g133
(I0
tp894
g135
tp895
Rp896
(I1
(I2
tp897
g59
I00
S'\x00\x00\x00\x00\x00\x00\xf0\x7f\x00\x00\x00\x00\x00\x00\xf0\x7f'
p898
tp899
bsg52
(dp900
I139695166441872
g889
ssg142
g132
(g133
(I0
tp901
g135
tp902
Rp903
(I1
(I2
I2
tp904
g59
I00
S'\x00\x00\x00\x00\x00\x00\x00\x00\x00\x00\x00\x00\x00\x00\x00\x00\x00\x00\x00\x00\x00\x00\xf0?\x00\x00\x00\x00\x00\x00\xf0?'
p905
tp906
bsg149
g132
(g133
(I0
tp907
g135
tp908
Rp909
(I1
(I2
I2
tp910
g59
I00
S'\x00\x00\x00\x00\x00\x00\x00\x00\x00\x00\x00\x00\x00\x00\x00\x00\x00\x00\x00\x00\x00\x00\xf0?\x00\x00\x00\x00\x00\x00\xf0?'
p911
tp912
bsg156
I01
sg51
g7
sbsg52
(dp913
I139695166442576
g886
ssg51
g7
sbsg248
I2
sg249
g0
(g157
g2
Ntp914
Rp915
(dp916
g49
I2
sg50
Nsg120
g132
(g133
(I0
tp917
g135
tp918
Rp919
(I1
(I3
I3
tp920
g59
I00
S'\x00\x00\x00\x00\x00\x00\xf0?\x00\x00\x00\x00\x00\x00\x00\x00\x00\x00\x00\x00\x00\x00\x00\x00\x00\x00\x00\x00\x00\x00\x00\x00\x00\x00\x00\x00\x00\x00\xf0?\x00\x00\x00\x00\x00\x00\x00\x00\x00\x00\x00\x00\x00\x00\x00\x00\x00\x00\x00\x00\x00\x00\x00\x00\x00\x00\x00\x00\x00\x00\xf0?'
p921
tp922
bsg51
g7
sg52
(dp923
I139695166442576
g886
ssbsg52
(dp924
I139695166441552
g883
ssg51
g7
sbsg248
I2
sg249
g187
sg52
(dp925
I139695166440592
g0
(g122
g2
Ntp926
Rp927
(dp928
g49
I2
sg126
g0
(g127
g2
Ntp929
Rp930
(dp931
g49
I1
sg131
g132
(g133
(I0
tp932
g135
tp933
Rp934
(I1
(I2
tp935
g59
I00
S'\x00\x00\x00\x00\x00\x00\xf0\x7f\x00\x00\x00\x00\x00\x00\xf0\x7f'
p936
tp937
bsg52
(dp938
I139695166440592
g927
ssg142
g132
(g133
(I0
tp939
g135
tp940
Rp941
(I1
(I2
I2
tp942
g59
I00
S'\x00\x00\x00\x00\x00\x00\x00\x00\x00\x00\x00\x00\x00\x00\x00\x00\x00\x00\x00\x00\x00\x00\xf0?\x00\x00\x00\x00\x00\x00\xf0?'
p943
tp944
bsg149
g132
(g133
(I0
tp945
g135
tp946
Rp947
(I1
(I2
I2
tp948
g59
I00
S'\x00\x00\x00\x00\x00\x00\x00\x00\x00\x00\x00\x00\x00\x00\x00\x00\x00\x00\x00\x00\x00\x00\xf0?\x00\x00\x00\x00\x00\x00\xf0?'
p949
tp950
bsg156
I01
sg51
g7
sbsg115
g883
sg149
Nsg52
(dp951
sg51
g7
sbssg51
g7
sbsI139695014394576
g0
(g176
g2
Ntp952
Rp953
(dp954
g49
I2
sg180
I2
sg181
g0
(g176
g2
Ntp955
Rp956
(dp957
g49
I1
sg180
I2
sg181
g0
(g116
g2
Ntp958
Rp959
(dp960
g49
I1
sg120
Nsg50
Nsg121
g0
(g127
g2
Ntp961
Rp962
(dp963
g49
I1
sg131
g132
(g133
(I0
tp964
g135
tp965
Rp966
(I1
(I2
tp967
g59
I00
S'\x00\x00\x00\x00\x00\x00\xf0\x7f\x00\x00\x00\x00\x00\x00\xf0\x7f'
p968
tp969
bsg52
(dp970
I139695014394704
g959
ssg142
g132
(g133
(I0
tp971
g135
tp972
Rp973
(I1
(I2
I2
tp974
g59
I00
S'\x00\x00\x00\x00\x00\x00\x00\x00\x00\x00\x00\x00\x00\x00\x00\x00\x00\x00\x00\x00\x00\x00\xf0?\x00\x00\x00\x00\x00\x00\xf0?'
p975
tp976
bsg149
g132
(g133
(I0
tp977
g135
tp978
Rp979
(I1
(I2
I2
tp980
g59
I00
S'\x00\x00\x00\x00\x00\x00\x00\x00\x00\x00\x00\x00\x00\x00\x00\x00\x00\x00\x00\x00\x00\x00\xf0?\x00\x00\x00\x00\x00\x00\xf0?'
p981
tp982
bsg156
I01
sg51
g7
sbsg52
(dp983
I139695014394640
g956
ssg51
g7
sbsg248
I2
sg249
g0
(g157
g2
Ntp984
Rp985
(dp986
g49
I2
sg50
Nsg120
g132
(g133
(I0
tp987
g135
tp988
Rp989
(I1
(I3
I3
tp990
g59
I00
S'\x00\x00\x00\x00\x00\x00\xf0?\x00\x00\x00\x00\x00\x00\x00\x00\x00\x00\x00\x00\x00\x00\x00\x00\x00\x00\x00\x00\x00\x00\x00\x00\x00\x00\x00\x00\x00\x00\xf0?\x00\x00\x00\x00\x00\x00\x00\x00\x00\x00\x00\x00\x00\x00\x00\x00\x00\x00\x00\x00\x00\x00\x00\x00\x00\x00\x00\x00\x00\x00\xf0?'
p991
tp992
bsg51
g7
sg52
(dp993
I139695014394640
g956
ssbsg52
(dp994
I139695014394576
g953
ssg51
g7
sbsg248
I2
sg249
g187
sg52
(dp995
I139695014394512
g0
(g122
g2
Ntp996
Rp997
(dp998
g49
I2
sg126
g0
(g127
g2
Ntp999
Rp1000
(dp1001
g49
I1
sg131
g132
(g133
(I0
tp1002
g135
tp1003
Rp1004
(I1
(I2
tp1005
g59
I00
S'\x00\x00\x00\x00\x00\x00\xf0\x7f\x00\x00\x00\x00\x00\x00\xf0\x7f'
p1006
tp1007
bsg52
(dp1008
I139695014394512
g997
ssg142
g132
(g133
(I0
tp1009
g135
tp1010
Rp1011
(I1
(I2
I2
tp1012
g59
I00
S'\x00\x00\x00\x00\x00\x00\x00\x00\x00\x00\x00\x00\x00\x00\x00\x00\x00\x00\x00\x00\x00\x00\xf0?\x00\x00\x00\x00\x00\x00\xf0?'
p1013
tp1014
bsg149
g132
(g133
(I0
tp1015
g135
tp1016
Rp1017
(I1
(I2
I2
tp1018
g59
I00
S'\x00\x00\x00\x00\x00\x00\x00\x00\x00\x00\x00\x00\x00\x00\x00\x00\x00\x00\x00\x00\x00\x00\xf0?\x00\x00\x00\x00\x00\x00\xf0?'
p1019
tp1020
bsg156
I01
sg51
g7
sbsg115
g953
sg149
Nsg52
(dp1021
sg51
g7
sbssg51
g7
sbsI139695160597072
g0
(g585
g2
Ntp1022
Rp1023
(dp1024
g49
I2
sg120
Nsg75
g0
(g45
g2
Ntp1025
Rp1026
(dp1027
g49
I1
sg50
Nsg51
g7
sg52
(dp1028
I139695160597072
g1023
ssbsg76
g187
sg50
Nsg51
g7
sg52
(dp1029
sbsI139695166442448
g0
(g176
g2
Ntp1030
Rp1031
(dp1032
g49
I2
sg180
I2
sg181
g0
(g176
g2
Ntp1033
Rp1034
(dp1035
g49
I1
sg180
I2
sg181
g0
(g116
g2
Ntp1036
Rp1037
(dp1038
g49
I1
sg120
Nsg50
Nsg121
g0
(g127
g2
Ntp1039
Rp1040
(dp1041
g49
I1
sg131
g132
(g133
(I0
tp1042
g135
tp1043
Rp1044
(I1
(I2
tp1045
g59
I00
S'\x00\x00\x00\x00\x00\x00\xf0\x7f\x00\x00\x00\x00\x00\x00\xf0\x7f'
p1046
tp1047
bsg52
(dp1048
I139695166440272
g1037
ssg142
g132
(g133
(I0
tp1049
g135
tp1050
Rp1051
(I1
(I2
I2
tp1052
g59
I00
S'\x00\x00\x00\x00\x00\x00\x00\x00\x00\x00\x00\x00\x00\x00\x00\x00\x00\x00\x00\x00\x00\x00\xf0?\x00\x00\x00\x00\x00\x00\xf0?'
p1053
tp1054
bsg149
g132
(g133
(I0
tp1055
g135
tp1056
Rp1057
(I1
(I2
I2
tp1058
g59
I00
S'\x00\x00\x00\x00\x00\x00\x00\x00\x00\x00\x00\x00\x00\x00\x00\x00\x00\x00\x00\x00\x00\x00\xf0?\x00\x00\x00\x00\x00\x00\xf0?'
p1059
tp1060
bsg156
I01
sg51
g7
sbsg52
(dp1061
I139695166440464
g1034
ssg51
g7
sbsg248
I2
sg249
g0
(g157
g2
Ntp1062
Rp1063
(dp1064
g49
I2
sg50
Nsg120
g132
(g133
(I0
tp1065
g135
tp1066
Rp1067
(I1
(I3
I3
tp1068
g59
I00
S'\x00\x00\x00\x00\x00\x00\xf0?\x00\x00\x00\x00\x00\x00\x00\x00\x00\x00\x00\x00\x00\x00\x00\x00\x00\x00\x00\x00\x00\x00\x00\x00\x00\x00\x00\x00\x00\x00\xf0?\x00\x00\x00\x00\x00\x00\x00\x00\x00\x00\x00\x00\x00\x00\x00\x00\x00\x00\x00\x00\x00\x00\x00\x00\x00\x00\x00\x00\x00\x00\xf0?'
p1069
tp1070
bsg51
g7
sg52
(dp1071
I139695166440464
g1034
ssbsg52
(dp1072
I139695166442448
g1031
ssg51
g7
sbsg248
I2
sg249
g187
sg52
(dp1073
I139695166441936
g0
(g122
g2
Ntp1074
Rp1075
(dp1076
g49
I2
sg126
g0
(g127
g2
Ntp1077
Rp1078
(dp1079
g49
I1
sg131
g132
(g133
(I0
tp1080
g135
tp1081
Rp1082
(I1
(I2
tp1083
g59
I00
S'\x00\x00\x00\x00\x00\x00\xf0\x7f\x00\x00\x00\x00\x00\x00\xf0\x7f'
p1084
tp1085
bsg52
(dp1086
I139695166441936
g1075
ssg142
g132
(g133
(I0
tp1087
g135
tp1088
Rp1089
(I1
(I2
I2
tp1090
g59
I00
S'\x00\x00\x00\x00\x00\x00\x00\x00\x00\x00\x00\x00\x00\x00\x00\x00\x00\x00\x00\x00\x00\x00\xf0?\x00\x00\x00\x00\x00\x00\xf0?'
p1091
tp1092
bsg149
g132
(g133
(I0
tp1093
g135
tp1094
Rp1095
(I1
(I2
I2
tp1096
g59
I00
S'\x00\x00\x00\x00\x00\x00\x00\x00\x00\x00\x00\x00\x00\x00\x00\x00\x00\x00\x00\x00\x00\x00\xf0?\x00\x00\x00\x00\x00\x00\xf0?'
p1097
tp1098
bsg156
I01
sg51
g7
sbsg115
g1031
sg149
Nsg52
(dp1099
sg51
g7
sbssg51
g7
sbsI139695014247504
g437
sI139695013956880
g0
(g176
g2
Ntp1100
Rp1101
(dp1102
g49
I2
sg180
I2
sg181
g0
(g176
g2
Ntp1103
Rp1104
(dp1105
g49
I1
sg180
I2
sg181
g0
(g116
g2
Ntp1106
Rp1107
(dp1108
g49
I1
sg120
Nsg50
Nsg121
g0
(g127
g2
Ntp1109
Rp1110
(dp1111
g49
I1
sg131
g132
(g133
(I0
tp1112
g135
tp1113
Rp1114
(I1
(I2
tp1115
g59
I00
S'\x00\x00\x00\x00\x00\x00\xf0\x7f\x00\x00\x00\x00\x00\x00\xf0\x7f'
p1116
tp1117
bsg52
(dp1118
I139695013955728
g1107
ssg142
g132
(g133
(I0
tp1119
g135
tp1120
Rp1121
(I1
(I2
I2
tp1122
g59
I00
S'\x00\x00\x00\x00\x00\x00\x00\x00\x00\x00\x00\x00\x00\x00\x00\x00\x00\x00\x00\x00\x00\x00\xf0?\x00\x00\x00\x00\x00\x00\xf0?'
p1123
tp1124
bsg149
g132
(g133
(I0
tp1125
g135
tp1126
Rp1127
(I1
(I2
I2
tp1128
g59
I00
S'\x00\x00\x00\x00\x00\x00\x00\x00\x00\x00\x00\x00\x00\x00\x00\x00\x00\x00\x00\x00\x00\x00\xf0?\x00\x00\x00\x00\x00\x00\xf0?'
p1129
tp1130
bsg156
I01
sg51
g7
sbsg52
(dp1131
I139695013957008
g1104
ssg51
g7
sbsg248
I2
sg249
g0
(g157
g2
Ntp1132
Rp1133
(dp1134
g49
I2
sg50
Nsg120
g132
(g133
(I0
tp1135
g135
tp1136
Rp1137
(I1
(I3
I3
tp1138
g59
I00
S'\x00\x00\x00\x00\x00\x00\xf0?\x00\x00\x00\x00\x00\x00\x00\x00\x00\x00\x00\x00\x00\x00\x00\x00\x00\x00\x00\x00\x00\x00\x00\x00\x00\x00\x00\x00\x00\x00\xf0?\x00\x00\x00\x00\x00\x00\x00\x00\x00\x00\x00\x00\x00\x00\x00\x00\x00\x00\x00\x00\x00\x00\x00\x00\x00\x00\x00\x00\x00\x00\xf0?'
p1139
tp1140
bsg51
g7
sg52
(dp1141
I139695013957008
g1104
ssbsg52
(dp1142
I139695013956880
g1101
ssg51
g7
sbsg248
I2
sg249
g187
sg52
(dp1143
I139695013954576
g0
(g122
g2
Ntp1144
Rp1145
(dp1146
g49
I2
sg126
g0
(g127
g2
Ntp1147
Rp1148
(dp1149
g49
I1
sg131
g132
(g133
(I0
tp1150
g135
tp1151
Rp1152
(I1
(I2
tp1153
g59
I00
S'\x00\x00\x00\x00\x00\x00\xf0\x7f\x00\x00\x00\x00\x00\x00\xf0\x7f'
p1154
tp1155
bsg52
(dp1156
I139695013954576
g1145
ssg142
g132
(g133
(I0
tp1157
g135
tp1158
Rp1159
(I1
(I2
I2
tp1160
g59
I00
S'\x00\x00\x00\x00\x00\x00\x00\x00\x00\x00\x00\x00\x00\x00\x00\x00\x00\x00\x00\x00\x00\x00\xf0?\x00\x00\x00\x00\x00\x00\xf0?'
p1161
tp1162
bsg149
g132
(g133
(I0
tp1163
g135
tp1164
Rp1165
(I1
(I2
I2
tp1166
g59
I00
S'\x00\x00\x00\x00\x00\x00\x00\x00\x00\x00\x00\x00\x00\x00\x00\x00\x00\x00\x00\x00\x00\x00\xf0?\x00\x00\x00\x00\x00\x00\xf0?'
p1167
tp1168
bsg156
I01
sg51
g7
sbsg115
g1101
sg149
Nsg52
(dp1169
sg51
g7
sbssg51
g7
sbsI139695014393680
g0
(g176
g2
Ntp1170
Rp1171
(dp1172
g49
I2
sg180
I2
sg181
g0
(g176
g2
Ntp1173
Rp1174
(dp1175
g49
I1
sg180
I2
sg181
g0
(g116
g2
Ntp1176
Rp1177
(dp1178
g49
I1
sg120
Nsg50
Nsg121
g0
(g127
g2
Ntp1179
Rp1180
(dp1181
g49
I1
sg131
g132
(g133
(I0
tp1182
g135
tp1183
Rp1184
(I1
(I2
tp1185
g59
I00
S'\x00\x00\x00\x00\x00\x00\xf0\x7f\x00\x00\x00\x00\x00\x00\xf0\x7f'
p1186
tp1187
bsg52
(dp1188
I139695014393808
g1177
ssg142
g132
(g133
(I0
tp1189
g135
tp1190
Rp1191
(I1
(I2
I2
tp1192
g59
I00
S'\x00\x00\x00\x00\x00\x00\x00\x00\x00\x00\x00\x00\x00\x00\x00\x00\x00\x00\x00\x00\x00\x00\xf0?\x00\x00\x00\x00\x00\x00\xf0?'
p1193
tp1194
bsg149
g132
(g133
(I0
tp1195
g135
tp1196
Rp1197
(I1
(I2
I2
tp1198
g59
I00
S'\x00\x00\x00\x00\x00\x00\x00\x00\x00\x00\x00\x00\x00\x00\x00\x00\x00\x00\x00\x00\x00\x00\xf0?\x00\x00\x00\x00\x00\x00\xf0?'
p1199
tp1200
bsg156
I01
sg51
g7
sbsg52
(dp1201
I139695014393744
g1174
ssg51
g7
sbsg248
I2
sg249
g0
(g157
g2
Ntp1202
Rp1203
(dp1204
g49
I2
sg50
Nsg120
g132
(g133
(I0
tp1205
g135
tp1206
Rp1207
(I1
(I3
I3
tp1208
g59
I00
S'\x00\x00\x00\x00\x00\x00\xf0?\x00\x00\x00\x00\x00\x00\x00\x00\x00\x00\x00\x00\x00\x00\x00\x00\x00\x00\x00\x00\x00\x00\x00\x00\x00\x00\x00\x00\x00\x00\xf0?\x00\x00\x00\x00\x00\x00\x00\x00\x00\x00\x00\x00\x00\x00\x00\x00\x00\x00\x00\x00\x00\x00\x00\x00\x00\x00\x00\x00\x00\x00\xf0?'
p1209
tp1210
bsg51
g7
sg52
(dp1211
I139695014393744
g1174
ssbsg52
(dp1212
I139695014393680
g1171
ssg51
g7
sbsg248
I2
sg249
g187
sg52
(dp1213
I139695014393552
g0
(g122
g2
Ntp1214
Rp1215
(dp1216
g49
I2
sg126
g0
(g127
g2
Ntp1217
Rp1218
(dp1219
g49
I1
sg131
g132
(g133
(I0
tp1220
g135
tp1221
Rp1222
(I1
(I2
tp1223
g59
I00
S'\x00\x00\x00\x00\x00\x00\xf0\x7f\x00\x00\x00\x00\x00\x00\xf0\x7f'
p1224
tp1225
bsg52
(dp1226
I139695014393552
g1215
ssg142
g132
(g133
(I0
tp1227
g135
tp1228
Rp1229
(I1
(I2
I2
tp1230
g59
I00
S'\x00\x00\x00\x00\x00\x00\x00\x00\x00\x00\x00\x00\x00\x00\x00\x00\x00\x00\x00\x00\x00\x00\xf0?\x00\x00\x00\x00\x00\x00\xf0?'
p1231
tp1232
bsg149
g132
(g133
(I0
tp1233
g135
tp1234
Rp1235
(I1
(I2
I2
tp1236
g59
I00
S'\x00\x00\x00\x00\x00\x00\x00\x00\x00\x00\x00\x00\x00\x00\x00\x00\x00\x00\x00\x00\x00\x00\xf0?\x00\x00\x00\x00\x00\x00\xf0?'
p1237
tp1238
bsg156
I01
sg51
g7
sbsg115
g1171
sg149
Nsg52
(dp1239
sg51
g7
sbssg51
g7
sbsI139695014395536
g0
(g176
g2
Ntp1240
Rp1241
(dp1242
g49
I2
sg180
I2
sg181
g0
(g176
g2
Ntp1243
Rp1244
(dp1245
g49
I1
sg180
I2
sg181
g0
(g116
g2
Ntp1246
Rp1247
(dp1248
g49
I1
sg120
Nsg50
Nsg121
g0
(g127
g2
Ntp1249
Rp1250
(dp1251
g49
I1
sg131
g132
(g133
(I0
tp1252
g135
tp1253
Rp1254
(I1
(I2
tp1255
g59
I00
S'\x00\x00\x00\x00\x00\x00\xf0\x7f\x00\x00\x00\x00\x00\x00\xf0\x7f'
p1256
tp1257
bsg52
(dp1258
I139695014395664
g1247
ssg142
g132
(g133
(I0
tp1259
g135
tp1260
Rp1261
(I1
(I2
I2
tp1262
g59
I00
S'\x00\x00\x00\x00\x00\x00\x00\x00\x00\x00\x00\x00\x00\x00\x00\x00\x00\x00\x00\x00\x00\x00\xf0?\x00\x00\x00\x00\x00\x00\xf0?'
p1263
tp1264
bsg149
g132
(g133
(I0
tp1265
g135
tp1266
Rp1267
(I1
(I2
I2
tp1268
g59
I00
S'\x00\x00\x00\x00\x00\x00\x00\x00\x00\x00\x00\x00\x00\x00\x00\x00\x00\x00\x00\x00\x00\x00\xf0?\x00\x00\x00\x00\x00\x00\xf0?'
p1269
tp1270
bsg156
I01
sg51
g7
sbsg52
(dp1271
I139695014395600
g1244
ssg51
g7
sbsg248
I2
sg249
g0
(g157
g2
Ntp1272
Rp1273
(dp1274
g49
I2
sg50
Nsg120
g132
(g133
(I0
tp1275
g135
tp1276
Rp1277
(I1
(I3
I3
tp1278
g59
I00
S'\x00\x00\x00\x00\x00\x00\xf0?\x00\x00\x00\x00\x00\x00\x00\x00\x00\x00\x00\x00\x00\x00\x00\x00\x00\x00\x00\x00\x00\x00\x00\x00\x00\x00\x00\x00\x00\x00\xf0?\x00\x00\x00\x00\x00\x00\x00\x00\x00\x00\x00\x00\x00\x00\x00\x00\x00\x00\x00\x00\x00\x00\x00\x00\x00\x00\x00\x00\x00\x00\xf0?'
p1279
tp1280
bsg51
g7
sg52
(dp1281
I139695014395600
g1244
ssbsg52
(dp1282
I139695014395536
g1241
ssg51
g7
sbsg248
I2
sg249
g187
sg52
(dp1283
I139695014395152
g0
(g122
g2
Ntp1284
Rp1285
(dp1286
g49
I2
sg126
g0
(g127
g2
Ntp1287
Rp1288
(dp1289
g49
I1
sg131
g132
(g133
(I0
tp1290
g135
tp1291
Rp1292
(I1
(I2
tp1293
g59
I00
S'\x00\x00\x00\x00\x00\x00\xf0\x7f\x00\x00\x00\x00\x00\x00\xf0\x7f'
p1294
tp1295
bsg52
(dp1296
I139695014395152
g1285
ssg142
g132
(g133
(I0
tp1297
g135
tp1298
Rp1299
(I1
(I2
I2
tp1300
g59
I00
S'\x00\x00\x00\x00\x00\x00\x00\x00\x00\x00\x00\x00\x00\x00\x00\x00\x00\x00\x00\x00\x00\x00\xf0?\x00\x00\x00\x00\x00\x00\xf0?'
p1301
tp1302
bsg149
g132
(g133
(I0
tp1303
g135
tp1304
Rp1305
(I1
(I2
I2
tp1306
g59
I00
S'\x00\x00\x00\x00\x00\x00\x00\x00\x00\x00\x00\x00\x00\x00\x00\x00\x00\x00\x00\x00\x00\x00\xf0?\x00\x00\x00\x00\x00\x00\xf0?'
p1307
tp1308
bsg156
I01
sg51
g7
sbsg115
g1241
sg149
Nsg52
(dp1309
sg51
g7
sbssg51
g7
sbsI139695011516240
g0
(g176
g2
Ntp1310
Rp1311
(dp1312
g49
I2
sg180
I2
sg181
g0
(g176
g2
Ntp1313
Rp1314
(dp1315
g49
I1
sg180
I2
sg181
g0
(g116
g2
Ntp1316
Rp1317
(dp1318
g49
I1
sg120
Nsg50
Nsg121
g0
(g127
g2
Ntp1319
Rp1320
(dp1321
g49
I1
sg131
g132
(g133
(I0
tp1322
g135
tp1323
Rp1324
(I1
(I2
tp1325
g59
I00
S'\x00\x00\x00\x00\x00\x00\xf0\x7f\x00\x00\x00\x00\x00\x00\xf0\x7f'
p1326
tp1327
bsg52
(dp1328
I139695011515728
g1317
ssg142
g132
(g133
(I0
tp1329
g135
tp1330
Rp1331
(I1
(I2
I2
tp1332
g59
I00
S'\x00\x00\x00\x00\x00\x00\x00\x00\x00\x00\x00\x00\x00\x00\x00\x00\x00\x00\x00\x00\x00\x00\xf0?\x00\x00\x00\x00\x00\x00\xf0?'
p1333
tp1334
bsg149
g132
(g133
(I0
tp1335
g135
tp1336
Rp1337
(I1
(I2
I2
tp1338
g59
I00
S'\x00\x00\x00\x00\x00\x00\x00\x00\x00\x00\x00\x00\x00\x00\x00\x00\x00\x00\x00\x00\x00\x00\xf0?\x00\x00\x00\x00\x00\x00\xf0?'
p1339
tp1340
bsg156
I01
sg51
g7
sbsg52
(dp1341
I139695011514256
g1314
ssg51
g7
sbsg248
I2
sg249
g0
(g157
g2
Ntp1342
Rp1343
(dp1344
g49
I2
sg50
Nsg120
g132
(g133
(I0
tp1345
g135
tp1346
Rp1347
(I1
(I3
I3
tp1348
g59
I00
S'\x00\x00\x00\x00\x00\x00\xf0?\x00\x00\x00\x00\x00\x00\x00\x00\x00\x00\x00\x00\x00\x00\x00\x00\x00\x00\x00\x00\x00\x00\x00\x00\x00\x00\x00\x00\x00\x00\xf0?\x00\x00\x00\x00\x00\x00\x00\x00\x00\x00\x00\x00\x00\x00\x00\x00\x00\x00\x00\x00\x00\x00\x00\x00\x00\x00\x00\x00\x00\x00\xf0?'
p1349
tp1350
bsg51
g7
sg52
(dp1351
I139695011514256
g1314
ssbsg52
(dp1352
I139695011516240
g1311
ssg51
g7
sbsg248
I2
sg249
g187
sg52
(dp1353
I139695011515600
g0
(g122
g2
Ntp1354
Rp1355
(dp1356
g49
I2
sg126
g0
(g127
g2
Ntp1357
Rp1358
(dp1359
g49
I1
sg131
g132
(g133
(I0
tp1360
g135
tp1361
Rp1362
(I1
(I2
tp1363
g59
I00
S'\x00\x00\x00\x00\x00\x00\xf0\x7f\x00\x00\x00\x00\x00\x00\xf0\x7f'
p1364
tp1365
bsg52
(dp1366
I139695011515600
g1355
ssg142
g132
(g133
(I0
tp1367
g135
tp1368
Rp1369
(I1
(I2
I2
tp1370
g59
I00
S'\x00\x00\x00\x00\x00\x00\x00\x00\x00\x00\x00\x00\x00\x00\x00\x00\x00\x00\x00\x00\x00\x00\xf0?\x00\x00\x00\x00\x00\x00\xf0?'
p1371
tp1372
bsg149
g132
(g133
(I0
tp1373
g135
tp1374
Rp1375
(I1
(I2
I2
tp1376
g59
I00
S'\x00\x00\x00\x00\x00\x00\x00\x00\x00\x00\x00\x00\x00\x00\x00\x00\x00\x00\x00\x00\x00\x00\xf0?\x00\x00\x00\x00\x00\x00\xf0?'
p1377
tp1378
bsg156
I01
sg51
g7
sbsg115
g1311
sg149
Nsg52
(dp1379
sg51
g7
sbssg51
g7
sbsI139695120565200
g0
(g182
g2
Ntp1380
Rp1381
(dp1382
g49
I2
sg75
g0
(g176
g2
Ntp1383
Rp1384
(dp1385
g49
I2
sg180
I2
sg181
g0
(cmatplotlib.transforms
TransformWrapper
p1386
g2
Ntp1387
Rp1388
(dp1389
Voutput_dims
p1390
I2
sVparents
p1391
(dp1392
I139695080105936
g0
(g122
g2
Ntp1393
Rp1394
(dp1395
g49
I2
sg126
g0
(g127
g2
Ntp1396
Rp1397
(dp1398
g49
I2
sg131
g132
(g133
(I0
tp1399
g135
tp1400
Rp1401
(I1
(I2
tp1402
g59
I00
S'\x00\x00\x00\x00\x00\x00\xf0\x7f\x00\x00\x00\x00\x00\x00\xf0\x7f'
p1403
tp1404
bsg52
(dp1405
I139695080105936
g1394
ssg142
g132
(g133
(I0
tp1406
g135
tp1407
Rp1408
(I1
(I2
I2
tp1409
g59
I00
S'\x00\x00\x00\x00\x00\x00\x00\x00\x00\x00\x00\x00\x00\x00\x00\x00\x00\x00\x00\x00\x00\x00\xf0?\x00\x00\x00\x00\x00\x00\xf0?'
p1410
tp1411
bsg149
g132
(g133
(I0
tp1412
g135
tp1413
Rp1414
(I1
(I2
I2
tp1415
g59
I00
S'\xd7\xa3p=\n\xd7\xd9\xbf\x00\x00\x00\x00\x00\x00\x00\x00\xc3\xf5(\\\x8fB\xf5?\x00\x00\x00\x00\x00\xf9\xd5@'
p1416
tp1417
bsg156
I01
sg51
g7
sbsg115
g1388
sg149
g132
(g133
(I0
tp1418
g135
tp1419
Rp1420
(I1
(I2
I2
tp1421
g59
I00
S'\x00\x00\x00\x00\x00\x00\x00\x00\x00\x00\x00\x00\x00\x00\x00\x00\x00\x00\x00\x00\x00\x00\xf0?\x00\x00\x00\x00\x00\x00\xf0?'
p1422
tp1423
bsg52
(dp1424
I139695080105232
g0
(cmatplotlib.transforms
BboxTransformFrom
p1425
g2
Ntp1426
Rp1427
(dp1428
g49
I2
sS'_boxin'
p1429
g1394
sg120
g132
(g133
(I0
tp1430
g135
tp1431
Rp1432
(I1
(I3
I3
tp1433
g59
I00
S'\x00\x00\x00\x00\x00\x00\xf0?\x00\x00\x00\x00\x00\x00\x00\x00\x00\x00\x00\x00\x00\x00\x00\x80\x00\x00\x00\x00\x00\x00\x00\x00\x00\x00\x00\x00\x00\x00\xf0?\x00\x00\x00\x00\x00\x00\x00\x80\x00\x00\x00\x00\x00\x00\x00\x00\x00\x00\x00\x00\x00\x00\x00\x00\x00\x00\x00\x00\x00\x00\xf0?'
p1434
tp1435
bsg50
Nsg51
g7
sg52
(dp1436
I139695165264400
g0
(g176
g2
Ntp1437
Rp1438
(dp1439
g49
I2
sg180
I2
sg181
g1427
sg248
I2
sg249
g187
sg52
(dp1440
I139695120566416
g1384
ssg51
g7
sbssbssg51
g7
sbsI139695120566416
g1384
ssVinput_dims
p1441
I2
sVchild
p1442
g0
(g585
g2
Ntp1443
Rp1444
(dp1445
g49
I0
sg120
g132
(g133
(I0
tp1446
g135
tp1447
Rp1448
(I1
(I3
I3
tp1449
g59
I00
S'\x00\x00\x00\x00\x00\x00\xf0?\x00\x00\x00\x00\x00\x00\x00\x00\x00\x00\x00\x00\x00\x00\x00\x00\x00\x00\x00\x00\x00\x00\x00\x00\x00\x00\x00\x00\x00\x00\xf0?\x00\x00\x00\x00\x00\x00\x00\x00\x00\x00\x00\x00\x00\x00\x00\x00\x00\x00\x00\x00\x00\x00\x00\x00\x00\x00\x00\x00\x00\x00\xf0?'
p1450
tp1451
bsg75
g0
(g45
g2
Ntp1452
Rp1453
(dp1454
g49
I1
sg50
Nsg51
g7
sg52
(dp1455
I139695014245328
g1444
ssbsg76
g0
(g45
g2
Ntp1456
Rp1457
(dp1458
g49
I1
sg50
Nsg51
g7
sg52
(dp1459
I139695014245328
g1444
ssbsg50
Nsg51
g7
sg52
(dp1460
I139695165266384
g1388
ssbsbsg248
I2
sg249
g1438
sg52
(dp1461
I139695120565520
g184
sI139695120565200
g1381
ssg51
g7
sbsg76
g187
sS'_affine'
p1462
Nsg52
(dp1463
I139695163587536
g0
(g176
g2
Ntp1464
Rp1465
(dp1466
g49
I2
sg180
I2
sg181
g1381
sg248
I2
sg249
g0
(g168
g2
Ntp1467
Rp1468
(dp1469
g49
I1
sg120
Nsg172
g159
sg50
Nsg173
(F-0.04722222222222222
I0
tp1470
sg51
g7
sg52
(dp1471
I139695163587536
g1465
ssbsg52
(dp1472
sg51
g7
sbsI139695124948880
g0
(g176
g2
Ntp1473
Rp1474
(dp1475
g49
I2
sg180
I2
sg181
g1381
sg248
I2
sg249
g0
(g168
g2
Ntp1476
Rp1477
(dp1478
g49
I1
sg120
Nsg172
g159
sg50
Nsg173
(F0.04722222222222222
I0
tp1479
sg51
g7
sg52
(dp1480
I139695124948880
g1474
ssbsg52
(dp1481
sg51
g7
sbsI139695125023056
g0
(g176
g2
Ntp1482
Rp1483
(dp1484
g49
I2
sg180
I2
sg181
g1381
sg248
I2
sg249
g0
(g168
g2
Ntp1485
Rp1486
(dp1487
g49
I1
sg120
Nsg172
g159
sg50
Nsg173
(F-0.04861111111111111
I0
tp1488
sg51
g7
sg52
(dp1489
I139695125023056
g1483
ssbsg52
(dp1490
sg51
g7
sbsI139695160912912
g0
(g176
g2
Ntp1491
Rp1492
(dp1493
g49
I2
sg180
I2
sg181
g1381
sg248
I2
sg249
g0
(g168
g2
Ntp1494
Rp1495
(dp1496
g49
I1
sg120
Nsg172
g159
sg50
Nsg173
(F0.04861111111111111
I0
tp1497
sg51
g7
sg52
(dp1498
I139695160912912
g1492
ssbsg52
(dp1499
sg51
g7
sbsI139695011902736
g0
(g176
g2
Ntp1500
Rp1501
(dp1502
g49
I2
sg180
I2
sg181
g1381
sg248
I2
sg249
g0
(g168
g2
Ntp1503
Rp1504
(dp1505
g49
I1
sg120
Nsg172
g159
sg50
Nsg173
(F-0.04722222222222222
I0
tp1506
sg51
g7
sg52
(dp1507
I139695011902736
g1501
ssbsg52
(dp1508
sg51
g7
sbsI139695125021584
g0
(g176
g2
Ntp1509
Rp1510
(dp1511
g49
I2
sg180
I2
sg181
g1381
sg248
I2
sg249
g0
(g168
g2
Ntp1512
Rp1513
(dp1514
g49
I1
sg120
Nsg172
g159
sg50
Nsg173
(F0.04861111111111111
I0
tp1515
sg51
g7
sg52
(dp1516
I139695125021584
g1510
ssbsg52
(dp1517
sg51
g7
sbsI139695125023248
g0
(g176
g2
Ntp1518
Rp1519
(dp1520
g49
I2
sg180
I2
sg181
g1381
sg248
I2
sg249
g0
(g168
g2
Ntp1521
Rp1522
(dp1523
g49
I1
sg120
Nsg172
g159
sg50
Nsg173
(F0.04722222222222222
I0
tp1524
sg51
g7
sg52
(dp1525
I139695125023248
g1519
ssbsg52
(dp1526
sg51
g7
sbsI139695013143312
g0
(g176
g2
Ntp1527
Rp1528
(dp1529
g49
I2
sg180
I2
sg181
g1381
sg248
I2
sg249
g0
(g168
g2
Ntp1530
Rp1531
(dp1532
g49
I1
sg120
Nsg172
g159
sg50
Nsg173
(F-0.04861111111111111
I0
tp1533
sg51
g7
sg52
(dp1534
I139695013143312
g1528
ssbsg52
(dp1535
sg51
g7
sbssg51
g7
sbsI139695014248400
g441
sI139695160164752
g0
(g176
g2
Ntp1536
Rp1537
(dp1538
g49
I2
sg180
I2
sg181
g0
(g176
g2
Ntp1539
Rp1540
(dp1541
g49
I1
sg180
I2
sg181
g0
(g116
g2
Ntp1542
Rp1543
(dp1544
g49
I1
sg120
Nsg50
Nsg121
g0
(g127
g2
Ntp1545
Rp1546
(dp1547
g49
I1
sg131
g132
(g133
(I0
tp1548
g135
tp1549
Rp1550
(I1
(I2
tp1551
g59
I00
S'\x00\x00\x00\x00\x00\x00\xf0\x7f\x00\x00\x00\x00\x00\x00\xf0\x7f'
p1552
tp1553
bsg52
(dp1554
I139695160167312
g1543
ssg142
g132
(g133
(I0
tp1555
g135
tp1556
Rp1557
(I1
(I2
I2
tp1558
g59
I00
S'\x00\x00\x00\x00\x00\x00\x00\x00\x00\x00\x00\x00\x00\x00\x00\x00\x00\x00\x00\x00\x00\x00\xf0?\x00\x00\x00\x00\x00\x00\xf0?'
p1559
tp1560
bsg149
g132
(g133
(I0
tp1561
g135
tp1562
Rp1563
(I1
(I2
I2
tp1564
g59
I00
S'\x00\x00\x00\x00\x00\x00\x00\x00\x00\x00\x00\x00\x00\x00\x00\x00\x00\x00\x00\x00\x00\x00\xf0?\x00\x00\x00\x00\x00\x00\xf0?'
p1565
tp1566
bsg156
I01
sg51
g7
sbsg52
(dp1567
I139695160165456
g1540
ssg51
g7
sbsg248
I2
sg249
g0
(g157
g2
Ntp1568
Rp1569
(dp1570
g49
I2
sg50
Nsg120
g132
(g133
(I0
tp1571
g135
tp1572
Rp1573
(I1
(I3
I3
tp1574
g59
I00
S'\x00\x00\x00\x00\x00\x00\xf0?\x00\x00\x00\x00\x00\x00\x00\x00\x00\x00\x00\x00\x00\x00\x00\x00\x00\x00\x00\x00\x00\x00\x00\x00\x00\x00\x00\x00\x00\x00\xf0?\x00\x00\x00\x00\x00\x00\x00\x00\x00\x00\x00\x00\x00\x00\x00\x00\x00\x00\x00\x00\x00\x00\x00\x00\x00\x00\x00\x00\x00\x00\xf0?'
p1575
tp1576
bsg51
g7
sg52
(dp1577
I139695160165456
g1540
ssbsg52
(dp1578
I139695160164752
g1537
ssg51
g7
sbsg248
I2
sg249
g187
sg52
(dp1579
I139695014393168
g0
(g122
g2
Ntp1580
Rp1581
(dp1582
g49
I2
sg126
g0
(g127
g2
Ntp1583
Rp1584
(dp1585
g49
I1
sg131
g132
(g133
(I0
tp1586
g135
tp1587
Rp1588
(I1
(I2
tp1589
g59
I00
S'\x00\x00\x00\x00\x00\x00\xf0\x7f\x00\x00\x00\x00\x00\x00\xf0\x7f'
p1590
tp1591
bsg52
(dp1592
I139695014393168
g1581
ssg142
g132
(g133
(I0
tp1593
g135
tp1594
Rp1595
(I1
(I2
I2
tp1596
g59
I00
S'\x00\x00\x00\x00\x00\x00\x00\x00\x00\x00\x00\x00\x00\x00\x00\x00\x00\x00\x00\x00\x00\x00\xf0?\x00\x00\x00\x00\x00\x00\xf0?'
p1597
tp1598
bsg149
g132
(g133
(I0
tp1599
g135
tp1600
Rp1601
(I1
(I2
I2
tp1602
g59
I00
S'\x00\x00\x00\x00\x00\x00\x00\x00\x00\x00\x00\x00\x00\x00\x00\x00\x00\x00\x00\x00\x00\x00\xf0?\x00\x00\x00\x00\x00\x00\xf0?'
p1603
tp1604
bsg156
I01
sg51
g7
sbsg115
g1537
sg149
Nsg52
(dp1605
sg51
g7
sbssg51
g7
sbsI139695165206992
g0
(g176
g2
Ntp1606
Rp1607
(dp1608
g49
I2
sg180
I2
sg181
g0
(g176
g2
Ntp1609
Rp1610
(dp1611
g49
I1
sg180
I2
sg181
g0
(g116
g2
Ntp1612
Rp1613
(dp1614
g49
I1
sg120
Nsg50
Nsg121
g0
(g127
g2
Ntp1615
Rp1616
(dp1617
g49
I1
sg131
g132
(g133
(I0
tp1618
g135
tp1619
Rp1620
(I1
(I2
tp1621
g59
I00
S'\x00\x00\x00\x00\x00\x00\xf0\x7f\x00\x00\x00\x00\x00\x00\xf0\x7f'
p1622
tp1623
bsg52
(dp1624
I139695165207056
g1613
ssg142
g132
(g133
(I0
tp1625
g135
tp1626
Rp1627
(I1
(I2
I2
tp1628
g59
I00
S'\x00\x00\x00\x00\x00\x00\x00\x00\x00\x00\x00\x00\x00\x00\x00\x00\x00\x00\x00\x00\x00\x00\xf0?\x00\x00\x00\x00\x00\x00\xf0?'
p1629
tp1630
bsg149
g132
(g133
(I0
tp1631
g135
tp1632
Rp1633
(I1
(I2
I2
tp1634
g59
I00
S'\x00\x00\x00\x00\x00\x00\x00\x00\x00\x00\x00\x00\x00\x00\x00\x00\x00\x00\x00\x00\x00\x00\xf0?\x00\x00\x00\x00\x00\x00\xf0?'
p1635
tp1636
bsg156
I01
sg51
g7
sbsg52
(dp1637
I139695165207248
g1610
ssg51
g7
sbsg248
I2
sg249
g0
(g157
g2
Ntp1638
Rp1639
(dp1640
g49
I2
sg50
Nsg120
g132
(g133
(I0
tp1641
g135
tp1642
Rp1643
(I1
(I3
I3
tp1644
g59
I00
S'\x00\x00\x00\x00\x00\x00\xf0?\x00\x00\x00\x00\x00\x00\x00\x00\x00\x00\x00\x00\x00\x00\x00\x00\x00\x00\x00\x00\x00\x00\x00\x00\x00\x00\x00\x00\x00\x00\xf0?\x00\x00\x00\x00\x00\x00\x00\x00\x00\x00\x00\x00\x00\x00\x00\x00\x00\x00\x00\x00\x00\x00\x00\x00\x00\x00\x00\x00\x00\x00\xf0?'
p1645
tp1646
bsg51
g7
sg52
(dp1647
I139695165207248
g1610
ssbsg52
(dp1648
I139695165206992
g1607
ssg51
g7
sbsg248
I2
sg249
g187
sg52
(dp1649
I139695165209744
g0
(g122
g2
Ntp1650
Rp1651
(dp1652
g49
I2
sg126
g0
(g127
g2
Ntp1653
Rp1654
(dp1655
g49
I1
sg131
g132
(g133
(I0
tp1656
g135
tp1657
Rp1658
(I1
(I2
tp1659
g59
I00
S'\x00\x00\x00\x00\x00\x00\xf0\x7f\x00\x00\x00\x00\x00\x00\xf0\x7f'
p1660
tp1661
bsg52
(dp1662
I139695165209744
g1651
ssg142
g132
(g133
(I0
tp1663
g135
tp1664
Rp1665
(I1
(I2
I2
tp1666
g59
I00
S'\x00\x00\x00\x00\x00\x00\x00\x00\x00\x00\x00\x00\x00\x00\x00\x00\x00\x00\x00\x00\x00\x00\xf0?\x00\x00\x00\x00\x00\x00\xf0?'
p1667
tp1668
bsg149
g132
(g133
(I0
tp1669
g135
tp1670
Rp1671
(I1
(I2
I2
tp1672
g59
I00
S'\x00\x00\x00\x00\x00\x00\x00\x00\x00\x00\x00\x00\x00\x00\x00\x00\x00\x00\x00\x00\x00\x00\xf0?\x00\x00\x00\x00\x00\x00\xf0?'
p1673
tp1674
bsg156
I01
sg51
g7
sbsg115
g1607
sg149
Nsg52
(dp1675
sg51
g7
sbssg51
g7
sbsI139695165264400
g1438
sI139695013954128
g0
(g176
g2
Ntp1676
Rp1677
(dp1678
g49
I2
sg180
I2
sg181
g0
(g176
g2
Ntp1679
Rp1680
(dp1681
g49
I1
sg180
I2
sg181
g0
(g116
g2
Ntp1682
Rp1683
(dp1684
g49
I1
sg120
Nsg50
Nsg121
g0
(g127
g2
Ntp1685
Rp1686
(dp1687
g49
I1
sg131
g132
(g133
(I0
tp1688
g135
tp1689
Rp1690
(I1
(I2
tp1691
g59
I00
S'\x00\x00\x00\x00\x00\x00\xf0\x7f\x00\x00\x00\x00\x00\x00\xf0\x7f'
p1692
tp1693
bsg52
(dp1694
I139695013954384
g1683
ssg142
g132
(g133
(I0
tp1695
g135
tp1696
Rp1697
(I1
(I2
I2
tp1698
g59
I00
S'\x00\x00\x00\x00\x00\x00\x00\x00\x00\x00\x00\x00\x00\x00\x00\x00\x00\x00\x00\x00\x00\x00\xf0?\x00\x00\x00\x00\x00\x00\xf0?'
p1699
tp1700
bsg149
g132
(g133
(I0
tp1701
g135
tp1702
Rp1703
(I1
(I2
I2
tp1704
g59
I00
S'\x00\x00\x00\x00\x00\x00\x00\x00\x00\x00\x00\x00\x00\x00\x00\x00\x00\x00\x00\x00\x00\x00\xf0?\x00\x00\x00\x00\x00\x00\xf0?'
p1705
tp1706
bsg156
I01
sg51
g7
sbsg52
(dp1707
I139695013954192
g1680
ssg51
g7
sbsg248
I2
sg249
g0
(g157
g2
Ntp1708
Rp1709
(dp1710
g49
I2
sg50
Nsg120
g132
(g133
(I0
tp1711
g135
tp1712
Rp1713
(I1
(I3
I3
tp1714
g59
I00
S'\x00\x00\x00\x00\x00\x00\xf0?\x00\x00\x00\x00\x00\x00\x00\x00\x00\x00\x00\x00\x00\x00\x00\x00\x00\x00\x00\x00\x00\x00\x00\x00\x00\x00\x00\x00\x00\x00\xf0?\x00\x00\x00\x00\x00\x00\x00\x00\x00\x00\x00\x00\x00\x00\x00\x00\x00\x00\x00\x00\x00\x00\x00\x00\x00\x00\x00\x00\x00\x00\xf0?'
p1715
tp1716
bsg51
g7
sg52
(dp1717
I139695013954192
g1680
ssbsg52
(dp1718
I139695013954128
g1677
ssg51
g7
sbsg248
I2
sg249
g187
sg52
(dp1719
I139695013957264
g0
(g122
g2
Ntp1720
Rp1721
(dp1722
g49
I2
sg126
g0
(g127
g2
Ntp1723
Rp1724
(dp1725
g49
I1
sg131
g132
(g133
(I0
tp1726
g135
tp1727
Rp1728
(I1
(I2
tp1729
g59
I00
S'\x00\x00\x00\x00\x00\x00\xf0\x7f\x00\x00\x00\x00\x00\x00\xf0\x7f'
p1730
tp1731
bsg52
(dp1732
I139695013957264
g1721
ssg142
g132
(g133
(I0
tp1733
g135
tp1734
Rp1735
(I1
(I2
I2
tp1736
g59
I00
S'\x00\x00\x00\x00\x00\x00\x00\x00\x00\x00\x00\x00\x00\x00\x00\x00\x00\x00\x00\x00\x00\x00\xf0?\x00\x00\x00\x00\x00\x00\xf0?'
p1737
tp1738
bsg149
g132
(g133
(I0
tp1739
g135
tp1740
Rp1741
(I1
(I2
I2
tp1742
g59
I00
S'\x00\x00\x00\x00\x00\x00\x00\x00\x00\x00\x00\x00\x00\x00\x00\x00\x00\x00\x00\x00\x00\x00\xf0?\x00\x00\x00\x00\x00\x00\xf0?'
p1743
tp1744
bsg156
I01
sg51
g7
sbsg115
g1677
sg149
Nsg52
(dp1745
sg51
g7
sbssg51
g7
sbsI139695161168592
g0
(g585
g2
Ntp1746
Rp1747
(dp1748
g49
I2
sg120
Nsg75
g187
sg76
g0
(g45
g2
Ntp1749
Rp1750
(dp1751
g49
I1
sg50
Nsg51
g7
sg52
(dp1752
I139695161168592
g1747
ssbsg50
Nsg51
g7
sg52
(dp1753
sbsI139695014392592
g0
(g176
g2
Ntp1754
Rp1755
(dp1756
g49
I2
sg180
I2
sg181
g0
(g176
g2
Ntp1757
Rp1758
(dp1759
g49
I1
sg180
I2
sg181
g0
(g116
g2
Ntp1760
Rp1761
(dp1762
g49
I1
sg120
Nsg50
Nsg121
g0
(g127
g2
Ntp1763
Rp1764
(dp1765
g49
I1
sg131
g132
(g133
(I0
tp1766
g135
tp1767
Rp1768
(I1
(I2
tp1769
g59
I00
S'\x00\x00\x00\x00\x00\x00\xf0\x7f\x00\x00\x00\x00\x00\x00\xf0\x7f'
p1770
tp1771
bsg52
(dp1772
I139695014395344
g1761
ssg142
g132
(g133
(I0
tp1773
g135
tp1774
Rp1775
(I1
(I2
I2
tp1776
g59
I00
S'\x00\x00\x00\x00\x00\x00\x00\x00\x00\x00\x00\x00\x00\x00\x00\x00\x00\x00\x00\x00\x00\x00\xf0?\x00\x00\x00\x00\x00\x00\xf0?'
p1777
tp1778
bsg149
g132
(g133
(I0
tp1779
g135
tp1780
Rp1781
(I1
(I2
I2
tp1782
g59
I00
S'\x00\x00\x00\x00\x00\x00\x00\x00\x00\x00\x00\x00\x00\x00\x00\x00\x00\x00\x00\x00\x00\x00\xf0?\x00\x00\x00\x00\x00\x00\xf0?'
p1783
tp1784
bsg156
I01
sg51
g7
sbsg52
(dp1785
I139695014391952
g1758
ssg51
g7
sbsg248
I2
sg249
g0
(g157
g2
Ntp1786
Rp1787
(dp1788
g49
I2
sg50
Nsg120
g132
(g133
(I0
tp1789
g135
tp1790
Rp1791
(I1
(I3
I3
tp1792
g59
I00
S'\x00\x00\x00\x00\x00\x00\xf0?\x00\x00\x00\x00\x00\x00\x00\x00\x00\x00\x00\x00\x00\x00\x00\x00\x00\x00\x00\x00\x00\x00\x00\x00\x00\x00\x00\x00\x00\x00\xf0?\x00\x00\x00\x00\x00\x00\x00\x00\x00\x00\x00\x00\x00\x00\x00\x00\x00\x00\x00\x00\x00\x00\x00\x00\x00\x00\x00\x00\x00\x00\xf0?'
p1793
tp1794
bsg51
g7
sg52
(dp1795
I139695014391952
g1758
ssbsg52
(dp1796
I139695014392592
g1755
ssg51
g7
sbsg248
I2
sg249
g187
sg52
(dp1797
I139695014395856
g0
(g122
g2
Ntp1798
Rp1799
(dp1800
g49
I2
sg126
g0
(g127
g2
Ntp1801
Rp1802
(dp1803
g49
I1
sg131
g132
(g133
(I0
tp1804
g135
tp1805
Rp1806
(I1
(I2
tp1807
g59
I00
S'\x00\x00\x00\x00\x00\x00\xf0\x7f\x00\x00\x00\x00\x00\x00\xf0\x7f'
p1808
tp1809
bsg52
(dp1810
I139695014395856
g1799
ssg142
g132
(g133
(I0
tp1811
g135
tp1812
Rp1813
(I1
(I2
I2
tp1814
g59
I00
S'\x00\x00\x00\x00\x00\x00\x00\x00\x00\x00\x00\x00\x00\x00\x00\x00\x00\x00\x00\x00\x00\x00\xf0?\x00\x00\x00\x00\x00\x00\xf0?'
p1815
tp1816
bsg149
g132
(g133
(I0
tp1817
g135
tp1818
Rp1819
(I1
(I2
I2
tp1820
g59
I00
S'\x00\x00\x00\x00\x00\x00\x00\x00\x00\x00\x00\x00\x00\x00\x00\x00\x00\x00\x00\x00\x00\x00\xf0?\x00\x00\x00\x00\x00\x00\xf0?'
p1821
tp1822
bsg156
I01
sg51
g7
sbsg115
g1755
sg149
Nsg52
(dp1823
sg51
g7
sbssg51
g7
sbssg51
g7
sbsg76
g1384
sg1462
Nsg52
(dp1824
I139695011658000
g0
(g176
g2
Ntp1825
Rp1826
(dp1827
g49
I2
sg180
I2
sg181
g184
sg248
I2
sg249
g0
(g168
g2
Ntp1828
Rp1829
(dp1830
g49
I1
sg120
Nsg172
g159
sg50
Nsg173
(I0
F0.04722222222222222
tp1831
sg51
g7
sg52
(dp1832
I139695011658000
g1826
ssbsg52
(dp1833
sg51
g7
sbsI139695164263632
g0
(g176
g2
Ntp1834
Rp1835
(dp1836
g49
I2
sg180
I2
sg181
g184
sg248
I2
sg249
g0
(g168
g2
Ntp1837
Rp1838
(dp1839
g49
I1
sg120
Nsg172
g159
sg50
Nsg173
(I0
F0.04722222222222222
tp1840
sg51
g7
sg52
(dp1841
I139695164263632
g1835
ssbsg52
(dp1842
sg51
g7
sbsI139695013594384
g0
(g176
g2
Ntp1843
Rp1844
(dp1845
g49
I2
sg180
I2
sg181
g184
sg248
I2
sg249
g0
(g168
g2
Ntp1846
Rp1847
(dp1848
g49
I1
sg120
Nsg172
g159
sg50
Nsg173
(I0
F-0.04861111111111111
tp1849
sg51
g7
sg52
(dp1850
I139695013594384
g1844
ssbsg52
(dp1851
sg51
g7
sbsI139695011658064
g0
(g176
g2
Ntp1852
Rp1853
(dp1854
g49
I2
sg180
I2
sg181
g184
sg248
I2
sg249
g0
(g168
g2
Ntp1855
Rp1856
(dp1857
g49
I1
sg120
Nsg172
g159
sg50
Nsg173
(I0
F-0.04722222222222222
tp1858
sg51
g7
sg52
(dp1859
I139695011658064
g1853
ssbsg52
(dp1860
sg51
g7
sbsI139695164003344
g0
(g176
g2
Ntp1861
Rp1862
(dp1863
g49
I2
sg180
I2
sg181
g184
sg248
I2
sg249
g0
(g168
g2
Ntp1864
Rp1865
(dp1866
g49
I1
sg120
Nsg172
g159
sg50
Nsg173
(I0
F0.04861111111111111
tp1867
sg51
g7
sg52
(dp1868
I139695164003344
g1862
ssbsg52
(dp1869
sg51
g7
sbsI139695165692560
g178
ssg51
g7
sbsg248
I2
sg249
g170
sg52
(dp1870
sg51
g7
sbssbsI139695011902672
g1477
sI139695125022608
g1522
sI139695011903440
g1504
sI139695013596176
g1847
sI139695013144656
g1531
sI139695125021008
g1513
sI139695123417296
g1495
sI139695122949072
g124
sI139695014247376
g432
sI139695011658192
g1829
sI139695011657232
g1856
sI139695166163920
g1865
sI139695163586256
g1468
sI139695011409232
g1838
sI139695125023440
g1486
ssbsg149
Nsg52
(dp1871
I139695121780048
g118
ssg51
g7
sbsg52
(dp1872
I139695164573648
g190
ssg51
g7
sbsS'_us_dashes'
p1873
(NNtp1874
sS'_capstyle'
p1875
Vbutt
p1876
sS'_url'
p1877
Nsg25
NsS'_axes'
p1878
Nsg34
Nsbsg42
Nsg88
NsV_restore_to_pylab
p1879
I01
sS'images'
p1880
(lp1881
sS'_suptitle'
p1882
NsS'dpi_scale_trans'
p1883
g159
sS'number'
p1884
I1
sS'callbacks'
p1885
g0
(cmatplotlib.cbook
CallbackRegistry
p1886
g2
Ntp1887
Rp1888
I01
bsg96
NsS'_tight'
p1889
I00
sg86
I01
sS'bbox'
p1890
g124
sg103
g0
(g104
g105
((lp1891
(lp1892
tp1893
tp1894
Rp1895
sg111
I0
sS'patches'
p1896
(lp1897
sS'legends'
p1898
(lp1899
sS'suppressComposite'
p1900
Nsg112
I00
sg114
NsS'_axstack'
p1901
g0
(cmatplotlib.figure
AxesStack
p1902
g2
Ntp1903
Rp1904
(dp1905
S'_default'
p1906
NsS'_elements'
p1907
(lp1908
(((g0
(cmatplotlib.gridspec
SubplotSpec
p1909
g2
Ntp1910
Rp1911
(dp1912
S'num1'
p1913
I0
sS'num2'
p1914
I0
sS'_gridspec'
p1915
g0
(cmatplotlib.gridspec
GridSpec
p1916
g2
Ntp1917
Rp1918
(dp1919
S'_nrows'
p1920
I1
sS'right'
p1921
NsS'_col_width_ratios'
p1922
NsS'bottom'
p1923
NsS'top'
p1924
NsS'wspace'
p1925
NsS'_ncols'
p1926
I1
sS'hspace'
p1927
NsS'_row_height_ratios'
p1928
NsS'left'
p1929
Nsbsbtp1930
(ttp1931
(I1
g0
(cmatplotlib.axes._subplots
_PicklableSubplotClassConstructor
p1932
g2
Ntp1933
Rp1934
(cmatplotlib.axes._axes
Axes
p1935
tp1936
Rp1937
(dp1938
S'transLimits'
p1939
g1427
sS'_get_patches_for_fill'
p1940
g0
(cmatplotlib.axes._base
_process_plot_var_args
p1941
g2
Ntp1942
Rp1943
(dp1944
Vaxes
p1945
g1937
sVcommand
p1946
Vfill
p1947
sbsS'_xcid'
p1948
I1
sg6
V
p1949
sS'legend_'
p1950
Nsg12
(lp1951
g0
(cmatplotlib.text
Annotation
p1952
g2
Ntp1953
Rp1954
(dp1955
g6
g7
sg115
g0
(g45
g2
Ntp1956
Rp1957
(dp1958
g49
I1
sg50
Nsg51
g7
sg52
(dp1959
sbsg9
g4
sg10
NsS'_draggable'
p1960
NsS'_fontproperties'
p1961
g0
(cmatplotlib.font_manager
FontProperties
p1962
g2
Ntp1963
Rp1964
(dp1965
S'_family'
p1966
(lp1967
Vsans-serif
p1968
asS'_file'
p1969
NsS'_variant'
p1970
Vnormal
p1971
sS'_slant'
p1972
g1971
sS'_size'
p1973
F8.0
sS'_weight'
p1974
I400
sS'_stretch'
p1975
g1971
sbsg42
NsS'xy'
p1976
(F0.8
F500.0
tp1977
sg17
g18
sS'_multialignment'
p1978
Nsg20
I01
sS'xycoords'
p1979
Vdata
p1980
sg23
Nsg75
I1250
sg76
F0.75
sg24
Nsg25
Nsg11
Nsg28
I00
sg29
I00
sg30
(dp1981
sS'_renderer'
p1982
Nsg32
I00
sS'arrowprops'
p1983
Nsg1878
g1937
sg88
NsS'_textcoords'
p1984
S'data'
p1985
sg1877
NsS'_rotation_mode'
p1986
Nsg33
NsS'_annotation_clip'
p1987
Nsg96
NsS'arrow_patch'
p1988
Nsg86
I01
sS'_verticalalignment'
p1989
Vbaseline
p1990
sS'_text'
p1991
V1.13 %
p1992
sS'_bbox_patch'
p1993
Nsg103
g0
(g104
g105
((lp1994
(lp1995
tp1996
tp1997
Rp1998
sg111
I0
sS'_rotation'
p1999
Nsg112
I01
sg114
NsS'_linespacing'
p2000
F1.2
sg8
I01
sS'arrow'
p2001
NsS'_usetex'
p2002
I00
sS'_wrap'
p2003
I00
sg43
NsS'_color'
p2004
V0.
p2005
sS'_horizontalalignment'
p2006
Vleft
p2007
sg34
NsbasS'_frameon'
p2008
I01
sS'_autoscaleYon'
p2009
I00
sg14
I01
sg15
(lp2010
sg20
I01
sS'tables'
p2011
(lp2012
sg1896
(lp2013
g0
(g36
g2
Ntp2014
Rp2015
(dp2016
g6
V_nolegend_
p2017
sg40
F0.5
sg41
I01
sg9
g4
sg8
I01
sg10
Nsg42
Nsg17
g18
sg43
Nsg20
I01
sg44
g0
(g45
g2
Ntp2018
Rp2019
(dp2020
g49
I1
sg50
Nsg51
g7
sg52
(dp2021
sbsg54
(F0.0
F0.0
F0.0
F0.0
tp2022
sg23
Nsg75
F0.0
sg76
F-0.25
sg24
Nsg77
Nsg11
Nsg28
I00
sg29
I00
sg30
(dp2023
sg80
g0
(g176
g2
Ntp2024
Rp2025
(dp2026
g49
I1
sg180
I2
sg181
g0
(g116
g2
Ntp2027
Rp2028
(dp2029
g49
I1
sg120
Nsg50
Nsg121
g0
(g127
g2
Ntp2030
Rp2031
(dp2032
g49
I1
sg131
g132
(g133
(I0
tp2033
g135
tp2034
Rp2035
(I1
(I2
tp2036
g59
I00
S'\x00\x00\x00\x00\x00\x00\xf0\x7f\x00\x00\x00\x00\x00\x00\xf0\x7f'
p2037
tp2038
bsg52
(dp2039
I139695165208016
g2028
ssg142
g132
(g133
(I0
tp2040
g135
tp2041
Rp2042
(I1
(I2
I2
tp2043
g59
I00
S'\x00\x00\x00\x00\x00\x00\xd0\xbf\x00\x00\x00\x00\x00\x00\x00\x00\x00\x00\x00\x00\x00\x00\xd0?\x00\x00\x00\x00@\x9a\xd5@'
p2044
tp2045
bsg149
g132
(g133
(I0
tp2046
g135
tp2047
Rp2048
(I1
(I2
I2
tp2049
g59
I00
S'\x00\x00\x00\x00\x00\x00\xd0\xbf\x00\x00\x00\x00\x00\x00\x00\x00\x00\x00\x00\x00\x00\x00\xd0?\x00\x00\x00\x00@\x9a\xd5@'
p2050
tp2051
bsg156
I01
sg51
g7
sbsg52
(dp2052
I139695011768848
g2025
ssg51
g7
sbsg248
I2
sg249
g0
(g157
g2
Ntp2053
Rp2054
(dp2055
g49
I0
sg50
Nsg120
g132
(g133
(I0
tp2056
g135
tp2057
Rp2058
(I1
(I3
I3
tp2059
g59
I00
S'\x00\x00\x00\x00\x00\x00\xf0?\x00\x00\x00\x00\x00\x00\x00\x00\x00\x00\x00\x00\x00\x00\x00\x00\x00\x00\x00\x00\x00\x00\x00\x00\x00\x00\x00\x00\x00\x00\xf0?\x00\x00\x00\x00\x00\x00\x00\x00\x00\x00\x00\x00\x00\x00\x00\x00\x00\x00\x00\x00\x00\x00\x00\x00\x00\x00\x00\x00\x00\x00\xf0?'
p2060
tp2061
bsg51
g7
sg52
(dp2062
I139695011768848
g2025
ssbsg52
(dp2063
sg51
g7
sbsg32
I00
sg85
Nsg86
I01
sg87
F1.0
sg88
g403
sg89
F22121.0
sg33
Nsg90
(g55
(g59
S'\x00\x00\x00\x00\x00\x00\x00\x00'
p2064
tp2065
Rp2066
g55
(g59
S'\x00\x00\x00\x00\x00\x00\x00\x00'
p2067
tp2068
Rp2069
g55
(g59
S'\x00\x00\x00\x00\x00\x00\x00\x00'
p2070
tp2071
Rp2072
I1
tp2073
sg91
Nsg92
I01
sg93
Nsg94
g132
(g133
(I0
tp2074
g135
tp2075
Rp2076
(I1
(I4
tp2077
g59
I00
S'\x00\x00\x00\x00\x00\x00\x00\x00\x00\x00\x00\x00\x00\x00\x00\x00\x00\x00\x00\x00\x00\x00\x00\x00\x00\x00\x00\x00\x00\x00\xf0?'
p2078
tp2079
bsg96
Nsg97
(g55
(g59
S'\x00\x00\x00\x00\x00\x00\x00\x00'
p2080
tp2081
Rp2082
g55
(g59
S'\x00\x00\x00\x00\x00\x00\x00\x00'
p2083
tp2084
Rp2085
g55
(g59
S'\x00\x00\x00\x00\x00\x00\x00\x00'
p2086
tp2087
Rp2088
g55
(g59
S'\x00\x00\x00\x00\x00\x00\xf0?'
p2089
tp2090
Rp2091
tp2092
sg99
g100
sg101
g102
sg103
g0
(g104
g105
((lp2093
(lp2094
I0
atp2095
tp2096
Rp2097
sg111
I0
sg112
I01
sg113
F0.0
sg114
Nsg115
g1384
sg1873
(NNtp2098
sg1875
g1876
sg1877
Nsg25
Nsg1878
g1937
sg34
Nsbag0
(g36
g2
Ntp2099
Rp2100
(dp2101
g6
V_nolegend_
p2102
sg40
F0.5
sg41
I01
sg9
g4
sg8
I01
sg10
Nsg42
Nsg17
g18
sg43
Nsg20
I01
sg44
g0
(g45
g2
Ntp2103
Rp2104
(dp2105
g49
I1
sg50
Nsg51
g7
sg52
(dp2106
sbsg54
g2022
sg23
Nsg75
F0.0
sg76
F0.75
sg24
Nsg77
Nsg11
Nsg28
I00
sg29
I00
sg30
(dp2107
sg80
g0
(g176
g2
Ntp2108
Rp2109
(dp2110
g49
I1
sg180
I2
sg181
g0
(g116
g2
Ntp2111
Rp2112
(dp2113
g49
I1
sg120
Nsg50
Nsg121
g0
(g127
g2
Ntp2114
Rp2115
(dp2116
g49
I1
sg131
g132
(g133
(I0
tp2117
g135
tp2118
Rp2119
(I1
(I2
tp2120
g59
I00
S'\x00\x00\x00\x00\x00\x00\xf0\x7f\x00\x00\x00\x00\x00\x00\xf0\x7f'
p2121
tp2122
bsg52
(dp2123
I139695165207696
g2112
ssg142
g132
(g133
(I0
tp2124
g135
tp2125
Rp2126
(I1
(I2
I2
tp2127
g59
I00
S'\x00\x00\x00\x00\x00\x00\xe8?\x00\x00\x00\x00\x00\x00\x00\x00\x00\x00\x00\x00\x00\x00\xf4?\x00\x00\x00\x00\x00@o@'
p2128
tp2129
bsg149
g132
(g133
(I0
tp2130
g135
tp2131
Rp2132
(I1
(I2
I2
tp2133
g59
I00
S'\x00\x00\x00\x00\x00\x00\xe8?\x00\x00\x00\x00\x00\x00\x00\x00\x00\x00\x00\x00\x00\x00\xf4?\x00\x00\x00\x00\x00@o@'
p2134
tp2135
bsg156
I01
sg51
g7
sbsg52
(dp2136
I139695011767504
g2109
ssg51
g7
sbsg248
I2
sg249
g0
(g157
g2
Ntp2137
Rp2138
(dp2139
g49
I0
sg50
Nsg120
g132
(g133
(I0
tp2140
g135
tp2141
Rp2142
(I1
(I3
I3
tp2143
g59
I00
S'\x00\x00\x00\x00\x00\x00\xf0?\x00\x00\x00\x00\x00\x00\x00\x00\x00\x00\x00\x00\x00\x00\x00\x00\x00\x00\x00\x00\x00\x00\x00\x00\x00\x00\x00\x00\x00\x00\xf0?\x00\x00\x00\x00\x00\x00\x00\x00\x00\x00\x00\x00\x00\x00\x00\x00\x00\x00\x00\x00\x00\x00\x00\x00\x00\x00\x00\x00\x00\x00\xf0?'
p2144
tp2145
bsg51
g7
sg52
(dp2146
I139695011767504
g2109
ssbsg52
(dp2147
sg51
g7
sbsg32
I00
sg85
Nsg86
I01
sg87
F1.0
sg88
g1651
sg89
F250.0
sg33
Nsg90
g2073
sg91
Nsg92
I01
sg93
Nsg94
g2076
sg96
Nsg97
(g55
(g59
S'\x00\x00\x00\x00\x00\x00\x00\x00'
p2148
tp2149
Rp2150
g55
(g59
S'\x00\x00\x00\x00\x00\x00\x00\x00'
p2151
tp2152
Rp2153
g55
(g59
S'\x00\x00\x00\x00\x00\x00\x00\x00'
p2154
tp2155
Rp2156
g55
(g59
S'\x00\x00\x00\x00\x00\x00\xf0?'
p2157
tp2158
Rp2159
tp2160
sg99
g100
sg101
g102
sg103
g0
(g104
g105
((lp2161
(lp2162
I0
atp2163
tp2164
Rp2165
sg111
I0
sg112
I01
sg113
F0.0
sg114
Nsg115
g1384
sg1873
(NNtp2166
sg1875
g1876
sg1877
Nsg25
Nsg1878
g1937
sg34
NsbasS'title'
p2167
g0
(cmatplotlib.text
Text
p2168
g2
Ntp2169
Rp2170
(dp2171
g6
g7
sg8
I01
sg9
g4
sg10
Nsg1961
g0
(g1962
g2
Ntp2172
Rp2173
(dp2174
g1966
(lp2175
g1968
asg1969
Nsg1970
g1971
sg1972
g1971
sg1973
F9.6
sg1974
I400
sg1975
g1971
sbsg42
Nsg17
g18
sg1978
Nsg20
I01
sg23
Nsg75
F1.0
sg76
F0.5
sg24
Nsg25
Nsg11
Nsg28
I00
sg29
I00
sg30
(dp2176
sg1982
Nsg32
I00
sg1878
g1937
sg88
Nsg1877
Nsg1986
Nsg33
Nsg96
Nsg86
I01
sg1989
Vbaseline
p2177
sg1991
V
p2178
sg1993
Nsg103
g0
(g104
g105
((lp2179
(lp2180
tp2181
tp2182
Rp2183
sg111
I0
sg1999
Nsg112
I01
sg114
Nsg2000
F1.2
sg115
g429
sg2002
I00
sg2003
I00
sg43
Nsg2004
g2005
sg2006
Vcenter
p2184
sg34
NsbsS'_current_image'
p2185
NsS'mouseover_set'
p2186
c__builtin__
set
p2187
((lp2188
tp2189
Rp2190
sg11
NsS'_cursorProps'
p2191
(I1
g2073
tp2192
sS'numRows'
p2193
I1
sS'collections'
p2194
(lp2195
g0
(cmatplotlib.collections
LineCollection
p2196
g2
Ntp2197
Rp2198
(dp2199
g6
V_collection0
p2200
sg8
I01
sg9
g4
sS'_linestyles'
p2201
(lp2202
(F0.0
(lp2203
F1.85
aF0.8
atp2204
asS'_offset_position'
p2205
Vscreen
p2206
sg10
Nsg42
NsS'callbacksSM'
p2207
g0
(g1886
g2
Ntp2208
Rp2209
I01
bsg17
NsS'_offsets'
p2210
g132
(g133
(I0
tp2211
g135
tp2212
Rp2213
(I1
(I1
I2
tp2214
g59
I00
S'\x00\x00\x00\x00\x00\x00\x00\x00\x00\x00\x00\x00\x00\x00\x00\x00'
p2215
tp2216
bsS'_paths'
p2217
(lp2218
g0
(cmatplotlib.path
Path
p2219
g2
Ntp2220
Rp2221
(dp2222
S'_should_simplify'
p2223
I00
sS'_codes'
p2224
NsS'_vertices'
p2225
g132
(g133
(I0
tp2226
g135
tp2227
Rp2228
(I1
(I2
I2
tp2229
g59
I00
S'\xcd\xcc\xcc\xcc\xcc\xcc\xd4\xbf\x00\x00\x00\x00\x00@o@\x00\x00\x00\x00\x00\x00\xf0?\x00\x00\x00\x00\x00@o@'
p2230
tp2231
bsS'_readonly'
p2232
I00
sS'_simplify_threshold'
p2233
F0.1111111111111111
sS'_interpolation_steps'
p2234
I1
sS'_has_nonfinite'
p2235
I00
sbasg20
I01
sS'_A'
p2236
NsS'_us_linestyles'
p2237
(lp2238
(F0.0
(F3.7
F1.6
tp2239
tp2240
asg23
Nsg24
Nsg77
g132
(g133
(I0
tp2241
g135
tp2242
Rp2243
(I1
(I1
I4
tp2244
g59
I00
S'\x00\x00\x00\x00\x00\x00\x00\x00\x00\x00\x00\x00\x00\x00\x00\x00\x00\x00\x00\x00\x00\x00\x00\x00\x00\x00\x00\x00\x00\x00\xf0?'
p2245
tp2246
bsg11
Nsg28
I00
sS'_facecolors'
p2247
g132
(g133
(I0
tp2248
g135
tp2249
Rp2250
(I1
(I0
I4
tp2251
g59
I00
S''
p2252
tp2253
bsS'_uniform_offsets'
p2254
Nsg29
I00
sg30
(dp2255
sS'_antialiaseds'
p2256
(I01
tp2257
sS'zorder'
p2258
I2
sg32
I00
sS'norm'
p2259
g0
(cmatplotlib.colors
Normalize
p2260
g2
Ntp2261
Rp2262
(dp2263
S'vmax'
p2264
NsS'clip'
p2265
I00
sS'vmin'
p2266
Nsbsg85
NsS'_urls'
p2267
(lp2268
NasS'_edgecolors'
p2269
g132
(g133
(I0
tp2270
g135
tp2271
Rp2272
(I1
(I1
I4
tp2273
g59
I00
S'\x00\x00\x00\x00\x00\x00\x00\x00\x00\x00\x00\x00\x00\x00\x00\x00\x00\x00\x00\x00\x00\x00\x00\x00\x00\x00\x00\x00\x00\x00\xf0?'
p2274
tp2275
bsg88
g639
sS'_pickradius'
p2276
I5
sg33
Nsg90
(g55
(g59
S'\x00\x00\x00\x00\x00\x00\x00\x00'
p2277
tp2278
Rp2279
g55
(g59
S'\x00\x00\x00\x00\x00\x00\x00\x00'
p2280
tp2281
Rp2282
g55
(g59
S'\x00\x00\x00\x00\x00\x00\x00\x00'
p2283
tp2284
Rp2285
g55
(g59
S'\x00\x00\x00\x00\x00\x00\xf0?'
p2286
tp2287
Rp2288
tp2289
sg94
Vnone
p2290
sS'update_dict'
p2291
(dp2292
Varray
p2293
I00
ssg96
Nsg86
I01
sS'_linewidths'
p2294
(F0.5
tp2295
sg103
g0
(g104
g105
((lp2296
(lp2297
tp2298
tp2299
Rp2300
sg111
I0
sS'_is_stroked'
p2301
I01
sS'_is_filled'
p2302
I00
sg112
I01
sg114
Nsg115
g1384
sS'colorbar'
p2303
NsS'_us_lw'
p2304
g2295
sS'cmap'
p2305
g0
(cmatplotlib.colors
LinearSegmentedColormap
p2306
g2
Ntp2307
Rp2308
(dp2309
S'_gamma'
p2310
F1.0
sS'_i_bad'
p2311
I258
sS'_rgba_over'
p2312
NsS'name'
p2313
VGreys
p2314
sS'_i_under'
p2315
I256
sS'_i_over'
p2316
I257
sS'N'
p2317
I256
sS'_segmentdata'
p2318
(dp2319
S'blue'
p2320
(lp2321
(g55
(g59
S'\x00\x00\x00\x00\x00\x00\x00\x00'
p2322
tp2323
Rp2324
g55
(g59
S'\x00\x00\x00\x00\x00\x00\xf0?'
p2325
tp2326
Rp2327
g2327
tp2328
a(g55
(g59
S'\x00\x00\x00\x00\x00\x00\xc0?'
p2329
tp2330
Rp2331
g55
(g59
S'\x1e\x1e\x1e\x1e\x1e\x1e\xee?'
p2332
tp2333
Rp2334
g2334
tp2335
a(g55
(g59
S'\x00\x00\x00\x00\x00\x00\xd0?'
p2336
tp2337
Rp2338
g55
(g59
S';;;;;;\xeb?'
p2339
tp2340
Rp2341
g2341
tp2342
a(g55
(g59
S'\x00\x00\x00\x00\x00\x00\xd8?'
p2343
tp2344
Rp2345
g55
(g59
S'\xb8\xb7\xb7\xb7\xb7\xb7\xe7?'
p2346
tp2347
Rp2348
g2348
tp2349
a(g55
(g59
S'\x00\x00\x00\x00\x00\x00\xe0?'
p2350
tp2351
Rp2352
g55
(g59
S'\xd3\xd2\xd2\xd2\xd2\xd2\xe2?'
p2353
tp2354
Rp2355
g2355
tp2356
a(g55
(g59
S'\x00\x00\x00\x00\x00\x00\xe4?'
p2357
tp2358
Rp2359
g55
(g59
S'\xdd\xdc\xdc\xdc\xdc\xdc\xdc?'
p2360
tp2361
Rp2362
g2362
tp2363
a(g55
(g59
S'\x00\x00\x00\x00\x00\x00\xe8?'
p2364
tp2365
Rp2366
g55
(g59
S'\x95\x94\x94\x94\x94\x94\xd4?'
p2367
tp2368
Rp2369
g2369
tp2370
a(g55
(g59
S'\x00\x00\x00\x00\x00\x00\xec?'
p2371
tp2372
Rp2373
g55
(g59
S'\x93\x92\x92\x92\x92\x92\xc2?'
p2374
tp2375
Rp2376
g2376
tp2377
a(g55
(g59
S'\x00\x00\x00\x00\x00\x00\xf0?'
p2378
tp2379
Rp2380
g55
(g59
S'\x00\x00\x00\x00\x00\x00\x00\x00'
p2381
tp2382
Rp2383
g2383
tp2384
asS'alpha'
p2385
(lp2386
(g2324
I1
I1
tp2387
a(g2331
I1
I1
tp2388
a(g2338
I1
I1
tp2389
a(g2345
I1
I1
tp2390
a(g2352
I1
I1
tp2391
a(g2359
I1
I1
tp2392
a(g2366
I1
I1
tp2393
a(g2373
I1
I1
tp2394
a(g2380
I1
I1
tp2395
asS'green'
p2396
(lp2397
(g2324
g55
(g59
S'\x00\x00\x00\x00\x00\x00\xf0?'
p2398
tp2399
Rp2400
g2400
tp2401
a(g2331
g55
(g59
S'\x1e\x1e\x1e\x1e\x1e\x1e\xee?'
p2402
tp2403
Rp2404
g2404
tp2405
a(g2338
g55
(g59
S';;;;;;\xeb?'
p2406
tp2407
Rp2408
g2408
tp2409
a(g2345
g55
(g59
S'\xb8\xb7\xb7\xb7\xb7\xb7\xe7?'
p2410
tp2411
Rp2412
g2412
tp2413
a(g2352
g55
(g59
S'\xd3\xd2\xd2\xd2\xd2\xd2\xe2?'
p2414
tp2415
Rp2416
g2416
tp2417
a(g2359
g55
(g59
S'\xdd\xdc\xdc\xdc\xdc\xdc\xdc?'
p2418
tp2419
Rp2420
g2420
tp2421
a(g2366
g55
(g59
S'\x95\x94\x94\x94\x94\x94\xd4?'
p2422
tp2423
Rp2424
g2424
tp2425
a(g2373
g55
(g59
S'\x93\x92\x92\x92\x92\x92\xc2?'
p2426
tp2427
Rp2428
g2428
tp2429
a(g2380
g55
(g59
S'\x00\x00\x00\x00\x00\x00\x00\x00'
p2430
tp2431
Rp2432
g2432
tp2433
asS'red'
p2434
(lp2435
(g2324
g55
(g59
S'\x00\x00\x00\x00\x00\x00\xf0?'
p2436
tp2437
Rp2438
g2438
tp2439
a(g2331
g55
(g59
S'\x1e\x1e\x1e\x1e\x1e\x1e\xee?'
p2440
tp2441
Rp2442
g2442
tp2443
a(g2338
g55
(g59
S';;;;;;\xeb?'
p2444
tp2445
Rp2446
g2446
tp2447
a(g2345
g55
(g59
S'\xb8\xb7\xb7\xb7\xb7\xb7\xe7?'
p2448
tp2449
Rp2450
g2450
tp2451
a(g2352
g55
(g59
S'\xd3\xd2\xd2\xd2\xd2\xd2\xe2?'
p2452
tp2453
Rp2454
g2454
tp2455
a(g2359
g55
(g59
S'\xdd\xdc\xdc\xdc\xdc\xdc\xdc?'
p2456
tp2457
Rp2458
g2458
tp2459
a(g2366
g55
(g59
S'\x95\x94\x94\x94\x94\x94\xd4?'
p2460
tp2461
Rp2462
g2462
tp2463
a(g2373
g55
(g59
S'\x93\x92\x92\x92\x92\x92\xc2?'
p2464
tp2465
Rp2466
g2466
tp2467
a(g2380
g55
(g59
S'\x00\x00\x00\x00\x00\x00\x00\x00'
p2468
tp2469
Rp2470
g2470
tp2471
assS'_rgba_under'
p2472
NsS'_rgba_bad'
p2473
(F0.0
F0.0
F0.0
F0.0
tp2474
sS'monochrome'
p2475
I00
sS'colorbar_extend'
p2476
I00
sS'_isinit'
p2477
I00
sbsg43
Nsg1877
Nsg25
Nsg1878
g1937
sg34
Nsbasg1878
g1937
sg30
(dp2478
sg32
I00
sS'containers'
p2479
(lp2480
g0
(cmatplotlib.container
BarContainer
p2481
g105
(g2015
g2100
tp2482
tp2483
Rp2484
(dp2485
g6
V_container0
p2486
sg1896
(lp2487
g2015
ag2100
asg30
(dp2488
sg34
Nsg32
I00
sS'errorbar'
p2489
Nsg111
I0
sbasg29
I00
sg88
NsS'_get_lines'
p2490
g0
(g1941
g2
Ntp2491
Rp2492
(dp2493
g1945
g1937
sg1946
Vplot
p2494
sbsS'_aspect'
p2495
Vauto
p2496
sS'fmt_xdata'
p2497
Nsg1885
g0
(g1886
g2
Ntp2498
Rp2499
I01
bsg96
Nsg97
Vwhite
p2500
sg86
I01
sg1890
g190
sS'ignore_existing_data_limits'
p2501
I00
sg24
Nsg111
I0
sg112
I00
sS'_left_title'
p2502
g0
(g2168
g2
Ntp2503
Rp2504
(dp2505
g6
g7
sg8
I01
sg9
g4
sg10
Nsg1961
g0
(g1962
g2
Ntp2506
Rp2507
(dp2508
g1966
g2175
sg1969
Nsg1970
g1971
sg1972
g1971
sg1973
F9.6
sg1974
I400
sg1975
g1971
sbsg42
Nsg17
g18
sg1978
Nsg20
I01
sg23
Nsg75
F1.0
sg76
F0.0
sg24
Nsg25
Nsg11
Nsg28
I00
sg29
I00
sg30
(dp2509
sg1982
Nsg32
I00
sg1878
g1937
sg88
Nsg1877
Nsg1986
Nsg33
Nsg96
Nsg86
I01
sg1989
Vbaseline
p2510
sg1991
V
p2511
sg1993
Nsg103
g0
(g104
g105
((lp2512
(lp2513
tp2514
tp2515
Rp2516
sg111
I0
sg1999
Nsg112
I01
sg114
Nsg2000
F1.2
sg115
g437
sg2002
I00
sg2003
I00
sg43
Nsg2004
g2005
sg2006
Vleft
p2517
sg34
NsbsS'_right_title'
p2518
g0
(g2168
g2
Ntp2519
Rp2520
(dp2521
g6
g7
sg8
I01
sg9
g4
sg10
Nsg1961
g0
(g1962
g2
Ntp2522
Rp2523
(dp2524
g1966
g2175
sg1969
Nsg1970
g1971
sg1972
g1971
sg1973
F9.6
sg1974
I400
sg1975
g1971
sbsg42
Nsg17
g18
sg1978
Nsg20
I01
sg23
Nsg75
F1.0
sg76
F1.0
sg24
Nsg25
Nsg11
Nsg28
I00
sg29
I00
sg30
(dp2525
sg1982
Nsg32
I00
sg1878
g1937
sg88
Nsg1877
Nsg1986
Nsg33
Nsg96
Nsg86
I01
sg1989
g2510
sg1991
V
p2526
sg1993
Nsg103
g0
(g104
g105
((lp2527
(lp2528
tp2529
tp2530
Rp2531
sg111
I0
sg1999
Nsg112
I01
sg114
Nsg2000
F1.2
sg115
g441
sg2002
I00
sg2003
I00
sg43
Nsg2004
g2005
sg2006
Vright
p2532
sg34
NsbsS'transScale'
p2533
g1388
sg115
NsS'axison'
p2534
I01
sS'patch'
p2535
g0
(g36
g2
Ntp2536
Rp2537
(dp2538
g6
g7
sg40
F1.0
sg41
I01
sg9
g4
sg8
I01
sg10
Nsg42
Nsg17
g18
sg43
Nsg20
I01
sg44
g0
(g45
g2
Ntp2539
Rp2540
(dp2541
g49
I1
sg50
Nsg51
g7
sg52
(dp2542
sbsg54
g2022
sg23
Nsg75
F0.0
sg76
F0.0
sg24
Nsg77
VNone
p2543
sg11
Nsg28
I00
sg29
I00
sg30
(dp2544
sg80
g598
sg32
I00
sg85
Nsg86
I01
sg87
F0.0
sg88
Nsg89
F1.0
sg33
Nsg90
g2022
sg91
Nsg92
I01
sg93
Nsg94
g2500
sg96
Nsg97
g98
sg99
g100
sg101
g102
sg103
g0
(g104
g105
((lp2545
(lp2546
tp2547
tp2548
Rp2549
sg111
I0
sg112
I01
sg113
F0.0
sg114
Nsg115
g187
sg1873
(NNtp2550
sg1875
g1876
sg1877
Nsg25
Nsg1878
Nsg34
NsbsS'viewLim'
p2551
g1397
sg17
g18
sS'_subplotspec'
p2552
g1911
sS'_adjustable'
p2553
Vbox
p2554
sg9
g4
sS'titleOffsetTrans'
p2555
g432
sS'_yaxis_transform'
p2556
g1381
sS'_gridOn'
p2557
I00
sg10
NsS'colNum'
p2558
I0
sg42
Nsg1880
(lp2559
sS'_autoscaleXon'
p2560
I01
sS'_xmargin'
p2561
F0.05
sS'rowNum'
p2562
I0
sS'_position'
p2563
g193
sS'_rasterization_zorder'
p2564
NsS'_cachedRenderer'
p2565
NsS'_navigate'
p2566
I01
sg23
NsS'_originalPosition'
p2567
g0
(g127
g2
Ntp2568
Rp2569
(dp2570
g49
I1
sg131
g132
(g133
(I0
tp2571
g135
tp2572
Rp2573
(I1
(I2
tp2574
g59
I00
S'\x00\x00\x00\x00\x00\x00\xf0\x7f\x00\x00\x00\x00\x00\x00\xf0\x7f'
p2575
tp2576
bsg52
(dp2577
sg142
g132
(g133
(I0
tp2578
g135
tp2579
Rp2580
(I1
(I2
I2
tp2581
g59
I00
S'\x00\x00\x00\x00\x00\x00\xc0?\x00\x00\x00\x00\x00\x00\xc0?\xcd\xcc\xcc\xcc\xcc\xcc\xec?)\\\x8f\xc2\xf5(\xec?'
p2582
tp2583
bsg149
g132
(g133
(I0
tp2584
g135
tp2585
Rp2586
(I1
(I2
I2
tp2587
g59
I00
S'\x00\x00\x00\x00\x00\x00\xc0?\x00\x00\x00\x00\x00\x00\xc0?\xcd\xcc\xcc\xcc\xcc\xcc\xec?)\\\x8f\xc2\xf5(\xec?'
p2588
tp2589
bsg156
I01
sg51
g7
sbsg25
NsS'_xaxis_transform'
p2590
g184
sg28
I00
sS'figbox'
p2591
g193
sS'xaxis'
p2592
g0
(cmatplotlib.axis
XAxis
p2593
g2
Ntp2594
Rp2595
(dp2596
g6
g7
sS'major'
p2597
g0
(cmatplotlib.axis
Ticker
p2598
g2
Ntp2599
Rp2600
(dp2601
S'locator'
p2602
g0
(cmatplotlib.ticker
FixedLocator
p2603
g2
Ntp2604
Rp2605
(dp2606
S'locs'
p2607
g132
(g133
(I0
tp2608
g135
tp2609
Rp2610
(I1
(I2
tp2611
g56
(S'i8'
p2612
I0
I1
tp2613
Rp2614
(I3
S'<'
p2615
NNNI-1
I-1
I0
tp2616
bI00
S'\x00\x00\x00\x00\x00\x00\x00\x00\x01\x00\x00\x00\x00\x00\x00\x00'
p2617
tp2618
bsS'axis'
p2619
g2595
sS'nbins'
p2620
NsbsS'formatter'
p2621
g0
(cmatplotlib.ticker
FixedFormatter
p2622
g2
Ntp2623
Rp2624
(dp2625
S'offset_string'
p2626
g7
sS'seq'
p2627
(lp2628
S'PSP'
p2629
aS'AP'
p2630
asg2619
g2595
sbsbsS'isDefault_label'
p2631
I01
sS'_scale'
p2632
g0
(cmatplotlib.scale
LinearScale
p2633
g2
Ntp2634
Rp2635
sg9
g4
sg8
I01
sS'_gridOnMinor'
p2636
I00
sg10
Nsg42
NsS'_smart_bounds'
p2637
I00
sg17
g18
sg20
I01
sg23
NsS'offsetText'
p2638
g0
(g2168
g2
Ntp2639
Rp2640
(dp2641
g6
g7
sg8
I01
sg9
g4
sg10
Nsg1961
g0
(g1962
g2
Ntp2642
Rp2643
(dp2644
g1966
(lp2645
g1968
asg1969
Nsg1970
g1971
sg1972
g1971
sg1973
F8.0
sg1974
I400
sg1975
g1971
sbsg42
Nsg17
g18
sg1978
Nsg20
I01
sg23
Nsg75
I0
sg76
I1
sg24
Nsg25
Nsg11
Nsg28
I00
sg29
I00
sg30
(dp2646
sg1982
Nsg32
I00
sg1878
Nsg88
Nsg1877
Nsg1986
Nsg33
Nsg96
Nsg86
I01
sg1989
Vtop
p2647
sg1991
V
p2648
sg1993
Nsg103
g0
(g104
g105
((lp2649
(lp2650
tp2651
tp2652
Rp2653
sg111
I0
sg1999
Nsg112
I01
sg114
Nsg2000
F1.2
sg115
g805
sg2002
I00
sg2003
I00
sg43
Nsg2004
V0.
p2654
sg2006
Vright
p2655
sg34
Nsbsg24
Nsg25
Nsg11
NsS'label'
p2656
g0
(g2168
g2
Ntp2657
Rp2658
(dp2659
g6
g7
sg8
I01
sg9
g4
sg10
Nsg1961
g0
(g1962
g2
Ntp2660
Rp2661
(dp2662
g1966
(lp2663
g1968
asg1969
Nsg1970
g1971
sg1972
g1971
sg1973
F10.0
sg1974
I400
sg1975
g1971
sbsg42
Nsg17
g18
sg1978
Nsg20
I01
sg23
Nsg75
I0
sg76
F0.5
sg24
Nsg25
Nsg11
Nsg28
I00
sg29
I00
sg30
(dp2664
sg1982
Nsg32
I00
sg1878
Nsg88
Nsg1877
Nsg1986
Nsg33
Nsg96
Nsg86
I01
sg1989
Vtop
p2665
sg1991
V
p2666
sg1993
Nsg103
g0
(g104
g105
((lp2667
(lp2668
tp2669
tp2670
Rp2671
sg111
I0
sg1999
Nsg112
I01
sg114
Nsg2000
F1.2
sg115
g1023
sg2002
I00
sg2003
I00
sg43
Nsg2004
V0.
p2672
sg2006
Vcenter
p2673
sg34
Nsbsg28
I00
sS'isDefault_majfmt'
p2674
I00
sg29
I00
sg30
(dp2675
sS'units'
p2676
Nsg32
I00
sS'minor'
p2677
g0
(g2598
g2
Ntp2678
Rp2679
(dp2680
g2602
g0
(cmatplotlib.ticker
NullLocator
p2681
g2
Ntp2682
Rp2683
(dp2684
g2619
g2595
sbsg2621
g0
(cmatplotlib.ticker
NullFormatter
p2685
g2
Ntp2686
Rp2687
(dp2688
g2619
g2595
sbsbsg1878
g1937
sS'_major_tick_kw'
p2689
(dp2690
Vlabel1On
p2691
I01
sVgridOn
p2692
I00
sVlabel2On
p2693
I00
sVtick1On
p2694
I01
sVtick2On
p2695
I00
ssS'isDefault_minloc'
p2696
I01
sg88
g857
sg33
NsS'_gridOnMajor'
p2697
I00
sS'_lastNumMinorTicks'
p2698
I1
sS'labelpad'
p2699
F4.0
sS'majorTicks'
p2700
(lp2701
g0
(cmatplotlib.axis
XTick
p2702
g2
Ntp2703
Rp2704
(dp2705
g6
g7
sg40
F0.8
sg9
g4
sS'tick1On'
p2706
I01
sg8
I01
sg10
Nsg111
I0
sg42
NsS'_pad'
p2707
F3.5
sS'_labelcolor'
p2708
g2654
sS'gridOn'
p2709
I00
sg1973
F0.0
sg17
g18
sS'_tickdir'
p2710
Vout
p2711
sg2656
g0
(g2168
g2
Ntp2712
Rp2713
(dp2714
g6
g7
sg8
I01
sg9
g4
sg10
Nsg1961
g0
(g1962
g2
Ntp2715
Rp2716
(dp2717
g1966
(lp2718
g1968
asg1969
Nsg1970
g1971
sg1972
g1971
sg1973
F8.0
sg1974
I400
sg1975
g1971
sbsg42
Nsg17
g18
sg1978
Nsg20
I01
sg23
Nsg75
I0
sg76
I0
sg24
Nsg25
Nsg11
Nsg28
I00
sg29
I00
sg30
(dp2719
sg1982
Nsg32
I00
sg1878
Nsg88
Nsg1877
Nsg1986
Nsg33
Nsg96
Nsg86
I01
sg1989
Vtop
p2720
sg1991
VPSP
p2721
sg1993
Nsg103
g0
(g104
g105
((lp2722
(lp2723
tp2724
tp2725
Rp2726
sg111
I0
sg1999
Nsg112
I01
sg114
Nsg2000
F1.2
sg115
g1844
sg2002
I00
sg2003
I00
sg43
Nsg2004
g2654
sg2006
Vcenter
p2727
sg34
Nsbsg20
I01
sg23
NsS'label2On'
p2728
I00
sg24
Nsg25
Nsg11
NsS'tick2On'
p2729
I00
sg28
I00
sg29
I00
sg30
(dp2730
sS'_tickmarkers'
p2731
(I3
I2
tp2732
sg32
I00
sS'_zorder'
p2733
F2.01
sg1878
g1937
sS'label1On'
p2734
I01
sg88
g779
sg1877
NsS'label1'
p2735
g2713
sS'label2'
p2736
g0
(g2168
g2
Ntp2737
Rp2738
(dp2739
g6
g7
sg8
I01
sg9
g4
sg10
Nsg1961
g0
(g1962
g2
Ntp2740
Rp2741
(dp2742
g1966
(lp2743
g1968
asg1969
Nsg1970
g1971
sg1972
g1971
sg1973
F8.0
sg1974
I400
sg1975
g1971
sbsg42
Nsg17
g18
sg1978
Nsg20
I01
sg23
Nsg75
I1
sg76
I0
sg24
Nsg25
Nsg11
Nsg28
I00
sg29
I00
sg30
(dp2744
sg1982
Nsg32
I00
sg1878
Nsg88
Nsg1877
Nsg1986
Nsg33
Nsg96
Nsg86
I01
sg1989
Vbottom
p2745
sg1991
VPSP
p2746
sg1993
Nsg103
g0
(g104
g105
((lp2747
(lp2748
tp2749
tp2750
Rp2751
sg111
I0
sg1999
Nsg112
I01
sg114
Nsg2000
F1.2
sg115
g1862
sg2002
I00
sg2003
I00
sg43
Nsg2004
g2654
sg2006
g2727
sg34
Nsbsg96
NsS'_loc'
p2752
I0
sg86
I01
sg103
g0
(g104
g105
((lp2753
(lp2754
tp2755
tp2756
Rp2757
sS'_base_pad'
p2758
F3.5
sS'tick1line'
p2759
g0
(cmatplotlib.lines
Line2D
p2760
g2
Ntp2761
Rp2762
(dp2763
g6
g7
sS'_dashcapstyle'
p2764
Vbutt
p2765
sg2201
Nsg20
I01
sS'_x_filled'
p2766
NsS'ind_offset'
p2767
I0
sg75
Nsg76
Nsg24
Nsg11
Nsg29
I00
sg30
(dp2768
sg32
I00
sg1878
NsS'_markeredgewidth'
p2769
F0.8
sS'_dashSeq'
p2770
NsS'_markerfacecoloralt'
p2771
Vnone
p2772
sS'_markeredgecolor'
p2773
Vauto
p2774
sg96
Nsg86
I01
sS'_xorig'
p2775
(I0
tp2776
sg111
I0
sg112
I01
sS'_invalidy'
p2777
I01
sS'_invalidx'
p2778
I01
sg115
g184
sS'_us_dashSeq'
p2779
Nsg2258
F2.01
sg2004
g2654
sS'pickradius'
p2780
I5
sg9
g4
sS'verticalOffset'
p2781
Nsg10
Nsg42
Nsg17
g18
sS'_solidjoinstyle'
p2782
Vround
p2783
sg23
Nsg25
Nsg28
I00
sS'_markevery'
p2784
Nsg34
NsS'_transformed_path'
p2785
NsS'_marker'
p2786
g0
(cmatplotlib.markers
MarkerStyle
p2787
g2
Ntp2788
Rp2789
(dp2790
g2786
I3
sS'_alt_path'
p2791
NsS'_snap_threshold'
p2792
F1.0
sg115
g0
(g157
g2
Ntp2793
Rp2794
(dp2795
g49
I2
sg50
Nsg120
g132
(g133
(I0
tp2796
g135
tp2797
Rp2798
(I1
(I3
I3
tp2799
g59
I00
S'\x00\x00\x00\x00\x00\x00\xf0?\x00\x00\x00\x00\x00\x00\x00\x00\x00\x00\x00\x00\x00\x00\x00\x00\x00\x00\x00\x00\x00\x00\x00\x00\x00\x00\x00\x00\x00\x00\xf0\xbf\x00\x00\x00\x00\x00\x00\x00\x00\x00\x00\x00\x00\x00\x00\x00\x00\x00\x00\x00\x00\x00\x00\x00\x00\x00\x00\x00\x00\x00\x00\xf0?'
p2800
tp2801
bsg51
g7
sg52
(dp2802
sbsS'_filled'
p2803
I00
sS'_fillstyle'
p2804
Vfull
p2805
sS'_alt_transform'
p2806
Nsg1875
Vbutt
p2807
sg99
Vround
p2808
sS'_path'
p2809
g0
(g2219
g2
Ntp2810
Rp2811
(dp2812
g2223
I00
sg2224
Nsg2225
g132
(g133
(I0
tp2813
g135
tp2814
Rp2815
(I1
(I2
I2
tp2816
g59
I00
S'\x00\x00\x00\x00\x00\x00\x00\x80\x00\x00\x00\x00\x00\x00\x00\x00\x00\x00\x00\x00\x00\x00\x00\x80\x00\x00\x00\x00\x00\x00\xf0?'
p2817
tp2818
bsg2232
I00
sg2233
F0.1111111111111111
sg2234
I1
sg2235
I00
sbsbsS'_markerfacecolor'
p2819
Vauto
p2820
sg88
Nsg33
Nsg92
I01
sS'_xy'
p2821
Nsg101
VNone
p2822
sg103
g0
(g104
g105
((lp2823
(lp2824
tp2825
tp2826
Rp2827
sS'_subslice'
p2828
I00
sS'_drawstyle'
p2829
Vdefault
p2830
sS'_solidcapstyle'
p2831
g2783
sS'_us_dashOffset'
p2832
Nsg114
NsS'_dashjoinstyle'
p2833
g2783
sS'_markersize'
p2834
F0.0
sg8
I01
sS'_dashOffset'
p2835
Nsg43
Nsg1877
NsS'_yorig'
p2836
(I0
tp2837
sg87
F0.5
sg2809
Nsbsg112
I00
sS'gridline'
p2838
g0
(g2760
g2
Ntp2839
Rp2840
(dp2841
g6
g7
sg8
I01
sg2831
g2783
sg9
g4
sg2764
g2765
sg2201
Nsg10
Nsg42
Nsg17
g18
sg2782
g2783
sg20
I01
sg2766
Nsg23
Nsg75
g132
(g133
(I0
tp2842
g135
tp2843
Rp2844
(I1
(I2
tp2845
g59
I00
S'\x00\x00\x00\x00\x00\x00\x00\x00\x00\x00\x00\x00\x00\x00\xf0?'
p2846
tp2847
bsg76
g132
(g133
(I0
tp2848
g135
tp2849
Rp2850
(I1
(I2
tp2851
g59
I00
S'\x00\x00\x00\x00\x00\x00\x00\x00\x00\x00\x00\x00\x00\x00\x00\x00'
p2852
tp2853
bsg24
Nsg25
Nsg11
Nsg2775
(F0.0
F0.0
tp2854
sg28
I00
sg2784
Nsg29
I00
sg30
(dp2855
sg2781
Nsg32
I00
sg2828
I00
sg1878
Nsg2785
Nsg2769
F1.0
sg2819
g2820
sg2770
Nsg2004
V.8
p2856
sg2786
g0
(g2787
g2
Ntp2857
Rp2858
(dp2859
g2786
VNone
p2860
sg2791
Nsg2792
Nsg115
g0
(g45
g2
Ntp2861
Rp2862
(dp2863
g49
I1
sg50
Nsg51
g7
sg52
(dp2864
sbsg2803
I00
sg2804
g2805
sg2806
Nsg1875
g2807
sg99
g2808
sg2809
g0
(g2219
g2
Ntp2865
Rp2866
(dp2867
g2223
I00
sg2224
Nsg2225
g132
(g133
(I0
tp2868
g135
tp2869
Rp2870
(I1
(I0
I2
tp2871
g59
I00
g2252
tp2872
bsg2232
I00
sg2233
F0.1111111111111111
sg2234
I1
sg2235
I00
sbsbsg33
Nsg2771
g2772
sg92
I01
sg2773
g2774
sg96
Nsg2834
F0.0
sg86
I01
sg2821
g132
(g133
(I0
tp2873
g135
tp2874
Rp2875
(I1
(I2
I2
tp2876
g59
I00
S'\x00\x00\x00\x00\x00\x00\x00\x00\x00\x00\x00\x00\x00\x00\x00\x00\x00\x00\x00\x00\x00\x00\x00\x00\x00\x00\x00\x00\x00\x00\xf0?'
p2877
tp2878
bsg101
V-
p2879
sg103
g0
(g104
g105
((lp2880
(lp2881
tp2882
tp2883
Rp2884
sg111
I0
sg2829
g2830
sg2767
I0
sg2832
Nsg2780
I5
sg112
I01
sg114
F1.0
sg2833
g2783
sg2778
I00
sg115
g184
sg2835
Nsg2779
Nsg2777
I00
sg43
Nsg1877
Nsg2836
(I0
F1.0
tp2885
sg88
g1355
sg87
F0.8
sg34
Nsg2809
g0
(g2219
g2
Ntp2886
Rp2887
(dp2888
g2223
I00
sg2224
Nsg2225
g2875
sg2232
I00
sg2233
F0.1111111111111111
sg2234
I180
sg2235
I00
sbsbsg114
Nsg33
NsS'tick2line'
p2889
g0
(g2760
g2
Ntp2890
Rp2891
(dp2892
g6
g7
sg2764
g2765
sg2201
Nsg20
I01
sg2766
Nsg2767
I0
sg75
Nsg76
Nsg24
Nsg11
Nsg29
I00
sg30
(dp2893
sg32
I00
sg1878
Nsg2769
F0.8
sg2770
Nsg2771
g2772
sg2773
g2774
sg96
Nsg86
I01
sg2775
(I0
tp2894
sg111
I0
sg112
I01
sg2777
I01
sg2778
I01
sg115
g184
sg2779
Nsg2258
F2.01
sg2004
g2654
sg2780
I5
sg9
g4
sg2781
Nsg10
Nsg42
Nsg17
g18
sg2782
g2783
sg23
Nsg25
Nsg28
I00
sg2784
Nsg34
Nsg2785
Nsg2786
g0
(g2787
g2
Ntp2895
Rp2896
(dp2897
g2786
I2
sg2791
Nsg2792
F1.0
sg115
g0
(g157
g2
Ntp2898
Rp2899
(dp2900
g49
I2
sg50
Nsg120
g132
(g133
(I0
tp2901
g135
tp2902
Rp2903
(I1
(I3
I3
tp2904
g59
I00
S'\x00\x00\x00\x00\x00\x00\xf0?\x00\x00\x00\x00\x00\x00\x00\x00\x00\x00\x00\x00\x00\x00\x00\x00\x00\x00\x00\x00\x00\x00\x00\x00\x00\x00\x00\x00\x00\x00\xf0?\x00\x00\x00\x00\x00\x00\x00\x00\x00\x00\x00\x00\x00\x00\x00\x00\x00\x00\x00\x00\x00\x00\x00\x00\x00\x00\x00\x00\x00\x00\xf0?'
p2905
tp2906
bsg51
g7
sg52
(dp2907
sbsg2803
I00
sg2804
g2805
sg2806
Nsg1875
g2807
sg99
g2808
sg2809
g2811
sbsg2819
g2820
sg88
Nsg33
Nsg92
I01
sg2821
Nsg101
VNone
p2908
sg103
g0
(g104
g105
((lp2909
(lp2910
tp2911
tp2912
Rp2913
sg2828
I00
sg2829
g2830
sg2831
g2783
sg2832
Nsg114
Nsg2833
g2783
sg2834
F0.0
sg8
I01
sg2835
Nsg43
Nsg1877
Nsg2836
(I1
tp2914
sg87
F0.5
sg2809
Nsbsg115
NsS'_labelsize'
p2915
F8.0
sS'_name'
p2916
Vxtick
p2917
sg43
Nsg2004
g2654
sg34
Nsbag0
(g2702
g2
Ntp2918
Rp2919
(dp2920
g6
g7
sg40
F0.8
sg9
g4
sg2706
I01
sg8
I01
sg10
Nsg111
I0
sg42
Nsg2707
F3.5
sg2708
g2654
sg2709
I00
sg1973
F0.0
sg17
g18
sg2710
g2711
sg2656
g0
(g2168
g2
Ntp2921
Rp2922
(dp2923
g6
g7
sg8
I01
sg9
g4
sg10
Nsg1961
g0
(g1962
g2
Ntp2924
Rp2925
(dp2926
g1966
g2718
sg1969
Nsg1970
g1971
sg1972
g1971
sg1973
F8.0
sg1974
I400
sg1975
g1971
sbsg42
Nsg17
g18
sg1978
Nsg20
I01
sg23
Nsg75
I0
sg76
I0
sg24
Nsg25
Nsg11
Nsg28
I00
sg29
I00
sg30
(dp2927
sg1982
Nsg32
I00
sg1878
Nsg88
Nsg1877
Nsg1986
Nsg33
Nsg96
Nsg86
I01
sg1989
g2720
sg1991
VAP
p2928
sg1993
Nsg103
g0
(g104
g105
((lp2929
(lp2930
tp2931
tp2932
Rp2933
sg111
I0
sg1999
Nsg112
I01
sg114
Nsg2000
F1.2
sg115
g1844
sg2002
I00
sg2003
I00
sg43
Nsg2004
g2654
sg2006
g2727
sg34
Nsbsg20
I01
sg23
Nsg2728
I00
sg24
Nsg25
Nsg11
Nsg2729
I00
sg28
I00
sg29
I00
sg30
(dp2934
sg2731
(I3
I2
tp2935
sg32
I00
sg2733
F2.01
sg1878
g1937
sg2734
I01
sg88
g1145
sg1877
Nsg2735
g2922
sg2736
g0
(g2168
g2
Ntp2936
Rp2937
(dp2938
g6
g7
sg8
I01
sg9
g4
sg10
Nsg1961
g0
(g1962
g2
Ntp2939
Rp2940
(dp2941
g1966
g2743
sg1969
Nsg1970
g1971
sg1972
g1971
sg1973
F8.0
sg1974
I400
sg1975
g1971
sbsg42
Nsg17
g18
sg1978
Nsg20
I01
sg23
Nsg75
I1
sg76
I0
sg24
Nsg25
Nsg11
Nsg28
I00
sg29
I00
sg30
(dp2942
sg1982
Nsg32
I00
sg1878
Nsg88
Nsg1877
Nsg1986
Nsg33
Nsg96
Nsg86
I01
sg1989
g2745
sg1991
VAP
p2943
sg1993
Nsg103
g0
(g104
g105
((lp2944
(lp2945
tp2946
tp2947
Rp2948
sg111
I0
sg1999
Nsg112
I01
sg114
Nsg2000
F1.2
sg115
g1862
sg2002
I00
sg2003
I00
sg43
Nsg2004
g2654
sg2006
g2727
sg34
Nsbsg96
Nsg2752
I0
sg86
I01
sg103
g0
(g104
g105
((lp2949
(lp2950
tp2951
tp2952
Rp2953
sg2758
F3.5
sg2759
g0
(g2760
g2
Ntp2954
Rp2955
(dp2956
g6
g7
sg2764
g2765
sg2201
Nsg20
I01
sg2766
Nsg2767
I0
sg75
Nsg76
Nsg24
Nsg11
Nsg29
I00
sg30
(dp2957
sg32
I00
sg1878
Nsg2769
F0.8
sg2770
Nsg2771
g2772
sg2773
g2774
sg96
Nsg86
I01
sg2775
(I0
tp2958
sg111
I0
sg112
I01
sg2777
I01
sg2778
I01
sg115
g184
sg2779
Nsg2258
F2.01
sg2004
g2654
sg2780
I5
sg9
g4
sg2781
Nsg10
Nsg42
Nsg17
g18
sg2782
g2783
sg23
Nsg25
Nsg28
I00
sg2784
Nsg34
Nsg2785
Nsg2786
g0
(g2787
g2
Ntp2959
Rp2960
(dp2961
g2786
I3
sg2791
Nsg2792
F1.0
sg115
g0
(g157
g2
Ntp2962
Rp2963
(dp2964
g49
I2
sg50
Nsg120
g132
(g133
(I0
tp2965
g135
tp2966
Rp2967
(I1
(I3
I3
tp2968
g59
I00
S'\x00\x00\x00\x00\x00\x00\xf0?\x00\x00\x00\x00\x00\x00\x00\x00\x00\x00\x00\x00\x00\x00\x00\x00\x00\x00\x00\x00\x00\x00\x00\x00\x00\x00\x00\x00\x00\x00\xf0\xbf\x00\x00\x00\x00\x00\x00\x00\x00\x00\x00\x00\x00\x00\x00\x00\x00\x00\x00\x00\x00\x00\x00\x00\x00\x00\x00\x00\x00\x00\x00\xf0?'
p2969
tp2970
bsg51
g7
sg52
(dp2971
sbsg2803
I00
sg2804
g2805
sg2806
Nsg1875
g2807
sg99
g2808
sg2809
g2811
sbsg2819
g2820
sg88
Nsg33
Nsg92
I01
sg2821
Nsg101
g2822
sg103
g0
(g104
g105
((lp2972
(lp2973
tp2974
tp2975
Rp2976
sg2828
I00
sg2829
g2830
sg2831
g2783
sg2832
Nsg114
Nsg2833
g2783
sg2834
F0.0
sg8
I01
sg2835
Nsg43
Nsg1877
Nsg2836
g2837
sg87
F0.5
sg2809
Nsbsg112
I00
sg2838
g0
(g2760
g2
Ntp2977
Rp2978
(dp2979
g6
g7
sg8
I01
sg2831
g2783
sg9
g4
sg2764
g2765
sg2201
Nsg10
Nsg42
Nsg17
g18
sg2782
g2783
sg20
I01
sg2766
Nsg23
Nsg75
g132
(g133
(I0
tp2980
g135
tp2981
Rp2982
(I1
(I2
tp2983
g59
I00
S'\x00\x00\x00\x00\x00\x00\x00\x00\x00\x00\x00\x00\x00\x00\xf0?'
p2984
tp2985
bsg76
g132
(g133
(I0
tp2986
g135
tp2987
Rp2988
(I1
(I2
tp2989
g59
I00
S'\x00\x00\x00\x00\x00\x00\x00\x00\x00\x00\x00\x00\x00\x00\x00\x00'
p2990
tp2991
bsg24
Nsg25
Nsg11
Nsg2775
g2854
sg28
I00
sg2784
Nsg29
I00
sg30
(dp2992
sg2781
Nsg32
I00
sg2828
I00
sg1878
Nsg2785
Nsg2769
F1.0
sg2819
g2820
sg2770
Nsg2004
g2856
sg2786
g0
(g2787
g2
Ntp2993
Rp2994
(dp2995
g2786
g2860
sg2791
Nsg2792
Nsg115
g0
(g45
g2
Ntp2996
Rp2997
(dp2998
g49
I1
sg50
Nsg51
g7
sg52
(dp2999
sbsg2803
I00
sg2804
g2805
sg2806
Nsg1875
g2807
sg99
g2808
sg2809
g0
(g2219
g2
Ntp3000
Rp3001
(dp3002
g2223
I00
sg2224
Nsg2225
g132
(g133
(I0
tp3003
g135
tp3004
Rp3005
(I1
(I0
I2
tp3006
g59
I00
g2252
tp3007
bsg2232
I00
sg2233
F0.1111111111111111
sg2234
I1
sg2235
I00
sbsbsg33
Nsg2771
g2772
sg92
I01
sg2773
g2774
sg96
Nsg2834
F0.0
sg86
I01
sg2821
g132
(g133
(I0
tp3008
g135
tp3009
Rp3010
(I1
(I2
I2
tp3011
g59
I00
S'\x00\x00\x00\x00\x00\x00\x00\x00\x00\x00\x00\x00\x00\x00\x00\x00\x00\x00\x00\x00\x00\x00\x00\x00\x00\x00\x00\x00\x00\x00\xf0?'
p3012
tp3013
bsg101
g2879
sg103
g0
(g104
g105
((lp3014
(lp3015
tp3016
tp3017
Rp3018
sg111
I0
sg2829
g2830
sg2767
I0
sg2832
Nsg2780
I5
sg112
I01
sg114
F1.0
sg2833
g2783
sg2778
I00
sg115
g184
sg2835
Nsg2779
Nsg2777
I00
sg43
Nsg1877
Nsg2836
g2885
sg88
g1355
sg87
F0.8
sg34
Nsg2809
g0
(g2219
g2
Ntp3019
Rp3020
(dp3021
g2223
I00
sg2224
Nsg2225
g3010
sg2232
I00
sg2233
F0.1111111111111111
sg2234
I180
sg2235
I00
sbsbsg114
Nsg33
Nsg2889
g0
(g2760
g2
Ntp3022
Rp3023
(dp3024
g6
g7
sg2764
g2765
sg2201
Nsg20
I01
sg2766
Nsg2767
I0
sg75
Nsg76
Nsg24
Nsg11
Nsg29
I00
sg30
(dp3025
sg32
I00
sg1878
Nsg2769
F0.8
sg2770
Nsg2771
g2772
sg2773
g2774
sg96
Nsg86
I01
sg2775
(I0
tp3026
sg111
I0
sg112
I01
sg2777
I01
sg2778
I01
sg115
g184
sg2779
Nsg2258
F2.01
sg2004
g2654
sg2780
I5
sg9
g4
sg2781
Nsg10
Nsg42
Nsg17
g18
sg2782
g2783
sg23
Nsg25
Nsg28
I00
sg2784
Nsg34
Nsg2785
Nsg2786
g0
(g2787
g2
Ntp3027
Rp3028
(dp3029
g2786
I2
sg2791
Nsg2792
F1.0
sg115
g0
(g157
g2
Ntp3030
Rp3031
(dp3032
g49
I2
sg50
Nsg120
g132
(g133
(I0
tp3033
g135
tp3034
Rp3035
(I1
(I3
I3
tp3036
g59
I00
S'\x00\x00\x00\x00\x00\x00\xf0?\x00\x00\x00\x00\x00\x00\x00\x00\x00\x00\x00\x00\x00\x00\x00\x00\x00\x00\x00\x00\x00\x00\x00\x00\x00\x00\x00\x00\x00\x00\xf0?\x00\x00\x00\x00\x00\x00\x00\x00\x00\x00\x00\x00\x00\x00\x00\x00\x00\x00\x00\x00\x00\x00\x00\x00\x00\x00\x00\x00\x00\x00\xf0?'
p3037
tp3038
bsg51
g7
sg52
(dp3039
sbsg2803
I00
sg2804
g2805
sg2806
Nsg1875
g2807
sg99
g2808
sg2809
g2811
sbsg2819
g2820
sg88
Nsg33
Nsg92
I01
sg2821
Nsg101
g2908
sg103
g0
(g104
g105
((lp3040
(lp3041
tp3042
tp3043
Rp3044
sg2828
I00
sg2829
g2830
sg2831
g2783
sg2832
Nsg114
Nsg2833
g2783
sg2834
F0.0
sg8
I01
sg2835
Nsg43
Nsg1877
Nsg2836
g2914
sg87
F0.5
sg2809
Nsbsg115
Nsg2915
F8.0
sg2916
g2917
sg43
Nsg2004
g2654
sg34
NsbasS'isDefault_majloc'
p3045
I00
sg1885
g0
(g1886
g2
Ntp3046
Rp3047
I01
bsg96
Nsg86
I01
sS'_autolabelpos'
p3048
I01
sg103
g0
(g104
g105
((lp3049
(lp3050
tp3051
tp3052
Rp3053
sg111
I0
sS'_lastNumMajorTicks'
p3054
I2
sS'converter'
p3055
Nsg112
I00
sg114
NsS'offset_text_position'
p3056
Vbottom
p3057
sg115
NsS'label_position'
p3058
Vbottom
p3059
sg43
Nsg1877
Nsg2780
I15
sS'minorTicks'
p3060
(lp3061
g0
(g2702
g2
Ntp3062
Rp3063
(dp3064
g6
g7
sg40
F0.6
sg9
g4
sg2706
I01
sg8
I01
sg10
Nsg111
I0
sg42
Nsg2707
F3.4
sg2708
g2654
sg2709
I00
sg1973
F0.0
sg17
g18
sg2710
g2711
sg2656
g0
(g2168
g2
Ntp3065
Rp3066
(dp3067
g6
g7
sg8
I01
sg9
g4
sg10
Nsg1961
g0
(g1962
g2
Ntp3068
Rp3069
(dp3070
g1966
(lp3071
g1968
asg1969
Nsg1970
g1971
sg1972
g1971
sg1973
F8.0
sg1974
I400
sg1975
g1971
sbsg42
Nsg17
g18
sg1978
Nsg20
I01
sg23
Nsg75
I0
sg76
I0
sg24
Nsg25
Nsg11
Nsg28
I00
sg29
I00
sg30
(dp3072
sg1982
Nsg32
I00
sg1878
Nsg88
Nsg1877
Nsg1986
Nsg33
Nsg96
Nsg86
I01
sg1989
g2720
sg1991
V
p3073
sg1993
Nsg103
g0
(g104
g105
((lp3074
(lp3075
tp3076
tp3077
Rp3078
sg111
I0
sg1999
Nsg112
I01
sg114
Nsg2000
F1.2
sg115
g178
sg2002
I00
sg2003
I00
sg43
Nsg2004
g2654
sg2006
g2727
sg34
Nsbsg20
I01
sg23
Nsg2728
I00
sg24
Nsg25
Nsg11
Nsg2729
I00
sg28
I00
sg29
I00
sg30
(dp3079
sg2731
(I3
I2
tp3080
sg32
I00
sg2733
I2
sg1878
g1937
sg2734
I01
sg88
g263
sg1877
Nsg2735
g3066
sg2736
g0
(g2168
g2
Ntp3081
Rp3082
(dp3083
g6
g7
sg8
I01
sg9
g4
sg10
Nsg1961
g0
(g1962
g2
Ntp3084
Rp3085
(dp3086
g1966
(lp3087
g1968
asg1969
Nsg1970
g1971
sg1972
g1971
sg1973
F8.0
sg1974
I400
sg1975
g1971
sbsg42
Nsg17
g18
sg1978
Nsg20
I01
sg23
Nsg75
I1
sg76
I0
sg24
Nsg25
Nsg11
Nsg28
I00
sg29
I00
sg30
(dp3088
sg1982
Nsg32
I00
sg1878
Nsg88
Nsg1877
Nsg1986
Nsg33
Nsg96
Nsg86
I01
sg1989
g2745
sg1991
V
p3089
sg1993
Nsg103
g0
(g104
g105
((lp3090
(lp3091
tp3092
tp3093
Rp3094
sg111
I0
sg1999
Nsg112
I01
sg114
Nsg2000
F1.2
sg115
g1835
sg2002
I00
sg2003
I00
sg43
Nsg2004
g2654
sg2006
g2727
sg34
Nsbsg96
Nsg2752
I0
sg86
I01
sg103
g0
(g104
g105
((lp3095
(lp3096
tp3097
tp3098
Rp3099
sg2758
F3.4
sg2759
g0
(g2760
g2
Ntp3100
Rp3101
(dp3102
g6
g7
sg2764
g2765
sg2201
Nsg20
I01
sg2766
Nsg2767
I0
sg75
Nsg76
Nsg24
Nsg11
Nsg29
I00
sg30
(dp3103
sg32
I00
sg1878
Nsg2769
F0.6
sg2770
Nsg2771
g2772
sg2773
g2774
sg96
Nsg86
I01
sg2775
(I0
tp3104
sg111
I0
sg112
I01
sg2777
I01
sg2778
I01
sg115
g184
sg2779
Nsg2258
I2
sg2004
g2654
sg2780
I5
sg9
g4
sg2781
Nsg10
Nsg42
Nsg17
g18
sg2782
g2783
sg23
Nsg25
Nsg28
I00
sg2784
Nsg34
Nsg2785
Nsg2786
g0
(g2787
g2
Ntp3105
Rp3106
(dp3107
g2786
I3
sg2791
Nsg2792
F1.0
sg115
g0
(g157
g2
Ntp3108
Rp3109
(dp3110
g49
I2
sg50
Nsg120
g132
(g133
(I0
tp3111
g135
tp3112
Rp3113
(I1
(I3
I3
tp3114
g59
I00
S'\x00\x00\x00\x00\x00\x00\xf0?\x00\x00\x00\x00\x00\x00\x00\x00\x00\x00\x00\x00\x00\x00\x00\x00\x00\x00\x00\x00\x00\x00\x00\x00\x00\x00\x00\x00\x00\x00\xf0\xbf\x00\x00\x00\x00\x00\x00\x00\x00\x00\x00\x00\x00\x00\x00\x00\x00\x00\x00\x00\x00\x00\x00\x00\x00\x00\x00\x00\x00\x00\x00\xf0?'
p3115
tp3116
bsg51
g7
sg52
(dp3117
sbsg2803
I00
sg2804
g2805
sg2806
Nsg1875
g2807
sg99
g2808
sg2809
g2811
sbsg2819
g2820
sg88
Nsg33
Nsg92
I01
sg2821
Nsg101
g2822
sg103
g0
(g104
g105
((lp3118
(lp3119
tp3120
tp3121
Rp3122
sg2828
I00
sg2829
g2830
sg2831
g2783
sg2832
Nsg114
Nsg2833
g2783
sg2834
F0.0
sg8
I01
sg2835
Nsg43
Nsg1877
Nsg2836
g2837
sg87
F0.5
sg2809
Nsbsg112
I00
sg2838
g0
(g2760
g2
Ntp3123
Rp3124
(dp3125
g6
g7
sg8
I01
sg2831
g2783
sg9
g4
sg2764
g2765
sg2201
Nsg10
Nsg42
Nsg17
g18
sg2782
g2783
sg20
I01
sg2766
Nsg23
Nsg75
g132
(g133
(I0
tp3126
g135
tp3127
Rp3128
(I1
(I2
tp3129
g59
I00
S'\x00\x00\x00\x00\x00\x00\x00\x00\x00\x00\x00\x00\x00\x00\xf0?'
p3130
tp3131
bsg76
g132
(g133
(I0
tp3132
g135
tp3133
Rp3134
(I1
(I2
tp3135
g59
I00
S'\x00\x00\x00\x00\x00\x00\x00\x00\x00\x00\x00\x00\x00\x00\x00\x00'
p3136
tp3137
bsg24
Nsg25
Nsg11
Nsg2775
g2854
sg28
I00
sg2784
Nsg29
I00
sg30
(dp3138
sg2781
Nsg32
I00
sg2828
I00
sg1878
Nsg2785
Nsg2769
F1.0
sg2819
g2820
sg2770
Nsg2004
g2856
sg2786
g0
(g2787
g2
Ntp3139
Rp3140
(dp3141
g2786
g2860
sg2791
Nsg2792
Nsg115
g0
(g45
g2
Ntp3142
Rp3143
(dp3144
g49
I1
sg50
Nsg51
g7
sg52
(dp3145
sbsg2803
I00
sg2804
g2805
sg2806
Nsg1875
g2807
sg99
g2808
sg2809
g0
(g2219
g2
Ntp3146
Rp3147
(dp3148
g2223
I00
sg2224
Nsg2225
g132
(g133
(I0
tp3149
g135
tp3150
Rp3151
(I1
(I0
I2
tp3152
g59
I00
g2252
tp3153
bsg2232
I00
sg2233
F0.1111111111111111
sg2234
I1
sg2235
I00
sbsbsg33
Nsg2771
g2772
sg92
I01
sg2773
g2774
sg96
Nsg2834
F0.0
sg86
I01
sg2821
g132
(g133
(I0
tp3154
g135
tp3155
Rp3156
(I1
(I2
I2
tp3157
g59
I00
S'\x00\x00\x00\x00\x00\x00\x00\x00\x00\x00\x00\x00\x00\x00\x00\x00\x00\x00\x00\x00\x00\x00\x00\x00\x00\x00\x00\x00\x00\x00\xf0?'
p3158
tp3159
bsg101
g2879
sg103
g0
(g104
g105
((lp3160
(lp3161
tp3162
tp3163
Rp3164
sg111
I0
sg2829
g2830
sg2767
I0
sg2832
Nsg2780
I5
sg112
I01
sg114
F1.0
sg2833
g2783
sg2778
I00
sg115
g184
sg2835
Nsg2779
Nsg2777
I00
sg43
Nsg1877
Nsg2836
g2885
sg88
g1721
sg87
F0.8
sg34
Nsg2809
g0
(g2219
g2
Ntp3165
Rp3166
(dp3167
g2223
I00
sg2224
Nsg2225
g3156
sg2232
I00
sg2233
F0.1111111111111111
sg2234
I180
sg2235
I00
sbsbsg114
Nsg33
Nsg2889
g0
(g2760
g2
Ntp3168
Rp3169
(dp3170
g6
g7
sg2764
g2765
sg2201
Nsg20
I01
sg2766
Nsg2767
I0
sg75
Nsg76
Nsg24
Nsg11
Nsg29
I00
sg30
(dp3171
sg32
I00
sg1878
Nsg2769
F0.6
sg2770
Nsg2771
g2772
sg2773
g2774
sg96
Nsg86
I01
sg2775
(I0
tp3172
sg111
I0
sg112
I01
sg2777
I01
sg2778
I01
sg115
g184
sg2779
Nsg2258
I2
sg2004
g2654
sg2780
I5
sg9
g4
sg2781
Nsg10
Nsg42
Nsg17
g18
sg2782
g2783
sg23
Nsg25
Nsg28
I00
sg2784
Nsg34
Nsg2785
Nsg2786
g0
(g2787
g2
Ntp3173
Rp3174
(dp3175
g2786
I2
sg2791
Nsg2792
F1.0
sg115
g0
(g157
g2
Ntp3176
Rp3177
(dp3178
g49
I2
sg50
Nsg120
g132
(g133
(I0
tp3179
g135
tp3180
Rp3181
(I1
(I3
I3
tp3182
g59
I00
S'\x00\x00\x00\x00\x00\x00\xf0?\x00\x00\x00\x00\x00\x00\x00\x00\x00\x00\x00\x00\x00\x00\x00\x00\x00\x00\x00\x00\x00\x00\x00\x00\x00\x00\x00\x00\x00\x00\xf0?\x00\x00\x00\x00\x00\x00\x00\x00\x00\x00\x00\x00\x00\x00\x00\x00\x00\x00\x00\x00\x00\x00\x00\x00\x00\x00\x00\x00\x00\x00\xf0?'
p3183
tp3184
bsg51
g7
sg52
(dp3185
sbsg2803
I00
sg2804
g2805
sg2806
Nsg1875
g2807
sg99
g2808
sg2809
g2811
sbsg2819
g2820
sg88
Nsg33
Nsg92
I01
sg2821
Nsg101
g2908
sg103
g0
(g104
g105
((lp3186
(lp3187
tp3188
tp3189
Rp3190
sg2828
I00
sg2829
g2830
sg2831
g2783
sg2832
Nsg114
Nsg2833
g2783
sg2834
F0.0
sg8
I01
sg2835
Nsg43
Nsg1877
Nsg2836
g2914
sg87
F0.5
sg2809
Nsbsg115
Nsg2915
F8.0
sg2916
g2917
sg43
Nsg2004
g2654
sg34
Nsbag0
(g2702
g2
Ntp3191
Rp3192
(dp3193
g6
g7
sg40
F0.6
sg9
g4
sg2706
I01
sg8
I01
sg10
Nsg111
I0
sg42
Nsg2707
F3.4
sg2708
g2654
sg2709
I00
sg1973
F0.0
sg17
g18
sg2710
g2711
sg2656
g0
(g2168
g2
Ntp3194
Rp3195
(dp3196
g6
g7
sg8
I01
sg9
g4
sg10
Nsg1961
g0
(g1962
g2
Ntp3197
Rp3198
(dp3199
g1966
(lp3200
g1968
asg1969
Nsg1970
g1971
sg1972
g1971
sg1973
F8.0
sg1974
I400
sg1975
g1971
sbsg42
Nsg17
g18
sg1978
Nsg20
I01
sg23
Nsg75
I0
sg76
I0
sg24
Nsg25
Nsg11
Nsg28
I00
sg29
I00
sg30
(dp3201
sg1982
Nsg32
I00
sg1878
Nsg88
Nsg1877
Nsg1986
Nsg33
Nsg96
Nsg86
I01
sg1989
g2720
sg1991
V
p3202
sg1993
Nsg103
g0
(g104
g105
((lp3203
(lp3204
tp3205
tp3206
Rp3207
sg111
I0
sg1999
Nsg112
I01
sg114
Nsg2000
F1.2
sg115
g1853
sg2002
I00
sg2003
I00
sg43
Nsg2004
g2654
sg2006
g2727
sg34
Nsbsg20
I01
sg23
Nsg2728
I00
sg24
Nsg25
Nsg11
Nsg2729
I00
sg28
I00
sg29
I00
sg30
(dp3208
sg2731
(I3
I2
tp3209
sg32
I00
sg2733
I2
sg1878
g1937
sg2734
I01
sg88
g709
sg1877
Nsg2735
g3195
sg2736
g0
(g2168
g2
Ntp3210
Rp3211
(dp3212
g6
g7
sg8
I01
sg9
g4
sg10
Nsg1961
g0
(g1962
g2
Ntp3213
Rp3214
(dp3215
g1966
(lp3216
g1968
asg1969
Nsg1970
g1971
sg1972
g1971
sg1973
F8.0
sg1974
I400
sg1975
g1971
sbsg42
Nsg17
g18
sg1978
Nsg20
I01
sg23
Nsg75
I1
sg76
I0
sg24
Nsg25
Nsg11
Nsg28
I00
sg29
I00
sg30
(dp3217
sg1982
Nsg32
I00
sg1878
Nsg88
Nsg1877
Nsg1986
Nsg33
Nsg96
Nsg86
I01
sg1989
g2745
sg1991
V
p3218
sg1993
Nsg103
g0
(g104
g105
((lp3219
(lp3220
tp3221
tp3222
Rp3223
sg111
I0
sg1999
Nsg112
I01
sg114
Nsg2000
F1.2
sg115
g1826
sg2002
I00
sg2003
I00
sg43
Nsg2004
g2654
sg2006
g2727
sg34
Nsbsg96
Nsg2752
I0
sg86
I01
sg103
g0
(g104
g105
((lp3224
(lp3225
tp3226
tp3227
Rp3228
sg2758
F3.4
sg2759
g0
(g2760
g2
Ntp3229
Rp3230
(dp3231
g6
g7
sg2764
g2765
sg2201
Nsg20
I01
sg2766
Nsg2767
I0
sg75
Nsg76
Nsg24
Nsg11
Nsg29
I00
sg30
(dp3232
sg32
I00
sg1878
Nsg2769
F0.6
sg2770
Nsg2771
g2772
sg2773
g2774
sg96
Nsg86
I01
sg2775
(I0
tp3233
sg111
I0
sg112
I01
sg2777
I01
sg2778
I01
sg115
g184
sg2779
Nsg2258
I2
sg2004
g2654
sg2780
I5
sg9
g4
sg2781
Nsg10
Nsg42
Nsg17
g18
sg2782
g2783
sg23
Nsg25
Nsg28
I00
sg2784
Nsg34
Nsg2785
Nsg2786
g0
(g2787
g2
Ntp3234
Rp3235
(dp3236
g2786
I3
sg2791
Nsg2792
F1.0
sg115
g0
(g157
g2
Ntp3237
Rp3238
(dp3239
g49
I2
sg50
Nsg120
g132
(g133
(I0
tp3240
g135
tp3241
Rp3242
(I1
(I3
I3
tp3243
g59
I00
S'\x00\x00\x00\x00\x00\x00\xf0?\x00\x00\x00\x00\x00\x00\x00\x00\x00\x00\x00\x00\x00\x00\x00\x00\x00\x00\x00\x00\x00\x00\x00\x00\x00\x00\x00\x00\x00\x00\xf0\xbf\x00\x00\x00\x00\x00\x00\x00\x00\x00\x00\x00\x00\x00\x00\x00\x00\x00\x00\x00\x00\x00\x00\x00\x00\x00\x00\x00\x00\x00\x00\xf0?'
p3244
tp3245
bsg51
g7
sg52
(dp3246
sbsg2803
I00
sg2804
g2805
sg2806
Nsg1875
g2807
sg99
g2808
sg2809
g2811
sbsg2819
g2820
sg88
Nsg33
Nsg92
I01
sg2821
Nsg101
g2822
sg103
g0
(g104
g105
((lp3247
(lp3248
tp3249
tp3250
Rp3251
sg2828
I00
sg2829
g2830
sg2831
g2783
sg2832
Nsg114
Nsg2833
g2783
sg2834
F0.0
sg8
I01
sg2835
Nsg43
Nsg1877
Nsg2836
g2837
sg87
F0.5
sg2809
Nsbsg112
I00
sg2838
g0
(g2760
g2
Ntp3252
Rp3253
(dp3254
g6
g7
sg8
I01
sg2831
g2783
sg9
g4
sg2764
g2765
sg2201
Nsg10
Nsg42
Nsg17
g18
sg2782
g2783
sg20
I01
sg2766
Nsg23
Nsg75
g132
(g133
(I0
tp3255
g135
tp3256
Rp3257
(I1
(I2
tp3258
g59
I00
S'\x00\x00\x00\x00\x00\x00\x00\x00\x00\x00\x00\x00\x00\x00\xf0?'
p3259
tp3260
bsg76
g132
(g133
(I0
tp3261
g135
tp3262
Rp3263
(I1
(I2
tp3264
g59
I00
S'\x00\x00\x00\x00\x00\x00\x00\x00\x00\x00\x00\x00\x00\x00\x00\x00'
p3265
tp3266
bsg24
Nsg25
Nsg11
Nsg2775
g2854
sg28
I00
sg2784
Nsg29
I00
sg30
(dp3267
sg2781
Nsg32
I00
sg2828
I00
sg1878
Nsg2785
Nsg2769
F1.0
sg2819
g2820
sg2770
Nsg2004
g2856
sg2786
g0
(g2787
g2
Ntp3268
Rp3269
(dp3270
g2786
g2860
sg2791
Nsg2792
Nsg115
g0
(g45
g2
Ntp3271
Rp3272
(dp3273
g49
I1
sg50
Nsg51
g7
sg52
(dp3274
sbsg2803
I00
sg2804
g2805
sg2806
Nsg1875
g2807
sg99
g2808
sg2809
g0
(g2219
g2
Ntp3275
Rp3276
(dp3277
g2223
I00
sg2224
Nsg2225
g132
(g133
(I0
tp3278
g135
tp3279
Rp3280
(I1
(I0
I2
tp3281
g59
I00
g2252
tp3282
bsg2232
I00
sg2233
F0.1111111111111111
sg2234
I1
sg2235
I00
sbsbsg33
Nsg2771
g2772
sg92
I01
sg2773
g2774
sg96
Nsg2834
F0.0
sg86
I01
sg2821
g132
(g133
(I0
tp3283
g135
tp3284
Rp3285
(I1
(I2
I2
tp3286
g59
I00
S'\x00\x00\x00\x00\x00\x00\x00\x00\x00\x00\x00\x00\x00\x00\x00\x00\x00\x00\x00\x00\x00\x00\x00\x00\x00\x00\x00\x00\x00\x00\xf0?'
p3287
tp3288
bsg101
g2879
sg103
g0
(g104
g105
((lp3289
(lp3290
tp3291
tp3292
Rp3293
sg111
I0
sg2829
g2830
sg2767
I0
sg2832
Nsg2780
I5
sg112
I01
sg114
F1.0
sg2833
g2783
sg2778
I00
sg115
g184
sg2835
Nsg2779
Nsg2777
I00
sg43
Nsg1877
Nsg2836
g2885
sg88
g1075
sg87
F0.8
sg34
Nsg2809
g0
(g2219
g2
Ntp3294
Rp3295
(dp3296
g2223
I00
sg2224
Nsg2225
g3285
sg2232
I00
sg2233
F0.1111111111111111
sg2234
I180
sg2235
I00
sbsbsg114
Nsg33
Nsg2889
g0
(g2760
g2
Ntp3297
Rp3298
(dp3299
g6
g7
sg2764
g2765
sg2201
Nsg20
I01
sg2766
Nsg2767
I0
sg75
Nsg76
Nsg24
Nsg11
Nsg29
I00
sg30
(dp3300
sg32
I00
sg1878
Nsg2769
F0.6
sg2770
Nsg2771
g2772
sg2773
g2774
sg96
Nsg86
I01
sg2775
(I0
tp3301
sg111
I0
sg112
I01
sg2777
I01
sg2778
I01
sg115
g184
sg2779
Nsg2258
I2
sg2004
g2654
sg2780
I5
sg9
g4
sg2781
Nsg10
Nsg42
Nsg17
g18
sg2782
g2783
sg23
Nsg25
Nsg28
I00
sg2784
Nsg34
Nsg2785
Nsg2786
g0
(g2787
g2
Ntp3302
Rp3303
(dp3304
g2786
I2
sg2791
Nsg2792
F1.0
sg115
g0
(g157
g2
Ntp3305
Rp3306
(dp3307
g49
I2
sg50
Nsg120
g132
(g133
(I0
tp3308
g135
tp3309
Rp3310
(I1
(I3
I3
tp3311
g59
I00
S'\x00\x00\x00\x00\x00\x00\xf0?\x00\x00\x00\x00\x00\x00\x00\x00\x00\x00\x00\x00\x00\x00\x00\x00\x00\x00\x00\x00\x00\x00\x00\x00\x00\x00\x00\x00\x00\x00\xf0?\x00\x00\x00\x00\x00\x00\x00\x00\x00\x00\x00\x00\x00\x00\x00\x00\x00\x00\x00\x00\x00\x00\x00\x00\x00\x00\x00\x00\x00\x00\xf0?'
p3312
tp3313
bsg51
g7
sg52
(dp3314
sbsg2803
I00
sg2804
g2805
sg2806
Nsg1875
g2807
sg99
g2808
sg2809
g2811
sbsg2819
g2820
sg88
Nsg33
Nsg92
I01
sg2821
Nsg101
g2908
sg103
g0
(g104
g105
((lp3315
(lp3316
tp3317
tp3318
Rp3319
sg2828
I00
sg2829
g2830
sg2831
g2783
sg2832
Nsg114
Nsg2833
g2783
sg2834
F0.0
sg8
I01
sg2835
Nsg43
Nsg1877
Nsg2836
g2914
sg87
F0.5
sg2809
Nsbsg115
Nsg2915
F8.0
sg2916
g2917
sg43
Nsg2004
g2654
sg34
Nsbasg34
NsS'_minor_tick_kw'
p3320
(dp3321
g2691
I01
sg2693
I00
sg2694
I01
sg2695
I00
ssS'isDefault_minfmt'
p3322
I01
sbsS'_navigate_mode'
p3323
Nsg34
NsS'transAxes'
p3324
g187
sS'_connected'
p3325
(dp3326
sS'fmt_ydata'
p3327
NsS'dataLim'
p3328
g0
(g127
g2
Ntp3329
Rp3330
(dp3331
g49
I0
sg131
g132
(g133
(I0
tp3332
g135
tp3333
Rp3334
(I1
(I2
tp3335
g59
I00
S'\x00\x00\x00\x00\x00\x00\xd0?\x00\x00\x00\x00\x00@o@'
p3336
tp3337
bsg52
(dp3338
sg142
g132
(g133
(I0
tp3339
g135
tp3340
Rp3341
(I1
(I2
I2
tp3342
g59
I00
S'\x00\x00\x00\x00\x00\x00\xf0\x7f\x00\x00\x00\x00\x00\x00\xf0\x7f\x00\x00\x00\x00\x00\x00\xf0\xff\x00\x00\x00\x00\x00\x00\xf0\xff'
p3343
tp3344
bsg149
g132
(g133
(I0
tp3345
g135
tp3346
Rp3347
(I1
(I2
I2
tp3348
g59
I00
S'\xcd\xcc\xcc\xcc\xcc\xcc\xd4\xbf\x00\x00\x00\x00\x00\x00\x00\x00\x00\x00\x00\x00\x00\x00\xf4?\x00\x00\x00\x00@\x9a\xd5@'
p3349
tp3350
bsg156
I01
sg51
g7
sbsS'transData'
p3351
g1384
sg33
NsS'_sharey'
p3352
NsS'_sharex'
p3353
NsS'axesPatch'
p3354
g2537
sS'_ymargin'
p3355
F0.05
sS'_axes_locator'
p3356
Nsg103
g0
(g104
g105
((lp3357
(lp3358
tp3359
tp3360
Rp3361
sS'numCols'
p3362
I1
sg114
Nsg1889
NsS'yaxis'
p3363
g0
(cmatplotlib.axis
YAxis
p3364
g2
Ntp3365
Rp3366
(dp3367
g6
g7
sg2597
g0
(g2598
g2
Ntp3368
Rp3369
(dp3370
g2602
g0
(cmatplotlib.ticker
AutoLocator
p3371
g2
Ntp3372
Rp3373
(dp3374
S'_min_n_ticks'
p3375
I2
sS'_symmetric'
p3376
I00
sS'_nbins'
p3377
Vauto
p3378
sS'_steps'
p3379
g132
(g133
(I0
tp3380
g135
tp3381
Rp3382
(I1
(I5
tp3383
g59
I00
S'\x00\x00\x00\x00\x00\x00\xf0?\x00\x00\x00\x00\x00\x00\x00@\x00\x00\x00\x00\x00\x00\x04@\x00\x00\x00\x00\x00\x00\x14@\x00\x00\x00\x00\x00\x00$@'
p3384
tp3385
bsS'_prune'
p3386
NsS'_extended_steps'
p3387
g132
(g133
(I0
tp3388
g135
tp3389
Rp3390
(I1
(I10
tp3391
g59
I00
S'\x9a\x99\x99\x99\x99\x99\xb9?\x9a\x99\x99\x99\x99\x99\xc9?\x00\x00\x00\x00\x00\x00\xd0?\x00\x00\x00\x00\x00\x00\xe0?\x00\x00\x00\x00\x00\x00\xf0?\x00\x00\x00\x00\x00\x00\x00@\x00\x00\x00\x00\x00\x00\x04@\x00\x00\x00\x00\x00\x00\x14@\x00\x00\x00\x00\x00\x00$@\x00\x00\x00\x00\x00\x004@'
p3392
tp3393
bsS'_integer'
p3394
I00
sg2619
g3366
sbsg2621
g0
(cmatplotlib.ticker
ScalarFormatter
p3395
g2
Ntp3396
Rp3397
(dp3398
S'_powerlimits'
p3399
(I0
I0
tp3400
sS'orderOfMagnitude'
p3401
I0
sS'_useOffset'
p3402
I01
sS'_useLocale'
p3403
I00
sS'format'
p3404
g7
sS'_useMathText'
p3405
I01
sS'_offset_threshold'
p3406
I4
sS'offset'
p3407
I0
sg2002
I00
sS'_scientific'
p3408
I01
sg2619
g3366
sbsbsg2631
I00
sg2632
g0
(g2633
g2
Ntp3409
Rp3410
sg9
g4
sg8
I01
sg2636
I00
sg10
Nsg42
Nsg2637
I00
sg17
g18
sg20
I01
sg23
Nsg2638
g0
(g2168
g2
Ntp3411
Rp3412
(dp3413
g6
g7
sg8
I01
sg9
g4
sg10
Nsg1961
g0
(g1962
g2
Ntp3414
Rp3415
(dp3416
g1966
(lp3417
g1968
asg1969
Nsg1970
g1971
sg1972
g1971
sg1973
F8.0
sg1974
I400
sg1975
g1971
sbsg42
Nsg17
g18
sg1978
Nsg20
I01
sg23
Nsg75
F0.5
sg76
I0
sg24
Nsg25
Nsg11
Nsg28
I00
sg29
I00
sg30
(dp3418
sg1982
Nsg32
I00
sg1878
Nsg88
Nsg1877
Nsg1986
Nsg33
Nsg96
Nsg86
I01
sg1989
Vbaseline
p3419
sg1991
V
p3420
sg1993
Nsg103
g0
(g104
g105
((lp3421
(lp3422
tp3423
tp3424
Rp3425
sg111
I0
sg1999
Nsg112
I01
sg114
Nsg2000
F1.2
sg115
g587
sg2002
I00
sg2003
I00
sg43
Nsg2004
V0.
p3426
sg2006
Vleft
p3427
sg34
Nsbsg24
Nsg25
Nsg11
Nsg2656
g0
(g2168
g2
Ntp3428
Rp3429
(dp3430
g6
g7
sg8
I01
sg9
g4
sg10
Nsg1961
g0
(g1962
g2
Ntp3431
Rp3432
(dp3433
g1966
(lp3434
g1968
asg1969
Nsg1970
g1971
sg1972
g1971
sg1973
F10.0
sg1974
I400
sg1975
g1971
sbsg42
Nsg17
g18
sg1978
Nsg20
I01
sg23
Nsg75
F0.5
sg76
I0
sg24
Nsg25
Nsg11
Nsg28
I00
sg29
I00
sg30
(dp3435
sg1982
Nsg32
I00
sg1878
Nsg88
Nsg1877
Nsg1986
Vanchor
p3436
sg33
Nsg96
Nsg86
I01
sg1989
Vbottom
p3437
sg1991
VFrequency
p3438
sg1993
Nsg103
g0
(g104
g105
((lp3439
(lp3440
tp3441
tp3442
Rp3443
sg111
I0
sg1999
Vvertical
p3444
sg112
I01
sg114
Nsg2000
F1.2
sg115
g1747
sg2002
I00
sg2003
I00
sg43
Nsg2004
g2672
sg2006
Vcenter
p3445
sg34
Nsbsg28
I00
sg2674
I01
sg29
I00
sg30
(dp3446
sg2676
Nsg32
I00
sg2677
g0
(g2598
g2
Ntp3447
Rp3448
(dp3449
g2602
g0
(g2681
g2
Ntp3450
Rp3451
(dp3452
g2619
g3366
sbsg2621
g0
(g2685
g2
Ntp3453
Rp3454
(dp3455
g2619
g3366
sbsbsg1878
g1937
sg2689
(dp3456
g2691
I01
sg2692
I00
sg2693
I00
sg2694
I01
sg2695
I00
ssg2696
I01
sg88
g927
sg33
Nsg2697
I00
sg2698
I1
sg2699
F4.0
sg2700
(lp3457
g0
(cmatplotlib.axis
YTick
p3458
g2
Ntp3459
Rp3460
(dp3461
g6
g7
sg40
F0.8
sg9
g4
sg2706
I01
sg8
I01
sg10
Nsg111
I0
sg42
Nsg2707
F3.5
sg2708
g3426
sg2709
I00
sg1973
F0.0
sg17
g18
sg2710
Vout
p3462
sg2656
g0
(g2168
g2
Ntp3463
Rp3464
(dp3465
g6
g7
sg8
I01
sg9
g4
sg10
Nsg1961
g0
(g1962
g2
Ntp3466
Rp3467
(dp3468
g1966
(lp3469
g1968
asg1969
Nsg1970
g1971
sg1972
g1971
sg1973
F8.0
sg1974
I400
sg1975
g1971
sbsg42
Nsg17
g18
sg1978
Nsg20
I01
sg23
Nsg75
I0
sg76
I0
sg24
Nsg25
Nsg11
Nsg28
I00
sg29
I00
sg30
(dp3470
sg1982
Nsg32
I00
sg1878
Nsg88
Nsg1877
Nsg1986
Nsg33
Nsg96
Nsg86
I01
sg1989
Vcenter_baseline
p3471
sg1991
V
p3472
sg1993
Nsg103
g0
(g104
g105
((lp3473
(lp3474
tp3475
tp3476
Rp3477
sg111
I0
sg1999
Nsg112
I01
sg114
Nsg2000
F1.2
sg115
g1528
sg2002
I00
sg2003
I00
sg43
Nsg2004
g3426
sg2006
Vright
p3478
sg34
Nsbsg20
I01
sg23
Nsg2728
I00
sg24
Nsg25
Nsg11
Nsg2729
I00
sg28
I00
sg29
I00
sg30
(dp3479
sg2731
(I0
I1
tp3480
sg32
I00
sg2733
F2.01
sg1878
g1937
sg2734
I01
sg88
g560
sg1877
Nsg2735
g3464
sg2736
g0
(g2168
g2
Ntp3481
Rp3482
(dp3483
g6
g7
sg8
I01
sg9
g4
sg10
Nsg1961
g0
(g1962
g2
Ntp3484
Rp3485
(dp3486
g1966
(lp3487
g1968
asg1969
Nsg1970
g1971
sg1972
g1971
sg1973
F8.0
sg1974
I400
sg1975
g1971
sbsg42
Nsg17
g18
sg1978
Nsg20
I01
sg23
Nsg75
I0
sg76
I1
sg24
Nsg25
Nsg11
Nsg28
I00
sg29
I00
sg30
(dp3488
sg1982
Nsg32
I00
sg1878
Nsg88
Nsg1877
Nsg1986
Nsg33
Nsg96
Nsg86
I01
sg1989
g3471
sg1991
V
p3489
sg1993
Nsg103
g0
(g104
g105
((lp3490
(lp3491
tp3492
tp3493
Rp3494
sg111
I0
sg1999
Nsg112
I01
sg114
Nsg2000
F1.2
sg115
g1492
sg2002
I00
sg2003
I00
sg43
Nsg2004
g3426
sg2006
Vleft
p3495
sg34
Nsbsg96
Nsg2752
I0
sg86
I01
sg103
g0
(g104
g105
((lp3496
(lp3497
tp3498
tp3499
Rp3500
sg2758
F3.5
sg2759
g0
(g2760
g2
Ntp3501
Rp3502
(dp3503
g6
g7
sg2764
g2765
sg2201
Nsg20
I01
sg2766
Nsg2767
I0
sg75
Nsg76
Nsg24
Nsg11
Nsg29
I00
sg30
(dp3504
sg32
I00
sg1878
Nsg2769
F0.8
sg2770
Nsg2771
g2772
sg2773
g2774
sg96
Nsg86
I01
sg2775
(I0
tp3505
sg111
I0
sg112
I01
sg2777
I01
sg2778
I01
sg115
g1381
sg2779
Nsg2258
F2.01
sg2004
g3426
sg2780
I5
sg9
g4
sg2781
Nsg10
Nsg42
Nsg17
g18
sg2782
g2783
sg23
Nsg25
Nsg28
I00
sg2784
Nsg34
Nsg2785
Nsg2786
g0
(g2787
g2
Ntp3506
Rp3507
(dp3508
g2786
I0
sg2791
Nsg2792
F1.0
sg115
g0
(g157
g2
Ntp3509
Rp3510
(dp3511
g49
I2
sg50
Nsg120
g132
(g133
(I0
tp3512
g135
tp3513
Rp3514
(I1
(I3
I3
tp3515
g59
I00
S'\x00\x00\x00\x00\x00\x00\xf0\xbf\x00\x00\x00\x00\x00\x00\x00\x00\x00\x00\x00\x00\x00\x00\x00\x00\x00\x00\x00\x00\x00\x00\x00\x00\x00\x00\x00\x00\x00\x00\xf0?\x00\x00\x00\x00\x00\x00\x00\x00\x00\x00\x00\x00\x00\x00\x00\x00\x00\x00\x00\x00\x00\x00\x00\x00\x00\x00\x00\x00\x00\x00\xf0?'
p3516
tp3517
bsg51
g7
sg52
(dp3518
sbsg2803
I00
sg2804
g2805
sg2806
Nsg1875
g2807
sg99
g2808
sg2809
g0
(g2219
g2
Ntp3519
Rp3520
(dp3521
g2223
I00
sg2224
Nsg2225
g132
(g133
(I0
tp3522
g135
tp3523
Rp3524
(I1
(I2
I2
tp3525
g59
I00
S'\x00\x00\x00\x00\x00\x00\x00\x00\x00\x00\x00\x00\x00\x00\x00\x00\x00\x00\x00\x00\x00\x00\xf0?\x00\x00\x00\x00\x00\x00\x00\x00'
p3526
tp3527
bsg2232
I00
sg2233
F0.1111111111111111
sg2234
I1
sg2235
I00
sbsbsg2819
g2820
sg88
Nsg33
Nsg92
I01
sg2821
Nsg101
VNone
p3528
sg103
g0
(g104
g105
((lp3529
(lp3530
tp3531
tp3532
Rp3533
sg2828
I00
sg2829
g2830
sg2831
g2783
sg2832
Nsg114
Nsg2833
g2783
sg2834
F0.0
sg8
I01
sg2835
Nsg43
Nsg1877
Nsg2836
(I0
tp3534
sg87
F0.5
sg2809
Nsbsg112
I00
sg2838
g0
(g2760
g2
Ntp3535
Rp3536
(dp3537
g6
g7
sg8
I01
sg2831
g2783
sg9
g4
sg2764
g2765
sg2201
Nsg10
Nsg42
Nsg17
g18
sg2782
g2783
sg20
I01
sg2766
Nsg23
Nsg75
g132
(g133
(I0
tp3538
g135
tp3539
Rp3540
(I1
(I2
tp3541
g59
I00
S'\x00\x00\x00\x00\x00\x00\x00\x00\x00\x00\x00\x00\x00\x00\x00\x00'
p3542
tp3543
bsg76
g132
(g133
(I0
tp3544
g135
tp3545
Rp3546
(I1
(I2
tp3547
g59
I00
S'\x00\x00\x00\x00\x00\x00\x00\x00\x00\x00\x00\x00\x00\x00\xf0?'
p3548
tp3549
bsg24
Nsg25
Nsg11
Nsg2775
(I0
I1
tp3550
sg28
I00
sg2784
Nsg29
I00
sg30
(dp3551
sg2781
Nsg32
I00
sg2828
I00
sg1878
Nsg2785
Nsg2769
F1.0
sg2819
g2820
sg2770
Nsg2004
g2856
sg2786
g0
(g2787
g2
Ntp3552
Rp3553
(dp3554
g2786
g2860
sg2791
Nsg2792
Nsg115
g0
(g45
g2
Ntp3555
Rp3556
(dp3557
g49
I1
sg50
Nsg51
g7
sg52
(dp3558
sbsg2803
I00
sg2804
g2805
sg2806
Nsg1875
g2807
sg99
g2808
sg2809
g0
(g2219
g2
Ntp3559
Rp3560
(dp3561
g2223
I00
sg2224
Nsg2225
g132
(g133
(I0
tp3562
g135
tp3563
Rp3564
(I1
(I0
I2
tp3565
g59
I00
g2252
tp3566
bsg2232
I00
sg2233
F0.1111111111111111
sg2234
I1
sg2235
I00
sbsbsg33
Nsg2771
g2772
sg92
I01
sg2773
g2774
sg96
Nsg2834
F0.0
sg86
I01
sg2821
g132
(g133
(I0
tp3567
g135
tp3568
Rp3569
(I1
(I2
I2
tp3570
g59
I00
S'\x00\x00\x00\x00\x00\x00\x00\x00\x00\x00\x00\x00\x00\x00\x00\x00\x00\x00\x00\x00\x00\x00\xf0?\x00\x00\x00\x00\x00\x00\x00\x00'
p3571
tp3572
bsg101
g2879
sg103
g0
(g104
g105
((lp3573
(lp3574
tp3575
tp3576
Rp3577
sg111
I0
sg2829
g2830
sg2767
I0
sg2832
Nsg2780
I5
sg112
I01
sg114
F1.0
sg2833
g2783
sg2778
I00
sg115
g1381
sg2835
Nsg2779
Nsg2777
I00
sg43
Nsg1877
Nsg2836
(I0
I0
tp3578
sg88
g490
sg87
F0.8
sg34
Nsg2809
g0
(g2219
g2
Ntp3579
Rp3580
(dp3581
g2223
I00
sg2224
Nsg2225
g3569
sg2232
I00
sg2233
F0.1111111111111111
sg2234
I180
sg2235
I00
sbsbsg114
Nsg33
Nsg2889
g0
(g2760
g2
Ntp3582
Rp3583
(dp3584
g6
g7
sg2764
g2765
sg2201
Nsg20
I01
sg2766
Nsg2767
I0
sg75
Nsg76
Nsg24
Nsg11
Nsg29
I00
sg30
(dp3585
sg32
I00
sg1878
Nsg2769
F0.8
sg2770
Nsg2771
g2772
sg2773
g2774
sg96
Nsg86
I01
sg2775
(I1
tp3586
sg111
I0
sg112
I01
sg2777
I01
sg2778
I01
sg115
g1381
sg2779
Nsg2258
F2.01
sg2004
g3426
sg2780
I5
sg9
g4
sg2781
Nsg10
Nsg42
Nsg17
g18
sg2782
g2783
sg23
Nsg25
Nsg28
I00
sg2784
Nsg34
Nsg2785
Nsg2786
g0
(g2787
g2
Ntp3587
Rp3588
(dp3589
g2786
I1
sg2791
Nsg2792
F1.0
sg115
g0
(g157
g2
Ntp3590
Rp3591
(dp3592
g49
I2
sg50
Nsg120
g132
(g133
(I0
tp3593
g135
tp3594
Rp3595
(I1
(I3
I3
tp3596
g59
I00
S'\x00\x00\x00\x00\x00\x00\xf0?\x00\x00\x00\x00\x00\x00\x00\x00\x00\x00\x00\x00\x00\x00\x00\x00\x00\x00\x00\x00\x00\x00\x00\x00\x00\x00\x00\x00\x00\x00\xf0?\x00\x00\x00\x00\x00\x00\x00\x00\x00\x00\x00\x00\x00\x00\x00\x00\x00\x00\x00\x00\x00\x00\x00\x00\x00\x00\x00\x00\x00\x00\xf0?'
p3597
tp3598
bsg51
g7
sg52
(dp3599
sbsg2803
I00
sg2804
g2805
sg2806
Nsg1875
g2807
sg99
g2808
sg2809
g3520
sbsg2819
g2820
sg88
Nsg33
Nsg92
I01
sg2821
Nsg101
VNone
p3600
sg103
g0
(g104
g105
((lp3601
(lp3602
tp3603
tp3604
Rp3605
sg2828
I00
sg2829
g2830
sg2831
g2783
sg2832
Nsg114
Nsg2833
g2783
sg2834
F0.0
sg8
I01
sg2835
Nsg43
Nsg1877
Nsg2836
(I0
tp3606
sg87
F0.5
sg2809
Nsbsg115
Nsg2915
F8.0
sg2916
Vytick
p3607
sg43
Nsg2004
g3426
sg34
Nsbag0
(g3458
g2
Ntp3608
Rp3609
(dp3610
g6
g7
sg40
F0.8
sg9
g4
sg2706
I01
sg8
I01
sg10
Nsg111
I0
sg42
Nsg2707
F3.5
sg2708
g3426
sg2709
I00
sg1973
F0.0
sg17
g18
sg2710
g3462
sg2656
g0
(g2168
g2
Ntp3611
Rp3612
(dp3613
g6
g7
sg8
I01
sg9
g4
sg10
Nsg1961
g0
(g1962
g2
Ntp3614
Rp3615
(dp3616
g1966
(lp3617
g1968
asg1969
Nsg1970
g1971
sg1972
g1971
sg1973
F8.0
sg1974
I400
sg1975
g1971
sbsg42
Nsg17
g18
sg1978
Nsg20
I01
sg23
Nsg75
I0
sg76
I0
sg24
Nsg25
Nsg11
Nsg28
I00
sg29
I00
sg30
(dp3618
sg1982
Nsg32
I00
sg1878
Nsg88
Nsg1877
Nsg1986
Nsg33
Nsg96
Nsg86
I01
sg1989
g3471
sg1991
V
p3619
sg1993
Nsg103
g0
(g104
g105
((lp3620
(lp3621
tp3622
tp3623
Rp3624
sg111
I0
sg1999
Nsg112
I01
sg114
Nsg2000
F1.2
sg115
g1483
sg2002
I00
sg2003
I00
sg43
Nsg2004
g3426
sg2006
g3478
sg34
Nsbsg20
I01
sg23
Nsg2728
I00
sg24
Nsg25
Nsg11
Nsg2729
I00
sg28
I00
sg29
I00
sg30
(dp3625
sg2731
(I0
I1
tp3626
sg32
I00
sg2733
F2.01
sg1878
g1937
sg2734
I01
sg88
g1581
sg1877
Nsg2735
g3612
sg2736
g0
(g2168
g2
Ntp3627
Rp3628
(dp3629
g6
g7
sg8
I01
sg9
g4
sg10
Nsg1961
g0
(g1962
g2
Ntp3630
Rp3631
(dp3632
g1966
(lp3633
g1968
asg1969
Nsg1970
g1971
sg1972
g1971
sg1973
F8.0
sg1974
I400
sg1975
g1971
sbsg42
Nsg17
g18
sg1978
Nsg20
I01
sg23
Nsg75
I0
sg76
I1
sg24
Nsg25
Nsg11
Nsg28
I00
sg29
I00
sg30
(dp3634
sg1982
Nsg32
I00
sg1878
Nsg88
Nsg1877
Nsg1986
Nsg33
Nsg96
Nsg86
I01
sg1989
g3471
sg1991
V
p3635
sg1993
Nsg103
g0
(g104
g105
((lp3636
(lp3637
tp3638
tp3639
Rp3640
sg111
I0
sg1999
Nsg112
I01
sg114
Nsg2000
F1.2
sg115
g1510
sg2002
I00
sg2003
I00
sg43
Nsg2004
g3426
sg2006
g3495
sg34
Nsbsg96
Nsg2752
I0
sg86
I01
sg103
g0
(g104
g105
((lp3641
(lp3642
tp3643
tp3644
Rp3645
sg2758
F3.5
sg2759
g0
(g2760
g2
Ntp3646
Rp3647
(dp3648
g6
g7
sg2764
g2765
sg2201
Nsg20
I01
sg2766
Nsg2767
I0
sg75
Nsg76
Nsg24
Nsg11
Nsg29
I00
sg30
(dp3649
sg32
I00
sg1878
Nsg2769
F0.8
sg2770
Nsg2771
g2772
sg2773
g2774
sg96
Nsg86
I01
sg2775
g3505
sg111
I0
sg112
I01
sg2777
I01
sg2778
I01
sg115
g1381
sg2779
Nsg2258
F2.01
sg2004
g3426
sg2780
I5
sg9
g4
sg2781
Nsg10
Nsg42
Nsg17
g18
sg2782
g2783
sg23
Nsg25
Nsg28
I00
sg2784
Nsg34
Nsg2785
Nsg2786
g0
(g2787
g2
Ntp3650
Rp3651
(dp3652
g2786
I0
sg2791
Nsg2792
F1.0
sg115
g0
(g157
g2
Ntp3653
Rp3654
(dp3655
g49
I2
sg50
Nsg120
g132
(g133
(I0
tp3656
g135
tp3657
Rp3658
(I1
(I3
I3
tp3659
g59
I00
S'\x00\x00\x00\x00\x00\x00\xf0\xbf\x00\x00\x00\x00\x00\x00\x00\x00\x00\x00\x00\x00\x00\x00\x00\x00\x00\x00\x00\x00\x00\x00\x00\x00\x00\x00\x00\x00\x00\x00\xf0?\x00\x00\x00\x00\x00\x00\x00\x00\x00\x00\x00\x00\x00\x00\x00\x00\x00\x00\x00\x00\x00\x00\x00\x00\x00\x00\x00\x00\x00\x00\xf0?'
p3660
tp3661
bsg51
g7
sg52
(dp3662
sbsg2803
I00
sg2804
g2805
sg2806
Nsg1875
g2807
sg99
g2808
sg2809
g3520
sbsg2819
g2820
sg88
Nsg33
Nsg92
I01
sg2821
Nsg101
g3528
sg103
g0
(g104
g105
((lp3663
(lp3664
tp3665
tp3666
Rp3667
sg2828
I00
sg2829
g2830
sg2831
g2783
sg2832
Nsg114
Nsg2833
g2783
sg2834
F0.0
sg8
I01
sg2835
Nsg43
Nsg1877
Nsg2836
(I0
tp3668
sg87
F0.5
sg2809
Nsbsg112
I00
sg2838
g0
(g2760
g2
Ntp3669
Rp3670
(dp3671
g6
g7
sg8
I01
sg2831
g2783
sg9
g4
sg2764
g2765
sg2201
Nsg10
Nsg42
Nsg17
g18
sg2782
g2783
sg20
I01
sg2766
Nsg23
Nsg75
g132
(g133
(I0
tp3672
g135
tp3673
Rp3674
(I1
(I2
tp3675
g59
I00
S'\x00\x00\x00\x00\x00\x00\x00\x00\x00\x00\x00\x00\x00\x00\x00\x00'
p3676
tp3677
bsg76
g132
(g133
(I0
tp3678
g135
tp3679
Rp3680
(I1
(I2
tp3681
g59
I00
S'\x00\x00\x00\x00\x00\x00\x00\x00\x00\x00\x00\x00\x00\x00\xf0?'
p3682
tp3683
bsg24
Nsg25
Nsg11
Nsg2775
g3550
sg28
I00
sg2784
Nsg29
I00
sg30
(dp3684
sg2781
Nsg32
I00
sg2828
I00
sg1878
Nsg2785
Nsg2769
F1.0
sg2819
g2820
sg2770
Nsg2004
g2856
sg2786
g0
(g2787
g2
Ntp3685
Rp3686
(dp3687
g2786
g2860
sg2791
Nsg2792
Nsg115
g0
(g45
g2
Ntp3688
Rp3689
(dp3690
g49
I1
sg50
Nsg51
g7
sg52
(dp3691
sbsg2803
I00
sg2804
g2805
sg2806
Nsg1875
g2807
sg99
g2808
sg2809
g0
(g2219
g2
Ntp3692
Rp3693
(dp3694
g2223
I00
sg2224
Nsg2225
g132
(g133
(I0
tp3695
g135
tp3696
Rp3697
(I1
(I0
I2
tp3698
g59
I00
g2252
tp3699
bsg2232
I00
sg2233
F0.1111111111111111
sg2234
I1
sg2235
I00
sbsbsg33
Nsg2771
g2772
sg92
I01
sg2773
g2774
sg96
Nsg2834
F0.0
sg86
I01
sg2821
g132
(g133
(I0
tp3700
g135
tp3701
Rp3702
(I1
(I2
I2
tp3703
g59
I00
S'\x00\x00\x00\x00\x00\x00\x00\x00\x00\x00\x00\x00\x00\x00\x00\x00\x00\x00\x00\x00\x00\x00\xf0?\x00\x00\x00\x00\x00\x00\x00\x00'
p3704
tp3705
bsg101
g2879
sg103
g0
(g104
g105
((lp3706
(lp3707
tp3708
tp3709
Rp3710
sg111
I0
sg2829
g2830
sg2767
I0
sg2832
Nsg2780
I5
sg112
I01
sg114
F1.0
sg2833
g2783
sg2778
I00
sg115
g1381
sg2835
Nsg2779
Nsg2777
I00
sg43
Nsg1877
Nsg2836
g3578
sg88
g1799
sg87
F0.8
sg34
Nsg2809
g0
(g2219
g2
Ntp3711
Rp3712
(dp3713
g2223
I00
sg2224
Nsg2225
g3702
sg2232
I00
sg2233
F0.1111111111111111
sg2234
I180
sg2235
I00
sbsbsg114
Nsg33
Nsg2889
g0
(g2760
g2
Ntp3714
Rp3715
(dp3716
g6
g7
sg2764
g2765
sg2201
Nsg20
I01
sg2766
Nsg2767
I0
sg75
Nsg76
Nsg24
Nsg11
Nsg29
I00
sg30
(dp3717
sg32
I00
sg1878
Nsg2769
F0.8
sg2770
Nsg2771
g2772
sg2773
g2774
sg96
Nsg86
I01
sg2775
g3586
sg111
I0
sg112
I01
sg2777
I01
sg2778
I01
sg115
g1381
sg2779
Nsg2258
F2.01
sg2004
g3426
sg2780
I5
sg9
g4
sg2781
Nsg10
Nsg42
Nsg17
g18
sg2782
g2783
sg23
Nsg25
Nsg28
I00
sg2784
Nsg34
Nsg2785
Nsg2786
g0
(g2787
g2
Ntp3718
Rp3719
(dp3720
g2786
I1
sg2791
Nsg2792
F1.0
sg115
g0
(g157
g2
Ntp3721
Rp3722
(dp3723
g49
I2
sg50
Nsg120
g132
(g133
(I0
tp3724
g135
tp3725
Rp3726
(I1
(I3
I3
tp3727
g59
I00
S'\x00\x00\x00\x00\x00\x00\xf0?\x00\x00\x00\x00\x00\x00\x00\x00\x00\x00\x00\x00\x00\x00\x00\x00\x00\x00\x00\x00\x00\x00\x00\x00\x00\x00\x00\x00\x00\x00\xf0?\x00\x00\x00\x00\x00\x00\x00\x00\x00\x00\x00\x00\x00\x00\x00\x00\x00\x00\x00\x00\x00\x00\x00\x00\x00\x00\x00\x00\x00\x00\xf0?'
p3728
tp3729
bsg51
g7
sg52
(dp3730
sbsg2803
I00
sg2804
g2805
sg2806
Nsg1875
g2807
sg99
g2808
sg2809
g3520
sbsg2819
g2820
sg88
Nsg33
Nsg92
I01
sg2821
Nsg101
g3600
sg103
g0
(g104
g105
((lp3731
(lp3732
tp3733
tp3734
Rp3735
sg2828
I00
sg2829
g2830
sg2831
g2783
sg2832
Nsg114
Nsg2833
g2783
sg2834
F0.0
sg8
I01
sg2835
Nsg43
Nsg1877
Nsg2836
(I0
tp3736
sg87
F0.5
sg2809
Nsbsg115
Nsg2915
F8.0
sg2916
g3607
sg43
Nsg2004
g3426
sg34
Nsbasg3045
I01
sg1885
g0
(g1886
g2
Ntp3737
Rp3738
I01
bsg96
Nsg86
I01
sg3048
I01
sg103
g0
(g104
g105
((lp3739
(lp3740
tp3741
tp3742
Rp3743
sg111
I0
sg3054
I1
sg3055
Nsg112
I00
sg114
Nsg3056
Vleft
p3744
sg115
Nsg3058
Vleft
p3745
sg43
Nsg1877
Nsg2780
I15
sg3060
(lp3746
g0
(g3458
g2
Ntp3747
Rp3748
(dp3749
g6
g7
sg40
F0.6
sg9
g4
sg2706
I01
sg8
I01
sg10
Nsg111
I0
sg42
Nsg2707
F3.4
sg2708
g3426
sg2709
I00
sg1973
F0.0
sg17
g18
sg2710
g3462
sg2656
g0
(g2168
g2
Ntp3750
Rp3751
(dp3752
g6
g7
sg8
I01
sg9
g4
sg10
Nsg1961
g0
(g1962
g2
Ntp3753
Rp3754
(dp3755
g1966
(lp3756
g1968
asg1969
Nsg1970
g1971
sg1972
g1971
sg1973
F8.0
sg1974
I400
sg1975
g1971
sbsg42
Nsg17
g18
sg1978
Nsg20
I01
sg23
Nsg75
I0
sg76
I0
sg24
Nsg25
Nsg11
Nsg28
I00
sg29
I00
sg30
(dp3757
sg1982
Nsg32
I00
sg1878
Nsg88
Nsg1877
Nsg1986
Nsg33
Nsg96
Nsg86
I01
sg1989
g3471
sg1991
V
p3758
sg1993
Nsg103
g0
(g104
g105
((lp3759
(lp3760
tp3761
tp3762
Rp3763
sg111
I0
sg1999
Nsg112
I01
sg114
Nsg2000
F1.2
sg115
g1465
sg2002
I00
sg2003
I00
sg43
Nsg2004
g3426
sg2006
g3478
sg34
Nsbsg20
I01
sg23
Nsg2728
I00
sg24
Nsg25
Nsg11
Nsg2729
I00
sg28
I00
sg29
I00
sg30
(dp3764
sg2731
(I0
I1
tp3765
sg32
I00
sg2733
I2
sg1878
g1937
sg2734
I01
sg88
g1285
sg1877
Nsg2735
g3751
sg2736
g0
(g2168
g2
Ntp3766
Rp3767
(dp3768
g6
g7
sg8
I01
sg9
g4
sg10
Nsg1961
g0
(g1962
g2
Ntp3769
Rp3770
(dp3771
g1966
(lp3772
g1968
asg1969
Nsg1970
g1971
sg1972
g1971
sg1973
F8.0
sg1974
I400
sg1975
g1971
sbsg42
Nsg17
g18
sg1978
Nsg20
I01
sg23
Nsg75
I0
sg76
I1
sg24
Nsg25
Nsg11
Nsg28
I00
sg29
I00
sg30
(dp3773
sg1982
Nsg32
I00
sg1878
Nsg88
Nsg1877
Nsg1986
Nsg33
Nsg96
Nsg86
I01
sg1989
g3471
sg1991
V
p3774
sg1993
Nsg103
g0
(g104
g105
((lp3775
(lp3776
tp3777
tp3778
Rp3779
sg111
I0
sg1999
Nsg112
I01
sg114
Nsg2000
F1.2
sg115
g1519
sg2002
I00
sg2003
I00
sg43
Nsg2004
g3426
sg2006
g3495
sg34
Nsbsg96
Nsg2752
I0
sg86
I01
sg103
g0
(g104
g105
((lp3780
(lp3781
tp3782
tp3783
Rp3784
sg2758
F3.4
sg2759
g0
(g2760
g2
Ntp3785
Rp3786
(dp3787
g6
g7
sg2764
g2765
sg2201
Nsg20
I01
sg2766
Nsg2767
I0
sg75
Nsg76
Nsg24
Nsg11
Nsg29
I00
sg30
(dp3788
sg32
I00
sg1878
Nsg2769
F0.6
sg2770
Nsg2771
g2772
sg2773
g2774
sg96
Nsg86
I01
sg2775
g3505
sg111
I0
sg112
I01
sg2777
I01
sg2778
I01
sg115
g1381
sg2779
Nsg2258
I2
sg2004
g3426
sg2780
I5
sg9
g4
sg2781
Nsg10
Nsg42
Nsg17
g18
sg2782
g2783
sg23
Nsg25
Nsg28
I00
sg2784
Nsg34
Nsg2785
Nsg2786
g0
(g2787
g2
Ntp3789
Rp3790
(dp3791
g2786
I0
sg2791
Nsg2792
F1.0
sg115
g0
(g157
g2
Ntp3792
Rp3793
(dp3794
g49
I2
sg50
Nsg120
g132
(g133
(I0
tp3795
g135
tp3796
Rp3797
(I1
(I3
I3
tp3798
g59
I00
S'\x00\x00\x00\x00\x00\x00\xf0\xbf\x00\x00\x00\x00\x00\x00\x00\x00\x00\x00\x00\x00\x00\x00\x00\x00\x00\x00\x00\x00\x00\x00\x00\x00\x00\x00\x00\x00\x00\x00\xf0?\x00\x00\x00\x00\x00\x00\x00\x00\x00\x00\x00\x00\x00\x00\x00\x00\x00\x00\x00\x00\x00\x00\x00\x00\x00\x00\x00\x00\x00\x00\xf0?'
p3799
tp3800
bsg51
g7
sg52
(dp3801
sbsg2803
I00
sg2804
g2805
sg2806
Nsg1875
g2807
sg99
g2808
sg2809
g3520
sbsg2819
g2820
sg88
Nsg33
Nsg92
I01
sg2821
Nsg101
g3528
sg103
g0
(g104
g105
((lp3802
(lp3803
tp3804
tp3805
Rp3806
sg2828
I00
sg2829
g2830
sg2831
g2783
sg2832
Nsg114
Nsg2833
g2783
sg2834
F0.0
sg8
I01
sg2835
Nsg43
Nsg1877
Nsg2836
(I0
tp3807
sg87
F0.5
sg2809
Nsbsg112
I00
sg2838
g0
(g2760
g2
Ntp3808
Rp3809
(dp3810
g6
g7
sg8
I01
sg2831
g2783
sg9
g4
sg2764
g2765
sg2201
Nsg10
Nsg42
Nsg17
g18
sg2782
g2783
sg20
I01
sg2766
Nsg23
Nsg75
g132
(g133
(I0
tp3811
g135
tp3812
Rp3813
(I1
(I2
tp3814
g59
I00
S'\x00\x00\x00\x00\x00\x00\x00\x00\x00\x00\x00\x00\x00\x00\x00\x00'
p3815
tp3816
bsg76
g132
(g133
(I0
tp3817
g135
tp3818
Rp3819
(I1
(I2
tp3820
g59
I00
S'\x00\x00\x00\x00\x00\x00\x00\x00\x00\x00\x00\x00\x00\x00\xf0?'
p3821
tp3822
bsg24
Nsg25
Nsg11
Nsg2775
g3550
sg28
I00
sg2784
Nsg29
I00
sg30
(dp3823
sg2781
Nsg32
I00
sg2828
I00
sg1878
Nsg2785
Nsg2769
F1.0
sg2819
g2820
sg2770
Nsg2004
g2856
sg2786
g0
(g2787
g2
Ntp3824
Rp3825
(dp3826
g2786
g2860
sg2791
Nsg2792
Nsg115
g0
(g45
g2
Ntp3827
Rp3828
(dp3829
g49
I1
sg50
Nsg51
g7
sg52
(dp3830
sbsg2803
I00
sg2804
g2805
sg2806
Nsg1875
g2807
sg99
g2808
sg2809
g0
(g2219
g2
Ntp3831
Rp3832
(dp3833
g2223
I00
sg2224
Nsg2225
g132
(g133
(I0
tp3834
g135
tp3835
Rp3836
(I1
(I0
I2
tp3837
g59
I00
g2252
tp3838
bsg2232
I00
sg2233
F0.1111111111111111
sg2234
I1
sg2235
I00
sbsbsg33
Nsg2771
g2772
sg92
I01
sg2773
g2774
sg96
Nsg2834
F0.0
sg86
I01
sg2821
g132
(g133
(I0
tp3839
g135
tp3840
Rp3841
(I1
(I2
I2
tp3842
g59
I00
S'\x00\x00\x00\x00\x00\x00\x00\x00\x00\x00\x00\x00\x00\x00\x00\x00\x00\x00\x00\x00\x00\x00\xf0?\x00\x00\x00\x00\x00\x00\x00\x00'
p3843
tp3844
bsg101
g2879
sg103
g0
(g104
g105
((lp3845
(lp3846
tp3847
tp3848
Rp3849
sg111
I0
sg2829
g2830
sg2767
I0
sg2832
Nsg2780
I5
sg112
I01
sg114
F1.0
sg2833
g2783
sg2778
I00
sg115
g1381
sg2835
Nsg2779
Nsg2777
I00
sg43
Nsg1877
Nsg2836
g3578
sg88
g997
sg87
F0.8
sg34
Nsg2809
g0
(g2219
g2
Ntp3850
Rp3851
(dp3852
g2223
I00
sg2224
Nsg2225
g3841
sg2232
I00
sg2233
F0.1111111111111111
sg2234
I180
sg2235
I00
sbsbsg114
Nsg33
Nsg2889
g0
(g2760
g2
Ntp3853
Rp3854
(dp3855
g6
g7
sg2764
g2765
sg2201
Nsg20
I01
sg2766
Nsg2767
I0
sg75
Nsg76
Nsg24
Nsg11
Nsg29
I00
sg30
(dp3856
sg32
I00
sg1878
Nsg2769
F0.6
sg2770
Nsg2771
g2772
sg2773
g2774
sg96
Nsg86
I01
sg2775
g3586
sg111
I0
sg112
I01
sg2777
I01
sg2778
I01
sg115
g1381
sg2779
Nsg2258
I2
sg2004
g3426
sg2780
I5
sg9
g4
sg2781
Nsg10
Nsg42
Nsg17
g18
sg2782
g2783
sg23
Nsg25
Nsg28
I00
sg2784
Nsg34
Nsg2785
Nsg2786
g0
(g2787
g2
Ntp3857
Rp3858
(dp3859
g2786
I1
sg2791
Nsg2792
F1.0
sg115
g0
(g157
g2
Ntp3860
Rp3861
(dp3862
g49
I2
sg50
Nsg120
g132
(g133
(I0
tp3863
g135
tp3864
Rp3865
(I1
(I3
I3
tp3866
g59
I00
S'\x00\x00\x00\x00\x00\x00\xf0?\x00\x00\x00\x00\x00\x00\x00\x00\x00\x00\x00\x00\x00\x00\x00\x00\x00\x00\x00\x00\x00\x00\x00\x00\x00\x00\x00\x00\x00\x00\xf0?\x00\x00\x00\x00\x00\x00\x00\x00\x00\x00\x00\x00\x00\x00\x00\x00\x00\x00\x00\x00\x00\x00\x00\x00\x00\x00\x00\x00\x00\x00\xf0?'
p3867
tp3868
bsg51
g7
sg52
(dp3869
sbsg2803
I00
sg2804
g2805
sg2806
Nsg1875
g2807
sg99
g2808
sg2809
g3520
sbsg2819
g2820
sg88
Nsg33
Nsg92
I01
sg2821
Nsg101
g3600
sg103
g0
(g104
g105
((lp3870
(lp3871
tp3872
tp3873
Rp3874
sg2828
I00
sg2829
g2830
sg2831
g2783
sg2832
Nsg114
Nsg2833
g2783
sg2834
F0.0
sg8
I01
sg2835
Nsg43
Nsg1877
Nsg2836
(I0
tp3875
sg87
F0.5
sg2809
Nsbsg115
Nsg2915
F8.0
sg2916
g3607
sg43
Nsg2004
g3426
sg34
Nsbag0
(g3458
g2
Ntp3876
Rp3877
(dp3878
g6
g7
sg40
F0.6
sg9
g4
sg2706
I01
sg8
I01
sg10
Nsg111
I0
sg42
Nsg2707
F3.4
sg2708
g3426
sg2709
I00
sg1973
F0.0
sg17
g18
sg2710
g3462
sg2656
g0
(g2168
g2
Ntp3879
Rp3880
(dp3881
g6
g7
sg8
I01
sg9
g4
sg10
Nsg1961
g0
(g1962
g2
Ntp3882
Rp3883
(dp3884
g1966
(lp3885
g1968
asg1969
Nsg1970
g1971
sg1972
g1971
sg1973
F8.0
sg1974
I400
sg1975
g1971
sbsg42
Nsg17
g18
sg1978
Nsg20
I01
sg23
Nsg75
I0
sg76
I0
sg24
Nsg25
Nsg11
Nsg28
I00
sg29
I00
sg30
(dp3886
sg1982
Nsg32
I00
sg1878
Nsg88
Nsg1877
Nsg1986
Nsg33
Nsg96
Nsg86
I01
sg1989
g3471
sg1991
V
p3887
sg1993
Nsg103
g0
(g104
g105
((lp3888
(lp3889
tp3890
tp3891
Rp3892
sg111
I0
sg1999
Nsg112
I01
sg114
Nsg2000
F1.2
sg115
g1501
sg2002
I00
sg2003
I00
sg43
Nsg2004
g3426
sg2006
g3478
sg34
Nsbsg20
I01
sg23
Nsg2728
I00
sg24
Nsg25
Nsg11
Nsg2729
I00
sg28
I00
sg29
I00
sg30
(dp3893
sg2731
(I0
I1
tp3894
sg32
I00
sg2733
I2
sg1878
g1937
sg2734
I01
sg88
g1215
sg1877
Nsg2735
g3880
sg2736
g0
(g2168
g2
Ntp3895
Rp3896
(dp3897
g6
g7
sg8
I01
sg9
g4
sg10
Nsg1961
g0
(g1962
g2
Ntp3898
Rp3899
(dp3900
g1966
(lp3901
g1968
asg1969
Nsg1970
g1971
sg1972
g1971
sg1973
F8.0
sg1974
I400
sg1975
g1971
sbsg42
Nsg17
g18
sg1978
Nsg20
I01
sg23
Nsg75
I0
sg76
I1
sg24
Nsg25
Nsg11
Nsg28
I00
sg29
I00
sg30
(dp3902
sg1982
Nsg32
I00
sg1878
Nsg88
Nsg1877
Nsg1986
Nsg33
Nsg96
Nsg86
I01
sg1989
g3471
sg1991
V
p3903
sg1993
Nsg103
g0
(g104
g105
((lp3904
(lp3905
tp3906
tp3907
Rp3908
sg111
I0
sg1999
Nsg112
I01
sg114
Nsg2000
F1.2
sg115
g1474
sg2002
I00
sg2003
I00
sg43
Nsg2004
g3426
sg2006
g3495
sg34
Nsbsg96
Nsg2752
I0
sg86
I01
sg103
g0
(g104
g105
((lp3909
(lp3910
tp3911
tp3912
Rp3913
sg2758
F3.4
sg2759
g0
(g2760
g2
Ntp3914
Rp3915
(dp3916
g6
g7
sg2764
g2765
sg2201
Nsg20
I01
sg2766
Nsg2767
I0
sg75
Nsg76
Nsg24
Nsg11
Nsg29
I00
sg30
(dp3917
sg32
I00
sg1878
Nsg2769
F0.6
sg2770
Nsg2771
g2772
sg2773
g2774
sg96
Nsg86
I01
sg2775
g3505
sg111
I0
sg112
I01
sg2777
I01
sg2778
I01
sg115
g1381
sg2779
Nsg2258
I2
sg2004
g3426
sg2780
I5
sg9
g4
sg2781
Nsg10
Nsg42
Nsg17
g18
sg2782
g2783
sg23
Nsg25
Nsg28
I00
sg2784
Nsg34
Nsg2785
Nsg2786
g0
(g2787
g2
Ntp3918
Rp3919
(dp3920
g2786
I0
sg2791
Nsg2792
F1.0
sg115
g0
(g157
g2
Ntp3921
Rp3922
(dp3923
g49
I2
sg50
Nsg120
g132
(g133
(I0
tp3924
g135
tp3925
Rp3926
(I1
(I3
I3
tp3927
g59
I00
S'\x00\x00\x00\x00\x00\x00\xf0\xbf\x00\x00\x00\x00\x00\x00\x00\x00\x00\x00\x00\x00\x00\x00\x00\x00\x00\x00\x00\x00\x00\x00\x00\x00\x00\x00\x00\x00\x00\x00\xf0?\x00\x00\x00\x00\x00\x00\x00\x00\x00\x00\x00\x00\x00\x00\x00\x00\x00\x00\x00\x00\x00\x00\x00\x00\x00\x00\x00\x00\x00\x00\xf0?'
p3928
tp3929
bsg51
g7
sg52
(dp3930
sbsg2803
I00
sg2804
g2805
sg2806
Nsg1875
g2807
sg99
g2808
sg2809
g3520
sbsg2819
g2820
sg88
Nsg33
Nsg92
I01
sg2821
Nsg101
g3528
sg103
g0
(g104
g105
((lp3931
(lp3932
tp3933
tp3934
Rp3935
sg2828
I00
sg2829
g2830
sg2831
g2783
sg2832
Nsg114
Nsg2833
g2783
sg2834
F0.0
sg8
I01
sg2835
Nsg43
Nsg1877
Nsg2836
(I0
tp3936
sg87
F0.5
sg2809
Nsbsg112
I00
sg2838
g0
(g2760
g2
Ntp3937
Rp3938
(dp3939
g6
g7
sg8
I01
sg2831
g2783
sg9
g4
sg2764
g2765
sg2201
Nsg10
Nsg42
Nsg17
g18
sg2782
g2783
sg20
I01
sg2766
Nsg23
Nsg75
g132
(g133
(I0
tp3940
g135
tp3941
Rp3942
(I1
(I2
tp3943
g59
I00
S'\x00\x00\x00\x00\x00\x00\x00\x00\x00\x00\x00\x00\x00\x00\x00\x00'
p3944
tp3945
bsg76
g132
(g133
(I0
tp3946
g135
tp3947
Rp3948
(I1
(I2
tp3949
g59
I00
S'\x00\x00\x00\x00\x00\x00\x00\x00\x00\x00\x00\x00\x00\x00\xf0?'
p3950
tp3951
bsg24
Nsg25
Nsg11
Nsg2775
g3550
sg28
I00
sg2784
Nsg29
I00
sg30
(dp3952
sg2781
Nsg32
I00
sg2828
I00
sg1878
Nsg2785
Nsg2769
F1.0
sg2819
g2820
sg2770
Nsg2004
g2856
sg2786
g0
(g2787
g2
Ntp3953
Rp3954
(dp3955
g2786
g2860
sg2791
Nsg2792
Nsg115
g0
(g45
g2
Ntp3956
Rp3957
(dp3958
g49
I1
sg50
Nsg51
g7
sg52
(dp3959
sbsg2803
I00
sg2804
g2805
sg2806
Nsg1875
g2807
sg99
g2808
sg2809
g0
(g2219
g2
Ntp3960
Rp3961
(dp3962
g2223
I00
sg2224
Nsg2225
g132
(g133
(I0
tp3963
g135
tp3964
Rp3965
(I1
(I0
I2
tp3966
g59
I00
g2252
tp3967
bsg2232
I00
sg2233
F0.1111111111111111
sg2234
I1
sg2235
I00
sbsbsg33
Nsg2771
g2772
sg92
I01
sg2773
g2774
sg96
Nsg2834
F0.0
sg86
I01
sg2821
g132
(g133
(I0
tp3968
g135
tp3969
Rp3970
(I1
(I2
I2
tp3971
g59
I00
S'\x00\x00\x00\x00\x00\x00\x00\x00\x00\x00\x00\x00\x00\x00\x00\x00\x00\x00\x00\x00\x00\x00\xf0?\x00\x00\x00\x00\x00\x00\x00\x00'
p3972
tp3973
bsg101
g2879
sg103
g0
(g104
g105
((lp3974
(lp3975
tp3976
tp3977
Rp3978
sg111
I0
sg2829
g2830
sg2767
I0
sg2832
Nsg2780
I5
sg112
I01
sg114
F1.0
sg2833
g2783
sg2778
I00
sg115
g1381
sg2835
Nsg2779
Nsg2777
I00
sg43
Nsg1877
Nsg2836
g3578
sg88
g333
sg87
F0.8
sg34
Nsg2809
g0
(g2219
g2
Ntp3979
Rp3980
(dp3981
g2223
I00
sg2224
Nsg2225
g3970
sg2232
I00
sg2233
F0.1111111111111111
sg2234
I180
sg2235
I00
sbsbsg114
Nsg33
Nsg2889
g0
(g2760
g2
Ntp3982
Rp3983
(dp3984
g6
g7
sg2764
g2765
sg2201
Nsg20
I01
sg2766
Nsg2767
I0
sg75
Nsg76
Nsg24
Nsg11
Nsg29
I00
sg30
(dp3985
sg32
I00
sg1878
Nsg2769
F0.6
sg2770
Nsg2771
g2772
sg2773
g2774
sg96
Nsg86
I01
sg2775
g3586
sg111
I0
sg112
I01
sg2777
I01
sg2778
I01
sg115
g1381
sg2779
Nsg2258
I2
sg2004
g3426
sg2780
I5
sg9
g4
sg2781
Nsg10
Nsg42
Nsg17
g18
sg2782
g2783
sg23
Nsg25
Nsg28
I00
sg2784
Nsg34
Nsg2785
Nsg2786
g0
(g2787
g2
Ntp3986
Rp3987
(dp3988
g2786
I1
sg2791
Nsg2792
F1.0
sg115
g0
(g157
g2
Ntp3989
Rp3990
(dp3991
g49
I2
sg50
Nsg120
g132
(g133
(I0
tp3992
g135
tp3993
Rp3994
(I1
(I3
I3
tp3995
g59
I00
S'\x00\x00\x00\x00\x00\x00\xf0?\x00\x00\x00\x00\x00\x00\x00\x00\x00\x00\x00\x00\x00\x00\x00\x00\x00\x00\x00\x00\x00\x00\x00\x00\x00\x00\x00\x00\x00\x00\xf0?\x00\x00\x00\x00\x00\x00\x00\x00\x00\x00\x00\x00\x00\x00\x00\x00\x00\x00\x00\x00\x00\x00\x00\x00\x00\x00\x00\x00\x00\x00\xf0?'
p3996
tp3997
bsg51
g7
sg52
(dp3998
sbsg2803
I00
sg2804
g2805
sg2806
Nsg1875
g2807
sg99
g2808
sg2809
g3520
sbsg2819
g2820
sg88
Nsg33
Nsg92
I01
sg2821
Nsg101
g3600
sg103
g0
(g104
g105
((lp3999
(lp4000
tp4001
tp4002
Rp4003
sg2828
I00
sg2829
g2830
sg2831
g2783
sg2832
Nsg114
Nsg2833
g2783
sg2834
F0.0
sg8
I01
sg2835
Nsg43
Nsg1877
Nsg2836
(I0
tp4004
sg87
F0.5
sg2809
Nsbsg115
Nsg2915
F8.0
sg2916
g3607
sg43
Nsg2004
g3426
sg34
Nsbasg34
Nsg3320
(dp4005
g2691
I01
sg2693
I00
sg2694
I01
sg2695
I00
ssg3322
I01
sbsS'_axisbelow'
p4006
I00
sg8
I01
sS'lines'
p4007
(lp4008
sS'_ycid'
p4009
I1
sS'spines'
p4010
ccollections
OrderedDict
p4011
((lp4012
(lp4013
Vleft
p4014
ag0
(cmatplotlib.spines
Spine
p4015
g2
Ntp4016
Rp4017
(dp4018
g6
g7
sg2637
I00
sg41
I01
sg9
g4
sS'_bounds'
p4019
Nsg8
I01
sg10
Nsg42
Nsg17
g18
sg43
Nsg20
I01
sg2619
g3366
sg44
g0
(g45
g2
Ntp4020
Rp4021
(dp4022
g49
I1
sg50
Nsg51
g7
sg52
(dp4023
sbsg54
(F0.0
F0.0
F0.0
F1.0
tp4024
sg23
Nsg24
Nsg77
V0.
p4025
sg11
Nsg28
I00
sg29
I00
sg30
(dp4026
sg1873
(NNtp4027
sg2563
(Voutward
p4028
F0.0
tp4029
sg32
I00
sg85
Nsg86
I01
sg87
F1.0
sS'_patch_type'
p4030
Vline
p4031
sg33
Nsg90
g4024
sg91
Nsg92
I01
sg93
Nsg94
Vnone
p4032
sg96
Nsg97
g2022
sg99
g100
sS'_patch_transform'
p4033
g0
(g45
g2
Ntp4034
Rp4035
(dp4036
g49
I1
sg50
Nsg51
g7
sg52
(dp4037
sbsg101
g102
sg103
g0
(g104
g105
((lp4038
(lp4039
tp4040
tp4041
Rp4042
sg111
I0
sS'_spine_transform'
p4043
(Videntity
p4044
g0
(g45
g2
Ntp4045
Rp4046
(dp4047
g49
I1
sg50
Nsg51
g7
sg52
(dp4048
sbtp4049
sg112
I01
sg114
NsS'spine_type'
p4050
g4014
sg115
g1381
sg88
Nsg2258
F2.5
sg1875
Vprojecting
p4051
sg1877
Nsg25
Nsg1878
g1937
sg34
Nsg2809
g0
(g2219
g2
Ntp4052
Rp4053
(dp4054
g2223
I00
sg2224
Nsg2225
g132
(g133
(I0
tp4055
g135
tp4056
Rp4057
(I1
(I2
I2
tp4058
g59
I00
S'\x00\x00\x00\x00\x00\x00\x00\x00\x00\x00\x00\x00\x00\x00*@\x00\x00\x00\x00\x00\x00\x00\x00\x00\x00\x00\x00\x00\x00*@'
p4059
tp4060
bsg2232
I00
sg2233
F0.1111111111111111
sg2234
I1
sg2235
I00
sbsbaa(lp4061
Vright
p4062
ag0
(g4015
g2
Ntp4063
Rp4064
(dp4065
g6
g7
sg2637
I00
sg41
I01
sg9
g4
sg4019
Nsg8
I00
sg10
Nsg42
Nsg17
g18
sg43
Nsg20
I01
sg2619
g3366
sg44
g0
(g45
g2
Ntp4066
Rp4067
(dp4068
g49
I1
sg50
Nsg51
g7
sg52
(dp4069
sbsg54
g4024
sg23
Nsg24
Nsg77
g4025
sg11
Nsg28
I00
sg29
I00
sg30
(dp4070
sg1873
(NNtp4071
sg2563
g4029
sg32
I00
sg85
Nsg86
I01
sg87
F1.0
sg4030
g4031
sg33
Nsg90
g4024
sg91
Nsg92
I01
sg93
Nsg94
g4032
sg96
Nsg97
g2022
sg99
g100
sg4033
g0
(g45
g2
Ntp4072
Rp4073
(dp4074
g49
I1
sg50
Nsg51
g7
sg52
(dp4075
sbsg101
g102
sg103
g0
(g104
g105
((lp4076
(lp4077
tp4078
tp4079
Rp4080
sg111
I0
sg4043
(g4044
g0
(g45
g2
Ntp4081
Rp4082
(dp4083
g49
I1
sg50
Nsg51
g7
sg52
(dp4084
sbtp4085
sg112
I01
sg114
Nsg4050
g4062
sg115
g1381
sg88
Nsg2258
F2.5
sg1875
g4051
sg1877
Nsg25
Nsg1878
g1937
sg34
Nsg2809
g0
(g2219
g2
Ntp4086
Rp4087
(dp4088
g2223
I00
sg2224
Nsg2225
g132
(g133
(I0
tp4089
g135
tp4090
Rp4091
(I1
(I2
I2
tp4092
g59
I00
S'\x00\x00\x00\x00\x00\x00\xf0?\x00\x00\x00\x00\x00\x00*@\x00\x00\x00\x00\x00\x00\xf0?\x00\x00\x00\x00\x00\x00*@'
p4093
tp4094
bsg2232
I00
sg2233
F0.1111111111111111
sg2234
I1
sg2235
I00
sbsbaa(lp4095
Vbottom
p4096
ag0
(g4015
g2
Ntp4097
Rp4098
(dp4099
g6
g7
sg2637
I00
sg41
I01
sg9
g4
sg4019
Nsg8
I01
sg10
Nsg42
Nsg17
g18
sg43
Nsg20
I01
sg2619
g2595
sg44
g0
(g45
g2
Ntp4100
Rp4101
(dp4102
g49
I1
sg50
Nsg51
g7
sg52
(dp4103
sbsg54
g4024
sg23
Nsg24
Nsg77
g4025
sg11
Nsg28
I00
sg29
I00
sg30
(dp4104
sg1873
(NNtp4105
sg2563
g4029
sg32
I00
sg85
Nsg86
I01
sg87
F1.0
sg4030
g4031
sg33
Nsg90
g4024
sg91
Nsg92
I01
sg93
Nsg94
g4032
sg96
Nsg97
g2022
sg99
g100
sg4033
g0
(g45
g2
Ntp4106
Rp4107
(dp4108
g49
I1
sg50
Nsg51
g7
sg52
(dp4109
sbsg101
g102
sg103
g0
(g104
g105
((lp4110
(lp4111
tp4112
tp4113
Rp4114
sg111
I0
sg4043
(g4044
g0
(g45
g2
Ntp4115
Rp4116
(dp4117
g49
I1
sg50
Nsg51
g7
sg52
(dp4118
sbtp4119
sg112
I01
sg114
Nsg4050
g4096
sg115
g184
sg88
Nsg2258
F2.5
sg1875
g4051
sg1877
Nsg25
Nsg1878
g1937
sg34
Nsg2809
g0
(g2219
g2
Ntp4120
Rp4121
(dp4122
g2223
I00
sg2224
Nsg2225
g132
(g133
(I0
tp4123
g135
tp4124
Rp4125
(I1
(I2
I2
tp4126
g59
I00
S'\x00\x00\x00\x00\x00\x00*@\x00\x00\x00\x00\x00\x00\x00\x00\x00\x00\x00\x00\x00\x00*@\x00\x00\x00\x00\x00\x00\x00\x00'
p4127
tp4128
bsg2232
I00
sg2233
F0.1111111111111111
sg2234
I1
sg2235
I00
sbsbaa(lp4129
Vtop
p4130
ag0
(g4015
g2
Ntp4131
Rp4132
(dp4133
g6
g7
sg2637
I00
sg41
I01
sg9
g4
sg4019
Nsg8
I00
sg10
Nsg42
Nsg17
g18
sg43
Nsg20
I01
sg2619
g2595
sg44
g0
(g45
g2
Ntp4134
Rp4135
(dp4136
g49
I1
sg50
Nsg51
g7
sg52
(dp4137
sbsg54
g4024
sg23
Nsg24
Nsg77
g4025
sg11
Nsg28
I00
sg29
I00
sg30
(dp4138
sg1873
(NNtp4139
sg2563
g4029
sg32
I00
sg85
Nsg86
I01
sg87
F1.0
sg4030
g4031
sg33
Nsg90
g4024
sg91
Nsg92
I01
sg93
Nsg94
g4032
sg96
Nsg97
g2022
sg99
g100
sg4033
g0
(g45
g2
Ntp4140
Rp4141
(dp4142
g49
I1
sg50
Nsg51
g7
sg52
(dp4143
sbsg101
g102
sg103
g0
(g104
g105
((lp4144
(lp4145
tp4146
tp4147
Rp4148
sg111
I0
sg4043
(g4044
g0
(g45
g2
Ntp4149
Rp4150
(dp4151
g49
I1
sg50
Nsg51
g7
sg52
(dp4152
sbtp4153
sg112
I01
sg114
Nsg4050
g4130
sg115
g184
sg88
Nsg2258
F2.5
sg1875
g4051
sg1877
Nsg25
Nsg1878
g1937
sg34
Nsg2809
g0
(g2219
g2
Ntp4154
Rp4155
(dp4156
g2223
I00
sg2224
Nsg2225
g132
(g133
(I0
tp4157
g135
tp4158
Rp4159
(I1
(I2
I2
tp4160
g59
I00
S'\x00\x00\x00\x00\x00\x00*@\x00\x00\x00\x00\x00\x00\xf0?\x00\x00\x00\x00\x00\x00*@\x00\x00\x00\x00\x00\x00\xf0?'
p4161
tp4162
bsg2232
I00
sg2233
F0.1111111111111111
sg2234
I1
sg2235
I00
sbsbaatp4163
Rp4164
sS'_anchor'
p4165
VC
p4166
sg43
Nsg1877
NsS'_use_sticky_edges'
p4167
I01
sbtp4168
tp4169
asS'_ind'
p4170
I1
sS'_pos'
p4171
I0
sbsg115
Nsg4007
(lp4172
sg2535
g38
sS'subplotpars'
p4173
g0
(cmatplotlib.figure
SubplotParams
p4174
g2
Ntp4175
Rp4176
(dp4177
g1921
F0.9
sg1923
F0.125
sg1924
F0.88
sg1925
F0.2
sS'validate'
p4178
I01
sg1927
F0.2
sg1929
F0.125
sbsg43
Nsg1877
NsS'bbox_inches'
p4179
g129
sS'transFigure'
p4180
g118
sS'_dpi'
p4181
F72.0
sb.