ccopy_reg
_reconstructor
p0
(cmatplotlib.figure
Figure
p1
c__builtin__
object
p2
Ntp3
Rp4
(dp5
S'_label'
p6
V
p7
sS'_visible'
p8
I01
sS'figure'
p9
NsS'stale_callback'
p10
NsS'_rasterized'
p11
NsS'texts'
p12
(lp13
sS'_hold'
p14
I01
sS'artists'
p15
(lp16
sS'_path_effects'
p17
(lp18
sS'frameon'
p19
I01
sS'_clipon'
p20
I01
sV__mpl_version__
p21
S'2.0.2'
p22
sS'_clippath'
p23
NsS'_sketch'
p24
NsS'_contains'
p25
NsS'_tight_parameters'
p26
(dp27
sS'_mouseover'
p28
I00
sS'_animated'
p29
I00
sS'_propobservers'
p30
(dp31
sS'eventson'
p32
I00
sS'_picker'
p33
NsS'_remove_method'
p34
NsS'figurePatch'
p35
g0
(cmatplotlib.patches
Rectangle
p36
g2
Ntp37
Rp38
(dp39
g6
g7
sS'_width'
p40
F1.0
sS'_fill'
p41
I01
sg9
g4
sg8
I01
sg10
NsS'_agg_filter'
p42
Nsg17
g18
sS'_gid'
p43
Nsg20
I01
sS'_combined_transform'
p44
g0
(cmatplotlib.transforms
IdentityTransform
p45
g2
Ntp46
Rp47
(dp48
S'_invalid'
p49
I1
sS'_inverted'
p50
NsS'_shorthand_name'
p51
g7
sS'_parents'
p52
(dp53
sbsS'_edgecolor'
p54
(cnumpy.core.multiarray
scalar
p55
(cnumpy
dtype
p56
(S'f8'
p57
I0
I1
tp58
Rp59
(I3
S'<'
p60
NNNI-1
I-1
I0
tp61
bS'\x00\x00\x00\x00\x00\x00\xf0?'
p62
tp63
Rp64
g55
(g59
S'\x00\x00\x00\x00\x00\x00\xf0?'
p65
tp66
Rp67
g55
(g59
S'\x00\x00\x00\x00\x00\x00\xf0?'
p68
tp69
Rp70
g55
(g59
S'\x00\x00\x00\x00\x00\x00\x00\x00'
p71
tp72
Rp73
tp74
sg23
NsS'_y'
p75
F0.0
sS'_x'
p76
F0.0
sg24
NsS'_original_edgecolor'
p77
(I1
I1
I1
I0
tp78
sg11
Nsg28
I00
sg29
I00
sg30
(dp79
sS'_rect_transform'
p80
g0
(g45
g2
Ntp81
Rp82
(dp83
g49
I1
sg50
Nsg51
g7
sg52
(dp84
sbsg32
I00
sS'_hatch'
p85
NsS'_stale'
p86
I01
sS'_linewidth'
p87
F0.0
sS'clipbox'
p88
NsS'_height'
p89
F1.0
sg33
NsS'_hatch_color'
p90
g74
sS'_dashes'
p91
NsS'_antialiased'
p92
I00
sS'_dashoffset'
p93
NsS'_original_facecolor'
p94
Vwhite
p95
sS'_snap'
p96
NsS'_facecolor'
p97
(F1.0
F1.0
F1.0
F1.0
tp98
sS'_joinstyle'
p99
Vmiter
p100
sS'_linestyle'
p101
Vsolid
p102
sS'_sticky_edges'
p103
g0
(cmatplotlib.artist
_XYPair
p104
c__builtin__
tuple
p105
((lp106
(lp107
tp108
tp109
Rp110
sS'_oid'
p111
I0
sS'_transformSet'
p112
I01
sS'_angle'
p113
F0.0
sS'_alpha'
p114
NsS'_transform'
p115
g0
(cmatplotlib.transforms
BboxTransformTo
p116
g2
Ntp117
Rp118
(dp119
g49
I2
sS'_mtx'
p120
cnumpy.core.multiarray
_reconstruct
p121
(cnumpy
ndarray
p122
(I0
tp123
S'b'
p124
tp125
Rp126
(I1
(I3
I3
tp127
g59
I00
S'\x00\x00\x00\x00\x00\x00{@\x00\x00\x00\x00\x00\x00\x00\x00\x00\x00\x00\x00\x00\x00\x00\x00\x00\x00\x00\x00\x00\x00\x00\x00\x00\x00\x00\x00\x00\x00r@\x00\x00\x00\x00\x00\x00\x00\x00\x00\x00\x00\x00\x00\x00\x00\x00\x00\x00\x00\x00\x00\x00\x00\x00\x00\x00\x00\x00\x00\x00\xf0?'
p128
tp129
bsg50
NsS'_boxout'
p130
g0
(cmatplotlib.transforms
TransformedBbox
p131
g2
Ntp132
Rp133
(dp134
g49
I2
sS'_bbox'
p135
g0
(cmatplotlib.transforms
Bbox
p136
g2
Ntp137
Rp138
(dp139
g49
I2
sS'_minpos'
p140
g121
(g122
(I0
tp141
g124
tp142
Rp143
(I1
(I2
tp144
g59
I00
S'\x00\x00\x00\x00\x00\x00\xf0\x7f\x00\x00\x00\x00\x00\x00\xf0\x7f'
p145
tp146
bsg52
(dp147
I140629062019152
g133
ssS'_points_orig'
p148
g121
(g122
(I0
tp149
g124
tp150
Rp151
(I1
(I2
I2
tp152
g59
I00
S'\x00\x00\x00\x00\x00\x00\x00\x00\x00\x00\x00\x00\x00\x00\x00\x00\x00\x00\x00\x00\x00\x00\x18@\x00\x00\x00\x00\x00\x00\x10@'
p153
tp154
bsS'_points'
p155
g121
(g122
(I0
tp156
g124
tp157
Rp158
(I1
(I2
I2
tp159
g59
I00
S'\x00\x00\x00\x00\x00\x00\x00\x00\x00\x00\x00\x00\x00\x00\x00\x00\x00\x00\x00\x00\x00\x00\x00@\x00\x00\x00\x00\x00\x00\x00@'
p160
tp161
bsS'_ignore'
p162
I01
sg51
g7
sbsg115
g0
(cmatplotlib.transforms
Affine2D
p163
g2
Ntp164
Rp165
(dp166
g49
I0
sg50
Nsg120
g121
(g122
(I0
tp167
g124
tp168
Rp169
(I1
(I3
I3
tp170
g59
I00
S'\x00\x00\x00\x00\x00\x00R@\x00\x00\x00\x00\x00\x00\x00\x00\x00\x00\x00\x00\x00\x00\x00\x00\x00\x00\x00\x00\x00\x00\x00\x00\x00\x00\x00\x00\x00\x00R@\x00\x00\x00\x00\x00\x00\x00\x00\x00\x00\x00\x00\x00\x00\x00\x00\x00\x00\x00\x00\x00\x00\x00\x00\x00\x00\x00\x00\x00\x00\xf0?'
p171
tp172
bsg51
g7
sg52
(dp173
I140629061236560
g0
(cmatplotlib.transforms
ScaledTranslation
p174
g2
Ntp175
Rp176
(dp177
g49
I1
sg120
NsS'_scale_trans'
p178
g165
sg50
NsS'_t'
p179
(F-0.04861111111111111
I0
tp180
sg51
g7
sg52
(dp181
I140629061238160
g0
(cmatplotlib.transforms
CompositeGenericTransform
p182
g2
Ntp183
Rp184
(dp185
g49
I2
sS'input_dims'
p186
I2
sS'_a'
p187
g0
(cmatplotlib.transforms
BlendedGenericTransform
p188
g2
Ntp189
Rp190
(dp191
g49
I2
sg75
g0
(g182
g2
Ntp192
Rp193
(dp194
g49
I2
sg186
I2
sg187
g0
(cmatplotlib.transforms
TransformWrapper
p195
g2
Ntp196
Rp197
(dp198
Voutput_dims
p199
I2
sVparents
p200
(dp201
I140629062017552
g0
(g131
g2
Ntp202
Rp203
(dp204
g49
I2
sg135
g0
(g136
g2
Ntp205
Rp206
(dp207
g49
I2
sg140
g121
(g122
(I0
tp208
g124
tp209
Rp210
(I1
(I2
tp211
g59
I00
S'\x00\x00\x00\x00\x00\x00\xf0\x7f\x00\x00\x00\x00\x00\x00\xf0\x7f'
p212
tp213
bsg52
(dp214
I140629062017552
g203
ssg148
g121
(g122
(I0
tp215
g124
tp216
Rp217
(I1
(I2
I2
tp218
g59
I00
S'\x00\x00\x00\x00\x00\x00\x00\x00\x00\x00\x00\x00\x00\x00\x00\x00\x00\x00\x00\x00\x00\x00\xf0?\x00\x00\x00\x00\x00\x00\xf0?'
p219
tp220
bsg155
g121
(g122
(I0
tp221
g124
tp222
Rp223
(I1
(I2
I2
tp224
g59
I00
S'\x84\xaa{^\xda\xba\xc7\xbf\xdb\xdeS\x14$]\xe1?\xa8\xba\xe7\xa5\xad{\r@:\xb7\xdcqa\xee$@'
p225
tp226
bsg162
I01
sg51
g7
sbsg115
g197
sg155
g121
(g122
(I0
tp227
g124
tp228
Rp229
(I1
(I2
I2
tp230
g59
I00
S'\x00\x00\x00\x00\x00\x00\x00\x00\x00\x00\x00\x00\x00\x00\x00\x00\x00\x00\x00\x00\x00\x00\xf0?\x00\x00\x00\x00\x00\x00\xf0?'
p231
tp232
bsg52
(dp233
I140629062017936
g0
(cmatplotlib.transforms
BboxTransformFrom
p234
g2
Ntp235
Rp236
(dp237
g49
I2
sS'_boxin'
p238
g203
sg120
g121
(g122
(I0
tp239
g124
tp240
Rp241
(I1
(I3
I3
tp242
g59
I00
S'\x00\x00\x00\x00\x00\x00\xf0?\x00\x00\x00\x00\x00\x00\x00\x00\x00\x00\x00\x00\x00\x00\x00\x80\x00\x00\x00\x00\x00\x00\x00\x00\x00\x00\x00\x00\x00\x00\xf0?\x00\x00\x00\x00\x00\x00\x00\x80\x00\x00\x00\x00\x00\x00\x00\x00\x00\x00\x00\x00\x00\x00\x00\x00\x00\x00\x00\x00\x00\x00\xf0?'
p243
tp244
bsg50
g0
(g163
g2
Ntp245
Rp246
(dp247
g49
I0
sg50
Nsg120
g121
(g122
(I0
tp248
g124
tp249
Rp250
(I1
(I3
I3
tp251
g59
I00
S'\x00\x00\x00\x00\x00\x00\xf0?\x00\x00\x00\x00\x00\x00\x00\x00\x00\x00\x00\x00\x00\x00\x00\x00\x00\x00\x00\x00\x00\x00\x00\x00\x00\x00\x00\x00\x00\x00\xf0?\x00\x00\x00\x00\x00\x00\x00\x00\x00\x00\x00\x00\x00\x00\x00\x00\x00\x00\x00\x00\x00\x00\x00\x00\x00\x00\x00\x00\x00\x00\xf0?'
p252
tp253
bsg51
g7
sg52
(dp254
sbsg51
g7
sg52
(dp255
I140629062018192
g0
(g182
g2
Ntp256
Rp257
(dp258
g49
I2
sg186
I2
sg187
g236
sS'output_dims'
p259
I2
sS'_b'
p260
g0
(g116
g2
Ntp261
Rp262
(dp263
g49
I2
sg120
g121
(g122
(I0
tp264
g124
tp265
Rp266
(I1
(I3
I3
tp267
g59
I00
S'\xcd\xcc\xcc\xcc\xcc\xect@\x00\x00\x00\x00\x00\x00\x00\x00\x00\x00\x00\x00\x00\x00K@\x00\x00\x00\x00\x00\x00\x00\x00\xaeG\xe1z\x14.k@\x00\x00\x00\x00\x00\x00B@\x00\x00\x00\x00\x00\x00\x00\x00\x00\x00\x00\x00\x00\x00\x00\x00\x00\x00\x00\x00\x00\x00\xf0?'
p268
tp269
bsg50
g0
(g163
g2
Ntp270
Rp271
(dp272
g49
I0
sg50
Nsg120
g121
(g122
(I0
tp273
g124
tp274
Rp275
(I1
(I3
I3
tp276
g59
I00
S'\xe94\xb7\x15\xe5wh?\x00\x00\x00\x00\x00\x00\x00\x00\xa5\x94RJ)\xa5\xc4\xbf\x00\x00\x00\x00\x00\x00\x00\x00zYK\x90^\xd6r?\xa9\xc4Tb*1\xc5\xbf\x00\x00\x00\x00\x00\x00\x00\x00\x00\x00\x00\x00\x00\x00\x00\x00\x00\x00\x00\x00\x00\x00\xf0?'
p277
tp278
bsg51
g7
sg52
(dp279
sbsg130
g0
(g131
g2
Ntp280
Rp281
(dp282
g49
I2
sg135
g0
(g136
g2
Ntp283
Rp284
(dp285
g49
I0
sg140
g121
(g122
(I0
tp286
g124
tp287
Rp288
(I1
(I2
tp289
g59
I00
S'\x00\x00\x00\x00\x00\x00\xf0\x7f\x00\x00\x00\x00\x00\x00\xf0\x7f'
p290
tp291
bsg52
(dp292
I140629062019088
g281
ssg148
g121
(g122
(I0
tp293
g124
tp294
Rp295
(I1
(I2
I2
tp296
g59
I00
S'\x00\x00\x00\x00\x00\x00\xc0?\x00\x00\x00\x00\x00\x00\xc0?\xcd\xcc\xcc\xcc\xcc\xcc\xec?)\\\x8f\xc2\xf5(\xec?'
p297
tp298
bsg155
g121
(g122
(I0
tp299
g124
tp300
Rp301
(I1
(I2
I2
tp302
g59
I00
S'\x00\x00\x00\x00\x00\x00\xc0?\x00\x00\x00\x00\x00\x00\xc0?\xcd\xcc\xcc\xcc\xcc\xcc\xec?)\\\x8f\xc2\xf5(\xec?'
p303
tp304
bsg162
I01
sg51
g7
sbsg115
g118
sg155
g121
(g122
(I0
tp305
g124
tp306
Rp307
(I1
(I2
I2
tp308
g59
I00
S'\x00\x00\x00\x00\x00\x00K@\x00\x00\x00\x00\x00\x00B@\xcd\xcc\xcc\xcc\xccLx@\xaeG\xe1z\x14\xaeo@'
p309
tp310
bsg52
(dp311
I140629062018384
g262
ssg51
g7
sbsg52
(dp312
I140629062018000
g190
sI140629062018192
g257
sI140629062018320
g0
(g188
g2
Ntp313
Rp314
(dp315
g49
I2
sg75
g262
sg76
g193
sS'_affine'
p316
Nsg52
(dp317
I140629062323152
g0
(g182
g2
Ntp318
Rp319
(dp320
g49
I2
sg186
I2
sg187
g314
sg259
I2
sg260
g0
(g174
g2
Ntp321
Rp322
(dp323
g49
I1
sg120
Nsg178
g165
sg50
Nsg179
(I0
F0.04861111111111111
tp324
sg51
g7
sg52
(dp325
I140629062323152
g319
ssbsg52
(dp326
sg51
g7
sbsI140629062327440
g0
(g182
g2
Ntp327
Rp328
(dp329
g49
I2
sg186
I2
sg187
g314
sg259
I2
sg260
g0
(g174
g2
Ntp330
Rp331
(dp332
g49
I1
sg120
Nsg178
g165
sg50
Nsg179
(I0
F0.04722222222222222
tp333
sg51
g7
sg52
(dp334
I140629062327440
g328
ssbsg52
(dp335
sg51
g7
sbsI140629062044816
g0
(g182
g2
Ntp336
Rp337
(dp338
g49
I2
sg186
I2
sg187
g314
sg259
I2
sg260
g0
(g174
g2
Ntp339
Rp340
(dp341
g49
I1
sg120
Nsg178
g165
sg50
Nsg179
(I0
F0.04861111111111111
tp342
sg51
g7
sg52
(dp343
I140629062044816
g337
ssbsg52
(dp344
sg51
g7
sbsI140629062147472
g0
(g182
g2
Ntp345
Rp346
(dp347
g49
I2
sg186
I2
sg187
g314
sg259
I2
sg260
g0
(g174
g2
Ntp348
Rp349
(dp350
g49
I1
sg120
Nsg178
g165
sg50
Nsg179
(I0
F0.04722222222222222
tp351
sg51
g7
sg52
(dp352
I140629062147472
g346
ssbsg52
(dp353
sg51
g7
sbsI140629062326736
g0
(g182
g2
Ntp354
Rp355
(dp356
g49
I2
sg186
I2
sg187
g314
sg259
I2
sg260
g0
(g174
g2
Ntp357
Rp358
(dp359
g49
I1
sg120
Nsg178
g165
sg50
Nsg179
(I0
F-0.04861111111111111
tp360
sg51
g7
sg52
(dp361
I140629062326736
g355
ssbsg52
(dp362
sg51
g7
sbsI140629062043088
g0
(g182
g2
Ntp363
Rp364
(dp365
g49
I2
sg186
I2
sg187
g314
sg259
I2
sg260
g0
(g174
g2
Ntp366
Rp367
(dp368
g49
I1
sg120
Nsg178
g165
sg50
Nsg179
(I0
F-0.04722222222222222
tp369
sg51
g7
sg52
(dp370
I140629062043088
g364
ssbsg52
(dp371
sg51
g7
sbsI140629062045328
g0
(g182
g2
Ntp372
Rp373
(dp374
g49
I2
sg186
I2
sg187
g314
sg259
I2
sg260
g0
(g174
g2
Ntp375
Rp376
(dp377
g49
I1
sg120
Nsg178
g165
sg50
Nsg179
(I0
F-0.04861111111111111
tp378
sg51
g7
sg52
(dp379
I140629062045328
g373
ssbsg52
(dp380
sg51
g7
sbsI140629062144784
g0
(g182
g2
Ntp381
Rp382
(dp383
g49
I2
sg186
I2
sg187
g314
sg259
I2
sg260
g0
(g174
g2
Ntp384
Rp385
(dp386
g49
I1
sg120
Nsg178
g165
sg50
Nsg179
(I0
F-0.04722222222222222
tp387
sg51
g7
sg52
(dp388
I140629062144784
g382
ssbsg52
(dp389
sg51
g7
sbssg51
g7
sbsI140629062145936
g0
(g182
g2
Ntp390
Rp391
(dp392
g49
I2
sg186
I2
sg187
g262
sg259
I2
sg260
g0
(g174
g2
Ntp393
Rp394
(dp395
g49
I1
sg120
Nsg178
g165
sg50
Nsg179
(F0.0
F0.08333333333333333
tp396
sg51
g7
sg52
(dp397
I140629062145936
g391
sI140629062147216
g0
(g182
g2
Ntp398
Rp399
(dp400
g49
I2
sg186
I2
sg187
g262
sg259
I2
sg260
g394
sg52
(dp401
sg51
g7
sbsI140629062146000
g0
(g182
g2
Ntp402
Rp403
(dp404
g49
I2
sg186
I2
sg187
g262
sg259
I2
sg260
g394
sg52
(dp405
sg51
g7
sbssbsg52
(dp406
sg51
g7
sbsI140629062043024
g0
(g182
g2
Ntp407
Rp408
(dp409
g49
I2
sg186
I2
sg187
g0
(g182
g2
Ntp410
Rp411
(dp412
g49
I1
sg186
I2
sg187
g0
(g116
g2
Ntp413
Rp414
(dp415
g49
I1
sg120
Nsg50
Nsg130
g0
(g136
g2
Ntp416
Rp417
(dp418
g49
I1
sg140
g121
(g122
(I0
tp419
g124
tp420
Rp421
(I1
(I2
tp422
g59
I00
S'\x00\x00\x00\x00\x00\x00\xf0\x7f\x00\x00\x00\x00\x00\x00\xf0\x7f'
p423
tp424
bsg52
(dp425
I140628238402704
g414
ssg148
g121
(g122
(I0
tp426
g124
tp427
Rp428
(I1
(I2
I2
tp429
g59
I00
S'\x00\x00\x00\x00\x00\x00\x00\x00\x00\x00\x00\x00\x00\x00\x00\x00\x00\x00\x00\x00\x00\x00\xf0?\x00\x00\x00\x00\x00\x00\xf0?'
p430
tp431
bsg155
g121
(g122
(I0
tp432
g124
tp433
Rp434
(I1
(I2
I2
tp435
g59
I00
S'\x00\x00\x00\x00\x00\x00\x00\x00\x00\x00\x00\x00\x00\x00\x00\x00\x00\x00\x00\x00\x00\x00\xf0?\x00\x00\x00\x00\x00\x00\xf0?'
p436
tp437
bsg162
I01
sg51
g7
sbsg52
(dp438
I140628238402768
g411
ssg51
g7
sbsg259
I2
sg260
g0
(g163
g2
Ntp439
Rp440
(dp441
g49
I2
sg50
Nsg120
g121
(g122
(I0
tp442
g124
tp443
Rp444
(I1
(I3
I3
tp445
g59
I00
S'\x00\x00\x00\x00\x00\x00\xf0?\x00\x00\x00\x00\x00\x00\x00\x00\x00\x00\x00\x00\x00\x00\x00\x00\x00\x00\x00\x00\x00\x00\x00\x00\x00\x00\x00\x00\x00\x00\xf0?\x00\x00\x00\x00\x00\x00\x00\x00\x00\x00\x00\x00\x00\x00\x00\x00\x00\x00\x00\x00\x00\x00\x00\x00\x00\x00\x00\x00\x00\x00\xf0?'
p446
tp447
bsg51
g7
sg52
(dp448
I140628238402768
g411
ssbsg52
(dp449
I140629062043024
g408
ssg51
g7
sbsg259
I2
sg260
g262
sg52
(dp450
I140629062044688
g0
(g131
g2
Ntp451
Rp452
(dp453
g49
I2
sg135
g0
(g136
g2
Ntp454
Rp455
(dp456
g49
I1
sg140
g121
(g122
(I0
tp457
g124
tp458
Rp459
(I1
(I2
tp460
g59
I00
S'\x00\x00\x00\x00\x00\x00\xf0\x7f\x00\x00\x00\x00\x00\x00\xf0\x7f'
p461
tp462
bsg52
(dp463
I140629062044688
g452
ssg148
g121
(g122
(I0
tp464
g124
tp465
Rp466
(I1
(I2
I2
tp467
g59
I00
S'\x00\x00\x00\x00\x00\x00\x00\x00\x00\x00\x00\x00\x00\x00\x00\x00\x00\x00\x00\x00\x00\x00\xf0?\x00\x00\x00\x00\x00\x00\xf0?'
p468
tp469
bsg155
g121
(g122
(I0
tp470
g124
tp471
Rp472
(I1
(I2
I2
tp473
g59
I00
S'\x00\x00\x00\x00\x00\x00\x00\x00\x00\x00\x00\x00\x00\x00\x00\x00\x00\x00\x00\x00\x00\x00\xf0?\x00\x00\x00\x00\x00\x00\xf0?'
p474
tp475
bsg162
I01
sg51
g7
sbsg115
g408
sg155
Nsg52
(dp476
sg51
g7
sbssg51
g7
sbsI140629062325840
g0
(cmatplotlib.transforms
BlendedAffine2D
p477
g2
Ntp478
Rp479
(dp480
g49
I2
sg120
Nsg75
g262
sg76
g0
(g45
g2
Ntp481
Rp482
(dp483
g49
I1
sg50
Nsg51
g7
sg52
(dp484
I140629062325840
g479
ssbsg50
Nsg51
g7
sg52
(dp485
sbsI140628236347024
g0
(g182
g2
Ntp486
Rp487
(dp488
g49
I2
sg186
I2
sg187
g0
(g182
g2
Ntp489
Rp490
(dp491
g49
I1
sg186
I2
sg187
g0
(g116
g2
Ntp492
Rp493
(dp494
g49
I1
sg120
Nsg50
Nsg130
g0
(g136
g2
Ntp495
Rp496
(dp497
g49
I1
sg140
g121
(g122
(I0
tp498
g124
tp499
Rp500
(I1
(I2
tp501
g59
I00
S'\x00\x00\x00\x00\x00\x00\xf0\x7f\x00\x00\x00\x00\x00\x00\xf0\x7f'
p502
tp503
bsg52
(dp504
I140628236346512
g493
ssg148
g121
(g122
(I0
tp505
g124
tp506
Rp507
(I1
(I2
I2
tp508
g59
I00
S'\x00\x00\x00\x00\x00\x00\x00\x00\x00\x00\x00\x00\x00\x00\x00\x00\x00\x00\x00\x00\x00\x00\xf0?\x00\x00\x00\x00\x00\x00\xf0?'
p509
tp510
bsg155
g121
(g122
(I0
tp511
g124
tp512
Rp513
(I1
(I2
I2
tp514
g59
I00
S'\x00\x00\x00\x00\x00\x00\x00\x00\x00\x00\x00\x00\x00\x00\x00\x00\x00\x00\x00\x00\x00\x00\xf0?\x00\x00\x00\x00\x00\x00\xf0?'
p515
tp516
bsg162
I01
sg51
g7
sbsg52
(dp517
I140628236348944
g490
ssg51
g7
sbsg259
I2
sg260
g0
(g163
g2
Ntp518
Rp519
(dp520
g49
I2
sg50
Nsg120
g121
(g122
(I0
tp521
g124
tp522
Rp523
(I1
(I3
I3
tp524
g59
I00
S'\x00\x00\x00\x00\x00\x00\xf0?\x00\x00\x00\x00\x00\x00\x00\x00\x00\x00\x00\x00\x00\x00\x00\x00\x00\x00\x00\x00\x00\x00\x00\x00\x00\x00\x00\x00\x00\x00\xf0?\x00\x00\x00\x00\x00\x00\x00\x00\x00\x00\x00\x00\x00\x00\x00\x00\x00\x00\x00\x00\x00\x00\x00\x00\x00\x00\x00\x00\x00\x00\xf0?'
p525
tp526
bsg51
g7
sg52
(dp527
I140628236348944
g490
ssbsg52
(dp528
I140628236347024
g487
ssg51
g7
sbsg259
I2
sg260
g262
sg52
(dp529
I140628236347984
g0
(g131
g2
Ntp530
Rp531
(dp532
g49
I2
sg135
g0
(g136
g2
Ntp533
Rp534
(dp535
g49
I1
sg140
g121
(g122
(I0
tp536
g124
tp537
Rp538
(I1
(I2
tp539
g59
I00
S'\x00\x00\x00\x00\x00\x00\xf0\x7f\x00\x00\x00\x00\x00\x00\xf0\x7f'
p540
tp541
bsg52
(dp542
I140628236347984
g531
ssg148
g121
(g122
(I0
tp543
g124
tp544
Rp545
(I1
(I2
I2
tp546
g59
I00
S'\x00\x00\x00\x00\x00\x00\x00\x00\x00\x00\x00\x00\x00\x00\x00\x00\x00\x00\x00\x00\x00\x00\xf0?\x00\x00\x00\x00\x00\x00\xf0?'
p547
tp548
bsg155
g121
(g122
(I0
tp549
g124
tp550
Rp551
(I1
(I2
I2
tp552
g59
I00
S'\x00\x00\x00\x00\x00\x00\x00\x00\x00\x00\x00\x00\x00\x00\x00\x00\x00\x00\x00\x00\x00\x00\xf0?\x00\x00\x00\x00\x00\x00\xf0?'
p553
tp554
bsg162
I01
sg51
g7
sbsg115
g487
sg155
Nsg52
(dp555
sg51
g7
sbssg51
g7
sbsI140628238403280
g0
(g182
g2
Ntp556
Rp557
(dp558
g49
I2
sg186
I2
sg187
g0
(g182
g2
Ntp559
Rp560
(dp561
g49
I1
sg186
I2
sg187
g0
(g116
g2
Ntp562
Rp563
(dp564
g49
I1
sg120
Nsg50
Nsg130
g0
(g136
g2
Ntp565
Rp566
(dp567
g49
I1
sg140
g121
(g122
(I0
tp568
g124
tp569
Rp570
(I1
(I2
tp571
g59
I00
S'\x00\x00\x00\x00\x00\x00\xf0\x7f\x00\x00\x00\x00\x00\x00\xf0\x7f'
p572
tp573
bsg52
(dp574
I140628238403088
g563
ssg148
g121
(g122
(I0
tp575
g124
tp576
Rp577
(I1
(I2
I2
tp578
g59
I00
S'\x00\x00\x00\x00\x00\x00\x00\x00\x00\x00\x00\x00\x00\x00\x00\x00\x00\x00\x00\x00\x00\x00\xf0?\x00\x00\x00\x00\x00\x00\xf0?'
p579
tp580
bsg155
g121
(g122
(I0
tp581
g124
tp582
Rp583
(I1
(I2
I2
tp584
g59
I00
S'\x00\x00\x00\x00\x00\x00\x00\x00\x00\x00\x00\x00\x00\x00\x00\x00\x00\x00\x00\x00\x00\x00\xf0?\x00\x00\x00\x00\x00\x00\xf0?'
p585
tp586
bsg162
I01
sg51
g7
sbsg52
(dp587
I140628238405008
g560
ssg51
g7
sbsg259
I2
sg260
g0
(g163
g2
Ntp588
Rp589
(dp590
g49
I2
sg50
Nsg120
g121
(g122
(I0
tp591
g124
tp592
Rp593
(I1
(I3
I3
tp594
g59
I00
S'\x00\x00\x00\x00\x00\x00\xf0?\x00\x00\x00\x00\x00\x00\x00\x00\x00\x00\x00\x00\x00\x00\x00\x00\x00\x00\x00\x00\x00\x00\x00\x00\x00\x00\x00\x00\x00\x00\xf0?\x00\x00\x00\x00\x00\x00\x00\x00\x00\x00\x00\x00\x00\x00\x00\x00\x00\x00\x00\x00\x00\x00\x00\x00\x00\x00\x00\x00\x00\x00\xf0?'
p595
tp596
bsg51
g7
sg52
(dp597
I140628238405008
g560
ssbsg52
(dp598
I140628238403280
g557
ssg51
g7
sbsg259
I2
sg260
g262
sg52
(dp599
I140628238402384
g0
(g131
g2
Ntp600
Rp601
(dp602
g49
I2
sg135
g0
(g136
g2
Ntp603
Rp604
(dp605
g49
I1
sg140
g121
(g122
(I0
tp606
g124
tp607
Rp608
(I1
(I2
tp609
g59
I00
S'\x00\x00\x00\x00\x00\x00\xf0\x7f\x00\x00\x00\x00\x00\x00\xf0\x7f'
p610
tp611
bsg52
(dp612
I140628238402384
g601
ssg148
g121
(g122
(I0
tp613
g124
tp614
Rp615
(I1
(I2
I2
tp616
g59
I00
S'\x00\x00\x00\x00\x00\x00\x00\x00\x00\x00\x00\x00\x00\x00\x00\x00\x00\x00\x00\x00\x00\x00\xf0?\x00\x00\x00\x00\x00\x00\xf0?'
p617
tp618
bsg155
g121
(g122
(I0
tp619
g124
tp620
Rp621
(I1
(I2
I2
tp622
g59
I00
S'\x00\x00\x00\x00\x00\x00\x00\x00\x00\x00\x00\x00\x00\x00\x00\x00\x00\x00\x00\x00\x00\x00\xf0?\x00\x00\x00\x00\x00\x00\xf0?'
p623
tp624
bsg162
I01
sg51
g7
sbsg115
g557
sg155
Nsg52
(dp625
sg51
g7
sbssg51
g7
sbsI140629062146000
g403
sI140629061840400
g0
(g182
g2
Ntp626
Rp627
(dp628
g49
I2
sg186
I2
sg187
g0
(g182
g2
Ntp629
Rp630
(dp631
g49
I1
sg186
I2
sg187
g0
(g116
g2
Ntp632
Rp633
(dp634
g49
I1
sg120
Nsg50
Nsg130
g0
(g136
g2
Ntp635
Rp636
(dp637
g49
I1
sg140
g121
(g122
(I0
tp638
g124
tp639
Rp640
(I1
(I2
tp641
g59
I00
S'\x00\x00\x00\x00\x00\x00\xf0\x7f\x00\x00\x00\x00\x00\x00\xf0\x7f'
p642
tp643
bsg52
(dp644
I140628232016912
g633
ssg148
g121
(g122
(I0
tp645
g124
tp646
Rp647
(I1
(I2
I2
tp648
g59
I00
S'\x00\x00\x00\x00\x00\x00\x00\x00\x00\x00\x00\x00\x00\x00\x00\x00\x00\x00\x00\x00\x00\x00\xf0?\x00\x00\x00\x00\x00\x00\xf0?'
p649
tp650
bsg155
g121
(g122
(I0
tp651
g124
tp652
Rp653
(I1
(I2
I2
tp654
g59
I00
S'\x00\x00\x00\x00\x00\x00\x00\x00\x00\x00\x00\x00\x00\x00\x00\x00\x00\x00\x00\x00\x00\x00\xf0?\x00\x00\x00\x00\x00\x00\xf0?'
p655
tp656
bsg162
I01
sg51
g7
sbsg52
(dp657
I140629062144592
g630
ssg51
g7
sbsg259
I2
sg260
g0
(g163
g2
Ntp658
Rp659
(dp660
g49
I2
sg50
Nsg120
g121
(g122
(I0
tp661
g124
tp662
Rp663
(I1
(I3
I3
tp664
g59
I00
S'\x00\x00\x00\x00\x00\x00\xf0?\x00\x00\x00\x00\x00\x00\x00\x00\x00\x00\x00\x00\x00\x00\x00\x00\x00\x00\x00\x00\x00\x00\x00\x00\x00\x00\x00\x00\x00\x00\xf0?\x00\x00\x00\x00\x00\x00\x00\x00\x00\x00\x00\x00\x00\x00\x00\x00\x00\x00\x00\x00\x00\x00\x00\x00\x00\x00\x00\x00\x00\x00\xf0?'
p665
tp666
bsg51
g7
sg52
(dp667
I140629062144592
g630
ssbsg52
(dp668
I140629061840400
g627
ssg51
g7
sbsg259
I2
sg260
g262
sg52
(dp669
I140629061840464
g0
(g131
g2
Ntp670
Rp671
(dp672
g49
I2
sg135
g0
(g136
g2
Ntp673
Rp674
(dp675
g49
I1
sg140
g121
(g122
(I0
tp676
g124
tp677
Rp678
(I1
(I2
tp679
g59
I00
S'\x00\x00\x00\x00\x00\x00\xf0\x7f\x00\x00\x00\x00\x00\x00\xf0\x7f'
p680
tp681
bsg52
(dp682
I140629061840464
g671
ssg148
g121
(g122
(I0
tp683
g124
tp684
Rp685
(I1
(I2
I2
tp686
g59
I00
S'\x00\x00\x00\x00\x00\x00\x00\x00\x00\x00\x00\x00\x00\x00\x00\x00\x00\x00\x00\x00\x00\x00\xf0?\x00\x00\x00\x00\x00\x00\xf0?'
p687
tp688
bsg155
g121
(g122
(I0
tp689
g124
tp690
Rp691
(I1
(I2
I2
tp692
g59
I00
S'\x00\x00\x00\x00\x00\x00\x00\x00\x00\x00\x00\x00\x00\x00\x00\x00\x00\x00\x00\x00\x00\x00\xf0?\x00\x00\x00\x00\x00\x00\xf0?'
p693
tp694
bsg162
I01
sg51
g7
sbsg115
g627
sg155
Nsg52
(dp695
sg51
g7
sbssg51
g7
sbsI140629061310608
g0
(g182
g2
Ntp696
Rp697
(dp698
g49
I2
sg186
I2
sg187
g0
(g182
g2
Ntp699
Rp700
(dp701
g49
I1
sg186
I2
sg187
g0
(g116
g2
Ntp702
Rp703
(dp704
g49
I1
sg120
Nsg50
Nsg130
g0
(g136
g2
Ntp705
Rp706
(dp707
g49
I1
sg140
g121
(g122
(I0
tp708
g124
tp709
Rp710
(I1
(I2
tp711
g59
I00
S'\x00\x00\x00\x00\x00\x00\xf0\x7f\x00\x00\x00\x00\x00\x00\xf0\x7f'
p712
tp713
bsg52
(dp714
I140629061309584
g703
ssg148
g121
(g122
(I0
tp715
g124
tp716
Rp717
(I1
(I2
I2
tp718
g59
I00
S'\x00\x00\x00\x00\x00\x00\x00\x00\x00\x00\x00\x00\x00\x00\x00\x00\x00\x00\x00\x00\x00\x00\xf0?\x00\x00\x00\x00\x00\x00\xf0?'
p719
tp720
bsg155
g121
(g122
(I0
tp721
g124
tp722
Rp723
(I1
(I2
I2
tp724
g59
I00
S'\x00\x00\x00\x00\x00\x00\x00\x00\x00\x00\x00\x00\x00\x00\x00\x00\x00\x00\x00\x00\x00\x00\xf0?\x00\x00\x00\x00\x00\x00\xf0?'
p725
tp726
bsg162
I01
sg51
g7
sbsg52
(dp727
I140629061310544
g700
ssg51
g7
sbsg259
I2
sg260
g0
(g163
g2
Ntp728
Rp729
(dp730
g49
I2
sg50
Nsg120
g121
(g122
(I0
tp731
g124
tp732
Rp733
(I1
(I3
I3
tp734
g59
I00
S'\x00\x00\x00\x00\x00\x00\xf0?\x00\x00\x00\x00\x00\x00\x00\x00\x00\x00\x00\x00\x00\x00\x00\x00\x00\x00\x00\x00\x00\x00\x00\x00\x00\x00\x00\x00\x00\x00\xf0?\x00\x00\x00\x00\x00\x00\x00\x00\x00\x00\x00\x00\x00\x00\x00\x00\x00\x00\x00\x00\x00\x00\x00\x00\x00\x00\x00\x00\x00\x00\xf0?'
p735
tp736
bsg51
g7
sg52
(dp737
I140629061310544
g700
ssbsg52
(dp738
I140629061310608
g697
ssg51
g7
sbsg259
I2
sg260
g262
sg52
(dp739
I140629061310672
g0
(g131
g2
Ntp740
Rp741
(dp742
g49
I2
sg135
g0
(g136
g2
Ntp743
Rp744
(dp745
g49
I1
sg140
g121
(g122
(I0
tp746
g124
tp747
Rp748
(I1
(I2
tp749
g59
I00
S'\x00\x00\x00\x00\x00\x00\xf0\x7f\x00\x00\x00\x00\x00\x00\xf0\x7f'
p750
tp751
bsg52
(dp752
I140629061310672
g741
ssg148
g121
(g122
(I0
tp753
g124
tp754
Rp755
(I1
(I2
I2
tp756
g59
I00
S'\x00\x00\x00\x00\x00\x00\x00\x00\x00\x00\x00\x00\x00\x00\x00\x00\x00\x00\x00\x00\x00\x00\xf0?\x00\x00\x00\x00\x00\x00\xf0?'
p757
tp758
bsg155
g121
(g122
(I0
tp759
g124
tp760
Rp761
(I1
(I2
I2
tp762
g59
I00
S'\x00\x00\x00\x00\x00\x00\x00\x00\x00\x00\x00\x00\x00\x00\x00\x00\x00\x00\x00\x00\x00\x00\xf0?\x00\x00\x00\x00\x00\x00\xf0?'
p763
tp764
bsg162
I01
sg51
g7
sbsg115
g697
sg155
Nsg52
(dp765
sg51
g7
sbssg51
g7
sbsI140629061839184
g0
(g182
g2
Ntp766
Rp767
(dp768
g49
I2
sg186
I2
sg187
g0
(g182
g2
Ntp769
Rp770
(dp771
g49
I1
sg186
I2
sg187
g0
(g116
g2
Ntp772
Rp773
(dp774
g49
I1
sg120
Nsg50
Nsg130
g0
(g136
g2
Ntp775
Rp776
(dp777
g49
I1
sg140
g121
(g122
(I0
tp778
g124
tp779
Rp780
(I1
(I2
tp781
g59
I00
S'\x00\x00\x00\x00\x00\x00\xf0\x7f\x00\x00\x00\x00\x00\x00\xf0\x7f'
p782
tp783
bsg52
(dp784
I140629061840080
g773
ssg148
g121
(g122
(I0
tp785
g124
tp786
Rp787
(I1
(I2
I2
tp788
g59
I00
S'\x00\x00\x00\x00\x00\x00\x00\x00\x00\x00\x00\x00\x00\x00\x00\x00\x00\x00\x00\x00\x00\x00\xf0?\x00\x00\x00\x00\x00\x00\xf0?'
p789
tp790
bsg155
g121
(g122
(I0
tp791
g124
tp792
Rp793
(I1
(I2
I2
tp794
g59
I00
S'\x00\x00\x00\x00\x00\x00\x00\x00\x00\x00\x00\x00\x00\x00\x00\x00\x00\x00\x00\x00\x00\x00\xf0?\x00\x00\x00\x00\x00\x00\xf0?'
p795
tp796
bsg162
I01
sg51
g7
sbsg52
(dp797
I140629061839120
g770
ssg51
g7
sbsg259
I2
sg260
g0
(g163
g2
Ntp798
Rp799
(dp800
g49
I2
sg50
Nsg120
g121
(g122
(I0
tp801
g124
tp802
Rp803
(I1
(I3
I3
tp804
g59
I00
S'\x00\x00\x00\x00\x00\x00\xf0?\x00\x00\x00\x00\x00\x00\x00\x00\x00\x00\x00\x00\x00\x00\x00\x00\x00\x00\x00\x00\x00\x00\x00\x00\x00\x00\x00\x00\x00\x00\xf0?\x00\x00\x00\x00\x00\x00\x00\x00\x00\x00\x00\x00\x00\x00\x00\x00\x00\x00\x00\x00\x00\x00\x00\x00\x00\x00\x00\x00\x00\x00\xf0?'
p805
tp806
bsg51
g7
sg52
(dp807
I140629061839120
g770
ssbsg52
(dp808
I140629061839184
g767
ssg51
g7
sbsg259
I2
sg260
g262
sg52
(dp809
I140629061839248
g0
(g131
g2
Ntp810
Rp811
(dp812
g49
I2
sg135
g0
(g136
g2
Ntp813
Rp814
(dp815
g49
I1
sg140
g121
(g122
(I0
tp816
g124
tp817
Rp818
(I1
(I2
tp819
g59
I00
S'\x00\x00\x00\x00\x00\x00\xf0\x7f\x00\x00\x00\x00\x00\x00\xf0\x7f'
p820
tp821
bsg52
(dp822
I140629061839248
g811
ssg148
g121
(g122
(I0
tp823
g124
tp824
Rp825
(I1
(I2
I2
tp826
g59
I00
S'\x00\x00\x00\x00\x00\x00\x00\x00\x00\x00\x00\x00\x00\x00\x00\x00\x00\x00\x00\x00\x00\x00\xf0?\x00\x00\x00\x00\x00\x00\xf0?'
p827
tp828
bsg155
g121
(g122
(I0
tp829
g124
tp830
Rp831
(I1
(I2
I2
tp832
g59
I00
S'\x00\x00\x00\x00\x00\x00\x00\x00\x00\x00\x00\x00\x00\x00\x00\x00\x00\x00\x00\x00\x00\x00\xf0?\x00\x00\x00\x00\x00\x00\xf0?'
p833
tp834
bsg162
I01
sg51
g7
sbsg115
g767
sg155
Nsg52
(dp835
sg51
g7
sbssg51
g7
sbsI140629061311056
g0
(g182
g2
Ntp836
Rp837
(dp838
g49
I2
sg186
I2
sg187
g0
(g182
g2
Ntp839
Rp840
(dp841
g49
I1
sg186
I2
sg187
g0
(g116
g2
Ntp842
Rp843
(dp844
g49
I1
sg120
Nsg50
Nsg130
g0
(g136
g2
Ntp845
Rp846
(dp847
g49
I1
sg140
g121
(g122
(I0
tp848
g124
tp849
Rp850
(I1
(I2
tp851
g59
I00
S'\x00\x00\x00\x00\x00\x00\xf0\x7f\x00\x00\x00\x00\x00\x00\xf0\x7f'
p852
tp853
bsg52
(dp854
I140629061310928
g843
ssg148
g121
(g122
(I0
tp855
g124
tp856
Rp857
(I1
(I2
I2
tp858
g59
I00
S'\x00\x00\x00\x00\x00\x00\x00\x00\x00\x00\x00\x00\x00\x00\x00\x00\x00\x00\x00\x00\x00\x00\xf0?\x00\x00\x00\x00\x00\x00\xf0?'
p859
tp860
bsg155
g121
(g122
(I0
tp861
g124
tp862
Rp863
(I1
(I2
I2
tp864
g59
I00
S'\x00\x00\x00\x00\x00\x00\x00\x00\x00\x00\x00\x00\x00\x00\x00\x00\x00\x00\x00\x00\x00\x00\xf0?\x00\x00\x00\x00\x00\x00\xf0?'
p865
tp866
bsg162
I01
sg51
g7
sbsg52
(dp867
I140629061310992
g840
ssg51
g7
sbsg259
I2
sg260
g0
(g163
g2
Ntp868
Rp869
(dp870
g49
I2
sg50
Nsg120
g121
(g122
(I0
tp871
g124
tp872
Rp873
(I1
(I3
I3
tp874
g59
I00
S'\x00\x00\x00\x00\x00\x00\xf0?\x00\x00\x00\x00\x00\x00\x00\x00\x00\x00\x00\x00\x00\x00\x00\x00\x00\x00\x00\x00\x00\x00\x00\x00\x00\x00\x00\x00\x00\x00\xf0?\x00\x00\x00\x00\x00\x00\x00\x00\x00\x00\x00\x00\x00\x00\x00\x00\x00\x00\x00\x00\x00\x00\x00\x00\x00\x00\x00\x00\x00\x00\xf0?'
p875
tp876
bsg51
g7
sg52
(dp877
I140629061310992
g840
ssbsg52
(dp878
I140629061311056
g837
ssg51
g7
sbsg259
I2
sg260
g262
sg52
(dp879
I140629061311120
g0
(g131
g2
Ntp880
Rp881
(dp882
g49
I2
sg135
g0
(g136
g2
Ntp883
Rp884
(dp885
g49
I1
sg140
g121
(g122
(I0
tp886
g124
tp887
Rp888
(I1
(I2
tp889
g59
I00
S'\x00\x00\x00\x00\x00\x00\xf0\x7f\x00\x00\x00\x00\x00\x00\xf0\x7f'
p890
tp891
bsg52
(dp892
I140629061311120
g881
ssg148
g121
(g122
(I0
tp893
g124
tp894
Rp895
(I1
(I2
I2
tp896
g59
I00
S'\x00\x00\x00\x00\x00\x00\x00\x00\x00\x00\x00\x00\x00\x00\x00\x00\x00\x00\x00\x00\x00\x00\xf0?\x00\x00\x00\x00\x00\x00\xf0?'
p897
tp898
bsg155
g121
(g122
(I0
tp899
g124
tp900
Rp901
(I1
(I2
I2
tp902
g59
I00
S'\x00\x00\x00\x00\x00\x00\x00\x00\x00\x00\x00\x00\x00\x00\x00\x00\x00\x00\x00\x00\x00\x00\xf0?\x00\x00\x00\x00\x00\x00\xf0?'
p903
tp904
bsg162
I01
sg51
g7
sbsg115
g837
sg155
Nsg52
(dp905
sg51
g7
sbssg51
g7
sbsI140628238404432
g0
(g182
g2
Ntp906
Rp907
(dp908
g49
I2
sg186
I2
sg187
g0
(g182
g2
Ntp909
Rp910
(dp911
g49
I1
sg186
I2
sg187
g0
(g116
g2
Ntp912
Rp913
(dp914
g49
I1
sg120
Nsg50
Nsg130
g0
(g136
g2
Ntp915
Rp916
(dp917
g49
I1
sg140
g121
(g122
(I0
tp918
g124
tp919
Rp920
(I1
(I2
tp921
g59
I00
S'\x00\x00\x00\x00\x00\x00\xf0\x7f\x00\x00\x00\x00\x00\x00\xf0\x7f'
p922
tp923
bsg52
(dp924
I140628238403344
g913
ssg148
g121
(g122
(I0
tp925
g124
tp926
Rp927
(I1
(I2
I2
tp928
g59
I00
S'\x00\x00\x00\x00\x00\x00\x00\x00\x00\x00\x00\x00\x00\x00\x00\x00\x00\x00\x00\x00\x00\x00\xf0?\x00\x00\x00\x00\x00\x00\xf0?'
p929
tp930
bsg155
g121
(g122
(I0
tp931
g124
tp932
Rp933
(I1
(I2
I2
tp934
g59
I00
S'\x00\x00\x00\x00\x00\x00\x00\x00\x00\x00\x00\x00\x00\x00\x00\x00\x00\x00\x00\x00\x00\x00\xf0?\x00\x00\x00\x00\x00\x00\xf0?'
p935
tp936
bsg162
I01
sg51
g7
sbsg52
(dp937
I140628238403728
g910
ssg51
g7
sbsg259
I2
sg260
g0
(g163
g2
Ntp938
Rp939
(dp940
g49
I2
sg50
Nsg120
g121
(g122
(I0
tp941
g124
tp942
Rp943
(I1
(I3
I3
tp944
g59
I00
S'\x00\x00\x00\x00\x00\x00\xf0?\x00\x00\x00\x00\x00\x00\x00\x00\x00\x00\x00\x00\x00\x00\x00\x00\x00\x00\x00\x00\x00\x00\x00\x00\x00\x00\x00\x00\x00\x00\xf0?\x00\x00\x00\x00\x00\x00\x00\x00\x00\x00\x00\x00\x00\x00\x00\x00\x00\x00\x00\x00\x00\x00\x00\x00\x00\x00\x00\x00\x00\x00\xf0?'
p945
tp946
bsg51
g7
sg52
(dp947
I140628238403728
g910
ssbsg52
(dp948
I140628238404432
g907
ssg51
g7
sbsg259
I2
sg260
g262
sg52
(dp949
I140628238402832
g0
(g131
g2
Ntp950
Rp951
(dp952
g49
I2
sg135
g0
(g136
g2
Ntp953
Rp954
(dp955
g49
I1
sg140
g121
(g122
(I0
tp956
g124
tp957
Rp958
(I1
(I2
tp959
g59
I00
S'\x00\x00\x00\x00\x00\x00\xf0\x7f\x00\x00\x00\x00\x00\x00\xf0\x7f'
p960
tp961
bsg52
(dp962
I140628238402832
g951
ssg148
g121
(g122
(I0
tp963
g124
tp964
Rp965
(I1
(I2
I2
tp966
g59
I00
S'\x00\x00\x00\x00\x00\x00\x00\x00\x00\x00\x00\x00\x00\x00\x00\x00\x00\x00\x00\x00\x00\x00\xf0?\x00\x00\x00\x00\x00\x00\xf0?'
p967
tp968
bsg155
g121
(g122
(I0
tp969
g124
tp970
Rp971
(I1
(I2
I2
tp972
g59
I00
S'\x00\x00\x00\x00\x00\x00\x00\x00\x00\x00\x00\x00\x00\x00\x00\x00\x00\x00\x00\x00\x00\x00\xf0?\x00\x00\x00\x00\x00\x00\xf0?'
p973
tp974
bsg162
I01
sg51
g7
sbsg115
g907
sg155
Nsg52
(dp975
sg51
g7
sbssg51
g7
sbsI140629062147984
g0
(g477
g2
Ntp976
Rp977
(dp978
g49
I2
sg120
Nsg75
g0
(g45
g2
Ntp979
Rp980
(dp981
g49
I1
sg50
Nsg51
g7
sg52
(dp982
I140629062147984
g977
ssbsg76
g262
sg50
Nsg51
g7
sg52
(dp983
sbsI140628236348368
g0
(g182
g2
Ntp984
Rp985
(dp986
g49
I2
sg186
I2
sg187
g0
(g182
g2
Ntp987
Rp988
(dp989
g49
I1
sg186
I2
sg187
g0
(g116
g2
Ntp990
Rp991
(dp992
g49
I1
sg120
Nsg50
Nsg130
g0
(g136
g2
Ntp993
Rp994
(dp995
g49
I1
sg140
g121
(g122
(I0
tp996
g124
tp997
Rp998
(I1
(I2
tp999
g59
I00
S'\x00\x00\x00\x00\x00\x00\xf0\x7f\x00\x00\x00\x00\x00\x00\xf0\x7f'
p1000
tp1001
bsg52
(dp1002
I140628236346000
g991
ssg148
g121
(g122
(I0
tp1003
g124
tp1004
Rp1005
(I1
(I2
I2
tp1006
g59
I00
S'\x00\x00\x00\x00\x00\x00\x00\x00\x00\x00\x00\x00\x00\x00\x00\x00\x00\x00\x00\x00\x00\x00\xf0?\x00\x00\x00\x00\x00\x00\xf0?'
p1007
tp1008
bsg155
g121
(g122
(I0
tp1009
g124
tp1010
Rp1011
(I1
(I2
I2
tp1012
g59
I00
S'\x00\x00\x00\x00\x00\x00\x00\x00\x00\x00\x00\x00\x00\x00\x00\x00\x00\x00\x00\x00\x00\x00\xf0?\x00\x00\x00\x00\x00\x00\xf0?'
p1013
tp1014
bsg162
I01
sg51
g7
sbsg52
(dp1015
I140628236348176
g988
ssg51
g7
sbsg259
I2
sg260
g0
(g163
g2
Ntp1016
Rp1017
(dp1018
g49
I2
sg50
Nsg120
g121
(g122
(I0
tp1019
g124
tp1020
Rp1021
(I1
(I3
I3
tp1022
g59
I00
S'\x00\x00\x00\x00\x00\x00\xf0?\x00\x00\x00\x00\x00\x00\x00\x00\x00\x00\x00\x00\x00\x00\x00\x00\x00\x00\x00\x00\x00\x00\x00\x00\x00\x00\x00\x00\x00\x00\xf0?\x00\x00\x00\x00\x00\x00\x00\x00\x00\x00\x00\x00\x00\x00\x00\x00\x00\x00\x00\x00\x00\x00\x00\x00\x00\x00\x00\x00\x00\x00\xf0?'
p1023
tp1024
bsg51
g7
sg52
(dp1025
I140628236348176
g988
ssbsg52
(dp1026
I140628236348368
g985
ssg51
g7
sbsg259
I2
sg260
g262
sg52
(dp1027
I140628236345488
g0
(g131
g2
Ntp1028
Rp1029
(dp1030
g49
I2
sg135
g0
(g136
g2
Ntp1031
Rp1032
(dp1033
g49
I1
sg140
g121
(g122
(I0
tp1034
g124
tp1035
Rp1036
(I1
(I2
tp1037
g59
I00
S'\x00\x00\x00\x00\x00\x00\xf0\x7f\x00\x00\x00\x00\x00\x00\xf0\x7f'
p1038
tp1039
bsg52
(dp1040
I140628236345488
g1029
ssg148
g121
(g122
(I0
tp1041
g124
tp1042
Rp1043
(I1
(I2
I2
tp1044
g59
I00
S'\x00\x00\x00\x00\x00\x00\x00\x00\x00\x00\x00\x00\x00\x00\x00\x00\x00\x00\x00\x00\x00\x00\xf0?\x00\x00\x00\x00\x00\x00\xf0?'
p1045
tp1046
bsg155
g121
(g122
(I0
tp1047
g124
tp1048
Rp1049
(I1
(I2
I2
tp1050
g59
I00
S'\x00\x00\x00\x00\x00\x00\x00\x00\x00\x00\x00\x00\x00\x00\x00\x00\x00\x00\x00\x00\x00\x00\xf0?\x00\x00\x00\x00\x00\x00\xf0?'
p1051
tp1052
bsg162
I01
sg51
g7
sbsg115
g985
sg155
Nsg52
(dp1053
sg51
g7
sbssg51
g7
sbsI140629061311504
g0
(g182
g2
Ntp1054
Rp1055
(dp1056
g49
I2
sg186
I2
sg187
g0
(g182
g2
Ntp1057
Rp1058
(dp1059
g49
I1
sg186
I2
sg187
g0
(g116
g2
Ntp1060
Rp1061
(dp1062
g49
I1
sg120
Nsg50
Nsg130
g0
(g136
g2
Ntp1063
Rp1064
(dp1065
g49
I1
sg140
g121
(g122
(I0
tp1066
g124
tp1067
Rp1068
(I1
(I2
tp1069
g59
I00
S'\x00\x00\x00\x00\x00\x00\xf0\x7f\x00\x00\x00\x00\x00\x00\xf0\x7f'
p1070
tp1071
bsg52
(dp1072
I140629061311376
g1061
ssg148
g121
(g122
(I0
tp1073
g124
tp1074
Rp1075
(I1
(I2
I2
tp1076
g59
I00
S'\x00\x00\x00\x00\x00\x00\x00\x00\x00\x00\x00\x00\x00\x00\x00\x00\x00\x00\x00\x00\x00\x00\xf0?\x00\x00\x00\x00\x00\x00\xf0?'
p1077
tp1078
bsg155
g121
(g122
(I0
tp1079
g124
tp1080
Rp1081
(I1
(I2
I2
tp1082
g59
I00
S'\x00\x00\x00\x00\x00\x00\x00\x00\x00\x00\x00\x00\x00\x00\x00\x00\x00\x00\x00\x00\x00\x00\xf0?\x00\x00\x00\x00\x00\x00\xf0?'
p1083
tp1084
bsg162
I01
sg51
g7
sbsg52
(dp1085
I140629061311440
g1058
ssg51
g7
sbsg259
I2
sg260
g0
(g163
g2
Ntp1086
Rp1087
(dp1088
g49
I2
sg50
Nsg120
g121
(g122
(I0
tp1089
g124
tp1090
Rp1091
(I1
(I3
I3
tp1092
g59
I00
S'\x00\x00\x00\x00\x00\x00\xf0?\x00\x00\x00\x00\x00\x00\x00\x00\x00\x00\x00\x00\x00\x00\x00\x00\x00\x00\x00\x00\x00\x00\x00\x00\x00\x00\x00\x00\x00\x00\xf0?\x00\x00\x00\x00\x00\x00\x00\x00\x00\x00\x00\x00\x00\x00\x00\x00\x00\x00\x00\x00\x00\x00\x00\x00\x00\x00\x00\x00\x00\x00\xf0?'
p1093
tp1094
bsg51
g7
sg52
(dp1095
I140629061311440
g1058
ssbsg52
(dp1096
I140629061311504
g1055
ssg51
g7
sbsg259
I2
sg260
g262
sg52
(dp1097
I140629061311568
g0
(g131
g2
Ntp1098
Rp1099
(dp1100
g49
I2
sg135
g0
(g136
g2
Ntp1101
Rp1102
(dp1103
g49
I1
sg140
g121
(g122
(I0
tp1104
g124
tp1105
Rp1106
(I1
(I2
tp1107
g59
I00
S'\x00\x00\x00\x00\x00\x00\xf0\x7f\x00\x00\x00\x00\x00\x00\xf0\x7f'
p1108
tp1109
bsg52
(dp1110
I140629061311568
g1099
ssg148
g121
(g122
(I0
tp1111
g124
tp1112
Rp1113
(I1
(I2
I2
tp1114
g59
I00
S'\x00\x00\x00\x00\x00\x00\x00\x00\x00\x00\x00\x00\x00\x00\x00\x00\x00\x00\x00\x00\x00\x00\xf0?\x00\x00\x00\x00\x00\x00\xf0?'
p1115
tp1116
bsg155
g121
(g122
(I0
tp1117
g124
tp1118
Rp1119
(I1
(I2
I2
tp1120
g59
I00
S'\x00\x00\x00\x00\x00\x00\x00\x00\x00\x00\x00\x00\x00\x00\x00\x00\x00\x00\x00\x00\x00\x00\xf0?\x00\x00\x00\x00\x00\x00\xf0?'
p1121
tp1122
bsg162
I01
sg51
g7
sbsg115
g1055
sg155
Nsg52
(dp1123
sg51
g7
sbssg51
g7
sbsI140629062147216
g399
sI140629061457744
g0
(g182
g2
Ntp1124
Rp1125
(dp1126
g49
I2
sg186
I2
sg187
g0
(g182
g2
Ntp1127
Rp1128
(dp1129
g49
I1
sg186
I2
sg187
g0
(g116
g2
Ntp1130
Rp1131
(dp1132
g49
I1
sg120
Nsg50
Nsg130
g0
(g136
g2
Ntp1133
Rp1134
(dp1135
g49
I1
sg140
g121
(g122
(I0
tp1136
g124
tp1137
Rp1138
(I1
(I2
tp1139
g59
I00
S'\x00\x00\x00\x00\x00\x00\xf0\x7f\x00\x00\x00\x00\x00\x00\xf0\x7f'
p1140
tp1141
bsg52
(dp1142
I140629061457616
g1131
ssg148
g121
(g122
(I0
tp1143
g124
tp1144
Rp1145
(I1
(I2
I2
tp1146
g59
I00
S'\x00\x00\x00\x00\x00\x00\x00\x00\x00\x00\x00\x00\x00\x00\x00\x00\x00\x00\x00\x00\x00\x00\xf0?\x00\x00\x00\x00\x00\x00\xf0?'
p1147
tp1148
bsg155
g121
(g122
(I0
tp1149
g124
tp1150
Rp1151
(I1
(I2
I2
tp1152
g59
I00
S'\x00\x00\x00\x00\x00\x00\x00\x00\x00\x00\x00\x00\x00\x00\x00\x00\x00\x00\x00\x00\x00\x00\xf0?\x00\x00\x00\x00\x00\x00\xf0?'
p1153
tp1154
bsg162
I01
sg51
g7
sbsg52
(dp1155
I140629061457680
g1128
ssg51
g7
sbsg259
I2
sg260
g0
(g163
g2
Ntp1156
Rp1157
(dp1158
g49
I2
sg50
Nsg120
g121
(g122
(I0
tp1159
g124
tp1160
Rp1161
(I1
(I3
I3
tp1162
g59
I00
S'\x00\x00\x00\x00\x00\x00\xf0?\x00\x00\x00\x00\x00\x00\x00\x00\x00\x00\x00\x00\x00\x00\x00\x00\x00\x00\x00\x00\x00\x00\x00\x00\x00\x00\x00\x00\x00\x00\xf0?\x00\x00\x00\x00\x00\x00\x00\x00\x00\x00\x00\x00\x00\x00\x00\x00\x00\x00\x00\x00\x00\x00\x00\x00\x00\x00\x00\x00\x00\x00\xf0?'
p1163
tp1164
bsg51
g7
sg52
(dp1165
I140629061457680
g1128
ssbsg52
(dp1166
I140629061457744
g1125
ssg51
g7
sbsg259
I2
sg260
g262
sg52
(dp1167
I140629061457808
g0
(g131
g2
Ntp1168
Rp1169
(dp1170
g49
I2
sg135
g0
(g136
g2
Ntp1171
Rp1172
(dp1173
g49
I1
sg140
g121
(g122
(I0
tp1174
g124
tp1175
Rp1176
(I1
(I2
tp1177
g59
I00
S'\x00\x00\x00\x00\x00\x00\xf0\x7f\x00\x00\x00\x00\x00\x00\xf0\x7f'
p1178
tp1179
bsg52
(dp1180
I140629061457808
g1169
ssg148
g121
(g122
(I0
tp1181
g124
tp1182
Rp1183
(I1
(I2
I2
tp1184
g59
I00
S'\x00\x00\x00\x00\x00\x00\x00\x00\x00\x00\x00\x00\x00\x00\x00\x00\x00\x00\x00\x00\x00\x00\xf0?\x00\x00\x00\x00\x00\x00\xf0?'
p1185
tp1186
bsg155
g121
(g122
(I0
tp1187
g124
tp1188
Rp1189
(I1
(I2
I2
tp1190
g59
I00
S'\x00\x00\x00\x00\x00\x00\x00\x00\x00\x00\x00\x00\x00\x00\x00\x00\x00\x00\x00\x00\x00\x00\xf0?\x00\x00\x00\x00\x00\x00\xf0?'
p1191
tp1192
bsg162
I01
sg51
g7
sbsg115
g1125
sg155
Nsg52
(dp1193
sg51
g7
sbssg51
g7
sbsI140629061311952
g0
(g182
g2
Ntp1194
Rp1195
(dp1196
g49
I2
sg186
I2
sg187
g0
(g182
g2
Ntp1197
Rp1198
(dp1199
g49
I1
sg186
I2
sg187
g0
(g116
g2
Ntp1200
Rp1201
(dp1202
g49
I1
sg120
Nsg50
Nsg130
g0
(g136
g2
Ntp1203
Rp1204
(dp1205
g49
I1
sg140
g121
(g122
(I0
tp1206
g124
tp1207
Rp1208
(I1
(I2
tp1209
g59
I00
S'\x00\x00\x00\x00\x00\x00\xf0\x7f\x00\x00\x00\x00\x00\x00\xf0\x7f'
p1210
tp1211
bsg52
(dp1212
I140629061311824
g1201
ssg148
g121
(g122
(I0
tp1213
g124
tp1214
Rp1215
(I1
(I2
I2
tp1216
g59
I00
S'\x00\x00\x00\x00\x00\x00\x00\x00\x00\x00\x00\x00\x00\x00\x00\x00\x00\x00\x00\x00\x00\x00\xf0?\x00\x00\x00\x00\x00\x00\xf0?'
p1217
tp1218
bsg155
g121
(g122
(I0
tp1219
g124
tp1220
Rp1221
(I1
(I2
I2
tp1222
g59
I00
S'\x00\x00\x00\x00\x00\x00\x00\x00\x00\x00\x00\x00\x00\x00\x00\x00\x00\x00\x00\x00\x00\x00\xf0?\x00\x00\x00\x00\x00\x00\xf0?'
p1223
tp1224
bsg162
I01
sg51
g7
sbsg52
(dp1225
I140629061311888
g1198
ssg51
g7
sbsg259
I2
sg260
g0
(g163
g2
Ntp1226
Rp1227
(dp1228
g49
I2
sg50
Nsg120
g121
(g122
(I0
tp1229
g124
tp1230
Rp1231
(I1
(I3
I3
tp1232
g59
I00
S'\x00\x00\x00\x00\x00\x00\xf0?\x00\x00\x00\x00\x00\x00\x00\x00\x00\x00\x00\x00\x00\x00\x00\x00\x00\x00\x00\x00\x00\x00\x00\x00\x00\x00\x00\x00\x00\x00\xf0?\x00\x00\x00\x00\x00\x00\x00\x00\x00\x00\x00\x00\x00\x00\x00\x00\x00\x00\x00\x00\x00\x00\x00\x00\x00\x00\x00\x00\x00\x00\xf0?'
p1233
tp1234
bsg51
g7
sg52
(dp1235
I140629061311888
g1198
ssbsg52
(dp1236
I140629061311952
g1195
ssg51
g7
sbsg259
I2
sg260
g262
sg52
(dp1237
I140629061312016
g0
(g131
g2
Ntp1238
Rp1239
(dp1240
g49
I2
sg135
g0
(g136
g2
Ntp1241
Rp1242
(dp1243
g49
I1
sg140
g121
(g122
(I0
tp1244
g124
tp1245
Rp1246
(I1
(I2
tp1247
g59
I00
S'\x00\x00\x00\x00\x00\x00\xf0\x7f\x00\x00\x00\x00\x00\x00\xf0\x7f'
p1248
tp1249
bsg52
(dp1250
I140629061312016
g1239
ssg148
g121
(g122
(I0
tp1251
g124
tp1252
Rp1253
(I1
(I2
I2
tp1254
g59
I00
S'\x00\x00\x00\x00\x00\x00\x00\x00\x00\x00\x00\x00\x00\x00\x00\x00\x00\x00\x00\x00\x00\x00\xf0?\x00\x00\x00\x00\x00\x00\xf0?'
p1255
tp1256
bsg155
g121
(g122
(I0
tp1257
g124
tp1258
Rp1259
(I1
(I2
I2
tp1260
g59
I00
S'\x00\x00\x00\x00\x00\x00\x00\x00\x00\x00\x00\x00\x00\x00\x00\x00\x00\x00\x00\x00\x00\x00\xf0?\x00\x00\x00\x00\x00\x00\xf0?'
p1261
tp1262
bsg162
I01
sg51
g7
sbsg115
g1195
sg155
Nsg52
(dp1263
sg51
g7
sbssg51
g7
sbsI140629062327824
g0
(g477
g2
Ntp1264
Rp1265
(dp1266
g49
I2
sg120
Nsg75
g0
(g45
g2
Ntp1267
Rp1268
(dp1269
g49
I1
sg50
Nsg51
g7
sg52
(dp1270
I140629062327824
g1265
ssbsg76
g262
sg50
Nsg51
g7
sg52
(dp1271
sbsI140629061310416
g0
(g182
g2
Ntp1272
Rp1273
(dp1274
g49
I2
sg186
I2
sg187
g0
(g182
g2
Ntp1275
Rp1276
(dp1277
g49
I1
sg186
I2
sg187
g0
(g116
g2
Ntp1278
Rp1279
(dp1280
g49
I1
sg120
Nsg50
Nsg130
g0
(g136
g2
Ntp1281
Rp1282
(dp1283
g49
I1
sg140
g121
(g122
(I0
tp1284
g124
tp1285
Rp1286
(I1
(I2
tp1287
g59
I00
S'\x00\x00\x00\x00\x00\x00\xf0\x7f\x00\x00\x00\x00\x00\x00\xf0\x7f'
p1288
tp1289
bsg52
(dp1290
I140629061309904
g1279
ssg148
g121
(g122
(I0
tp1291
g124
tp1292
Rp1293
(I1
(I2
I2
tp1294
g59
I00
S'\x00\x00\x00\x00\x00\x00\x00\x00\x00\x00\x00\x00\x00\x00\x00\x00\x00\x00\x00\x00\x00\x00\xf0?\x00\x00\x00\x00\x00\x00\xf0?'
p1295
tp1296
bsg155
g121
(g122
(I0
tp1297
g124
tp1298
Rp1299
(I1
(I2
I2
tp1300
g59
I00
S'\x00\x00\x00\x00\x00\x00\x00\x00\x00\x00\x00\x00\x00\x00\x00\x00\x00\x00\x00\x00\x00\x00\xf0?\x00\x00\x00\x00\x00\x00\xf0?'
p1301
tp1302
bsg162
I01
sg51
g7
sbsg52
(dp1303
I140629061310160
g1276
ssg51
g7
sbsg259
I2
sg260
g0
(g163
g2
Ntp1304
Rp1305
(dp1306
g49
I2
sg50
Nsg120
g121
(g122
(I0
tp1307
g124
tp1308
Rp1309
(I1
(I3
I3
tp1310
g59
I00
S'\x00\x00\x00\x00\x00\x00\xf0?\x00\x00\x00\x00\x00\x00\x00\x00\x00\x00\x00\x00\x00\x00\x00\x00\x00\x00\x00\x00\x00\x00\x00\x00\x00\x00\x00\x00\x00\x00\xf0?\x00\x00\x00\x00\x00\x00\x00\x00\x00\x00\x00\x00\x00\x00\x00\x00\x00\x00\x00\x00\x00\x00\x00\x00\x00\x00\x00\x00\x00\x00\xf0?'
p1311
tp1312
bsg51
g7
sg52
(dp1313
I140629061310160
g1276
ssbsg52
(dp1314
I140629061310416
g1273
ssg51
g7
sbsg259
I2
sg260
g262
sg52
(dp1315
I140629061310352
g0
(g131
g2
Ntp1316
Rp1317
(dp1318
g49
I2
sg135
g0
(g136
g2
Ntp1319
Rp1320
(dp1321
g49
I1
sg140
g121
(g122
(I0
tp1322
g124
tp1323
Rp1324
(I1
(I2
tp1325
g59
I00
S'\x00\x00\x00\x00\x00\x00\xf0\x7f\x00\x00\x00\x00\x00\x00\xf0\x7f'
p1326
tp1327
bsg52
(dp1328
I140629061310352
g1317
ssg148
g121
(g122
(I0
tp1329
g124
tp1330
Rp1331
(I1
(I2
I2
tp1332
g59
I00
S'\x00\x00\x00\x00\x00\x00\x00\x00\x00\x00\x00\x00\x00\x00\x00\x00\x00\x00\x00\x00\x00\x00\xf0?\x00\x00\x00\x00\x00\x00\xf0?'
p1333
tp1334
bsg155
g121
(g122
(I0
tp1335
g124
tp1336
Rp1337
(I1
(I2
I2
tp1338
g59
I00
S'\x00\x00\x00\x00\x00\x00\x00\x00\x00\x00\x00\x00\x00\x00\x00\x00\x00\x00\x00\x00\x00\x00\xf0?\x00\x00\x00\x00\x00\x00\xf0?'
p1339
tp1340
bsg162
I01
sg51
g7
sbsg115
g1273
sg155
Nsg52
(dp1341
sg51
g7
sbssg51
g7
sbsI140629062147856
g0
(g477
g2
Ntp1342
Rp1343
(dp1344
g49
I2
sg120
Nsg75
g0
(g45
g2
Ntp1345
Rp1346
(dp1347
g49
I1
sg50
Nsg51
g7
sg52
(dp1348
I140629062147856
g1343
ssbsg76
g262
sg50
Nsg51
g7
sg52
(dp1349
sbsI140629061837904
g0
(g182
g2
Ntp1350
Rp1351
(dp1352
g49
I2
sg186
I2
sg187
g0
(g182
g2
Ntp1353
Rp1354
(dp1355
g49
I1
sg186
I2
sg187
g0
(g116
g2
Ntp1356
Rp1357
(dp1358
g49
I1
sg120
Nsg50
Nsg130
g0
(g136
g2
Ntp1359
Rp1360
(dp1361
g49
I1
sg140
g121
(g122
(I0
tp1362
g124
tp1363
Rp1364
(I1
(I2
tp1365
g59
I00
S'\x00\x00\x00\x00\x00\x00\xf0\x7f\x00\x00\x00\x00\x00\x00\xf0\x7f'
p1366
tp1367
bsg52
(dp1368
I140629061838160
g1357
ssg148
g121
(g122
(I0
tp1369
g124
tp1370
Rp1371
(I1
(I2
I2
tp1372
g59
I00
S'\x00\x00\x00\x00\x00\x00\x00\x00\x00\x00\x00\x00\x00\x00\x00\x00\x00\x00\x00\x00\x00\x00\xf0?\x00\x00\x00\x00\x00\x00\xf0?'
p1373
tp1374
bsg155
g121
(g122
(I0
tp1375
g124
tp1376
Rp1377
(I1
(I2
I2
tp1378
g59
I00
S'\x00\x00\x00\x00\x00\x00\x00\x00\x00\x00\x00\x00\x00\x00\x00\x00\x00\x00\x00\x00\x00\x00\xf0?\x00\x00\x00\x00\x00\x00\xf0?'
p1379
tp1380
bsg162
I01
sg51
g7
sbsg52
(dp1381
I140629061838224
g1354
ssg51
g7
sbsg259
I2
sg260
g0
(g163
g2
Ntp1382
Rp1383
(dp1384
g49
I2
sg50
Nsg120
g121
(g122
(I0
tp1385
g124
tp1386
Rp1387
(I1
(I3
I3
tp1388
g59
I00
S'\x00\x00\x00\x00\x00\x00\xf0?\x00\x00\x00\x00\x00\x00\x00\x00\x00\x00\x00\x00\x00\x00\x00\x00\x00\x00\x00\x00\x00\x00\x00\x00\x00\x00\x00\x00\x00\x00\xf0?\x00\x00\x00\x00\x00\x00\x00\x00\x00\x00\x00\x00\x00\x00\x00\x00\x00\x00\x00\x00\x00\x00\x00\x00\x00\x00\x00\x00\x00\x00\xf0?'
p1389
tp1390
bsg51
g7
sg52
(dp1391
I140629061838224
g1354
ssbsg52
(dp1392
I140629061837904
g1351
ssg51
g7
sbsg259
I2
sg260
g262
sg52
(dp1393
I140629061837968
g0
(g131
g2
Ntp1394
Rp1395
(dp1396
g49
I2
sg135
g0
(g136
g2
Ntp1397
Rp1398
(dp1399
g49
I1
sg140
g121
(g122
(I0
tp1400
g124
tp1401
Rp1402
(I1
(I2
tp1403
g59
I00
S'\x00\x00\x00\x00\x00\x00\xf0\x7f\x00\x00\x00\x00\x00\x00\xf0\x7f'
p1404
tp1405
bsg52
(dp1406
I140629061837968
g1395
ssg148
g121
(g122
(I0
tp1407
g124
tp1408
Rp1409
(I1
(I2
I2
tp1410
g59
I00
S'\x00\x00\x00\x00\x00\x00\x00\x00\x00\x00\x00\x00\x00\x00\x00\x00\x00\x00\x00\x00\x00\x00\xf0?\x00\x00\x00\x00\x00\x00\xf0?'
p1411
tp1412
bsg155
g121
(g122
(I0
tp1413
g124
tp1414
Rp1415
(I1
(I2
I2
tp1416
g59
I00
S'\x00\x00\x00\x00\x00\x00\x00\x00\x00\x00\x00\x00\x00\x00\x00\x00\x00\x00\x00\x00\x00\x00\xf0?\x00\x00\x00\x00\x00\x00\xf0?'
p1417
tp1418
bsg162
I01
sg51
g7
sbsg115
g1351
sg155
Nsg52
(dp1419
sg51
g7
sbssg51
g7
sbsI140629061312400
g0
(g182
g2
Ntp1420
Rp1421
(dp1422
g49
I2
sg186
I2
sg187
g0
(g182
g2
Ntp1423
Rp1424
(dp1425
g49
I1
sg186
I2
sg187
g0
(g116
g2
Ntp1426
Rp1427
(dp1428
g49
I1
sg120
Nsg50
Nsg130
g0
(g136
g2
Ntp1429
Rp1430
(dp1431
g49
I1
sg140
g121
(g122
(I0
tp1432
g124
tp1433
Rp1434
(I1
(I2
tp1435
g59
I00
S'\x00\x00\x00\x00\x00\x00\xf0\x7f\x00\x00\x00\x00\x00\x00\xf0\x7f'
p1436
tp1437
bsg52
(dp1438
I140629061312272
g1427
ssg148
g121
(g122
(I0
tp1439
g124
tp1440
Rp1441
(I1
(I2
I2
tp1442
g59
I00
S'\x00\x00\x00\x00\x00\x00\x00\x00\x00\x00\x00\x00\x00\x00\x00\x00\x00\x00\x00\x00\x00\x00\xf0?\x00\x00\x00\x00\x00\x00\xf0?'
p1443
tp1444
bsg155
g121
(g122
(I0
tp1445
g124
tp1446
Rp1447
(I1
(I2
I2
tp1448
g59
I00
S'\x00\x00\x00\x00\x00\x00\x00\x00\x00\x00\x00\x00\x00\x00\x00\x00\x00\x00\x00\x00\x00\x00\xf0?\x00\x00\x00\x00\x00\x00\xf0?'
p1449
tp1450
bsg162
I01
sg51
g7
sbsg52
(dp1451
I140629061312336
g1424
ssg51
g7
sbsg259
I2
sg260
g0
(g163
g2
Ntp1452
Rp1453
(dp1454
g49
I2
sg50
Nsg120
g121
(g122
(I0
tp1455
g124
tp1456
Rp1457
(I1
(I3
I3
tp1458
g59
I00
S'\x00\x00\x00\x00\x00\x00\xf0?\x00\x00\x00\x00\x00\x00\x00\x00\x00\x00\x00\x00\x00\x00\x00\x00\x00\x00\x00\x00\x00\x00\x00\x00\x00\x00\x00\x00\x00\x00\xf0?\x00\x00\x00\x00\x00\x00\x00\x00\x00\x00\x00\x00\x00\x00\x00\x00\x00\x00\x00\x00\x00\x00\x00\x00\x00\x00\x00\x00\x00\x00\xf0?'
p1459
tp1460
bsg51
g7
sg52
(dp1461
I140629061312336
g1424
ssbsg52
(dp1462
I140629061312400
g1421
ssg51
g7
sbsg259
I2
sg260
g262
sg52
(dp1463
I140629061312464
g0
(g131
g2
Ntp1464
Rp1465
(dp1466
g49
I2
sg135
g0
(g136
g2
Ntp1467
Rp1468
(dp1469
g49
I1
sg140
g121
(g122
(I0
tp1470
g124
tp1471
Rp1472
(I1
(I2
tp1473
g59
I00
S'\x00\x00\x00\x00\x00\x00\xf0\x7f\x00\x00\x00\x00\x00\x00\xf0\x7f'
p1474
tp1475
bsg52
(dp1476
I140629061312464
g1465
ssg148
g121
(g122
(I0
tp1477
g124
tp1478
Rp1479
(I1
(I2
I2
tp1480
g59
I00
S'\x00\x00\x00\x00\x00\x00\x00\x00\x00\x00\x00\x00\x00\x00\x00\x00\x00\x00\x00\x00\x00\x00\xf0?\x00\x00\x00\x00\x00\x00\xf0?'
p1481
tp1482
bsg155
g121
(g122
(I0
tp1483
g124
tp1484
Rp1485
(I1
(I2
I2
tp1486
g59
I00
S'\x00\x00\x00\x00\x00\x00\x00\x00\x00\x00\x00\x00\x00\x00\x00\x00\x00\x00\x00\x00\x00\x00\xf0?\x00\x00\x00\x00\x00\x00\xf0?'
p1487
tp1488
bsg162
I01
sg51
g7
sbsg115
g1421
sg155
Nsg52
(dp1489
sg51
g7
sbssg51
g7
sbsI140629061234768
g0
(g182
g2
Ntp1490
Rp1491
(dp1492
g49
I2
sg186
I2
sg187
g0
(g182
g2
Ntp1493
Rp1494
(dp1495
g49
I1
sg186
I2
sg187
g0
(g116
g2
Ntp1496
Rp1497
(dp1498
g49
I1
sg120
Nsg50
Nsg130
g0
(g136
g2
Ntp1499
Rp1500
(dp1501
g49
I1
sg140
g121
(g122
(I0
tp1502
g124
tp1503
Rp1504
(I1
(I2
tp1505
g59
I00
S'\x00\x00\x00\x00\x00\x00\xf0\x7f\x00\x00\x00\x00\x00\x00\xf0\x7f'
p1506
tp1507
bsg52
(dp1508
I140628236903120
g1497
ssg148
g121
(g122
(I0
tp1509
g124
tp1510
Rp1511
(I1
(I2
I2
tp1512
g59
I00
S'\x00\x00\x00\x00\x00\x00\x00\x00\x00\x00\x00\x00\x00\x00\x00\x00\x00\x00\x00\x00\x00\x00\xf0?\x00\x00\x00\x00\x00\x00\xf0?'
p1513
tp1514
bsg155
g121
(g122
(I0
tp1515
g124
tp1516
Rp1517
(I1
(I2
I2
tp1518
g59
I00
S'\x00\x00\x00\x00\x00\x00\x00\x00\x00\x00\x00\x00\x00\x00\x00\x00\x00\x00\x00\x00\x00\x00\xf0?\x00\x00\x00\x00\x00\x00\xf0?'
p1519
tp1520
bsg162
I01
sg51
g7
sbsg52
(dp1521
I140629061235088
g1494
ssg51
g7
sbsg259
I2
sg260
g0
(g163
g2
Ntp1522
Rp1523
(dp1524
g49
I2
sg50
Nsg120
g121
(g122
(I0
tp1525
g124
tp1526
Rp1527
(I1
(I3
I3
tp1528
g59
I00
S'\x00\x00\x00\x00\x00\x00\xf0?\x00\x00\x00\x00\x00\x00\x00\x00\x00\x00\x00\x00\x00\x00\x00\x00\x00\x00\x00\x00\x00\x00\x00\x00\x00\x00\x00\x00\x00\x00\xf0?\x00\x00\x00\x00\x00\x00\x00\x00\x00\x00\x00\x00\x00\x00\x00\x00\x00\x00\x00\x00\x00\x00\x00\x00\x00\x00\x00\x00\x00\x00\xf0?'
p1529
tp1530
bsg51
g7
sg52
(dp1531
I140629061235088
g1494
ssbsg52
(dp1532
I140629061234768
g1491
ssg51
g7
sbsg259
I2
sg260
g262
sg52
(dp1533
I140629061237456
g0
(g131
g2
Ntp1534
Rp1535
(dp1536
g49
I2
sg135
g0
(g136
g2
Ntp1537
Rp1538
(dp1539
g49
I1
sg140
g121
(g122
(I0
tp1540
g124
tp1541
Rp1542
(I1
(I2
tp1543
g59
I00
S'\x00\x00\x00\x00\x00\x00\xf0\x7f\x00\x00\x00\x00\x00\x00\xf0\x7f'
p1544
tp1545
bsg52
(dp1546
I140629061237456
g1535
ssg148
g121
(g122
(I0
tp1547
g124
tp1548
Rp1549
(I1
(I2
I2
tp1550
g59
I00
S'\x00\x00\x00\x00\x00\x00\x00\x00\x00\x00\x00\x00\x00\x00\x00\x00\x00\x00\x00\x00\x00\x00\xf0?\x00\x00\x00\x00\x00\x00\xf0?'
p1551
tp1552
bsg155
g121
(g122
(I0
tp1553
g124
tp1554
Rp1555
(I1
(I2
I2
tp1556
g59
I00
S'\x00\x00\x00\x00\x00\x00\x00\x00\x00\x00\x00\x00\x00\x00\x00\x00\x00\x00\x00\x00\x00\x00\xf0?\x00\x00\x00\x00\x00\x00\xf0?'
p1557
tp1558
bsg162
I01
sg51
g7
sbsg115
g1491
sg155
Nsg52
(dp1559
sg51
g7
sbssg51
g7
sbsI140628239114576
g0
(g182
g2
Ntp1560
Rp1561
(dp1562
g49
I2
sg186
I2
sg187
g0
(g182
g2
Ntp1563
Rp1564
(dp1565
g49
I1
sg186
I2
sg187
g0
(g116
g2
Ntp1566
Rp1567
(dp1568
g49
I1
sg120
Nsg50
Nsg130
g0
(g136
g2
Ntp1569
Rp1570
(dp1571
g49
I1
sg140
g121
(g122
(I0
tp1572
g124
tp1573
Rp1574
(I1
(I2
tp1575
g59
I00
S'\x00\x00\x00\x00\x00\x00\xf0\x7f\x00\x00\x00\x00\x00\x00\xf0\x7f'
p1576
tp1577
bsg52
(dp1578
I140628239114320
g1567
ssg148
g121
(g122
(I0
tp1579
g124
tp1580
Rp1581
(I1
(I2
I2
tp1582
g59
I00
S'\x00\x00\x00\x00\x00\x00\x00\x00\x00\x00\x00\x00\x00\x00\x00\x00\x00\x00\x00\x00\x00\x00\xf0?\x00\x00\x00\x00\x00\x00\xf0?'
p1583
tp1584
bsg155
g121
(g122
(I0
tp1585
g124
tp1586
Rp1587
(I1
(I2
I2
tp1588
g59
I00
S'\x00\x00\x00\x00\x00\x00\x00\x00\x00\x00\x00\x00\x00\x00\x00\x00\x00\x00\x00\x00\x00\x00\xf0?\x00\x00\x00\x00\x00\x00\xf0?'
p1589
tp1590
bsg162
I01
sg51
g7
sbsg52
(dp1591
I140628239114640
g1564
ssg51
g7
sbsg259
I2
sg260
g0
(g163
g2
Ntp1592
Rp1593
(dp1594
g49
I2
sg50
Nsg120
g121
(g122
(I0
tp1595
g124
tp1596
Rp1597
(I1
(I3
I3
tp1598
g59
I00
S'\x00\x00\x00\x00\x00\x00\xf0?\x00\x00\x00\x00\x00\x00\x00\x00\x00\x00\x00\x00\x00\x00\x00\x00\x00\x00\x00\x00\x00\x00\x00\x00\x00\x00\x00\x00\x00\x00\xf0?\x00\x00\x00\x00\x00\x00\x00\x00\x00\x00\x00\x00\x00\x00\x00\x00\x00\x00\x00\x00\x00\x00\x00\x00\x00\x00\x00\x00\x00\x00\xf0?'
p1599
tp1600
bsg51
g7
sg52
(dp1601
I140628239114640
g1564
ssbsg52
(dp1602
I140628239114576
g1561
ssg51
g7
sbsg259
I2
sg260
g262
sg52
(dp1603
I140628239115344
g0
(g131
g2
Ntp1604
Rp1605
(dp1606
g49
I2
sg135
g0
(g136
g2
Ntp1607
Rp1608
(dp1609
g49
I1
sg140
g121
(g122
(I0
tp1610
g124
tp1611
Rp1612
(I1
(I2
tp1613
g59
I00
S'\x00\x00\x00\x00\x00\x00\xf0\x7f\x00\x00\x00\x00\x00\x00\xf0\x7f'
p1614
tp1615
bsg52
(dp1616
I140628239115344
g1605
ssg148
g121
(g122
(I0
tp1617
g124
tp1618
Rp1619
(I1
(I2
I2
tp1620
g59
I00
S'\x00\x00\x00\x00\x00\x00\x00\x00\x00\x00\x00\x00\x00\x00\x00\x00\x00\x00\x00\x00\x00\x00\xf0?\x00\x00\x00\x00\x00\x00\xf0?'
p1621
tp1622
bsg155
g121
(g122
(I0
tp1623
g124
tp1624
Rp1625
(I1
(I2
I2
tp1626
g59
I00
S'\x00\x00\x00\x00\x00\x00\x00\x00\x00\x00\x00\x00\x00\x00\x00\x00\x00\x00\x00\x00\x00\x00\xf0?\x00\x00\x00\x00\x00\x00\xf0?'
p1627
tp1628
bsg162
I01
sg51
g7
sbsg115
g1561
sg155
Nsg52
(dp1629
sg51
g7
sbssg51
g7
sbsI140629061456272
g0
(g182
g2
Ntp1630
Rp1631
(dp1632
g49
I2
sg186
I2
sg187
g0
(g182
g2
Ntp1633
Rp1634
(dp1635
g49
I1
sg186
I2
sg187
g0
(g116
g2
Ntp1636
Rp1637
(dp1638
g49
I1
sg120
Nsg50
Nsg130
g0
(g136
g2
Ntp1639
Rp1640
(dp1641
g49
I1
sg140
g121
(g122
(I0
tp1642
g124
tp1643
Rp1644
(I1
(I2
tp1645
g59
I00
S'\x00\x00\x00\x00\x00\x00\xf0\x7f\x00\x00\x00\x00\x00\x00\xf0\x7f'
p1646
tp1647
bsg52
(dp1648
I140629061456144
g1637
ssg148
g121
(g122
(I0
tp1649
g124
tp1650
Rp1651
(I1
(I2
I2
tp1652
g59
I00
S'\x00\x00\x00\x00\x00\x00\x00\x00\x00\x00\x00\x00\x00\x00\x00\x00\x00\x00\x00\x00\x00\x00\xf0?\x00\x00\x00\x00\x00\x00\xf0?'
p1653
tp1654
bsg155
g121
(g122
(I0
tp1655
g124
tp1656
Rp1657
(I1
(I2
I2
tp1658
g59
I00
S'\x00\x00\x00\x00\x00\x00\x00\x00\x00\x00\x00\x00\x00\x00\x00\x00\x00\x00\x00\x00\x00\x00\xf0?\x00\x00\x00\x00\x00\x00\xf0?'
p1659
tp1660
bsg162
I01
sg51
g7
sbsg52
(dp1661
I140629061456208
g1634
ssg51
g7
sbsg259
I2
sg260
g0
(g163
g2
Ntp1662
Rp1663
(dp1664
g49
I2
sg50
Nsg120
g121
(g122
(I0
tp1665
g124
tp1666
Rp1667
(I1
(I3
I3
tp1668
g59
I00
S'\x00\x00\x00\x00\x00\x00\xf0?\x00\x00\x00\x00\x00\x00\x00\x00\x00\x00\x00\x00\x00\x00\x00\x00\x00\x00\x00\x00\x00\x00\x00\x00\x00\x00\x00\x00\x00\x00\xf0?\x00\x00\x00\x00\x00\x00\x00\x00\x00\x00\x00\x00\x00\x00\x00\x00\x00\x00\x00\x00\x00\x00\x00\x00\x00\x00\x00\x00\x00\x00\xf0?'
p1669
tp1670
bsg51
g7
sg52
(dp1671
I140629061456208
g1634
ssbsg52
(dp1672
I140629061456272
g1631
ssg51
g7
sbsg259
I2
sg260
g262
sg52
(dp1673
I140629061456336
g0
(g131
g2
Ntp1674
Rp1675
(dp1676
g49
I2
sg135
g0
(g136
g2
Ntp1677
Rp1678
(dp1679
g49
I1
sg140
g121
(g122
(I0
tp1680
g124
tp1681
Rp1682
(I1
(I2
tp1683
g59
I00
S'\x00\x00\x00\x00\x00\x00\xf0\x7f\x00\x00\x00\x00\x00\x00\xf0\x7f'
p1684
tp1685
bsg52
(dp1686
I140629061456336
g1675
ssg148
g121
(g122
(I0
tp1687
g124
tp1688
Rp1689
(I1
(I2
I2
tp1690
g59
I00
S'\x00\x00\x00\x00\x00\x00\x00\x00\x00\x00\x00\x00\x00\x00\x00\x00\x00\x00\x00\x00\x00\x00\xf0?\x00\x00\x00\x00\x00\x00\xf0?'
p1691
tp1692
bsg155
g121
(g122
(I0
tp1693
g124
tp1694
Rp1695
(I1
(I2
I2
tp1696
g59
I00
S'\x00\x00\x00\x00\x00\x00\x00\x00\x00\x00\x00\x00\x00\x00\x00\x00\x00\x00\x00\x00\x00\x00\xf0?\x00\x00\x00\x00\x00\x00\xf0?'
p1697
tp1698
bsg162
I01
sg51
g7
sbsg115
g1631
sg155
Nsg52
(dp1699
sg51
g7
sbssg51
g7
sbsI140628236345872
g0
(g182
g2
Ntp1700
Rp1701
(dp1702
g49
I2
sg186
I2
sg187
g0
(g182
g2
Ntp1703
Rp1704
(dp1705
g49
I1
sg186
I2
sg187
g0
(g116
g2
Ntp1706
Rp1707
(dp1708
g49
I1
sg120
Nsg50
Nsg130
g0
(g136
g2
Ntp1709
Rp1710
(dp1711
g49
I1
sg140
g121
(g122
(I0
tp1712
g124
tp1713
Rp1714
(I1
(I2
tp1715
g59
I00
S'\x00\x00\x00\x00\x00\x00\xf0\x7f\x00\x00\x00\x00\x00\x00\xf0\x7f'
p1716
tp1717
bsg52
(dp1718
I140628236346960
g1707
ssg148
g121
(g122
(I0
tp1719
g124
tp1720
Rp1721
(I1
(I2
I2
tp1722
g59
I00
S'\x00\x00\x00\x00\x00\x00\x00\x00\x00\x00\x00\x00\x00\x00\x00\x00\x00\x00\x00\x00\x00\x00\xf0?\x00\x00\x00\x00\x00\x00\xf0?'
p1723
tp1724
bsg155
g121
(g122
(I0
tp1725
g124
tp1726
Rp1727
(I1
(I2
I2
tp1728
g59
I00
S'\x00\x00\x00\x00\x00\x00\x00\x00\x00\x00\x00\x00\x00\x00\x00\x00\x00\x00\x00\x00\x00\x00\xf0?\x00\x00\x00\x00\x00\x00\xf0?'
p1729
tp1730
bsg162
I01
sg51
g7
sbsg52
(dp1731
I140628236347600
g1704
ssg51
g7
sbsg259
I2
sg260
g0
(g163
g2
Ntp1732
Rp1733
(dp1734
g49
I2
sg50
Nsg120
g121
(g122
(I0
tp1735
g124
tp1736
Rp1737
(I1
(I3
I3
tp1738
g59
I00
S'\x00\x00\x00\x00\x00\x00\xf0?\x00\x00\x00\x00\x00\x00\x00\x00\x00\x00\x00\x00\x00\x00\x00\x00\x00\x00\x00\x00\x00\x00\x00\x00\x00\x00\x00\x00\x00\x00\xf0?\x00\x00\x00\x00\x00\x00\x00\x00\x00\x00\x00\x00\x00\x00\x00\x00\x00\x00\x00\x00\x00\x00\x00\x00\x00\x00\x00\x00\x00\x00\xf0?'
p1739
tp1740
bsg51
g7
sg52
(dp1741
I140628236347600
g1704
ssbsg52
(dp1742
I140628236345872
g1701
ssg51
g7
sbsg259
I2
sg260
g262
sg52
(dp1743
I140628236345936
g0
(g131
g2
Ntp1744
Rp1745
(dp1746
g49
I2
sg135
g0
(g136
g2
Ntp1747
Rp1748
(dp1749
g49
I1
sg140
g121
(g122
(I0
tp1750
g124
tp1751
Rp1752
(I1
(I2
tp1753
g59
I00
S'\x00\x00\x00\x00\x00\x00\xf0\x7f\x00\x00\x00\x00\x00\x00\xf0\x7f'
p1754
tp1755
bsg52
(dp1756
I140628236345936
g1745
ssg148
g121
(g122
(I0
tp1757
g124
tp1758
Rp1759
(I1
(I2
I2
tp1760
g59
I00
S'\x00\x00\x00\x00\x00\x00\x00\x00\x00\x00\x00\x00\x00\x00\x00\x00\x00\x00\x00\x00\x00\x00\xf0?\x00\x00\x00\x00\x00\x00\xf0?'
p1761
tp1762
bsg155
g121
(g122
(I0
tp1763
g124
tp1764
Rp1765
(I1
(I2
I2
tp1766
g59
I00
S'\x00\x00\x00\x00\x00\x00\x00\x00\x00\x00\x00\x00\x00\x00\x00\x00\x00\x00\x00\x00\x00\x00\xf0?\x00\x00\x00\x00\x00\x00\xf0?'
p1767
tp1768
bsg162
I01
sg51
g7
sbsg115
g1701
sg155
Nsg52
(dp1769
sg51
g7
sbssg51
g7
sbssg51
g7
sbsg52
(dp1770
I140629062017424
g193
ssg51
g7
sbssbssg51
g7
sbsI140629062017424
g193
ssVinput_dims
p1771
I2
sVchild
p1772
g0
(g477
g2
Ntp1773
Rp1774
(dp1775
g49
I0
sg120
g121
(g122
(I0
tp1776
g124
tp1777
Rp1778
(I1
(I3
I3
tp1779
g59
I00
S'\x00\x00\x00\x00\x00\x00\xf0?\x00\x00\x00\x00\x00\x00\x00\x00\x00\x00\x00\x00\x00\x00\x00\x00\x00\x00\x00\x00\x00\x00\x00\x00\x00\x00\x00\x00\x00\x00\xf0?\x00\x00\x00\x00\x00\x00\x00\x00\x00\x00\x00\x00\x00\x00\x00\x00\x00\x00\x00\x00\x00\x00\x00\x00\x00\x00\x00\x00\x00\x00\xf0?'
p1780
tp1781
bsg75
g0
(g45
g2
Ntp1782
Rp1783
(dp1784
g49
I1
sg50
Nsg51
g7
sg52
(dp1785
I140629062144848
g1774
ssbsg76
g0
(g45
g2
Ntp1786
Rp1787
(dp1788
g49
I1
sg50
Nsg51
g7
sg52
(dp1789
I140629062144848
g1774
ssbsg50
g0
(g163
g2
Ntp1790
Rp1791
(dp1792
g49
I0
sg50
Nsg120
g121
(g122
(I0
tp1793
g124
tp1794
Rp1795
(I1
(I3
I3
tp1796
g59
I00
S'\x00\x00\x00\x00\x00\x00\xf0?\x00\x00\x00\x00\x00\x00\x00\x00\x00\x00\x00\x00\x00\x00\x00\x00\x00\x00\x00\x00\x00\x00\x00\x00\x00\x00\x00\x00\x00\x00\xf0?\x00\x00\x00\x00\x00\x00\x00\x00\x00\x00\x00\x00\x00\x00\x00\x00\x00\x00\x00\x00\x00\x00\x00\x00\x00\x00\x00\x00\x00\x00\xf0?'
p1797
tp1798
bsg51
g7
sg52
(dp1799
sbsg51
g7
sg52
(dp1800
I140629062017680
g197
ssbsbsg259
I2
sg260
g257
sg52
(dp1801
I140629062018320
g314
sI140629062018000
g190
ssg51
g7
sbsg76
g262
sg316
Nsg52
(dp1802
I140629061309392
g0
(g182
g2
Ntp1803
Rp1804
(dp1805
g49
I2
sg186
I2
sg187
g190
sg259
I2
sg260
g0
(g174
g2
Ntp1806
Rp1807
(dp1808
g49
I1
sg120
Nsg178
g165
sg50
Nsg179
(F0.04722222222222222
I0
tp1809
sg51
g7
sg52
(dp1810
I140629061309392
g1804
ssbsg52
(dp1811
sg51
g7
sbsI140629061237904
g0
(g182
g2
Ntp1812
Rp1813
(dp1814
g49
I2
sg186
I2
sg187
g190
sg259
I2
sg260
g0
(g174
g2
Ntp1815
Rp1816
(dp1817
g49
I1
sg120
Nsg178
g165
sg50
Nsg179
(F-0.04722222222222222
I0
tp1818
sg51
g7
sg52
(dp1819
I140629061237904
g1813
ssbsg52
(dp1820
sg51
g7
sbsI140629061235216
g0
(g182
g2
Ntp1821
Rp1822
(dp1823
g49
I2
sg186
I2
sg187
g190
sg259
I2
sg260
g0
(g174
g2
Ntp1824
Rp1825
(dp1826
g49
I1
sg120
Nsg178
g165
sg50
Nsg179
(F-0.04861111111111111
I0
tp1827
sg51
g7
sg52
(dp1828
I140629061235216
g1822
ssbsg52
(dp1829
sg51
g7
sbsI140629061235280
g0
(g182
g2
Ntp1830
Rp1831
(dp1832
g49
I2
sg186
I2
sg187
g190
sg259
I2
sg260
g0
(g174
g2
Ntp1833
Rp1834
(dp1835
g49
I1
sg120
Nsg178
g165
sg50
Nsg179
(F0.04861111111111111
I0
tp1836
sg51
g7
sg52
(dp1837
I140629061235280
g1831
ssbsg52
(dp1838
sg51
g7
sbsI140629061238160
g184
sI140629061236240
g0
(g182
g2
Ntp1839
Rp1840
(dp1841
g49
I2
sg186
I2
sg187
g190
sg259
I2
sg260
g0
(g174
g2
Ntp1842
Rp1843
(dp1844
g49
I1
sg120
Nsg178
g165
sg50
Nsg179
(F0.04722222222222222
I0
tp1845
sg51
g7
sg52
(dp1846
I140629061236240
g1840
ssbsg52
(dp1847
sg51
g7
sbsI140629061238416
g0
(g182
g2
Ntp1848
Rp1849
(dp1850
g49
I2
sg186
I2
sg187
g190
sg259
I2
sg260
g0
(g174
g2
Ntp1851
Rp1852
(dp1853
g49
I1
sg120
Nsg178
g165
sg50
Nsg179
(F0.04861111111111111
I0
tp1854
sg51
g7
sg52
(dp1855
I140629061238416
g1849
ssbsg52
(dp1856
sg51
g7
sbsI140629061309136
g0
(g182
g2
Ntp1857
Rp1858
(dp1859
g49
I2
sg186
I2
sg187
g190
sg259
I2
sg260
g0
(g174
g2
Ntp1860
Rp1861
(dp1862
g49
I1
sg120
Nsg178
g165
sg50
Nsg179
(F-0.04722222222222222
I0
tp1863
sg51
g7
sg52
(dp1864
I140629061309136
g1858
ssbsg52
(dp1865
sg51
g7
sbssg51
g7
sbsg259
I2
sg260
g176
sg52
(dp1866
sg51
g7
sbssbsI140629061309328
g1807
sI140629062019152
g133
sI140629062145040
g394
sI140629062146384
g385
sI140629062044752
g340
sI140629062326928
g358
sI140629062043216
g376
sI140629061237968
g1816
sI140629061235024
g1825
sI140629061235984
g1843
sI140629062321232
g322
sI140629062327120
g331
sI140629062042704
g367
sI140629061238352
g1852
sI140629061309072
g1861
sI140629062147792
g349
sI140629061235344
g1834
ssbsg155
g121
(g122
(I0
tp1867
g124
tp1868
Rp1869
(I1
(I2
I2
tp1870
g59
I00
S'\x00\x00\x00\x00\x00\x00\x00\x00\x00\x00\x00\x00\x00\x00\x00\x00\x00\x00\x00\x00\x00\x00{@\x00\x00\x00\x00\x00\x00r@'
p1871
tp1872
bsg52
(dp1873
I140629062018768
g118
ssg51
g7
sbsg52
(dp1874
I140629062019088
g281
ssg51
g7
sbsS'_us_dashes'
p1875
(NNtp1876
sS'_capstyle'
p1877
Vbutt
p1878
sS'_url'
p1879
Nsg25
NsS'_axes'
p1880
Nsg34
Nsbsg42
Nsg88
NsV_restore_to_pylab
p1881
I01
sS'images'
p1882
(lp1883
sS'_suptitle'
p1884
NsS'dpi_scale_trans'
p1885
g165
sS'number'
p1886
I2
sS'callbacks'
p1887
g0
(cmatplotlib.cbook
CallbackRegistry
p1888
g2
Ntp1889
Rp1890
I01
bsg96
NsS'_tight'
p1891
I00
sg86
I01
sS'bbox'
p1892
g133
sg103
g0
(g104
g105
((lp1893
(lp1894
tp1895
tp1896
Rp1897
sg111
I0
sS'patches'
p1898
(lp1899
sS'legends'
p1900
(lp1901
sS'suppressComposite'
p1902
Nsg112
I00
sg114
NsS'_axstack'
p1903
g0
(cmatplotlib.figure
AxesStack
p1904
g2
Ntp1905
Rp1906
(dp1907
S'_default'
p1908
NsS'_elements'
p1909
(lp1910
(((g0
(cmatplotlib.gridspec
SubplotSpec
p1911
g2
Ntp1912
Rp1913
(dp1914
S'num1'
p1915
I0
sS'num2'
p1916
I0
sS'_gridspec'
p1917
g0
(cmatplotlib.gridspec
GridSpec
p1918
g2
Ntp1919
Rp1920
(dp1921
S'_nrows'
p1922
I1
sS'right'
p1923
NsS'_col_width_ratios'
p1924
NsS'bottom'
p1925
NsS'top'
p1926
NsS'wspace'
p1927
NsS'_ncols'
p1928
I1
sS'hspace'
p1929
NsS'_row_height_ratios'
p1930
NsS'left'
p1931
Nsbsbtp1932
(ttp1933
(I1
g0
(cmatplotlib.axes._subplots
_PicklableSubplotClassConstructor
p1934
g2
Ntp1935
Rp1936
(cmatplotlib.axes._axes
Axes
p1937
tp1938
Rp1939
(dp1940
S'transLimits'
p1941
g236
sS'_get_patches_for_fill'
p1942
g0
(cmatplotlib.axes._base
_process_plot_var_args
p1943
g2
Ntp1944
Rp1945
(dp1946
Vaxes
p1947
g1939
sVcommand
p1948
Vfill
p1949
sbsS'_xcid'
p1950
I1
sg6
V
p1951
sS'legend_'
p1952
Nsg12
(lp1953
sS'_frameon'
p1954
I01
sS'_autoscaleYon'
p1955
I01
sg14
I01
sg15
(lp1956
sg20
I01
sS'tables'
p1957
(lp1958
sg1898
(lp1959
sS'title'
p1960
g0
(cmatplotlib.text
Text
p1961
g2
Ntp1962
Rp1963
(dp1964
g6
g7
sg8
I01
sg9
g4
sg10
NsS'_fontproperties'
p1965
g0
(cmatplotlib.font_manager
FontProperties
p1966
g2
Ntp1967
Rp1968
(dp1969
S'_family'
p1970
(lp1971
Vsans-serif
p1972
asS'_file'
p1973
NsS'_variant'
p1974
Vnormal
p1975
sS'_slant'
p1976
g1975
sS'_size'
p1977
F9.6
sS'_weight'
p1978
I400
sS'_stretch'
p1979
g1975
sbsg42
Nsg17
g18
sS'_multialignment'
p1980
Nsg20
I01
sg23
Nsg75
F1.0
sg76
F0.5
sg24
Nsg25
Nsg11
Nsg28
I00
sg29
I00
sg30
(dp1981
sS'_renderer'
p1982
Nsg32
I00
sg1880
g1939
sg88
Nsg1879
NsS'_rotation_mode'
p1983
Nsg33
Nsg96
Nsg86
I01
sS'_verticalalignment'
p1984
Vbaseline
p1985
sS'_text'
p1986
V
p1987
sS'_bbox_patch'
p1988
Nsg103
g0
(g104
g105
((lp1989
(lp1990
tp1991
tp1992
Rp1993
sg111
I0
sS'_rotation'
p1994
Nsg112
I01
sg114
NsS'_linespacing'
p1995
F1.2
sg115
g391
sS'_usetex'
p1996
I00
sS'_wrap'
p1997
I00
sg43
NsS'_color'
p1998
V0.
p1999
sS'_horizontalalignment'
p2000
Vcenter
p2001
sg34
NsbsS'_current_image'
p2002
NsS'mouseover_set'
p2003
c__builtin__
set
p2004
((lp2005
tp2006
Rp2007
sg11
NsS'_cursorProps'
p2008
(I1
(g55
(g59
S'\x00\x00\x00\x00\x00\x00\x00\x00'
p2009
tp2010
Rp2011
g55
(g59
S'\x00\x00\x00\x00\x00\x00\x00\x00'
p2012
tp2013
Rp2014
g55
(g59
S'\x00\x00\x00\x00\x00\x00\x00\x00'
p2015
tp2016
Rp2017
I1
tp2018
tp2019
sS'numRows'
p2020
I1
sS'collections'
p2021
(lp2022
g0
(cmatplotlib.collections
PathCollection
p2023
g2
Ntp2024
Rp2025
(dp2026
g6
V_collection0
p2027
sg8
I01
sg9
g4
sS'_linestyles'
p2028
(lp2029
(NNtp2030
asS'_offset_position'
p2031
Vscreen
p2032
sg10
Nsg42
NsS'callbacksSM'
p2033
g0
(g1888
g2
Ntp2034
Rp2035
I01
bsg17
NsS'_offsets'
p2036
g121
(g122
(I0
tp2037
g124
tp2038
Rp2039
(I1
(I8
I2
tp2040
g56
(S'O8'
p2041
I0
I1
tp2042
Rp2043
(I3
S'|'
p2044
NNNI-1
I-1
I63
tp2045
bI00
(lp2046
F0.0
acsympy.core.numbers
Float
p2047
((I0
S'5L'
p2048
I1
I3
tp2049
tp2050
Rp2051
(dp2052
S'_prec'
p2053
I53
sbaF0.5
ag2047
((I0
S'113e607e79469L'
p2054
I-46
I49
tp2055
tp2056
Rp2057
(dp2058
g2053
I53
sbaF1.0
ag2047
((I0
S'11be7ffc1bb903L'
p2059
I-51
I53
tp2060
tp2061
Rp2062
(dp2063
g2053
I53
sbaF1.5
ag2047
((I0
S'172b59b99a21bL'
p2064
I-48
I49
tp2065
tp2066
Rp2067
(dp2068
g2053
I53
sbaF2.0
ag2047
((I0
S'9519806f25649L'
p2069
I-51
I52
tp2070
tp2071
Rp2072
(dp2073
g2053
I53
sbaF2.5
ag2047
((I0
S'10f8633ee077efL'
p2074
I-52
I53
tp2075
tp2076
Rp2077
(dp2078
g2053
I53
sbaF3.0
ag2047
((I0
S'82db0385e6c9fL'
p2079
I-51
I52
tp2080
tp2081
Rp2082
(dp2083
g2053
I53
sbaF3.5
ag2047
((I0
S'10219d990fa93fL'
p2084
I-52
I53
tp2085
tp2086
Rp2087
(dp2088
g2053
I53
sbatp2089
bsS'_paths'
p2090
(g0
(cmatplotlib.path
Path
p2091
g2
Ntp2092
Rp2093
(dp2094
S'_should_simplify'
p2095
I00
sS'_codes'
p2096
g121
(g122
(I0
tp2097
g124
tp2098
Rp2099
(I1
(I26
tp2100
g56
(S'u1'
p2101
I0
I1
tp2102
Rp2103
(I3
S'|'
p2104
NNNI-1
I-1
I0
tp2105
bI00
S'\x01\x04\x04\x04\x04\x04\x04\x04\x04\x04\x04\x04\x04\x04\x04\x04\x04\x04\x04\x04\x04\x04\x04\x04\x04O'
p2106
tp2107
bsS'_vertices'
p2108
g121
(g122
(I0
tp2109
g124
tp2110
Rp2111
(I1
(I26
I2
tp2112
g59
I00
S'\x00\x00\x00\x00\x00\x00\x00\x00\x00\x00\x00\x00\x00\x00\xe0\xbfr\x0fSl\x16\xf9\xc0?\x00\x00\x00\x00\x00\x00\xe0\xbf\x89\xc9\x15\xf7e\xa0\xd0?\x11\xae\xe8\xd5\xd6\xa0\xdc\xbf\xcd;\x7ff\x9e\xa0\xd6?\xcd;\x7ff\x9e\xa0\xd6\xbf\x11\xae\xe8\xd5\xd6\xa0\xdc?\x89\xc9\x15\xf7e\xa0\xd0\xbf\x00\x00\x00\x00\x00\x00\xe0?r\x0fSl\x16\xf9\xc0\xbf\x00\x00\x00\x00\x00\x00\xe0?\x00\x00\x00\x00\x00\x00\x00\x00\x00\x00\x00\x00\x00\x00\xe0?r\x0fSl\x16\xf9\xc0?\x11\xae\xe8\xd5\xd6\xa0\xdc?\x89\xc9\x15\xf7e\xa0\xd0?\xcd;\x7ff\x9e\xa0\xd6?\xcd;\x7ff\x9e\xa0\xd6?\x89\xc9\x15\xf7e\xa0\xd0?\x11\xae\xe8\xd5\xd6\xa0\xdc?r\x0fSl\x16\xf9\xc0?\x00\x00\x00\x00\x00\x00\xe0?\x00\x00\x00\x00\x00\x00\x00\x00\x00\x00\x00\x00\x00\x00\xe0?r\x0fSl\x16\xf9\xc0\xbf\x00\x00\x00\x00\x00\x00\xe0?\x89\xc9\x15\xf7e\xa0\xd0\xbf\x11\xae\xe8\xd5\xd6\xa0\xdc?\xcd;\x7ff\x9e\xa0\xd6\xbf\xcd;\x7ff\x9e\xa0\xd6?\x11\xae\xe8\xd5\xd6\xa0\xdc\xbf\x89\xc9\x15\xf7e\xa0\xd0?\x00\x00\x00\x00\x00\x00\xe0\xbfr\x0fSl\x16\xf9\xc0?\x00\x00\x00\x00\x00\x00\xe0\xbf\x00\x00\x00\x00\x00\x00\x00\x00\x00\x00\x00\x00\x00\x00\xe0\xbfr\x0fSl\x16\xf9\xc0\xbf\x11\xae\xe8\xd5\xd6\xa0\xdc\xbf\x89\xc9\x15\xf7e\xa0\xd0\xbf\xcd;\x7ff\x9e\xa0\xd6\xbf\xcd;\x7ff\x9e\xa0\xd6\xbf\x89\xc9\x15\xf7e\xa0\xd0\xbf\x11\xae\xe8\xd5\xd6\xa0\xdc\xbfr\x0fSl\x16\xf9\xc0\xbf\x00\x00\x00\x00\x00\x00\xe0\xbf\x00\x00\x00\x00\x00\x00\x00\x00\x00\x00\x00\x00\x00\x00\xe0\xbf\x00\x00\x00\x00\x00\x00\x00\x00\x00\x00\x00\x00\x00\x00\xe0\xbf'
p2113
tp2114
bsS'_readonly'
p2115
I00
sS'_simplify_threshold'
p2116
F0.1111111111111111
sS'_interpolation_steps'
p2117
I1
sS'_has_nonfinite'
p2118
I00
sbtp2119
sg20
I01
sS'_A'
p2120
NsS'_us_linestyles'
p2121
(lp2122
(NNtp2123
asS'_sizes'
p2124
g121
(g122
(I0
tp2125
g124
tp2126
Rp2127
(I1
(I1
tp2128
g56
(S'i8'
p2129
I0
I1
tp2130
Rp2131
(I3
S'<'
p2132
NNNI-1
I-1
I0
tp2133
bI00
S'(\x00\x00\x00\x00\x00\x00\x00'
p2134
tp2135
bsS'_transforms'
p2136
g121
(g122
(I0
tp2137
g124
tp2138
Rp2139
(I1
(I1
I3
I3
tp2140
g59
I00
S'S[\xda:XL\x19@\x00\x00\x00\x00\x00\x00\x00\x00\x00\x00\x00\x00\x00\x00\x00\x00\x00\x00\x00\x00\x00\x00\x00\x00S[\xda:XL\x19@\x00\x00\x00\x00\x00\x00\x00\x00\x00\x00\x00\x00\x00\x00\x00\x00\x00\x00\x00\x00\x00\x00\x00\x00\x00\x00\x00\x00\x00\x00\xf0?'
p2141
tp2142
bsg23
Nsg24
Nsg77
S'k'
p2143
sg11
Nsg28
I00
sS'_facecolors'
p2144
g121
(g122
(I0
tp2145
g124
tp2146
Rp2147
(I1
(I1
I4
tp2148
g59
I00
S'\x00\x00\x00\x00\x00\x00\x00\x00\x00\x00\x00\x00\x00\x00\x00\x00\x00\x00\x00\x00\x00\x00\x00\x00\x00\x00\x00\x00\x00\x00\xf0?'
p2149
tp2150
bsS'_uniform_offsets'
p2151
Nsg29
I00
sg30
(dp2152
sS'_antialiaseds'
p2153
(I01
tp2154
sS'zorder'
p2155
I1
sg32
I00
sS'norm'
p2156
g0
(cmatplotlib.colors
Normalize
p2157
g2
Ntp2158
Rp2159
(dp2160
S'vmax'
p2161
NsS'clip'
p2162
I00
sS'vmin'
p2163
Nsbsg85
NsS'_urls'
p2164
(lp2165
NasS'_edgecolors'
p2166
g121
(g122
(I0
tp2167
g124
tp2168
Rp2169
(I1
(I1
I4
tp2170
g59
I00
S'\x00\x00\x00\x00\x00\x00\x00\x00\x00\x00\x00\x00\x00\x00\x00\x00\x00\x00\x00\x00\x00\x00\x00\x00\x00\x00\x00\x00\x00\x00\xf0?'
p2171
tp2172
bsg88
g1169
sS'_pickradius'
p2173
F5.0
sg33
Nsg90
(g55
(g59
S'\x00\x00\x00\x00\x00\x00\x00\x00'
p2174
tp2175
Rp2176
g55
(g59
S'\x00\x00\x00\x00\x00\x00\x00\x00'
p2177
tp2178
Rp2179
g55
(g59
S'\x00\x00\x00\x00\x00\x00\x00\x00'
p2180
tp2181
Rp2182
g55
(g59
S'\x00\x00\x00\x00\x00\x00\xf0?'
p2183
tp2184
Rp2185
tp2186
sg94
g2143
sS'update_dict'
p2187
(dp2188
Varray
p2189
I00
ssg96
Nsg86
I01
sS'_linewidths'
p2190
(F1.0
tp2191
sg103
g0
(g104
g105
((lp2192
(lp2193
tp2194
tp2195
Rp2196
sg111
I0
sS'_is_stroked'
p2197
I01
sS'_is_filled'
p2198
I01
sg112
I01
sS'_transOffset'
p2199
g193
sg114
Nsg115
g0
(g45
g2
Ntp2200
Rp2201
(dp2202
g49
I1
sg50
Nsg51
g7
sg52
(dp2203
sbsS'colorbar'
p2204
NsS'_us_lw'
p2205
g2191
sS'cmap'
p2206
g0
(cmatplotlib.colors
LinearSegmentedColormap
p2207
g2
Ntp2208
Rp2209
(dp2210
S'_gamma'
p2211
F1.0
sS'_i_bad'
p2212
I258
sS'_rgba_over'
p2213
NsS'name'
p2214
VGreys
p2215
sS'_i_under'
p2216
I256
sS'_i_over'
p2217
I257
sS'N'
p2218
I256
sS'_segmentdata'
p2219
(dp2220
S'blue'
p2221
(lp2222
(g55
(g59
S'\x00\x00\x00\x00\x00\x00\x00\x00'
p2223
tp2224
Rp2225
g55
(g59
S'\x00\x00\x00\x00\x00\x00\xf0?'
p2226
tp2227
Rp2228
g2228
tp2229
a(g55
(g59
S'\x00\x00\x00\x00\x00\x00\xc0?'
p2230
tp2231
Rp2232
g55
(g59
S'\x1e\x1e\x1e\x1e\x1e\x1e\xee?'
p2233
tp2234
Rp2235
g2235
tp2236
a(g55
(g59
S'\x00\x00\x00\x00\x00\x00\xd0?'
p2237
tp2238
Rp2239
g55
(g59
S';;;;;;\xeb?'
p2240
tp2241
Rp2242
g2242
tp2243
a(g55
(g59
S'\x00\x00\x00\x00\x00\x00\xd8?'
p2244
tp2245
Rp2246
g55
(g59
S'\xb8\xb7\xb7\xb7\xb7\xb7\xe7?'
p2247
tp2248
Rp2249
g2249
tp2250
a(g55
(g59
S'\x00\x00\x00\x00\x00\x00\xe0?'
p2251
tp2252
Rp2253
g55
(g59
S'\xd3\xd2\xd2\xd2\xd2\xd2\xe2?'
p2254
tp2255
Rp2256
g2256
tp2257
a(g55
(g59
S'\x00\x00\x00\x00\x00\x00\xe4?'
p2258
tp2259
Rp2260
g55
(g59
S'\xdd\xdc\xdc\xdc\xdc\xdc\xdc?'
p2261
tp2262
Rp2263
g2263
tp2264
a(g55
(g59
S'\x00\x00\x00\x00\x00\x00\xe8?'
p2265
tp2266
Rp2267
g55
(g59
S'\x95\x94\x94\x94\x94\x94\xd4?'
p2268
tp2269
Rp2270
g2270
tp2271
a(g55
(g59
S'\x00\x00\x00\x00\x00\x00\xec?'
p2272
tp2273
Rp2274
g55
(g59
S'\x93\x92\x92\x92\x92\x92\xc2?'
p2275
tp2276
Rp2277
g2277
tp2278
a(g55
(g59
S'\x00\x00\x00\x00\x00\x00\xf0?'
p2279
tp2280
Rp2281
g55
(g59
S'\x00\x00\x00\x00\x00\x00\x00\x00'
p2282
tp2283
Rp2284
g2284
tp2285
asS'alpha'
p2286
(lp2287
(g2225
I1
I1
tp2288
a(g2232
I1
I1
tp2289
a(g2239
I1
I1
tp2290
a(g2246
I1
I1
tp2291
a(g2253
I1
I1
tp2292
a(g2260
I1
I1
tp2293
a(g2267
I1
I1
tp2294
a(g2274
I1
I1
tp2295
a(g2281
I1
I1
tp2296
asS'green'
p2297
(lp2298
(g2225
g55
(g59
S'\x00\x00\x00\x00\x00\x00\xf0?'
p2299
tp2300
Rp2301
g2301
tp2302
a(g2232
g55
(g59
S'\x1e\x1e\x1e\x1e\x1e\x1e\xee?'
p2303
tp2304
Rp2305
g2305
tp2306
a(g2239
g55
(g59
S';;;;;;\xeb?'
p2307
tp2308
Rp2309
g2309
tp2310
a(g2246
g55
(g59
S'\xb8\xb7\xb7\xb7\xb7\xb7\xe7?'
p2311
tp2312
Rp2313
g2313
tp2314
a(g2253
g55
(g59
S'\xd3\xd2\xd2\xd2\xd2\xd2\xe2?'
p2315
tp2316
Rp2317
g2317
tp2318
a(g2260
g55
(g59
S'\xdd\xdc\xdc\xdc\xdc\xdc\xdc?'
p2319
tp2320
Rp2321
g2321
tp2322
a(g2267
g55
(g59
S'\x95\x94\x94\x94\x94\x94\xd4?'
p2323
tp2324
Rp2325
g2325
tp2326
a(g2274
g55
(g59
S'\x93\x92\x92\x92\x92\x92\xc2?'
p2327
tp2328
Rp2329
g2329
tp2330
a(g2281
g55
(g59
S'\x00\x00\x00\x00\x00\x00\x00\x00'
p2331
tp2332
Rp2333
g2333
tp2334
asS'red'
p2335
(lp2336
(g2225
g55
(g59
S'\x00\x00\x00\x00\x00\x00\xf0?'
p2337
tp2338
Rp2339
g2339
tp2340
a(g2232
g55
(g59
S'\x1e\x1e\x1e\x1e\x1e\x1e\xee?'
p2341
tp2342
Rp2343
g2343
tp2344
a(g2239
g55
(g59
S';;;;;;\xeb?'
p2345
tp2346
Rp2347
g2347
tp2348
a(g2246
g55
(g59
S'\xb8\xb7\xb7\xb7\xb7\xb7\xe7?'
p2349
tp2350
Rp2351
g2351
tp2352
a(g2253
g55
(g59
S'\xd3\xd2\xd2\xd2\xd2\xd2\xe2?'
p2353
tp2354
Rp2355
g2355
tp2356
a(g2260
g55
(g59
S'\xdd\xdc\xdc\xdc\xdc\xdc\xdc?'
p2357
tp2358
Rp2359
g2359
tp2360
a(g2267
g55
(g59
S'\x95\x94\x94\x94\x94\x94\xd4?'
p2361
tp2362
Rp2363
g2363
tp2364
a(g2274
g55
(g59
S'\x93\x92\x92\x92\x92\x92\xc2?'
p2365
tp2366
Rp2367
g2367
tp2368
a(g2281
g55
(g59
S'\x00\x00\x00\x00\x00\x00\x00\x00'
p2369
tp2370
Rp2371
g2371
tp2372
assS'_rgba_under'
p2373
NsS'_rgba_bad'
p2374
(F0.0
F0.0
F0.0
F0.0
tp2375
sS'monochrome'
p2376
I00
sS'colorbar_extend'
p2377
I00
sS'_isinit'
p2378
I00
sbsg43
Nsg1879
Nsg25
Nsg1880
g1939
sg34
Nsbasg1880
g1939
sg30
(dp2379
sg32
I00
sS'containers'
p2380
(lp2381
sg29
I00
sg88
NsS'_get_lines'
p2382
g0
(g1943
g2
Ntp2383
Rp2384
(dp2385
g1947
g1939
sg1948
Vplot
p2386
sbsS'_aspect'
p2387
Vauto
p2388
sS'fmt_xdata'
p2389
Nsg1887
g0
(g1888
g2
Ntp2390
Rp2391
I01
bsg96
Nsg97
Vwhite
p2392
sg86
I01
sg1892
g281
sS'ignore_existing_data_limits'
p2393
I00
sg24
Nsg111
I0
sg112
I00
sS'_left_title'
p2394
g0
(g1961
g2
Ntp2395
Rp2396
(dp2397
g6
g7
sg8
I01
sg9
g4
sg10
Nsg1965
g0
(g1966
g2
Ntp2398
Rp2399
(dp2400
g1970
g1971
sg1973
Nsg1974
g1975
sg1976
g1975
sg1977
F9.6
sg1978
I400
sg1979
g1975
sbsg42
Nsg17
g18
sg1980
Nsg20
I01
sg23
Nsg75
F1.0
sg76
F0.0
sg24
Nsg25
Nsg11
Nsg28
I00
sg29
I00
sg30
(dp2401
sg1982
Nsg32
I00
sg1880
g1939
sg88
Nsg1879
Nsg1983
Nsg33
Nsg96
Nsg86
I01
sg1984
Vbaseline
p2402
sg1986
V
p2403
sg1988
Nsg103
g0
(g104
g105
((lp2404
(lp2405
tp2406
tp2407
Rp2408
sg111
I0
sg1994
Nsg112
I01
sg114
Nsg1995
F1.2
sg115
g399
sg1996
I00
sg1997
I00
sg43
Nsg1998
g1999
sg2000
Vleft
p2409
sg34
NsbsS'_right_title'
p2410
g0
(g1961
g2
Ntp2411
Rp2412
(dp2413
g6
g7
sg8
I01
sg9
g4
sg10
Nsg1965
g0
(g1966
g2
Ntp2414
Rp2415
(dp2416
g1970
g1971
sg1973
Nsg1974
g1975
sg1976
g1975
sg1977
F9.6
sg1978
I400
sg1979
g1975
sbsg42
Nsg17
g18
sg1980
Nsg20
I01
sg23
Nsg75
F1.0
sg76
F1.0
sg24
Nsg25
Nsg11
Nsg28
I00
sg29
I00
sg30
(dp2417
sg1982
Nsg32
I00
sg1880
g1939
sg88
Nsg1879
Nsg1983
Nsg33
Nsg96
Nsg86
I01
sg1984
g2402
sg1986
V
p2418
sg1988
Nsg103
g0
(g104
g105
((lp2419
(lp2420
tp2421
tp2422
Rp2423
sg111
I0
sg1994
Nsg112
I01
sg114
Nsg1995
F1.2
sg115
g403
sg1996
I00
sg1997
I00
sg43
Nsg1998
g1999
sg2000
Vright
p2424
sg34
NsbsS'transScale'
p2425
g197
sg115
NsS'axison'
p2426
I01
sS'patch'
p2427
g0
(g36
g2
Ntp2428
Rp2429
(dp2430
g6
g7
sg40
F1.0
sg41
I01
sg9
g4
sg8
I01
sg10
Nsg42
Nsg17
g18
sg43
Nsg20
I01
sg44
g0
(g45
g2
Ntp2431
Rp2432
(dp2433
g49
I1
sg50
Nsg51
g7
sg52
(dp2434
sbsg54
(F0.0
F0.0
F0.0
F0.0
tp2435
sg23
Nsg75
F0.0
sg76
F0.0
sg24
Nsg77
VNone
p2436
sg11
Nsg28
I00
sg29
I00
sg30
(dp2437
sg80
g1128
sg32
I00
sg85
Nsg86
I01
sg87
F0.0
sg88
Nsg89
F1.0
sg33
Nsg90
g2435
sg91
Nsg92
I01
sg93
Nsg94
g2392
sg96
Nsg97
g98
sg99
g100
sg101
g102
sg103
g0
(g104
g105
((lp2438
(lp2439
tp2440
tp2441
Rp2442
sg111
I0
sg112
I01
sg113
F0.0
sg114
Nsg115
g262
sg1875
(NNtp2443
sg1877
g1878
sg1879
Nsg25
Nsg1880
Nsg34
NsbsS'viewLim'
p2444
g206
sg17
g18
sS'_subplotspec'
p2445
g1913
sS'_adjustable'
p2446
Vbox
p2447
sg9
g4
sS'titleOffsetTrans'
p2448
g394
sS'_yaxis_transform'
p2449
g190
sS'_gridOn'
p2450
I00
sg10
NsS'colNum'
p2451
I0
sg42
Nsg1882
(lp2452
sS'_autoscaleXon'
p2453
I01
sS'_xmargin'
p2454
F0.05
sS'rowNum'
p2455
I0
sS'_position'
p2456
g284
sS'_rasterization_zorder'
p2457
NsS'_cachedRenderer'
p2458
NsS'_navigate'
p2459
I01
sg23
NsS'_originalPosition'
p2460
g0
(g136
g2
Ntp2461
Rp2462
(dp2463
g49
I1
sg140
g121
(g122
(I0
tp2464
g124
tp2465
Rp2466
(I1
(I2
tp2467
g59
I00
S'\x00\x00\x00\x00\x00\x00\xf0\x7f\x00\x00\x00\x00\x00\x00\xf0\x7f'
p2468
tp2469
bsg52
(dp2470
sg148
g121
(g122
(I0
tp2471
g124
tp2472
Rp2473
(I1
(I2
I2
tp2474
g59
I00
S'\x00\x00\x00\x00\x00\x00\xc0?\x00\x00\x00\x00\x00\x00\xc0?\xcd\xcc\xcc\xcc\xcc\xcc\xec?)\\\x8f\xc2\xf5(\xec?'
p2475
tp2476
bsg155
g121
(g122
(I0
tp2477
g124
tp2478
Rp2479
(I1
(I2
I2
tp2480
g59
I00
S'\x00\x00\x00\x00\x00\x00\xc0?\x00\x00\x00\x00\x00\x00\xc0?\xcd\xcc\xcc\xcc\xcc\xcc\xec?)\\\x8f\xc2\xf5(\xec?'
p2481
tp2482
bsg162
I01
sg51
g7
sbsg25
NsS'_xaxis_transform'
p2483
g314
sg28
I00
sS'figbox'
p2484
g284
sS'xaxis'
p2485
g0
(cmatplotlib.axis
XAxis
p2486
g2
Ntp2487
Rp2488
(dp2489
g6
g7
sS'major'
p2490
g0
(cmatplotlib.axis
Ticker
p2491
g2
Ntp2492
Rp2493
(dp2494
S'locator'
p2495
g0
(cmatplotlib.ticker
AutoLocator
p2496
g2
Ntp2497
Rp2498
(dp2499
S'_min_n_ticks'
p2500
I2
sS'_symmetric'
p2501
I00
sS'_nbins'
p2502
Vauto
p2503
sS'_steps'
p2504
g121
(g122
(I0
tp2505
g124
tp2506
Rp2507
(I1
(I5
tp2508
g59
I00
S'\x00\x00\x00\x00\x00\x00\xf0?\x00\x00\x00\x00\x00\x00\x00@\x00\x00\x00\x00\x00\x00\x04@\x00\x00\x00\x00\x00\x00\x14@\x00\x00\x00\x00\x00\x00$@'
p2509
tp2510
bsS'_prune'
p2511
NsS'_extended_steps'
p2512
g121
(g122
(I0
tp2513
g124
tp2514
Rp2515
(I1
(I10
tp2516
g59
I00
S'\x9a\x99\x99\x99\x99\x99\xb9?\x9a\x99\x99\x99\x99\x99\xc9?\x00\x00\x00\x00\x00\x00\xd0?\x00\x00\x00\x00\x00\x00\xe0?\x00\x00\x00\x00\x00\x00\xf0?\x00\x00\x00\x00\x00\x00\x00@\x00\x00\x00\x00\x00\x00\x04@\x00\x00\x00\x00\x00\x00\x14@\x00\x00\x00\x00\x00\x00$@\x00\x00\x00\x00\x00\x004@'
p2517
tp2518
bsS'_integer'
p2519
I00
sS'axis'
p2520
g2488
sbsS'formatter'
p2521
g0
(cmatplotlib.ticker
ScalarFormatter
p2522
g2
Ntp2523
Rp2524
(dp2525
S'_powerlimits'
p2526
(lp2527
I-7
aI7
asS'orderOfMagnitude'
p2528
I0
sS'_useOffset'
p2529
I01
sS'_useLocale'
p2530
I00
sS'format'
p2531
g7
sS'_useMathText'
p2532
I00
sS'_offset_threshold'
p2533
I4
sS'offset'
p2534
I0
sg1996
I00
sS'_scientific'
p2535
I01
sg2520
g2488
sbsbsS'isDefault_label'
p2536
I00
sS'_scale'
p2537
g0
(cmatplotlib.scale
LinearScale
p2538
g2
Ntp2539
Rp2540
sg9
g4
sg8
I01
sS'_gridOnMinor'
p2541
I00
sg10
Nsg42
NsS'_smart_bounds'
p2542
I00
sg17
g18
sg20
I01
sg23
NsS'offsetText'
p2543
g0
(g1961
g2
Ntp2544
Rp2545
(dp2546
g6
g7
sg8
I01
sg9
g4
sg10
Nsg1965
g0
(g1966
g2
Ntp2547
Rp2548
(dp2549
g1970
(lp2550
g1972
asg1973
Nsg1974
g1975
sg1976
g1975
sg1977
F8.0
sg1978
I400
sg1979
g1975
sbsg42
Nsg17
g18
sg1980
Nsg20
I01
sg23
Nsg75
I0
sg76
I1
sg24
Nsg25
Nsg11
Nsg28
I00
sg29
I00
sg30
(dp2551
sg1982
Nsg32
I00
sg1880
Nsg88
Nsg1879
Nsg1983
Nsg33
Nsg96
Nsg86
I01
sg1984
Vtop
p2552
sg1986
V
p2553
sg1988
Nsg103
g0
(g104
g105
((lp2554
(lp2555
tp2556
tp2557
Rp2558
sg111
I0
sg1994
Nsg112
I01
sg114
Nsg1995
F1.2
sg115
g1343
sg1996
I00
sg1997
I00
sg43
Nsg1998
V0.
p2559
sg2000
Vright
p2560
sg34
Nsbsg24
Nsg25
Nsg11
NsS'label'
p2561
g0
(g1961
g2
Ntp2562
Rp2563
(dp2564
g6
g7
sg8
I01
sg9
g4
sg10
Nsg1965
g0
(g1966
g2
Ntp2565
Rp2566
(dp2567
g1970
(lp2568
g1972
asg1973
Nsg1974
g1975
sg1976
g1975
sg1977
F10.0
sg1978
I400
sg1979
g1975
sbsg42
Nsg17
g18
sg1980
Nsg20
I01
sg23
Nsg75
I0
sg76
F0.5
sg24
Nsg25
Nsg11
Nsg28
I00
sg29
I00
sg30
(dp2569
sg1982
Nsg32
I00
sg1880
Nsg88
Nsg1879
Nsg1983
Nsg33
Nsg96
Nsg86
I01
sg1984
Vtop
p2570
sg1986
V$g_e$ (nS)
p2571
sg1988
Nsg103
g0
(g104
g105
((lp2572
(lp2573
tp2574
tp2575
Rp2576
sg111
I0
sg1994
Nsg112
I01
sg114
Nsg1995
F1.2
sg115
g977
sg1996
I00
sg1997
I00
sg43
Nsg1998
V0.
p2577
sg2000
Vcenter
p2578
sg34
Nsbsg28
I00
sS'isDefault_majfmt'
p2579
I01
sg29
I00
sg30
(dp2580
sS'units'
p2581
Nsg32
I00
sS'minor'
p2582
g0
(g2491
g2
Ntp2583
Rp2584
(dp2585
g2495
g0
(cmatplotlib.ticker
NullLocator
p2586
g2
Ntp2587
Rp2588
(dp2589
g2520
g2488
sbsg2521
g0
(cmatplotlib.ticker
NullFormatter
p2590
g2
Ntp2591
Rp2592
(dp2593
g2520
g2488
sbsbsg1880
g1939
sS'_major_tick_kw'
p2594
(dp2595
Vlabel1On
p2596
I01
sVgridOn
p2597
I00
sVlabel2On
p2598
I00
sVtick1On
p2599
I01
sVtick2On
p2600
I00
ssS'isDefault_minloc'
p2601
I01
sg88
g671
sg33
NsS'_gridOnMajor'
p2602
I00
sS'_lastNumMinorTicks'
p2603
I1
sS'labelpad'
p2604
F4.0
sS'majorTicks'
p2605
(lp2606
g0
(cmatplotlib.axis
XTick
p2607
g2
Ntp2608
Rp2609
(dp2610
g6
g7
sg40
F0.8
sg9
g4
sS'tick1On'
p2611
I01
sg8
I01
sg10
Nsg111
I0
sg42
NsS'_pad'
p2612
F3.5
sS'_labelcolor'
p2613
g2559
sS'gridOn'
p2614
I00
sg1977
F0.0
sg17
g18
sS'_tickdir'
p2615
Vout
p2616
sg2561
g0
(g1961
g2
Ntp2617
Rp2618
(dp2619
g6
g7
sg8
I01
sg9
g4
sg10
Nsg1965
g0
(g1966
g2
Ntp2620
Rp2621
(dp2622
g1970
(lp2623
g1972
asg1973
Nsg1974
g1975
sg1976
g1975
sg1977
F8.0
sg1978
I400
sg1979
g1975
sbsg42
Nsg17
g18
sg1980
Nsg20
I01
sg23
Nsg75
I0
sg76
I0
sg24
Nsg25
Nsg11
Nsg28
I00
sg29
I00
sg30
(dp2624
sg1982
Nsg32
I00
sg1880
Nsg88
Nsg1879
Nsg1983
Nsg33
Nsg96
Nsg86
I01
sg1984
Vtop
p2625
sg1986
V
p2626
sg1988
Nsg103
g0
(g104
g105
((lp2627
(lp2628
tp2629
tp2630
Rp2631
sg111
I0
sg1994
Nsg112
I01
sg114
Nsg1995
F1.2
sg115
g373
sg1996
I00
sg1997
I00
sg43
Nsg1998
g2559
sg2000
Vcenter
p2632
sg34
Nsbsg20
I01
sg23
NsS'label2On'
p2633
I00
sg24
Nsg25
Nsg11
NsS'tick2On'
p2634
I00
sg28
I00
sg29
I00
sg30
(dp2635
sS'_tickmarkers'
p2636
(I3
I2
tp2637
sg32
I00
sS'_zorder'
p2638
F2.01
sg1880
g1939
sS'label1On'
p2639
I01
sg88
g811
sg1879
NsS'label1'
p2640
g2618
sS'label2'
p2641
g0
(g1961
g2
Ntp2642
Rp2643
(dp2644
g6
g7
sg8
I01
sg9
g4
sg10
Nsg1965
g0
(g1966
g2
Ntp2645
Rp2646
(dp2647
g1970
(lp2648
g1972
asg1973
Nsg1974
g1975
sg1976
g1975
sg1977
F8.0
sg1978
I400
sg1979
g1975
sbsg42
Nsg17
g18
sg1980
Nsg20
I01
sg23
Nsg75
I1
sg76
I0
sg24
Nsg25
Nsg11
Nsg28
I00
sg29
I00
sg30
(dp2649
sg1982
Nsg32
I00
sg1880
Nsg88
Nsg1879
Nsg1983
Nsg33
Nsg96
Nsg86
I01
sg1984
Vbottom
p2650
sg1986
V
p2651
sg1988
Nsg103
g0
(g104
g105
((lp2652
(lp2653
tp2654
tp2655
Rp2656
sg111
I0
sg1994
Nsg112
I01
sg114
Nsg1995
F1.2
sg115
g337
sg1996
I00
sg1997
I00
sg43
Nsg1998
g2559
sg2000
g2632
sg34
Nsbsg96
NsS'_loc'
p2657
I0
sg86
I01
sg103
g0
(g104
g105
((lp2658
(lp2659
tp2660
tp2661
Rp2662
sS'_base_pad'
p2663
F3.5
sS'tick1line'
p2664
g0
(cmatplotlib.lines
Line2D
p2665
g2
Ntp2666
Rp2667
(dp2668
g6
g7
sS'_dashcapstyle'
p2669
Vbutt
p2670
sg2028
Nsg20
I01
sS'_x_filled'
p2671
NsS'ind_offset'
p2672
I0
sg75
Nsg76
Nsg24
Nsg11
Nsg29
I00
sg30
(dp2673
sg32
I00
sg1880
NsS'_markeredgewidth'
p2674
F0.8
sS'_dashSeq'
p2675
NsS'_markerfacecoloralt'
p2676
Vnone
p2677
sS'_markeredgecolor'
p2678
Vauto
p2679
sg96
Nsg86
I01
sS'_xorig'
p2680
(I0
tp2681
sg111
I0
sg112
I01
sS'_invalidy'
p2682
I01
sS'_invalidx'
p2683
I01
sg115
g314
sS'_us_dashSeq'
p2684
Nsg2155
F2.01
sg1998
g2559
sS'pickradius'
p2685
I5
sg9
g4
sS'verticalOffset'
p2686
Nsg10
Nsg42
Nsg17
g18
sS'_solidjoinstyle'
p2687
Vround
p2688
sg23
Nsg25
Nsg28
I00
sS'_markevery'
p2689
Nsg34
NsS'_transformed_path'
p2690
NsS'_marker'
p2691
g0
(cmatplotlib.markers
MarkerStyle
p2692
g2
Ntp2693
Rp2694
(dp2695
g2691
I3
sS'_alt_path'
p2696
NsS'_snap_threshold'
p2697
F1.0
sg115
g0
(g163
g2
Ntp2698
Rp2699
(dp2700
g49
I2
sg50
Nsg120
g121
(g122
(I0
tp2701
g124
tp2702
Rp2703
(I1
(I3
I3
tp2704
g59
I00
S'\x00\x00\x00\x00\x00\x00\xf0?\x00\x00\x00\x00\x00\x00\x00\x00\x00\x00\x00\x00\x00\x00\x00\x00\x00\x00\x00\x00\x00\x00\x00\x00\x00\x00\x00\x00\x00\x00\xf0\xbf\x00\x00\x00\x00\x00\x00\x00\x00\x00\x00\x00\x00\x00\x00\x00\x00\x00\x00\x00\x00\x00\x00\x00\x00\x00\x00\x00\x00\x00\x00\xf0?'
p2705
tp2706
bsg51
g7
sg52
(dp2707
sbsS'_filled'
p2708
I00
sS'_fillstyle'
p2709
Vfull
p2710
sS'_alt_transform'
p2711
Nsg1877
Vbutt
p2712
sg99
Vround
p2713
sS'_path'
p2714
g0
(g2091
g2
Ntp2715
Rp2716
(dp2717
g2095
I00
sg2096
Nsg2108
g121
(g122
(I0
tp2718
g124
tp2719
Rp2720
(I1
(I2
I2
tp2721
g59
I00
S'\x00\x00\x00\x00\x00\x00\x00\x80\x00\x00\x00\x00\x00\x00\x00\x00\x00\x00\x00\x00\x00\x00\x00\x80\x00\x00\x00\x00\x00\x00\xf0?'
p2722
tp2723
bsg2115
I00
sg2116
F0.1111111111111111
sg2117
I1
sg2118
I00
sbsbsS'_markerfacecolor'
p2724
Vauto
p2725
sg88
Nsg33
Nsg92
I01
sS'_xy'
p2726
Nsg101
VNone
p2727
sg103
g0
(g104
g105
((lp2728
(lp2729
tp2730
tp2731
Rp2732
sS'_subslice'
p2733
I00
sS'_drawstyle'
p2734
Vdefault
p2735
sS'_solidcapstyle'
p2736
g2688
sS'_us_dashOffset'
p2737
Nsg114
NsS'_dashjoinstyle'
p2738
g2688
sS'_markersize'
p2739
F0.0
sg8
I01
sS'_dashOffset'
p2740
Nsg43
Nsg1879
NsS'_yorig'
p2741
(I0
tp2742
sg87
F0.5
sg2714
Nsbsg112
I00
sS'gridline'
p2743
g0
(g2665
g2
Ntp2744
Rp2745
(dp2746
g6
g7
sg8
I01
sg2736
g2688
sg9
g4
sg2669
g2670
sg2028
Nsg10
Nsg42
Nsg17
g18
sg2687
g2688
sg20
I01
sg2671
Nsg23
Nsg75
g121
(g122
(I0
tp2747
g124
tp2748
Rp2749
(I1
(I2
tp2750
g59
I00
S'\x00\x00\x00\x00\x00\x00\x00\x00\x00\x00\x00\x00\x00\x00\xf0?'
p2751
tp2752
bsg76
g121
(g122
(I0
tp2753
g124
tp2754
Rp2755
(I1
(I2
tp2756
g59
I00
S'\x00\x00\x00\x00\x00\x00\x00\x00\x00\x00\x00\x00\x00\x00\x00\x00'
p2757
tp2758
bsg24
Nsg25
Nsg11
Nsg2680
(F0.0
F0.0
tp2759
sg28
I00
sg2689
Nsg29
I00
sg30
(dp2760
sg2686
Nsg32
I00
sg2733
I00
sg1880
Nsg2690
Nsg2674
F1.0
sg2724
g2725
sg2675
Nsg1998
V.8
p2761
sg2691
g0
(g2692
g2
Ntp2762
Rp2763
(dp2764
g2691
VNone
p2765
sg2696
Nsg2697
Nsg115
g0
(g45
g2
Ntp2766
Rp2767
(dp2768
g49
I1
sg50
Nsg51
g7
sg52
(dp2769
sbsg2708
I00
sg2709
g2710
sg2711
Nsg1877
g2712
sg99
g2713
sg2714
g0
(g2091
g2
Ntp2770
Rp2771
(dp2772
g2095
I00
sg2096
Nsg2108
g121
(g122
(I0
tp2773
g124
tp2774
Rp2775
(I1
(I0
I2
tp2776
g59
I00
S''
p2777
tp2778
bsg2115
I00
sg2116
F0.1111111111111111
sg2117
I1
sg2118
I00
sbsbsg33
Nsg2676
g2677
sg92
I01
sg2678
g2679
sg96
Nsg2739
F0.0
sg86
I01
sg2726
g121
(g122
(I0
tp2779
g124
tp2780
Rp2781
(I1
(I2
I2
tp2782
g59
I00
S'\x00\x00\x00\x00\x00\x00\x00\x00\x00\x00\x00\x00\x00\x00\x00\x00\x00\x00\x00\x00\x00\x00\x00\x00\x00\x00\x00\x00\x00\x00\xf0?'
p2783
tp2784
bsg101
V-
p2785
sg103
g0
(g104
g105
((lp2786
(lp2787
tp2788
tp2789
Rp2790
sg111
I0
sg2734
g2735
sg2672
I0
sg2737
Nsg2685
I5
sg112
I01
sg114
F1.0
sg2738
g2688
sg2683
I00
sg115
g314
sg2740
Nsg2684
Nsg2682
I00
sg43
Nsg1879
Nsg2741
(I0
F1.0
tp2791
sg88
g1395
sg87
F0.8
sg34
Nsg2714
g0
(g2091
g2
Ntp2792
Rp2793
(dp2794
g2095
I00
sg2096
Nsg2108
g2781
sg2115
I00
sg2116
F0.1111111111111111
sg2117
I180
sg2118
I00
sbsbsg114
Nsg33
NsS'tick2line'
p2795
g0
(g2665
g2
Ntp2796
Rp2797
(dp2798
g6
g7
sg2669
g2670
sg2028
Nsg20
I01
sg2671
Nsg2672
I0
sg75
Nsg76
Nsg24
Nsg11
Nsg29
I00
sg30
(dp2799
sg32
I00
sg1880
Nsg2674
F0.8
sg2675
Nsg2676
g2677
sg2678
g2679
sg96
Nsg86
I01
sg2680
(I0
tp2800
sg111
I0
sg112
I01
sg2682
I01
sg2683
I01
sg115
g314
sg2684
Nsg2155
F2.01
sg1998
g2559
sg2685
I5
sg9
g4
sg2686
Nsg10
Nsg42
Nsg17
g18
sg2687
g2688
sg23
Nsg25
Nsg28
I00
sg2689
Nsg34
Nsg2690
Nsg2691
g0
(g2692
g2
Ntp2801
Rp2802
(dp2803
g2691
I2
sg2696
Nsg2697
F1.0
sg115
g0
(g163
g2
Ntp2804
Rp2805
(dp2806
g49
I2
sg50
Nsg120
g121
(g122
(I0
tp2807
g124
tp2808
Rp2809
(I1
(I3
I3
tp2810
g59
I00
S'\x00\x00\x00\x00\x00\x00\xf0?\x00\x00\x00\x00\x00\x00\x00\x00\x00\x00\x00\x00\x00\x00\x00\x00\x00\x00\x00\x00\x00\x00\x00\x00\x00\x00\x00\x00\x00\x00\xf0?\x00\x00\x00\x00\x00\x00\x00\x00\x00\x00\x00\x00\x00\x00\x00\x00\x00\x00\x00\x00\x00\x00\x00\x00\x00\x00\x00\x00\x00\x00\xf0?'
p2811
tp2812
bsg51
g7
sg52
(dp2813
sbsg2708
I00
sg2709
g2710
sg2711
Nsg1877
g2712
sg99
g2713
sg2714
g2716
sbsg2724
g2725
sg88
Nsg33
Nsg92
I01
sg2726
Nsg101
VNone
p2814
sg103
g0
(g104
g105
((lp2815
(lp2816
tp2817
tp2818
Rp2819
sg2733
I00
sg2734
g2735
sg2736
g2688
sg2737
Nsg114
Nsg2738
g2688
sg2739
F0.0
sg8
I01
sg2740
Nsg43
Nsg1879
Nsg2741
(I1
tp2820
sg87
F0.5
sg2714
Nsbsg115
NsS'_labelsize'
p2821
F8.0
sS'_name'
p2822
Vxtick
p2823
sg43
Nsg1998
g2559
sg34
Nsbag0
(g2607
g2
Ntp2824
Rp2825
(dp2826
g6
g7
sg40
F0.8
sg9
g4
sg2611
I01
sg8
I01
sg10
Nsg111
I0
sg42
Nsg2612
F3.5
sg2613
g2559
sg2614
I00
sg1977
F0.0
sg17
g18
sg2615
g2616
sg2561
g0
(g1961
g2
Ntp2827
Rp2828
(dp2829
g6
g7
sg8
I01
sg9
g4
sg10
Nsg1965
g0
(g1966
g2
Ntp2830
Rp2831
(dp2832
g1970
(lp2833
g1972
asg1973
Nsg1974
g1975
sg1976
g1975
sg1977
F8.0
sg1978
I400
sg1979
g1975
sbsg42
Nsg17
g18
sg1980
Nsg20
I01
sg23
Nsg75
I0
sg76
I0
sg24
Nsg25
Nsg11
Nsg28
I00
sg29
I00
sg30
(dp2834
sg1982
Nsg32
I00
sg1880
Nsg88
Nsg1879
Nsg1983
Nsg33
Nsg96
Nsg86
I01
sg1984
g2625
sg1986
V
p2835
sg1988
Nsg103
g0
(g104
g105
((lp2836
(lp2837
tp2838
tp2839
Rp2840
sg111
I0
sg1994
Nsg112
I01
sg114
Nsg1995
F1.2
sg115
g355
sg1996
I00
sg1997
I00
sg43
Nsg1998
g2559
sg2000
g2632
sg34
Nsbsg20
I01
sg23
Nsg2633
I00
sg24
Nsg25
Nsg11
Nsg2634
I00
sg28
I00
sg29
I00
sg30
(dp2841
sg2636
(I3
I2
tp2842
sg32
I00
sg2638
F2.01
sg1880
g1939
sg2639
I01
sg88
g951
sg1879
Nsg2640
g2828
sg2641
g0
(g1961
g2
Ntp2843
Rp2844
(dp2845
g6
g7
sg8
I01
sg9
g4
sg10
Nsg1965
g0
(g1966
g2
Ntp2846
Rp2847
(dp2848
g1970
(lp2849
g1972
asg1973
Nsg1974
g1975
sg1976
g1975
sg1977
F8.0
sg1978
I400
sg1979
g1975
sbsg42
Nsg17
g18
sg1980
Nsg20
I01
sg23
Nsg75
I1
sg76
I0
sg24
Nsg25
Nsg11
Nsg28
I00
sg29
I00
sg30
(dp2850
sg1982
Nsg32
I00
sg1880
Nsg88
Nsg1879
Nsg1983
Nsg33
Nsg96
Nsg86
I01
sg1984
g2650
sg1986
V
p2851
sg1988
Nsg103
g0
(g104
g105
((lp2852
(lp2853
tp2854
tp2855
Rp2856
sg111
I0
sg1994
Nsg112
I01
sg114
Nsg1995
F1.2
sg115
g319
sg1996
I00
sg1997
I00
sg43
Nsg1998
g2559
sg2000
g2632
sg34
Nsbsg96
Nsg2657
I0
sg86
I01
sg103
g0
(g104
g105
((lp2857
(lp2858
tp2859
tp2860
Rp2861
sg2663
F3.5
sg2664
g0
(g2665
g2
Ntp2862
Rp2863
(dp2864
g6
g7
sg2669
g2670
sg2028
Nsg20
I01
sg2671
Nsg2672
I0
sg75
Nsg76
Nsg24
Nsg11
Nsg29
I00
sg30
(dp2865
sg32
I00
sg1880
Nsg2674
F0.8
sg2675
Nsg2676
g2677
sg2678
g2679
sg96
Nsg86
I01
sg2680
(I0
tp2866
sg111
I0
sg112
I01
sg2682
I01
sg2683
I01
sg115
g314
sg2684
Nsg2155
F2.01
sg1998
g2559
sg2685
I5
sg9
g4
sg2686
Nsg10
Nsg42
Nsg17
g18
sg2687
g2688
sg23
Nsg25
Nsg28
I00
sg2689
Nsg34
Nsg2690
Nsg2691
g0
(g2692
g2
Ntp2867
Rp2868
(dp2869
g2691
I3
sg2696
Nsg2697
F1.0
sg115
g0
(g163
g2
Ntp2870
Rp2871
(dp2872
g49
I2
sg50
Nsg120
g121
(g122
(I0
tp2873
g124
tp2874
Rp2875
(I1
(I3
I3
tp2876
g59
I00
S'\x00\x00\x00\x00\x00\x00\xf0?\x00\x00\x00\x00\x00\x00\x00\x00\x00\x00\x00\x00\x00\x00\x00\x00\x00\x00\x00\x00\x00\x00\x00\x00\x00\x00\x00\x00\x00\x00\xf0\xbf\x00\x00\x00\x00\x00\x00\x00\x00\x00\x00\x00\x00\x00\x00\x00\x00\x00\x00\x00\x00\x00\x00\x00\x00\x00\x00\x00\x00\x00\x00\xf0?'
p2877
tp2878
bsg51
g7
sg52
(dp2879
sbsg2708
I00
sg2709
g2710
sg2711
Nsg1877
g2712
sg99
g2713
sg2714
g2716
sbsg2724
g2725
sg88
Nsg33
Nsg92
I01
sg2726
Nsg101
g2727
sg103
g0
(g104
g105
((lp2880
(lp2881
tp2882
tp2883
Rp2884
sg2733
I00
sg2734
g2735
sg2736
g2688
sg2737
Nsg114
Nsg2738
g2688
sg2739
F0.0
sg8
I01
sg2740
Nsg43
Nsg1879
Nsg2741
g2742
sg87
F0.5
sg2714
Nsbsg112
I00
sg2743
g0
(g2665
g2
Ntp2885
Rp2886
(dp2887
g6
g7
sg8
I01
sg2736
g2688
sg9
g4
sg2669
g2670
sg2028
Nsg10
Nsg42
Nsg17
g18
sg2687
g2688
sg20
I01
sg2671
Nsg23
Nsg75
g121
(g122
(I0
tp2888
g124
tp2889
Rp2890
(I1
(I2
tp2891
g59
I00
S'\x00\x00\x00\x00\x00\x00\x00\x00\x00\x00\x00\x00\x00\x00\xf0?'
p2892
tp2893
bsg76
g121
(g122
(I0
tp2894
g124
tp2895
Rp2896
(I1
(I2
tp2897
g59
I00
S'\x00\x00\x00\x00\x00\x00\x00\x00\x00\x00\x00\x00\x00\x00\x00\x00'
p2898
tp2899
bsg24
Nsg25
Nsg11
Nsg2680
g2759
sg28
I00
sg2689
Nsg29
I00
sg30
(dp2900
sg2686
Nsg32
I00
sg2733
I00
sg1880
Nsg2690
Nsg2674
F1.0
sg2724
g2725
sg2675
Nsg1998
g2761
sg2691
g0
(g2692
g2
Ntp2901
Rp2902
(dp2903
g2691
g2765
sg2696
Nsg2697
Nsg115
g0
(g45
g2
Ntp2904
Rp2905
(dp2906
g49
I1
sg50
Nsg51
g7
sg52
(dp2907
sbsg2708
I00
sg2709
g2710
sg2711
Nsg1877
g2712
sg99
g2713
sg2714
g0
(g2091
g2
Ntp2908
Rp2909
(dp2910
g2095
I00
sg2096
Nsg2108
g121
(g122
(I0
tp2911
g124
tp2912
Rp2913
(I1
(I0
I2
tp2914
g59
I00
g2777
tp2915
bsg2115
I00
sg2116
F0.1111111111111111
sg2117
I1
sg2118
I00
sbsbsg33
Nsg2676
g2677
sg92
I01
sg2678
g2679
sg96
Nsg2739
F0.0
sg86
I01
sg2726
g121
(g122
(I0
tp2916
g124
tp2917
Rp2918
(I1
(I2
I2
tp2919
g59
I00
S'\x00\x00\x00\x00\x00\x00\x00\x00\x00\x00\x00\x00\x00\x00\x00\x00\x00\x00\x00\x00\x00\x00\x00\x00\x00\x00\x00\x00\x00\x00\xf0?'
p2920
tp2921
bsg101
g2785
sg103
g0
(g104
g105
((lp2922
(lp2923
tp2924
tp2925
Rp2926
sg111
I0
sg2734
g2735
sg2672
I0
sg2737
Nsg2685
I5
sg112
I01
sg114
F1.0
sg2738
g2688
sg2683
I00
sg115
g314
sg2740
Nsg2684
Nsg2682
I00
sg43
Nsg1879
Nsg2741
g2791
sg88
g452
sg87
F0.8
sg34
Nsg2714
g0
(g2091
g2
Ntp2927
Rp2928
(dp2929
g2095
I00
sg2096
Nsg2108
g2918
sg2115
I00
sg2116
F0.1111111111111111
sg2117
I180
sg2118
I00
sbsbsg114
Nsg33
Nsg2795
g0
(g2665
g2
Ntp2930
Rp2931
(dp2932
g6
g7
sg2669
g2670
sg2028
Nsg20
I01
sg2671
Nsg2672
I0
sg75
Nsg76
Nsg24
Nsg11
Nsg29
I00
sg30
(dp2933
sg32
I00
sg1880
Nsg2674
F0.8
sg2675
Nsg2676
g2677
sg2678
g2679
sg96
Nsg86
I01
sg2680
(I0
tp2934
sg111
I0
sg112
I01
sg2682
I01
sg2683
I01
sg115
g314
sg2684
Nsg2155
F2.01
sg1998
g2559
sg2685
I5
sg9
g4
sg2686
Nsg10
Nsg42
Nsg17
g18
sg2687
g2688
sg23
Nsg25
Nsg28
I00
sg2689
Nsg34
Nsg2690
Nsg2691
g0
(g2692
g2
Ntp2935
Rp2936
(dp2937
g2691
I2
sg2696
Nsg2697
F1.0
sg115
g0
(g163
g2
Ntp2938
Rp2939
(dp2940
g49
I2
sg50
Nsg120
g121
(g122
(I0
tp2941
g124
tp2942
Rp2943
(I1
(I3
I3
tp2944
g59
I00
S'\x00\x00\x00\x00\x00\x00\xf0?\x00\x00\x00\x00\x00\x00\x00\x00\x00\x00\x00\x00\x00\x00\x00\x00\x00\x00\x00\x00\x00\x00\x00\x00\x00\x00\x00\x00\x00\x00\xf0?\x00\x00\x00\x00\x00\x00\x00\x00\x00\x00\x00\x00\x00\x00\x00\x00\x00\x00\x00\x00\x00\x00\x00\x00\x00\x00\x00\x00\x00\x00\xf0?'
p2945
tp2946
bsg51
g7
sg52
(dp2947
sbsg2708
I00
sg2709
g2710
sg2711
Nsg1877
g2712
sg99
g2713
sg2714
g2716
sbsg2724
g2725
sg88
Nsg33
Nsg92
I01
sg2726
Nsg101
g2814
sg103
g0
(g104
g105
((lp2948
(lp2949
tp2950
tp2951
Rp2952
sg2733
I00
sg2734
g2735
sg2736
g2688
sg2737
Nsg114
Nsg2738
g2688
sg2739
F0.0
sg8
I01
sg2740
Nsg43
Nsg1879
Nsg2741
g2820
sg87
F0.5
sg2714
Nsbsg115
Nsg2821
F8.0
sg2822
g2823
sg43
Nsg1998
g2559
sg34
NsbasS'isDefault_majloc'
p2953
I01
sg1887
g0
(g1888
g2
Ntp2954
Rp2955
I01
bsg96
Nsg86
I01
sS'_autolabelpos'
p2956
I01
sg103
g0
(g104
g105
((lp2957
(lp2958
tp2959
tp2960
Rp2961
sg111
I0
sS'_lastNumMajorTicks'
p2962
I1
sS'converter'
p2963
Nsg112
I00
sg114
NsS'offset_text_position'
p2964
Vbottom
p2965
sg115
NsS'label_position'
p2966
Vbottom
p2967
sg43
Nsg1879
Nsg2685
I15
sS'minorTicks'
p2968
(lp2969
g0
(g2607
g2
Ntp2970
Rp2971
(dp2972
g6
g7
sg40
F0.6
sg9
g4
sg2611
I01
sg8
I01
sg10
Nsg111
I0
sg42
Nsg2612
F3.4
sg2613
g2559
sg2614
I00
sg1977
F0.0
sg17
g18
sg2615
g2616
sg2561
g0
(g1961
g2
Ntp2973
Rp2974
(dp2975
g6
g7
sg8
I01
sg9
g4
sg10
Nsg1965
g0
(g1966
g2
Ntp2976
Rp2977
(dp2978
g1970
(lp2979
g1972
asg1973
Nsg1974
g1975
sg1976
g1975
sg1977
F8.0
sg1978
I400
sg1979
g1975
sbsg42
Nsg17
g18
sg1980
Nsg20
I01
sg23
Nsg75
I0
sg76
I0
sg24
Nsg25
Nsg11
Nsg28
I00
sg29
I00
sg30
(dp2980
sg1982
Nsg32
I00
sg1880
Nsg88
Nsg1879
Nsg1983
Nsg33
Nsg96
Nsg86
I01
sg1984
g2625
sg1986
V
p2981
sg1988
Nsg103
g0
(g104
g105
((lp2982
(lp2983
tp2984
tp2985
Rp2986
sg111
I0
sg1994
Nsg112
I01
sg114
Nsg1995
F1.2
sg115
g364
sg1996
I00
sg1997
I00
sg43
Nsg1998
g2559
sg2000
g2632
sg34
Nsbsg20
I01
sg23
Nsg2633
I00
sg24
Nsg25
Nsg11
Nsg2634
I00
sg28
I00
sg29
I00
sg30
(dp2987
sg2636
(I3
I2
tp2988
sg32
I00
sg2638
I2
sg1880
g1939
sg2639
I01
sg88
g1535
sg1879
Nsg2640
g2974
sg2641
g0
(g1961
g2
Ntp2989
Rp2990
(dp2991
g6
g7
sg8
I01
sg9
g4
sg10
Nsg1965
g0
(g1966
g2
Ntp2992
Rp2993
(dp2994
g1970
(lp2995
g1972
asg1973
Nsg1974
g1975
sg1976
g1975
sg1977
F8.0
sg1978
I400
sg1979
g1975
sbsg42
Nsg17
g18
sg1980
Nsg20
I01
sg23
Nsg75
I1
sg76
I0
sg24
Nsg25
Nsg11
Nsg28
I00
sg29
I00
sg30
(dp2996
sg1982
Nsg32
I00
sg1880
Nsg88
Nsg1879
Nsg1983
Nsg33
Nsg96
Nsg86
I01
sg1984
g2650
sg1986
V
p2997
sg1988
Nsg103
g0
(g104
g105
((lp2998
(lp2999
tp3000
tp3001
Rp3002
sg111
I0
sg1994
Nsg112
I01
sg114
Nsg1995
F1.2
sg115
g328
sg1996
I00
sg1997
I00
sg43
Nsg1998
g2559
sg2000
g2632
sg34
Nsbsg96
Nsg2657
I0
sg86
I01
sg103
g0
(g104
g105
((lp3003
(lp3004
tp3005
tp3006
Rp3007
sg2663
F3.4
sg2664
g0
(g2665
g2
Ntp3008
Rp3009
(dp3010
g6
g7
sg2669
g2670
sg2028
Nsg20
I01
sg2671
Nsg2672
I0
sg75
Nsg76
Nsg24
Nsg11
Nsg29
I00
sg30
(dp3011
sg32
I00
sg1880
Nsg2674
F0.6
sg2675
Nsg2676
g2677
sg2678
g2679
sg96
Nsg86
I01
sg2680
(I0
tp3012
sg111
I0
sg112
I01
sg2682
I01
sg2683
I01
sg115
g314
sg2684
Nsg2155
I2
sg1998
g2559
sg2685
I5
sg9
g4
sg2686
Nsg10
Nsg42
Nsg17
g18
sg2687
g2688
sg23
Nsg25
Nsg28
I00
sg2689
Nsg34
Nsg2690
Nsg2691
g0
(g2692
g2
Ntp3013
Rp3014
(dp3015
g2691
I3
sg2696
Nsg2697
F1.0
sg115
g0
(g163
g2
Ntp3016
Rp3017
(dp3018
g49
I2
sg50
Nsg120
g121
(g122
(I0
tp3019
g124
tp3020
Rp3021
(I1
(I3
I3
tp3022
g59
I00
S'\x00\x00\x00\x00\x00\x00\xf0?\x00\x00\x00\x00\x00\x00\x00\x00\x00\x00\x00\x00\x00\x00\x00\x00\x00\x00\x00\x00\x00\x00\x00\x00\x00\x00\x00\x00\x00\x00\xf0\xbf\x00\x00\x00\x00\x00\x00\x00\x00\x00\x00\x00\x00\x00\x00\x00\x00\x00\x00\x00\x00\x00\x00\x00\x00\x00\x00\x00\x00\x00\x00\xf0?'
p3023
tp3024
bsg51
g7
sg52
(dp3025
sbsg2708
I00
sg2709
g2710
sg2711
Nsg1877
g2712
sg99
g2713
sg2714
g2716
sbsg2724
g2725
sg88
Nsg33
Nsg92
I01
sg2726
Nsg101
g2727
sg103
g0
(g104
g105
((lp3026
(lp3027
tp3028
tp3029
Rp3030
sg2733
I00
sg2734
g2735
sg2736
g2688
sg2737
Nsg114
Nsg2738
g2688
sg2739
F0.0
sg8
I01
sg2740
Nsg43
Nsg1879
Nsg2741
g2742
sg87
F0.5
sg2714
Nsbsg112
I00
sg2743
g0
(g2665
g2
Ntp3031
Rp3032
(dp3033
g6
g7
sg8
I01
sg2736
g2688
sg9
g4
sg2669
g2670
sg2028
Nsg10
Nsg42
Nsg17
g18
sg2687
g2688
sg20
I01
sg2671
Nsg23
Nsg75
g121
(g122
(I0
tp3034
g124
tp3035
Rp3036
(I1
(I2
tp3037
g59
I00
S'\x00\x00\x00\x00\x00\x00\x00\x00\x00\x00\x00\x00\x00\x00\xf0?'
p3038
tp3039
bsg76
g121
(g122
(I0
tp3040
g124
tp3041
Rp3042
(I1
(I2
tp3043
g59
I00
S'\x00\x00\x00\x00\x00\x00\x00\x00\x00\x00\x00\x00\x00\x00\x00\x00'
p3044
tp3045
bsg24
Nsg25
Nsg11
Nsg2680
g2759
sg28
I00
sg2689
Nsg29
I00
sg30
(dp3046
sg2686
Nsg32
I00
sg2733
I00
sg1880
Nsg2690
Nsg2674
F1.0
sg2724
g2725
sg2675
Nsg1998
g2761
sg2691
g0
(g2692
g2
Ntp3047
Rp3048
(dp3049
g2691
g2765
sg2696
Nsg2697
Nsg115
g0
(g45
g2
Ntp3050
Rp3051
(dp3052
g49
I1
sg50
Nsg51
g7
sg52
(dp3053
sbsg2708
I00
sg2709
g2710
sg2711
Nsg1877
g2712
sg99
g2713
sg2714
g0
(g2091
g2
Ntp3054
Rp3055
(dp3056
g2095
I00
sg2096
Nsg2108
g121
(g122
(I0
tp3057
g124
tp3058
Rp3059
(I1
(I0
I2
tp3060
g59
I00
g2777
tp3061
bsg2115
I00
sg2116
F0.1111111111111111
sg2117
I1
sg2118
I00
sbsbsg33
Nsg2676
g2677
sg92
I01
sg2678
g2679
sg96
Nsg2739
F0.0
sg86
I01
sg2726
g121
(g122
(I0
tp3062
g124
tp3063
Rp3064
(I1
(I2
I2
tp3065
g59
I00
S'\x00\x00\x00\x00\x00\x00\x00\x00\x00\x00\x00\x00\x00\x00\x00\x00\x00\x00\x00\x00\x00\x00\x00\x00\x00\x00\x00\x00\x00\x00\xf0?'
p3066
tp3067
bsg101
g2785
sg103
g0
(g104
g105
((lp3068
(lp3069
tp3070
tp3071
Rp3072
sg111
I0
sg2734
g2735
sg2672
I0
sg2737
Nsg2685
I5
sg112
I01
sg114
F1.0
sg2738
g2688
sg2683
I00
sg115
g314
sg2740
Nsg2684
Nsg2682
I00
sg43
Nsg1879
Nsg2741
g2791
sg88
g601
sg87
F0.8
sg34
Nsg2714
g0
(g2091
g2
Ntp3073
Rp3074
(dp3075
g2095
I00
sg2096
Nsg2108
g3064
sg2115
I00
sg2116
F0.1111111111111111
sg2117
I180
sg2118
I00
sbsbsg114
Nsg33
Nsg2795
g0
(g2665
g2
Ntp3076
Rp3077
(dp3078
g6
g7
sg2669
g2670
sg2028
Nsg20
I01
sg2671
Nsg2672
I0
sg75
Nsg76
Nsg24
Nsg11
Nsg29
I00
sg30
(dp3079
sg32
I00
sg1880
Nsg2674
F0.6
sg2675
Nsg2676
g2677
sg2678
g2679
sg96
Nsg86
I01
sg2680
(I0
tp3080
sg111
I0
sg112
I01
sg2682
I01
sg2683
I01
sg115
g314
sg2684
Nsg2155
I2
sg1998
g2559
sg2685
I5
sg9
g4
sg2686
Nsg10
Nsg42
Nsg17
g18
sg2687
g2688
sg23
Nsg25
Nsg28
I00
sg2689
Nsg34
Nsg2690
Nsg2691
g0
(g2692
g2
Ntp3081
Rp3082
(dp3083
g2691
I2
sg2696
Nsg2697
F1.0
sg115
g0
(g163
g2
Ntp3084
Rp3085
(dp3086
g49
I2
sg50
Nsg120
g121
(g122
(I0
tp3087
g124
tp3088
Rp3089
(I1
(I3
I3
tp3090
g59
I00
S'\x00\x00\x00\x00\x00\x00\xf0?\x00\x00\x00\x00\x00\x00\x00\x00\x00\x00\x00\x00\x00\x00\x00\x00\x00\x00\x00\x00\x00\x00\x00\x00\x00\x00\x00\x00\x00\x00\xf0?\x00\x00\x00\x00\x00\x00\x00\x00\x00\x00\x00\x00\x00\x00\x00\x00\x00\x00\x00\x00\x00\x00\x00\x00\x00\x00\x00\x00\x00\x00\xf0?'
p3091
tp3092
bsg51
g7
sg52
(dp3093
sbsg2708
I00
sg2709
g2710
sg2711
Nsg1877
g2712
sg99
g2713
sg2714
g2716
sbsg2724
g2725
sg88
Nsg33
Nsg92
I01
sg2726
Nsg101
g2814
sg103
g0
(g104
g105
((lp3094
(lp3095
tp3096
tp3097
Rp3098
sg2733
I00
sg2734
g2735
sg2736
g2688
sg2737
Nsg114
Nsg2738
g2688
sg2739
F0.0
sg8
I01
sg2740
Nsg43
Nsg1879
Nsg2741
g2820
sg87
F0.5
sg2714
Nsbsg115
Nsg2821
F8.0
sg2822
g2823
sg43
Nsg1998
g2559
sg34
Nsbag0
(g2607
g2
Ntp3099
Rp3100
(dp3101
g6
g7
sg40
F0.6
sg9
g4
sg2611
I01
sg8
I01
sg10
Nsg111
I0
sg42
Nsg2612
F3.4
sg2613
g2559
sg2614
I00
sg1977
F0.0
sg17
g18
sg2615
g2616
sg2561
g0
(g1961
g2
Ntp3102
Rp3103
(dp3104
g6
g7
sg8
I01
sg9
g4
sg10
Nsg1965
g0
(g1966
g2
Ntp3105
Rp3106
(dp3107
g1970
(lp3108
g1972
asg1973
Nsg1974
g1975
sg1976
g1975
sg1977
F8.0
sg1978
I400
sg1979
g1975
sbsg42
Nsg17
g18
sg1980
Nsg20
I01
sg23
Nsg75
I0
sg76
I0
sg24
Nsg25
Nsg11
Nsg28
I00
sg29
I00
sg30
(dp3109
sg1982
Nsg32
I00
sg1880
Nsg88
Nsg1879
Nsg1983
Nsg33
Nsg96
Nsg86
I01
sg1984
g2625
sg1986
V
p3110
sg1988
Nsg103
g0
(g104
g105
((lp3111
(lp3112
tp3113
tp3114
Rp3115
sg111
I0
sg1994
Nsg112
I01
sg114
Nsg1995
F1.2
sg115
g382
sg1996
I00
sg1997
I00
sg43
Nsg1998
g2559
sg2000
g2632
sg34
Nsbsg20
I01
sg23
Nsg2633
I00
sg24
Nsg25
Nsg11
Nsg2634
I00
sg28
I00
sg29
I00
sg30
(dp3116
sg2636
(I3
I2
tp3117
sg32
I00
sg2638
I2
sg1880
g1939
sg2639
I01
sg88
g531
sg1879
Nsg2640
g3103
sg2641
g0
(g1961
g2
Ntp3118
Rp3119
(dp3120
g6
g7
sg8
I01
sg9
g4
sg10
Nsg1965
g0
(g1966
g2
Ntp3121
Rp3122
(dp3123
g1970
(lp3124
g1972
asg1973
Nsg1974
g1975
sg1976
g1975
sg1977
F8.0
sg1978
I400
sg1979
g1975
sbsg42
Nsg17
g18
sg1980
Nsg20
I01
sg23
Nsg75
I1
sg76
I0
sg24
Nsg25
Nsg11
Nsg28
I00
sg29
I00
sg30
(dp3125
sg1982
Nsg32
I00
sg1880
Nsg88
Nsg1879
Nsg1983
Nsg33
Nsg96
Nsg86
I01
sg1984
g2650
sg1986
V
p3126
sg1988
Nsg103
g0
(g104
g105
((lp3127
(lp3128
tp3129
tp3130
Rp3131
sg111
I0
sg1994
Nsg112
I01
sg114
Nsg1995
F1.2
sg115
g346
sg1996
I00
sg1997
I00
sg43
Nsg1998
g2559
sg2000
g2632
sg34
Nsbsg96
Nsg2657
I0
sg86
I01
sg103
g0
(g104
g105
((lp3132
(lp3133
tp3134
tp3135
Rp3136
sg2663
F3.4
sg2664
g0
(g2665
g2
Ntp3137
Rp3138
(dp3139
g6
g7
sg2669
g2670
sg2028
Nsg20
I01
sg2671
Nsg2672
I0
sg75
Nsg76
Nsg24
Nsg11
Nsg29
I00
sg30
(dp3140
sg32
I00
sg1880
Nsg2674
F0.6
sg2675
Nsg2676
g2677
sg2678
g2679
sg96
Nsg86
I01
sg2680
(I0
tp3141
sg111
I0
sg112
I01
sg2682
I01
sg2683
I01
sg115
g314
sg2684
Nsg2155
I2
sg1998
g2559
sg2685
I5
sg9
g4
sg2686
Nsg10
Nsg42
Nsg17
g18
sg2687
g2688
sg23
Nsg25
Nsg28
I00
sg2689
Nsg34
Nsg2690
Nsg2691
g0
(g2692
g2
Ntp3142
Rp3143
(dp3144
g2691
I3
sg2696
Nsg2697
F1.0
sg115
g0
(g163
g2
Ntp3145
Rp3146
(dp3147
g49
I2
sg50
Nsg120
g121
(g122
(I0
tp3148
g124
tp3149
Rp3150
(I1
(I3
I3
tp3151
g59
I00
S'\x00\x00\x00\x00\x00\x00\xf0?\x00\x00\x00\x00\x00\x00\x00\x00\x00\x00\x00\x00\x00\x00\x00\x00\x00\x00\x00\x00\x00\x00\x00\x00\x00\x00\x00\x00\x00\x00\xf0\xbf\x00\x00\x00\x00\x00\x00\x00\x00\x00\x00\x00\x00\x00\x00\x00\x00\x00\x00\x00\x00\x00\x00\x00\x00\x00\x00\x00\x00\x00\x00\xf0?'
p3152
tp3153
bsg51
g7
sg52
(dp3154
sbsg2708
I00
sg2709
g2710
sg2711
Nsg1877
g2712
sg99
g2713
sg2714
g2716
sbsg2724
g2725
sg88
Nsg33
Nsg92
I01
sg2726
Nsg101
g2727
sg103
g0
(g104
g105
((lp3155
(lp3156
tp3157
tp3158
Rp3159
sg2733
I00
sg2734
g2735
sg2736
g2688
sg2737
Nsg114
Nsg2738
g2688
sg2739
F0.0
sg8
I01
sg2740
Nsg43
Nsg1879
Nsg2741
g2742
sg87
F0.5
sg2714
Nsbsg112
I00
sg2743
g0
(g2665
g2
Ntp3160
Rp3161
(dp3162
g6
g7
sg8
I01
sg2736
g2688
sg9
g4
sg2669
g2670
sg2028
Nsg10
Nsg42
Nsg17
g18
sg2687
g2688
sg20
I01
sg2671
Nsg23
Nsg75
g121
(g122
(I0
tp3163
g124
tp3164
Rp3165
(I1
(I2
tp3166
g59
I00
S'\x00\x00\x00\x00\x00\x00\x00\x00\x00\x00\x00\x00\x00\x00\xf0?'
p3167
tp3168
bsg76
g121
(g122
(I0
tp3169
g124
tp3170
Rp3171
(I1
(I2
tp3172
g59
I00
S'\x00\x00\x00\x00\x00\x00\x00\x00\x00\x00\x00\x00\x00\x00\x00\x00'
p3173
tp3174
bsg24
Nsg25
Nsg11
Nsg2680
g2759
sg28
I00
sg2689
Nsg29
I00
sg30
(dp3175
sg2686
Nsg32
I00
sg2733
I00
sg1880
Nsg2690
Nsg2674
F1.0
sg2724
g2725
sg2675
Nsg1998
g2761
sg2691
g0
(g2692
g2
Ntp3176
Rp3177
(dp3178
g2691
g2765
sg2696
Nsg2697
Nsg115
g0
(g45
g2
Ntp3179
Rp3180
(dp3181
g49
I1
sg50
Nsg51
g7
sg52
(dp3182
sbsg2708
I00
sg2709
g2710
sg2711
Nsg1877
g2712
sg99
g2713
sg2714
g0
(g2091
g2
Ntp3183
Rp3184
(dp3185
g2095
I00
sg2096
Nsg2108
g121
(g122
(I0
tp3186
g124
tp3187
Rp3188
(I1
(I0
I2
tp3189
g59
I00
g2777
tp3190
bsg2115
I00
sg2116
F0.1111111111111111
sg2117
I1
sg2118
I00
sbsbsg33
Nsg2676
g2677
sg92
I01
sg2678
g2679
sg96
Nsg2739
F0.0
sg86
I01
sg2726
g121
(g122
(I0
tp3191
g124
tp3192
Rp3193
(I1
(I2
I2
tp3194
g59
I00
S'\x00\x00\x00\x00\x00\x00\x00\x00\x00\x00\x00\x00\x00\x00\x00\x00\x00\x00\x00\x00\x00\x00\x00\x00\x00\x00\x00\x00\x00\x00\xf0?'
p3195
tp3196
bsg101
g2785
sg103
g0
(g104
g105
((lp3197
(lp3198
tp3199
tp3200
Rp3201
sg111
I0
sg2734
g2735
sg2672
I0
sg2737
Nsg2685
I5
sg112
I01
sg114
F1.0
sg2738
g2688
sg2683
I00
sg115
g314
sg2740
Nsg2684
Nsg2682
I00
sg43
Nsg1879
Nsg2741
g2791
sg88
g1029
sg87
F0.8
sg34
Nsg2714
g0
(g2091
g2
Ntp3202
Rp3203
(dp3204
g2095
I00
sg2096
Nsg2108
g3193
sg2115
I00
sg2116
F0.1111111111111111
sg2117
I180
sg2118
I00
sbsbsg114
Nsg33
Nsg2795
g0
(g2665
g2
Ntp3205
Rp3206
(dp3207
g6
g7
sg2669
g2670
sg2028
Nsg20
I01
sg2671
Nsg2672
I0
sg75
Nsg76
Nsg24
Nsg11
Nsg29
I00
sg30
(dp3208
sg32
I00
sg1880
Nsg2674
F0.6
sg2675
Nsg2676
g2677
sg2678
g2679
sg96
Nsg86
I01
sg2680
(I0
tp3209
sg111
I0
sg112
I01
sg2682
I01
sg2683
I01
sg115
g314
sg2684
Nsg2155
I2
sg1998
g2559
sg2685
I5
sg9
g4
sg2686
Nsg10
Nsg42
Nsg17
g18
sg2687
g2688
sg23
Nsg25
Nsg28
I00
sg2689
Nsg34
Nsg2690
Nsg2691
g0
(g2692
g2
Ntp3210
Rp3211
(dp3212
g2691
I2
sg2696
Nsg2697
F1.0
sg115
g0
(g163
g2
Ntp3213
Rp3214
(dp3215
g49
I2
sg50
Nsg120
g121
(g122
(I0
tp3216
g124
tp3217
Rp3218
(I1
(I3
I3
tp3219
g59
I00
S'\x00\x00\x00\x00\x00\x00\xf0?\x00\x00\x00\x00\x00\x00\x00\x00\x00\x00\x00\x00\x00\x00\x00\x00\x00\x00\x00\x00\x00\x00\x00\x00\x00\x00\x00\x00\x00\x00\xf0?\x00\x00\x00\x00\x00\x00\x00\x00\x00\x00\x00\x00\x00\x00\x00\x00\x00\x00\x00\x00\x00\x00\x00\x00\x00\x00\x00\x00\x00\x00\xf0?'
p3220
tp3221
bsg51
g7
sg52
(dp3222
sbsg2708
I00
sg2709
g2710
sg2711
Nsg1877
g2712
sg99
g2713
sg2714
g2716
sbsg2724
g2725
sg88
Nsg33
Nsg92
I01
sg2726
Nsg101
g2814
sg103
g0
(g104
g105
((lp3223
(lp3224
tp3225
tp3226
Rp3227
sg2733
I00
sg2734
g2735
sg2736
g2688
sg2737
Nsg114
Nsg2738
g2688
sg2739
F0.0
sg8
I01
sg2740
Nsg43
Nsg1879
Nsg2741
g2820
sg87
F0.5
sg2714
Nsbsg115
Nsg2821
F8.0
sg2822
g2823
sg43
Nsg1998
g2559
sg34
Nsbasg34
NsS'_minor_tick_kw'
p3228
(dp3229
g2596
I01
sg2598
I00
sg2599
I01
sg2600
I00
ssS'isDefault_minfmt'
p3230
I01
sbsS'_navigate_mode'
p3231
Nsg34
NsS'transAxes'
p3232
g262
sS'_connected'
p3233
(dp3234
sS'fmt_ydata'
p3235
NsS'dataLim'
p3236
g0
(g136
g2
Ntp3237
Rp3238
(dp3239
g49
I0
sg140
g121
(g122
(I0
tp3240
g124
tp3241
Rp3242
(I1
(I2
tp3243
g59
I00
S'\xf6\xc0/\x0bX\x13\x0c@\xe4|\x93\xda\x17\xcc\xef?'
p3244
tp3245
bsg52
(dp3246
sg148
g121
(g122
(I0
tp3247
g124
tp3248
Rp3249
(I1
(I2
I2
tp3250
g59
I00
S'\x00\x00\x00\x00\x00\x00\xf0\x7f\x00\x00\x00\x00\x00\x00\xf0\x7f\x00\x00\x00\x00\x00\x00\xf0\xff\x00\x00\x00\x00\x00\x00\xf0\xff'
p3251
tp3252
bsg155
g121
(g122
(I0
tp3253
g124
tp3254
Rp3255
(I1
(I2
I2
tp3256
g59
I00
S'\x00\xf6\xc0/\x0bX\x83\xbf\xe4|\x93\xda\x17\xcc\xef?\xf6\xc0/\x0bX\x13\x0c@Y\xbdx5r\x07$@'
p3257
tp3258
bsg162
I01
sg51
g7
sbsS'transData'
p3259
g193
sg33
NsS'_sharey'
p3260
NsS'_sharex'
p3261
NsS'axesPatch'
p3262
g2429
sS'_ymargin'
p3263
F0.05
sS'_axes_locator'
p3264
Nsg103
g0
(g104
g105
((lp3265
(lp3266
tp3267
tp3268
Rp3269
sS'numCols'
p3270
I1
sg114
Nsg1891
NsS'yaxis'
p3271
g0
(cmatplotlib.axis
YAxis
p3272
g2
Ntp3273
Rp3274
(dp3275
g6
g7
sg2490
g0
(g2491
g2
Ntp3276
Rp3277
(dp3278
g2495
g0
(g2496
g2
Ntp3279
Rp3280
(dp3281
g2500
I2
sg2501
I00
sg2502
g2503
sg2504
g121
(g122
(I0
tp3282
g124
tp3283
Rp3284
(I1
(I5
tp3285
g59
I00
S'\x00\x00\x00\x00\x00\x00\xf0?\x00\x00\x00\x00\x00\x00\x00@\x00\x00\x00\x00\x00\x00\x04@\x00\x00\x00\x00\x00\x00\x14@\x00\x00\x00\x00\x00\x00$@'
p3286
tp3287
bsg2511
Nsg2512
g121
(g122
(I0
tp3288
g124
tp3289
Rp3290
(I1
(I10
tp3291
g59
I00
S'\x9a\x99\x99\x99\x99\x99\xb9?\x9a\x99\x99\x99\x99\x99\xc9?\x00\x00\x00\x00\x00\x00\xd0?\x00\x00\x00\x00\x00\x00\xe0?\x00\x00\x00\x00\x00\x00\xf0?\x00\x00\x00\x00\x00\x00\x00@\x00\x00\x00\x00\x00\x00\x04@\x00\x00\x00\x00\x00\x00\x14@\x00\x00\x00\x00\x00\x00$@\x00\x00\x00\x00\x00\x004@'
p3292
tp3293
bsg2519
I00
sg2520
g3274
sbsg2521
g0
(g2522
g2
Ntp3294
Rp3295
(dp3296
g2526
g2527
sg2528
I0
sg2529
I01
sg2530
I00
sg2531
g7
sg2532
I00
sg2533
I4
sg2534
I0
sg1996
I00
sg2535
I01
sg2520
g3274
sbsbsg2536
I00
sg2537
g0
(g2538
g2
Ntp3297
Rp3298
sg9
g4
sg8
I01
sg2541
I00
sg10
Nsg42
Nsg2542
I00
sg17
g18
sg20
I01
sg23
Nsg2543
g0
(g1961
g2
Ntp3299
Rp3300
(dp3301
g6
g7
sg8
I01
sg9
g4
sg10
Nsg1965
g0
(g1966
g2
Ntp3302
Rp3303
(dp3304
g1970
(lp3305
g1972
asg1973
Nsg1974
g1975
sg1976
g1975
sg1977
F8.0
sg1978
I400
sg1979
g1975
sbsg42
Nsg17
g18
sg1980
Nsg20
I01
sg23
Nsg75
F0.5
sg76
I0
sg24
Nsg25
Nsg11
Nsg28
I00
sg29
I00
sg30
(dp3306
sg1982
Nsg32
I00
sg1880
Nsg88
Nsg1879
Nsg1983
Nsg33
Nsg96
Nsg86
I01
sg1984
Vbaseline
p3307
sg1986
V
p3308
sg1988
Nsg103
g0
(g104
g105
((lp3309
(lp3310
tp3311
tp3312
Rp3313
sg111
I0
sg1994
Nsg112
I01
sg114
Nsg1995
F1.2
sg115
g1265
sg1996
I00
sg1997
I00
sg43
Nsg1998
V0.
p3314
sg2000
Vleft
p3315
sg34
Nsbsg24
Nsg25
Nsg11
Nsg2561
g0
(g1961
g2
Ntp3316
Rp3317
(dp3318
g6
g7
sg8
I01
sg9
g4
sg10
Nsg1965
g0
(g1966
g2
Ntp3319
Rp3320
(dp3321
g1970
(lp3322
g1972
asg1973
Nsg1974
g1975
sg1976
g1975
sg1977
F10.0
sg1978
I400
sg1979
g1975
sbsg42
Nsg17
g18
sg1980
Nsg20
I01
sg23
Nsg75
F0.5
sg76
I0
sg24
Nsg25
Nsg11
Nsg28
I00
sg29
I00
sg30
(dp3323
sg1982
Nsg32
I00
sg1880
Nsg88
Nsg1879
Nsg1983
Vanchor
p3324
sg33
Nsg96
Nsg86
I01
sg1984
Vbottom
p3325
sg1986
V$\u005cdelta_i$ (ms)
p3326
sg1988
Nsg103
g0
(g104
g105
((lp3327
(lp3328
tp3329
tp3330
Rp3331
sg111
I0
sg1994
Vvertical
p3332
sg112
I01
sg114
Nsg1995
F1.2
sg115
g479
sg1996
I00
sg1997
I00
sg43
Nsg1998
g2577
sg2000
Vcenter
p3333
sg34
Nsbsg28
I00
sg2579
I01
sg29
I00
sg30
(dp3334
sg2581
Nsg32
I00
sg2582
g0
(g2491
g2
Ntp3335
Rp3336
(dp3337
g2495
g0
(g2586
g2
Ntp3338
Rp3339
(dp3340
g2520
g3274
sbsg2521
g0
(g2590
g2
Ntp3341
Rp3342
(dp3343
g2520
g3274
sbsbsg1880
g1939
sg2594
(dp3344
g2596
I01
sg2597
I00
sg2598
I00
sg2599
I01
sg2600
I00
ssg2601
I01
sg88
g1745
sg33
Nsg2602
I00
sg2603
I1
sg2604
F4.0
sg2605
(lp3345
g0
(cmatplotlib.axis
YTick
p3346
g2
Ntp3347
Rp3348
(dp3349
g6
g7
sg40
F0.8
sg9
g4
sg2611
I01
sg8
I01
sg10
Nsg111
I0
sg42
Nsg2612
F3.5
sg2613
g3314
sg2614
I00
sg1977
F0.0
sg17
g18
sg2615
Vout
p3350
sg2561
g0
(g1961
g2
Ntp3351
Rp3352
(dp3353
g6
g7
sg8
I01
sg9
g4
sg10
Nsg1965
g0
(g1966
g2
Ntp3354
Rp3355
(dp3356
g1970
(lp3357
g1972
asg1973
Nsg1974
g1975
sg1976
g1975
sg1977
F8.0
sg1978
I400
sg1979
g1975
sbsg42
Nsg17
g18
sg1980
Nsg20
I01
sg23
Nsg75
I0
sg76
I0
sg24
Nsg25
Nsg11
Nsg28
I00
sg29
I00
sg30
(dp3358
sg1982
Nsg32
I00
sg1880
Nsg88
Nsg1879
Nsg1983
Nsg33
Nsg96
Nsg86
I01
sg1984
Vcenter_baseline
p3359
sg1986
V
p3360
sg1988
Nsg103
g0
(g104
g105
((lp3361
(lp3362
tp3363
tp3364
Rp3365
sg111
I0
sg1994
Nsg112
I01
sg114
Nsg1995
F1.2
sg115
g1822
sg1996
I00
sg1997
I00
sg43
Nsg1998
g3314
sg2000
Vright
p3366
sg34
Nsbsg20
I01
sg23
Nsg2633
I00
sg24
Nsg25
Nsg11
Nsg2634
I00
sg28
I00
sg29
I00
sg30
(dp3367
sg2636
(I0
I1
tp3368
sg32
I00
sg2638
F2.01
sg1880
g1939
sg2639
I01
sg88
g1605
sg1879
Nsg2640
g3352
sg2641
g0
(g1961
g2
Ntp3369
Rp3370
(dp3371
g6
g7
sg8
I01
sg9
g4
sg10
Nsg1965
g0
(g1966
g2
Ntp3372
Rp3373
(dp3374
g1970
(lp3375
g1972
asg1973
Nsg1974
g1975
sg1976
g1975
sg1977
F8.0
sg1978
I400
sg1979
g1975
sbsg42
Nsg17
g18
sg1980
Nsg20
I01
sg23
Nsg75
I0
sg76
I1
sg24
Nsg25
Nsg11
Nsg28
I00
sg29
I00
sg30
(dp3376
sg1982
Nsg32
I00
sg1880
Nsg88
Nsg1879
Nsg1983
Nsg33
Nsg96
Nsg86
I01
sg1984
g3359
sg1986
V
p3377
sg1988
Nsg103
g0
(g104
g105
((lp3378
(lp3379
tp3380
tp3381
Rp3382
sg111
I0
sg1994
Nsg112
I01
sg114
Nsg1995
F1.2
sg115
g1831
sg1996
I00
sg1997
I00
sg43
Nsg1998
g3314
sg2000
Vleft
p3383
sg34
Nsbsg96
Nsg2657
I0
sg86
I01
sg103
g0
(g104
g105
((lp3384
(lp3385
tp3386
tp3387
Rp3388
sg2663
F3.5
sg2664
g0
(g2665
g2
Ntp3389
Rp3390
(dp3391
g6
g7
sg2669
g2670
sg2028
Nsg20
I01
sg2671
Nsg2672
I0
sg75
Nsg76
Nsg24
Nsg11
Nsg29
I00
sg30
(dp3392
sg32
I00
sg1880
Nsg2674
F0.8
sg2675
Nsg2676
g2677
sg2678
g2679
sg96
Nsg86
I01
sg2680
(I0
tp3393
sg111
I0
sg112
I01
sg2682
I01
sg2683
I01
sg115
g190
sg2684
Nsg2155
F2.01
sg1998
g3314
sg2685
I5
sg9
g4
sg2686
Nsg10
Nsg42
Nsg17
g18
sg2687
g2688
sg23
Nsg25
Nsg28
I00
sg2689
Nsg34
Nsg2690
Nsg2691
g0
(g2692
g2
Ntp3394
Rp3395
(dp3396
g2691
I0
sg2696
Nsg2697
F1.0
sg115
g0
(g163
g2
Ntp3397
Rp3398
(dp3399
g49
I2
sg50
Nsg120
g121
(g122
(I0
tp3400
g124
tp3401
Rp3402
(I1
(I3
I3
tp3403
g59
I00
S'\x00\x00\x00\x00\x00\x00\xf0\xbf\x00\x00\x00\x00\x00\x00\x00\x00\x00\x00\x00\x00\x00\x00\x00\x00\x00\x00\x00\x00\x00\x00\x00\x00\x00\x00\x00\x00\x00\x00\xf0?\x00\x00\x00\x00\x00\x00\x00\x00\x00\x00\x00\x00\x00\x00\x00\x00\x00\x00\x00\x00\x00\x00\x00\x00\x00\x00\x00\x00\x00\x00\xf0?'
p3404
tp3405
bsg51
g7
sg52
(dp3406
sbsg2708
I00
sg2709
g2710
sg2711
Nsg1877
g2712
sg99
g2713
sg2714
g0
(g2091
g2
Ntp3407
Rp3408
(dp3409
g2095
I00
sg2096
Nsg2108
g121
(g122
(I0
tp3410
g124
tp3411
Rp3412
(I1
(I2
I2
tp3413
g59
I00
S'\x00\x00\x00\x00\x00\x00\x00\x00\x00\x00\x00\x00\x00\x00\x00\x00\x00\x00\x00\x00\x00\x00\xf0?\x00\x00\x00\x00\x00\x00\x00\x00'
p3414
tp3415
bsg2115
I00
sg2116
F0.1111111111111111
sg2117
I1
sg2118
I00
sbsbsg2724
g2725
sg88
Nsg33
Nsg92
I01
sg2726
Nsg101
VNone
p3416
sg103
g0
(g104
g105
((lp3417
(lp3418
tp3419
tp3420
Rp3421
sg2733
I00
sg2734
g2735
sg2736
g2688
sg2737
Nsg114
Nsg2738
g2688
sg2739
F0.0
sg8
I01
sg2740
Nsg43
Nsg1879
Nsg2741
(I0
tp3422
sg87
F0.5
sg2714
Nsbsg112
I00
sg2743
g0
(g2665
g2
Ntp3423
Rp3424
(dp3425
g6
g7
sg8
I01
sg2736
g2688
sg9
g4
sg2669
g2670
sg2028
Nsg10
Nsg42
Nsg17
g18
sg2687
g2688
sg20
I01
sg2671
Nsg23
Nsg75
g121
(g122
(I0
tp3426
g124
tp3427
Rp3428
(I1
(I2
tp3429
g59
I00
S'\x00\x00\x00\x00\x00\x00\x00\x00\x00\x00\x00\x00\x00\x00\x00\x00'
p3430
tp3431
bsg76
g121
(g122
(I0
tp3432
g124
tp3433
Rp3434
(I1
(I2
tp3435
g59
I00
S'\x00\x00\x00\x00\x00\x00\x00\x00\x00\x00\x00\x00\x00\x00\xf0?'
p3436
tp3437
bsg24
Nsg25
Nsg11
Nsg2680
(I0
I1
tp3438
sg28
I00
sg2689
Nsg29
I00
sg30
(dp3439
sg2686
Nsg32
I00
sg2733
I00
sg1880
Nsg2690
Nsg2674
F1.0
sg2724
g2725
sg2675
Nsg1998
g2761
sg2691
g0
(g2692
g2
Ntp3440
Rp3441
(dp3442
g2691
g2765
sg2696
Nsg2697
Nsg115
g0
(g45
g2
Ntp3443
Rp3444
(dp3445
g49
I1
sg50
Nsg51
g7
sg52
(dp3446
sbsg2708
I00
sg2709
g2710
sg2711
Nsg1877
g2712
sg99
g2713
sg2714
g0
(g2091
g2
Ntp3447
Rp3448
(dp3449
g2095
I00
sg2096
Nsg2108
g121
(g122
(I0
tp3450
g124
tp3451
Rp3452
(I1
(I0
I2
tp3453
g59
I00
g2777
tp3454
bsg2115
I00
sg2116
F0.1111111111111111
sg2117
I1
sg2118
I00
sbsbsg33
Nsg2676
g2677
sg92
I01
sg2678
g2679
sg96
Nsg2739
F0.0
sg86
I01
sg2726
g121
(g122
(I0
tp3455
g124
tp3456
Rp3457
(I1
(I2
I2
tp3458
g59
I00
S'\x00\x00\x00\x00\x00\x00\x00\x00\x00\x00\x00\x00\x00\x00\x00\x00\x00\x00\x00\x00\x00\x00\xf0?\x00\x00\x00\x00\x00\x00\x00\x00'
p3459
tp3460
bsg101
g2785
sg103
g0
(g104
g105
((lp3461
(lp3462
tp3463
tp3464
Rp3465
sg111
I0
sg2734
g2735
sg2672
I0
sg2737
Nsg2685
I5
sg112
I01
sg114
F1.0
sg2738
g2688
sg2683
I00
sg115
g190
sg2740
Nsg2684
Nsg2682
I00
sg43
Nsg1879
Nsg2741
(I0
I0
tp3466
sg88
g1317
sg87
F0.8
sg34
Nsg2714
g0
(g2091
g2
Ntp3467
Rp3468
(dp3469
g2095
I00
sg2096
Nsg2108
g3457
sg2115
I00
sg2116
F0.1111111111111111
sg2117
I180
sg2118
I00
sbsbsg114
Nsg33
Nsg2795
g0
(g2665
g2
Ntp3470
Rp3471
(dp3472
g6
g7
sg2669
g2670
sg2028
Nsg20
I01
sg2671
Nsg2672
I0
sg75
Nsg76
Nsg24
Nsg11
Nsg29
I00
sg30
(dp3473
sg32
I00
sg1880
Nsg2674
F0.8
sg2675
Nsg2676
g2677
sg2678
g2679
sg96
Nsg86
I01
sg2680
(I1
tp3474
sg111
I0
sg112
I01
sg2682
I01
sg2683
I01
sg115
g190
sg2684
Nsg2155
F2.01
sg1998
g3314
sg2685
I5
sg9
g4
sg2686
Nsg10
Nsg42
Nsg17
g18
sg2687
g2688
sg23
Nsg25
Nsg28
I00
sg2689
Nsg34
Nsg2690
Nsg2691
g0
(g2692
g2
Ntp3475
Rp3476
(dp3477
g2691
I1
sg2696
Nsg2697
F1.0
sg115
g0
(g163
g2
Ntp3478
Rp3479
(dp3480
g49
I2
sg50
Nsg120
g121
(g122
(I0
tp3481
g124
tp3482
Rp3483
(I1
(I3
I3
tp3484
g59
I00
S'\x00\x00\x00\x00\x00\x00\xf0?\x00\x00\x00\x00\x00\x00\x00\x00\x00\x00\x00\x00\x00\x00\x00\x00\x00\x00\x00\x00\x00\x00\x00\x00\x00\x00\x00\x00\x00\x00\xf0?\x00\x00\x00\x00\x00\x00\x00\x00\x00\x00\x00\x00\x00\x00\x00\x00\x00\x00\x00\x00\x00\x00\x00\x00\x00\x00\x00\x00\x00\x00\xf0?'
p3485
tp3486
bsg51
g7
sg52
(dp3487
sbsg2708
I00
sg2709
g2710
sg2711
Nsg1877
g2712
sg99
g2713
sg2714
g3408
sbsg2724
g2725
sg88
Nsg33
Nsg92
I01
sg2726
Nsg101
VNone
p3488
sg103
g0
(g104
g105
((lp3489
(lp3490
tp3491
tp3492
Rp3493
sg2733
I00
sg2734
g2735
sg2736
g2688
sg2737
Nsg114
Nsg2738
g2688
sg2739
F0.0
sg8
I01
sg2740
Nsg43
Nsg1879
Nsg2741
(I0
tp3494
sg87
F0.5
sg2714
Nsbsg115
Nsg2821
F8.0
sg2822
Vytick
p3495
sg43
Nsg1998
g3314
sg34
Nsbag0
(g3346
g2
Ntp3496
Rp3497
(dp3498
g6
g7
sg40
F0.8
sg9
g4
sg2611
I01
sg8
I01
sg10
Nsg111
I0
sg42
Nsg2612
F3.5
sg2613
g3314
sg2614
I00
sg1977
F0.0
sg17
g18
sg2615
g3350
sg2561
g0
(g1961
g2
Ntp3499
Rp3500
(dp3501
g6
g7
sg8
I01
sg9
g4
sg10
Nsg1965
g0
(g1966
g2
Ntp3502
Rp3503
(dp3504
g1970
(lp3505
g1972
asg1973
Nsg1974
g1975
sg1976
g1975
sg1977
F8.0
sg1978
I400
sg1979
g1975
sbsg42
Nsg17
g18
sg1980
Nsg20
I01
sg23
Nsg75
I0
sg76
I0
sg24
Nsg25
Nsg11
Nsg28
I00
sg29
I00
sg30
(dp3506
sg1982
Nsg32
I00
sg1880
Nsg88
Nsg1879
Nsg1983
Nsg33
Nsg96
Nsg86
I01
sg1984
g3359
sg1986
V
p3507
sg1988
Nsg103
g0
(g104
g105
((lp3508
(lp3509
tp3510
tp3511
Rp3512
sg111
I0
sg1994
Nsg112
I01
sg114
Nsg1995
F1.2
sg115
g184
sg1996
I00
sg1997
I00
sg43
Nsg1998
g3314
sg2000
g3366
sg34
Nsbsg20
I01
sg23
Nsg2633
I00
sg24
Nsg25
Nsg11
Nsg2634
I00
sg28
I00
sg29
I00
sg30
(dp3513
sg2636
(I0
I1
tp3514
sg32
I00
sg2638
F2.01
sg1880
g1939
sg2639
I01
sg88
g741
sg1879
Nsg2640
g3500
sg2641
g0
(g1961
g2
Ntp3515
Rp3516
(dp3517
g6
g7
sg8
I01
sg9
g4
sg10
Nsg1965
g0
(g1966
g2
Ntp3518
Rp3519
(dp3520
g1970
(lp3521
g1972
asg1973
Nsg1974
g1975
sg1976
g1975
sg1977
F8.0
sg1978
I400
sg1979
g1975
sbsg42
Nsg17
g18
sg1980
Nsg20
I01
sg23
Nsg75
I0
sg76
I1
sg24
Nsg25
Nsg11
Nsg28
I00
sg29
I00
sg30
(dp3522
sg1982
Nsg32
I00
sg1880
Nsg88
Nsg1879
Nsg1983
Nsg33
Nsg96
Nsg86
I01
sg1984
g3359
sg1986
V
p3523
sg1988
Nsg103
g0
(g104
g105
((lp3524
(lp3525
tp3526
tp3527
Rp3528
sg111
I0
sg1994
Nsg112
I01
sg114
Nsg1995
F1.2
sg115
g1849
sg1996
I00
sg1997
I00
sg43
Nsg1998
g3314
sg2000
g3383
sg34
Nsbsg96
Nsg2657
I0
sg86
I01
sg103
g0
(g104
g105
((lp3529
(lp3530
tp3531
tp3532
Rp3533
sg2663
F3.5
sg2664
g0
(g2665
g2
Ntp3534
Rp3535
(dp3536
g6
g7
sg2669
g2670
sg2028
Nsg20
I01
sg2671
Nsg2672
I0
sg75
Nsg76
Nsg24
Nsg11
Nsg29
I00
sg30
(dp3537
sg32
I00
sg1880
Nsg2674
F0.8
sg2675
Nsg2676
g2677
sg2678
g2679
sg96
Nsg86
I01
sg2680
g3393
sg111
I0
sg112
I01
sg2682
I01
sg2683
I01
sg115
g190
sg2684
Nsg2155
F2.01
sg1998
g3314
sg2685
I5
sg9
g4
sg2686
Nsg10
Nsg42
Nsg17
g18
sg2687
g2688
sg23
Nsg25
Nsg28
I00
sg2689
Nsg34
Nsg2690
Nsg2691
g0
(g2692
g2
Ntp3538
Rp3539
(dp3540
g2691
I0
sg2696
Nsg2697
F1.0
sg115
g0
(g163
g2
Ntp3541
Rp3542
(dp3543
g49
I2
sg50
Nsg120
g121
(g122
(I0
tp3544
g124
tp3545
Rp3546
(I1
(I3
I3
tp3547
g59
I00
S'\x00\x00\x00\x00\x00\x00\xf0\xbf\x00\x00\x00\x00\x00\x00\x00\x00\x00\x00\x00\x00\x00\x00\x00\x00\x00\x00\x00\x00\x00\x00\x00\x00\x00\x00\x00\x00\x00\x00\xf0?\x00\x00\x00\x00\x00\x00\x00\x00\x00\x00\x00\x00\x00\x00\x00\x00\x00\x00\x00\x00\x00\x00\x00\x00\x00\x00\x00\x00\x00\x00\xf0?'
p3548
tp3549
bsg51
g7
sg52
(dp3550
sbsg2708
I00
sg2709
g2710
sg2711
Nsg1877
g2712
sg99
g2713
sg2714
g3408
sbsg2724
g2725
sg88
Nsg33
Nsg92
I01
sg2726
Nsg101
g3416
sg103
g0
(g104
g105
((lp3551
(lp3552
tp3553
tp3554
Rp3555
sg2733
I00
sg2734
g2735
sg2736
g2688
sg2737
Nsg114
Nsg2738
g2688
sg2739
F0.0
sg8
I01
sg2740
Nsg43
Nsg1879
Nsg2741
(I0
tp3556
sg87
F0.5
sg2714
Nsbsg112
I00
sg2743
g0
(g2665
g2
Ntp3557
Rp3558
(dp3559
g6
g7
sg8
I01
sg2736
g2688
sg9
g4
sg2669
g2670
sg2028
Nsg10
Nsg42
Nsg17
g18
sg2687
g2688
sg20
I01
sg2671
Nsg23
Nsg75
g121
(g122
(I0
tp3560
g124
tp3561
Rp3562
(I1
(I2
tp3563
g59
I00
S'\x00\x00\x00\x00\x00\x00\x00\x00\x00\x00\x00\x00\x00\x00\x00\x00'
p3564
tp3565
bsg76
g121
(g122
(I0
tp3566
g124
tp3567
Rp3568
(I1
(I2
tp3569
g59
I00
S'\x00\x00\x00\x00\x00\x00\x00\x00\x00\x00\x00\x00\x00\x00\xf0?'
p3570
tp3571
bsg24
Nsg25
Nsg11
Nsg2680
g3438
sg28
I00
sg2689
Nsg29
I00
sg30
(dp3572
sg2686
Nsg32
I00
sg2733
I00
sg1880
Nsg2690
Nsg2674
F1.0
sg2724
g2725
sg2675
Nsg1998
g2761
sg2691
g0
(g2692
g2
Ntp3573
Rp3574
(dp3575
g2691
g2765
sg2696
Nsg2697
Nsg115
g0
(g45
g2
Ntp3576
Rp3577
(dp3578
g49
I1
sg50
Nsg51
g7
sg52
(dp3579
sbsg2708
I00
sg2709
g2710
sg2711
Nsg1877
g2712
sg99
g2713
sg2714
g0
(g2091
g2
Ntp3580
Rp3581
(dp3582
g2095
I00
sg2096
Nsg2108
g121
(g122
(I0
tp3583
g124
tp3584
Rp3585
(I1
(I0
I2
tp3586
g59
I00
g2777
tp3587
bsg2115
I00
sg2116
F0.1111111111111111
sg2117
I1
sg2118
I00
sbsbsg33
Nsg2676
g2677
sg92
I01
sg2678
g2679
sg96
Nsg2739
F0.0
sg86
I01
sg2726
g121
(g122
(I0
tp3588
g124
tp3589
Rp3590
(I1
(I2
I2
tp3591
g59
I00
S'\x00\x00\x00\x00\x00\x00\x00\x00\x00\x00\x00\x00\x00\x00\x00\x00\x00\x00\x00\x00\x00\x00\xf0?\x00\x00\x00\x00\x00\x00\x00\x00'
p3592
tp3593
bsg101
g2785
sg103
g0
(g104
g105
((lp3594
(lp3595
tp3596
tp3597
Rp3598
sg111
I0
sg2734
g2735
sg2672
I0
sg2737
Nsg2685
I5
sg112
I01
sg114
F1.0
sg2738
g2688
sg2683
I00
sg115
g190
sg2740
Nsg2684
Nsg2682
I00
sg43
Nsg1879
Nsg2741
g3466
sg88
g881
sg87
F0.8
sg34
Nsg2714
g0
(g2091
g2
Ntp3599
Rp3600
(dp3601
g2095
I00
sg2096
Nsg2108
g3590
sg2115
I00
sg2116
F0.1111111111111111
sg2117
I180
sg2118
I00
sbsbsg114
Nsg33
Nsg2795
g0
(g2665
g2
Ntp3602
Rp3603
(dp3604
g6
g7
sg2669
g2670
sg2028
Nsg20
I01
sg2671
Nsg2672
I0
sg75
Nsg76
Nsg24
Nsg11
Nsg29
I00
sg30
(dp3605
sg32
I00
sg1880
Nsg2674
F0.8
sg2675
Nsg2676
g2677
sg2678
g2679
sg96
Nsg86
I01
sg2680
g3474
sg111
I0
sg112
I01
sg2682
I01
sg2683
I01
sg115
g190
sg2684
Nsg2155
F2.01
sg1998
g3314
sg2685
I5
sg9
g4
sg2686
Nsg10
Nsg42
Nsg17
g18
sg2687
g2688
sg23
Nsg25
Nsg28
I00
sg2689
Nsg34
Nsg2690
Nsg2691
g0
(g2692
g2
Ntp3606
Rp3607
(dp3608
g2691
I1
sg2696
Nsg2697
F1.0
sg115
g0
(g163
g2
Ntp3609
Rp3610
(dp3611
g49
I2
sg50
Nsg120
g121
(g122
(I0
tp3612
g124
tp3613
Rp3614
(I1
(I3
I3
tp3615
g59
I00
S'\x00\x00\x00\x00\x00\x00\xf0?\x00\x00\x00\x00\x00\x00\x00\x00\x00\x00\x00\x00\x00\x00\x00\x00\x00\x00\x00\x00\x00\x00\x00\x00\x00\x00\x00\x00\x00\x00\xf0?\x00\x00\x00\x00\x00\x00\x00\x00\x00\x00\x00\x00\x00\x00\x00\x00\x00\x00\x00\x00\x00\x00\x00\x00\x00\x00\x00\x00\x00\x00\xf0?'
p3616
tp3617
bsg51
g7
sg52
(dp3618
sbsg2708
I00
sg2709
g2710
sg2711
Nsg1877
g2712
sg99
g2713
sg2714
g3408
sbsg2724
g2725
sg88
Nsg33
Nsg92
I01
sg2726
Nsg101
g3488
sg103
g0
(g104
g105
((lp3619
(lp3620
tp3621
tp3622
Rp3623
sg2733
I00
sg2734
g2735
sg2736
g2688
sg2737
Nsg114
Nsg2738
g2688
sg2739
F0.0
sg8
I01
sg2740
Nsg43
Nsg1879
Nsg2741
(I0
tp3624
sg87
F0.5
sg2714
Nsbsg115
Nsg2821
F8.0
sg2822
g3495
sg43
Nsg1998
g3314
sg34
Nsbasg2953
I01
sg1887
g0
(g1888
g2
Ntp3625
Rp3626
I01
bsg96
Nsg86
I01
sg2956
I01
sg103
g0
(g104
g105
((lp3627
(lp3628
tp3629
tp3630
Rp3631
sg111
I0
sg2962
I1
sg2963
Nsg112
I00
sg114
Nsg2964
Vleft
p3632
sg115
Nsg2966
Vleft
p3633
sg43
Nsg1879
Nsg2685
I15
sg2968
(lp3634
g0
(g3346
g2
Ntp3635
Rp3636
(dp3637
g6
g7
sg40
F0.6
sg9
g4
sg2611
I01
sg8
I01
sg10
Nsg111
I0
sg42
Nsg2612
F3.4
sg2613
g3314
sg2614
I00
sg1977
F0.0
sg17
g18
sg2615
g3350
sg2561
g0
(g1961
g2
Ntp3638
Rp3639
(dp3640
g6
g7
sg8
I01
sg9
g4
sg10
Nsg1965
g0
(g1966
g2
Ntp3641
Rp3642
(dp3643
g1970
(lp3644
g1972
asg1973
Nsg1974
g1975
sg1976
g1975
sg1977
F8.0
sg1978
I400
sg1979
g1975
sbsg42
Nsg17
g18
sg1980
Nsg20
I01
sg23
Nsg75
I0
sg76
I0
sg24
Nsg25
Nsg11
Nsg28
I00
sg29
I00
sg30
(dp3645
sg1982
Nsg32
I00
sg1880
Nsg88
Nsg1879
Nsg1983
Nsg33
Nsg96
Nsg86
I01
sg1984
g3359
sg1986
V
p3646
sg1988
Nsg103
g0
(g104
g105
((lp3647
(lp3648
tp3649
tp3650
Rp3651
sg111
I0
sg1994
Nsg112
I01
sg114
Nsg1995
F1.2
sg115
g1813
sg1996
I00
sg1997
I00
sg43
Nsg1998
g3314
sg2000
g3366
sg34
Nsbsg20
I01
sg23
Nsg2633
I00
sg24
Nsg25
Nsg11
Nsg2634
I00
sg28
I00
sg29
I00
sg30
(dp3652
sg2636
(I0
I1
tp3653
sg32
I00
sg2638
I2
sg1880
g1939
sg2639
I01
sg88
g1099
sg1879
Nsg2640
g3639
sg2641
g0
(g1961
g2
Ntp3654
Rp3655
(dp3656
g6
g7
sg8
I01
sg9
g4
sg10
Nsg1965
g0
(g1966
g2
Ntp3657
Rp3658
(dp3659
g1970
(lp3660
g1972
asg1973
Nsg1974
g1975
sg1976
g1975
sg1977
F8.0
sg1978
I400
sg1979
g1975
sbsg42
Nsg17
g18
sg1980
Nsg20
I01
sg23
Nsg75
I0
sg76
I1
sg24
Nsg25
Nsg11
Nsg28
I00
sg29
I00
sg30
(dp3661
sg1982
Nsg32
I00
sg1880
Nsg88
Nsg1879
Nsg1983
Nsg33
Nsg96
Nsg86
I01
sg1984
g3359
sg1986
V
p3662
sg1988
Nsg103
g0
(g104
g105
((lp3663
(lp3664
tp3665
tp3666
Rp3667
sg111
I0
sg1994
Nsg112
I01
sg114
Nsg1995
F1.2
sg115
g1840
sg1996
I00
sg1997
I00
sg43
Nsg1998
g3314
sg2000
g3383
sg34
Nsbsg96
Nsg2657
I0
sg86
I01
sg103
g0
(g104
g105
((lp3668
(lp3669
tp3670
tp3671
Rp3672
sg2663
F3.4
sg2664
g0
(g2665
g2
Ntp3673
Rp3674
(dp3675
g6
g7
sg2669
g2670
sg2028
Nsg20
I01
sg2671
Nsg2672
I0
sg75
Nsg76
Nsg24
Nsg11
Nsg29
I00
sg30
(dp3676
sg32
I00
sg1880
Nsg2674
F0.6
sg2675
Nsg2676
g2677
sg2678
g2679
sg96
Nsg86
I01
sg2680
g3393
sg111
I0
sg112
I01
sg2682
I01
sg2683
I01
sg115
g190
sg2684
Nsg2155
I2
sg1998
g3314
sg2685
I5
sg9
g4
sg2686
Nsg10
Nsg42
Nsg17
g18
sg2687
g2688
sg23
Nsg25
Nsg28
I00
sg2689
Nsg34
Nsg2690
Nsg2691
g0
(g2692
g2
Ntp3677
Rp3678
(dp3679
g2691
I0
sg2696
Nsg2697
F1.0
sg115
g0
(g163
g2
Ntp3680
Rp3681
(dp3682
g49
I2
sg50
Nsg120
g121
(g122
(I0
tp3683
g124
tp3684
Rp3685
(I1
(I3
I3
tp3686
g59
I00
S'\x00\x00\x00\x00\x00\x00\xf0\xbf\x00\x00\x00\x00\x00\x00\x00\x00\x00\x00\x00\x00\x00\x00\x00\x00\x00\x00\x00\x00\x00\x00\x00\x00\x00\x00\x00\x00\x00\x00\xf0?\x00\x00\x00\x00\x00\x00\x00\x00\x00\x00\x00\x00\x00\x00\x00\x00\x00\x00\x00\x00\x00\x00\x00\x00\x00\x00\x00\x00\x00\x00\xf0?'
p3687
tp3688
bsg51
g7
sg52
(dp3689
sbsg2708
I00
sg2709
g2710
sg2711
Nsg1877
g2712
sg99
g2713
sg2714
g3408
sbsg2724
g2725
sg88
Nsg33
Nsg92
I01
sg2726
Nsg101
g3416
sg103
g0
(g104
g105
((lp3690
(lp3691
tp3692
tp3693
Rp3694
sg2733
I00
sg2734
g2735
sg2736
g2688
sg2737
Nsg114
Nsg2738
g2688
sg2739
F0.0
sg8
I01
sg2740
Nsg43
Nsg1879
Nsg2741
(I0
tp3695
sg87
F0.5
sg2714
Nsbsg112
I00
sg2743
g0
(g2665
g2
Ntp3696
Rp3697
(dp3698
g6
g7
sg8
I01
sg2736
g2688
sg9
g4
sg2669
g2670
sg2028
Nsg10
Nsg42
Nsg17
g18
sg2687
g2688
sg20
I01
sg2671
Nsg23
Nsg75
g121
(g122
(I0
tp3699
g124
tp3700
Rp3701
(I1
(I2
tp3702
g59
I00
S'\x00\x00\x00\x00\x00\x00\x00\x00\x00\x00\x00\x00\x00\x00\x00\x00'
p3703
tp3704
bsg76
g121
(g122
(I0
tp3705
g124
tp3706
Rp3707
(I1
(I2
tp3708
g59
I00
S'\x00\x00\x00\x00\x00\x00\x00\x00\x00\x00\x00\x00\x00\x00\xf0?'
p3709
tp3710
bsg24
Nsg25
Nsg11
Nsg2680
g3438
sg28
I00
sg2689
Nsg29
I00
sg30
(dp3711
sg2686
Nsg32
I00
sg2733
I00
sg1880
Nsg2690
Nsg2674
F1.0
sg2724
g2725
sg2675
Nsg1998
g2761
sg2691
g0
(g2692
g2
Ntp3712
Rp3713
(dp3714
g2691
g2765
sg2696
Nsg2697
Nsg115
g0
(g45
g2
Ntp3715
Rp3716
(dp3717
g49
I1
sg50
Nsg51
g7
sg52
(dp3718
sbsg2708
I00
sg2709
g2710
sg2711
Nsg1877
g2712
sg99
g2713
sg2714
g0
(g2091
g2
Ntp3719
Rp3720
(dp3721
g2095
I00
sg2096
Nsg2108
g121
(g122
(I0
tp3722
g124
tp3723
Rp3724
(I1
(I0
I2
tp3725
g59
I00
g2777
tp3726
bsg2115
I00
sg2116
F0.1111111111111111
sg2117
I1
sg2118
I00
sbsbsg33
Nsg2676
g2677
sg92
I01
sg2678
g2679
sg96
Nsg2739
F0.0
sg86
I01
sg2726
g121
(g122
(I0
tp3727
g124
tp3728
Rp3729
(I1
(I2
I2
tp3730
g59
I00
S'\x00\x00\x00\x00\x00\x00\x00\x00\x00\x00\x00\x00\x00\x00\x00\x00\x00\x00\x00\x00\x00\x00\xf0?\x00\x00\x00\x00\x00\x00\x00\x00'
p3731
tp3732
bsg101
g2785
sg103
g0
(g104
g105
((lp3733
(lp3734
tp3735
tp3736
Rp3737
sg111
I0
sg2734
g2735
sg2672
I0
sg2737
Nsg2685
I5
sg112
I01
sg114
F1.0
sg2738
g2688
sg2683
I00
sg115
g190
sg2740
Nsg2684
Nsg2682
I00
sg43
Nsg1879
Nsg2741
g3466
sg88
g1239
sg87
F0.8
sg34
Nsg2714
g0
(g2091
g2
Ntp3738
Rp3739
(dp3740
g2095
I00
sg2096
Nsg2108
g3729
sg2115
I00
sg2116
F0.1111111111111111
sg2117
I180
sg2118
I00
sbsbsg114
Nsg33
Nsg2795
g0
(g2665
g2
Ntp3741
Rp3742
(dp3743
g6
g7
sg2669
g2670
sg2028
Nsg20
I01
sg2671
Nsg2672
I0
sg75
Nsg76
Nsg24
Nsg11
Nsg29
I00
sg30
(dp3744
sg32
I00
sg1880
Nsg2674
F0.6
sg2675
Nsg2676
g2677
sg2678
g2679
sg96
Nsg86
I01
sg2680
g3474
sg111
I0
sg112
I01
sg2682
I01
sg2683
I01
sg115
g190
sg2684
Nsg2155
I2
sg1998
g3314
sg2685
I5
sg9
g4
sg2686
Nsg10
Nsg42
Nsg17
g18
sg2687
g2688
sg23
Nsg25
Nsg28
I00
sg2689
Nsg34
Nsg2690
Nsg2691
g0
(g2692
g2
Ntp3745
Rp3746
(dp3747
g2691
I1
sg2696
Nsg2697
F1.0
sg115
g0
(g163
g2
Ntp3748
Rp3749
(dp3750
g49
I2
sg50
Nsg120
g121
(g122
(I0
tp3751
g124
tp3752
Rp3753
(I1
(I3
I3
tp3754
g59
I00
S'\x00\x00\x00\x00\x00\x00\xf0?\x00\x00\x00\x00\x00\x00\x00\x00\x00\x00\x00\x00\x00\x00\x00\x00\x00\x00\x00\x00\x00\x00\x00\x00\x00\x00\x00\x00\x00\x00\xf0?\x00\x00\x00\x00\x00\x00\x00\x00\x00\x00\x00\x00\x00\x00\x00\x00\x00\x00\x00\x00\x00\x00\x00\x00\x00\x00\x00\x00\x00\x00\xf0?'
p3755
tp3756
bsg51
g7
sg52
(dp3757
sbsg2708
I00
sg2709
g2710
sg2711
Nsg1877
g2712
sg99
g2713
sg2714
g3408
sbsg2724
g2725
sg88
Nsg33
Nsg92
I01
sg2726
Nsg101
g3488
sg103
g0
(g104
g105
((lp3758
(lp3759
tp3760
tp3761
Rp3762
sg2733
I00
sg2734
g2735
sg2736
g2688
sg2737
Nsg114
Nsg2738
g2688
sg2739
F0.0
sg8
I01
sg2740
Nsg43
Nsg1879
Nsg2741
(I0
tp3763
sg87
F0.5
sg2714
Nsbsg115
Nsg2821
F8.0
sg2822
g3495
sg43
Nsg1998
g3314
sg34
Nsbag0
(g3346
g2
Ntp3764
Rp3765
(dp3766
g6
g7
sg40
F0.6
sg9
g4
sg2611
I01
sg8
I01
sg10
Nsg111
I0
sg42
Nsg2612
F3.4
sg2613
g3314
sg2614
I00
sg1977
F0.0
sg17
g18
sg2615
g3350
sg2561
g0
(g1961
g2
Ntp3767
Rp3768
(dp3769
g6
g7
sg8
I01
sg9
g4
sg10
Nsg1965
g0
(g1966
g2
Ntp3770
Rp3771
(dp3772
g1970
(lp3773
g1972
asg1973
Nsg1974
g1975
sg1976
g1975
sg1977
F8.0
sg1978
I400
sg1979
g1975
sbsg42
Nsg17
g18
sg1980
Nsg20
I01
sg23
Nsg75
I0
sg76
I0
sg24
Nsg25
Nsg11
Nsg28
I00
sg29
I00
sg30
(dp3774
sg1982
Nsg32
I00
sg1880
Nsg88
Nsg1879
Nsg1983
Nsg33
Nsg96
Nsg86
I01
sg1984
g3359
sg1986
V
p3775
sg1988
Nsg103
g0
(g104
g105
((lp3776
(lp3777
tp3778
tp3779
Rp3780
sg111
I0
sg1994
Nsg112
I01
sg114
Nsg1995
F1.2
sg115
g1858
sg1996
I00
sg1997
I00
sg43
Nsg1998
g3314
sg2000
g3366
sg34
Nsbsg20
I01
sg23
Nsg2633
I00
sg24
Nsg25
Nsg11
Nsg2634
I00
sg28
I00
sg29
I00
sg30
(dp3781
sg2636
(I0
I1
tp3782
sg32
I00
sg2638
I2
sg1880
g1939
sg2639
I01
sg88
g1465
sg1879
Nsg2640
g3768
sg2641
g0
(g1961
g2
Ntp3783
Rp3784
(dp3785
g6
g7
sg8
I01
sg9
g4
sg10
Nsg1965
g0
(g1966
g2
Ntp3786
Rp3787
(dp3788
g1970
(lp3789
g1972
asg1973
Nsg1974
g1975
sg1976
g1975
sg1977
F8.0
sg1978
I400
sg1979
g1975
sbsg42
Nsg17
g18
sg1980
Nsg20
I01
sg23
Nsg75
I0
sg76
I1
sg24
Nsg25
Nsg11
Nsg28
I00
sg29
I00
sg30
(dp3790
sg1982
Nsg32
I00
sg1880
Nsg88
Nsg1879
Nsg1983
Nsg33
Nsg96
Nsg86
I01
sg1984
g3359
sg1986
V
p3791
sg1988
Nsg103
g0
(g104
g105
((lp3792
(lp3793
tp3794
tp3795
Rp3796
sg111
I0
sg1994
Nsg112
I01
sg114
Nsg1995
F1.2
sg115
g1804
sg1996
I00
sg1997
I00
sg43
Nsg1998
g3314
sg2000
g3383
sg34
Nsbsg96
Nsg2657
I0
sg86
I01
sg103
g0
(g104
g105
((lp3797
(lp3798
tp3799
tp3800
Rp3801
sg2663
F3.4
sg2664
g0
(g2665
g2
Ntp3802
Rp3803
(dp3804
g6
g7
sg2669
g2670
sg2028
Nsg20
I01
sg2671
Nsg2672
I0
sg75
Nsg76
Nsg24
Nsg11
Nsg29
I00
sg30
(dp3805
sg32
I00
sg1880
Nsg2674
F0.6
sg2675
Nsg2676
g2677
sg2678
g2679
sg96
Nsg86
I01
sg2680
g3393
sg111
I0
sg112
I01
sg2682
I01
sg2683
I01
sg115
g190
sg2684
Nsg2155
I2
sg1998
g3314
sg2685
I5
sg9
g4
sg2686
Nsg10
Nsg42
Nsg17
g18
sg2687
g2688
sg23
Nsg25
Nsg28
I00
sg2689
Nsg34
Nsg2690
Nsg2691
g0
(g2692
g2
Ntp3806
Rp3807
(dp3808
g2691
I0
sg2696
Nsg2697
F1.0
sg115
g0
(g163
g2
Ntp3809
Rp3810
(dp3811
g49
I2
sg50
Nsg120
g121
(g122
(I0
tp3812
g124
tp3813
Rp3814
(I1
(I3
I3
tp3815
g59
I00
S'\x00\x00\x00\x00\x00\x00\xf0\xbf\x00\x00\x00\x00\x00\x00\x00\x00\x00\x00\x00\x00\x00\x00\x00\x00\x00\x00\x00\x00\x00\x00\x00\x00\x00\x00\x00\x00\x00\x00\xf0?\x00\x00\x00\x00\x00\x00\x00\x00\x00\x00\x00\x00\x00\x00\x00\x00\x00\x00\x00\x00\x00\x00\x00\x00\x00\x00\x00\x00\x00\x00\xf0?'
p3816
tp3817
bsg51
g7
sg52
(dp3818
sbsg2708
I00
sg2709
g2710
sg2711
Nsg1877
g2712
sg99
g2713
sg2714
g3408
sbsg2724
g2725
sg88
Nsg33
Nsg92
I01
sg2726
Nsg101
g3416
sg103
g0
(g104
g105
((lp3819
(lp3820
tp3821
tp3822
Rp3823
sg2733
I00
sg2734
g2735
sg2736
g2688
sg2737
Nsg114
Nsg2738
g2688
sg2739
F0.0
sg8
I01
sg2740
Nsg43
Nsg1879
Nsg2741
(I0
tp3824
sg87
F0.5
sg2714
Nsbsg112
I00
sg2743
g0
(g2665
g2
Ntp3825
Rp3826
(dp3827
g6
g7
sg8
I01
sg2736
g2688
sg9
g4
sg2669
g2670
sg2028
Nsg10
Nsg42
Nsg17
g18
sg2687
g2688
sg20
I01
sg2671
Nsg23
Nsg75
g121
(g122
(I0
tp3828
g124
tp3829
Rp3830
(I1
(I2
tp3831
g59
I00
S'\x00\x00\x00\x00\x00\x00\x00\x00\x00\x00\x00\x00\x00\x00\x00\x00'
p3832
tp3833
bsg76
g121
(g122
(I0
tp3834
g124
tp3835
Rp3836
(I1
(I2
tp3837
g59
I00
S'\x00\x00\x00\x00\x00\x00\x00\x00\x00\x00\x00\x00\x00\x00\xf0?'
p3838
tp3839
bsg24
Nsg25
Nsg11
Nsg2680
g3438
sg28
I00
sg2689
Nsg29
I00
sg30
(dp3840
sg2686
Nsg32
I00
sg2733
I00
sg1880
Nsg2690
Nsg2674
F1.0
sg2724
g2725
sg2675
Nsg1998
g2761
sg2691
g0
(g2692
g2
Ntp3841
Rp3842
(dp3843
g2691
g2765
sg2696
Nsg2697
Nsg115
g0
(g45
g2
Ntp3844
Rp3845
(dp3846
g49
I1
sg50
Nsg51
g7
sg52
(dp3847
sbsg2708
I00
sg2709
g2710
sg2711
Nsg1877
g2712
sg99
g2713
sg2714
g0
(g2091
g2
Ntp3848
Rp3849
(dp3850
g2095
I00
sg2096
Nsg2108
g121
(g122
(I0
tp3851
g124
tp3852
Rp3853
(I1
(I0
I2
tp3854
g59
I00
g2777
tp3855
bsg2115
I00
sg2116
F0.1111111111111111
sg2117
I1
sg2118
I00
sbsbsg33
Nsg2676
g2677
sg92
I01
sg2678
g2679
sg96
Nsg2739
F0.0
sg86
I01
sg2726
g121
(g122
(I0
tp3856
g124
tp3857
Rp3858
(I1
(I2
I2
tp3859
g59
I00
S'\x00\x00\x00\x00\x00\x00\x00\x00\x00\x00\x00\x00\x00\x00\x00\x00\x00\x00\x00\x00\x00\x00\xf0?\x00\x00\x00\x00\x00\x00\x00\x00'
p3860
tp3861
bsg101
g2785
sg103
g0
(g104
g105
((lp3862
(lp3863
tp3864
tp3865
Rp3866
sg111
I0
sg2734
g2735
sg2672
I0
sg2737
Nsg2685
I5
sg112
I01
sg114
F1.0
sg2738
g2688
sg2683
I00
sg115
g190
sg2740
Nsg2684
Nsg2682
I00
sg43
Nsg1879
Nsg2741
g3466
sg88
g1675
sg87
F0.8
sg34
Nsg2714
g0
(g2091
g2
Ntp3867
Rp3868
(dp3869
g2095
I00
sg2096
Nsg2108
g3858
sg2115
I00
sg2116
F0.1111111111111111
sg2117
I180
sg2118
I00
sbsbsg114
Nsg33
Nsg2795
g0
(g2665
g2
Ntp3870
Rp3871
(dp3872
g6
g7
sg2669
g2670
sg2028
Nsg20
I01
sg2671
Nsg2672
I0
sg75
Nsg76
Nsg24
Nsg11
Nsg29
I00
sg30
(dp3873
sg32
I00
sg1880
Nsg2674
F0.6
sg2675
Nsg2676
g2677
sg2678
g2679
sg96
Nsg86
I01
sg2680
g3474
sg111
I0
sg112
I01
sg2682
I01
sg2683
I01
sg115
g190
sg2684
Nsg2155
I2
sg1998
g3314
sg2685
I5
sg9
g4
sg2686
Nsg10
Nsg42
Nsg17
g18
sg2687
g2688
sg23
Nsg25
Nsg28
I00
sg2689
Nsg34
Nsg2690
Nsg2691
g0
(g2692
g2
Ntp3874
Rp3875
(dp3876
g2691
I1
sg2696
Nsg2697
F1.0
sg115
g0
(g163
g2
Ntp3877
Rp3878
(dp3879
g49
I2
sg50
Nsg120
g121
(g122
(I0
tp3880
g124
tp3881
Rp3882
(I1
(I3
I3
tp3883
g59
I00
S'\x00\x00\x00\x00\x00\x00\xf0?\x00\x00\x00\x00\x00\x00\x00\x00\x00\x00\x00\x00\x00\x00\x00\x00\x00\x00\x00\x00\x00\x00\x00\x00\x00\x00\x00\x00\x00\x00\xf0?\x00\x00\x00\x00\x00\x00\x00\x00\x00\x00\x00\x00\x00\x00\x00\x00\x00\x00\x00\x00\x00\x00\x00\x00\x00\x00\x00\x00\x00\x00\xf0?'
p3884
tp3885
bsg51
g7
sg52
(dp3886
sbsg2708
I00
sg2709
g2710
sg2711
Nsg1877
g2712
sg99
g2713
sg2714
g3408
sbsg2724
g2725
sg88
Nsg33
Nsg92
I01
sg2726
Nsg101
g3488
sg103
g0
(g104
g105
((lp3887
(lp3888
tp3889
tp3890
Rp3891
sg2733
I00
sg2734
g2735
sg2736
g2688
sg2737
Nsg114
Nsg2738
g2688
sg2739
F0.0
sg8
I01
sg2740
Nsg43
Nsg1879
Nsg2741
(I0
tp3892
sg87
F0.5
sg2714
Nsbsg115
Nsg2821
F8.0
sg2822
g3495
sg43
Nsg1998
g3314
sg34
Nsbasg34
Nsg3228
(dp3893
g2596
I01
sg2598
I00
sg2599
I01
sg2600
I00
ssg3230
I01
sbsS'_axisbelow'
p3894
I00
sg8
I01
sS'lines'
p3895
(lp3896
sS'_ycid'
p3897
I1
sS'spines'
p3898
ccollections
OrderedDict
p3899
((lp3900
(lp3901
Vleft
p3902
ag0
(cmatplotlib.spines
Spine
p3903
g2
Ntp3904
Rp3905
(dp3906
g6
g7
sg2542
I00
sg41
I01
sg9
g4
sS'_bounds'
p3907
Nsg8
I01
sg10
Nsg42
Nsg17
g18
sg43
Nsg20
I01
sg2520
g3274
sg44
g0
(g45
g2
Ntp3908
Rp3909
(dp3910
g49
I1
sg50
Nsg51
g7
sg52
(dp3911
sbsg54
(F0.0
F0.0
F0.0
F1.0
tp3912
sg23
Nsg24
Nsg77
V0.
p3913
sg11
Nsg28
I00
sg29
I00
sg30
(dp3914
sg1875
(NNtp3915
sg2456
(Voutward
p3916
F0.0
tp3917
sg32
I00
sg85
Nsg86
I01
sg87
F1.0
sS'_patch_type'
p3918
Vline
p3919
sg33
Nsg90
g3912
sg91
Nsg92
I01
sg93
Nsg94
Vnone
p3920
sg96
Nsg97
g2435
sg99
g100
sS'_patch_transform'
p3921
g0
(g45
g2
Ntp3922
Rp3923
(dp3924
g49
I1
sg50
Nsg51
g7
sg52
(dp3925
sbsg101
g102
sg103
g0
(g104
g105
((lp3926
(lp3927
tp3928
tp3929
Rp3930
sg111
I0
sS'_spine_transform'
p3931
(Videntity
p3932
g0
(g45
g2
Ntp3933
Rp3934
(dp3935
g49
I1
sg50
Nsg51
g7
sg52
(dp3936
sbtp3937
sg112
I01
sg114
NsS'spine_type'
p3938
g3902
sg115
g190
sg88
Nsg2155
F2.5
sg1877
Vprojecting
p3939
sg1879
Nsg25
Nsg1880
g1939
sg34
Nsg2714
g0
(g2091
g2
Ntp3940
Rp3941
(dp3942
g2095
I00
sg2096
Nsg2108
g121
(g122
(I0
tp3943
g124
tp3944
Rp3945
(I1
(I2
I2
tp3946
g59
I00
S'\x00\x00\x00\x00\x00\x00\x00\x00\x00\x00\x00\x00\x00\x00*@\x00\x00\x00\x00\x00\x00\x00\x00\x00\x00\x00\x00\x00\x00*@'
p3947
tp3948
bsg2115
I00
sg2116
F0.1111111111111111
sg2117
I1
sg2118
I00
sbsbaa(lp3949
Vright
p3950
ag0
(g3903
g2
Ntp3951
Rp3952
(dp3953
g6
g7
sg2542
I00
sg41
I01
sg9
g4
sg3907
Nsg8
I00
sg10
Nsg42
Nsg17
g18
sg43
Nsg20
I01
sg2520
g3274
sg44
g0
(g45
g2
Ntp3954
Rp3955
(dp3956
g49
I1
sg50
Nsg51
g7
sg52
(dp3957
sbsg54
g3912
sg23
Nsg24
Nsg77
g3913
sg11
Nsg28
I00
sg29
I00
sg30
(dp3958
sg1875
(NNtp3959
sg2456
g3917
sg32
I00
sg85
Nsg86
I01
sg87
F1.0
sg3918
g3919
sg33
Nsg90
g3912
sg91
Nsg92
I01
sg93
Nsg94
g3920
sg96
Nsg97
g2435
sg99
g100
sg3921
g0
(g45
g2
Ntp3960
Rp3961
(dp3962
g49
I1
sg50
Nsg51
g7
sg52
(dp3963
sbsg101
g102
sg103
g0
(g104
g105
((lp3964
(lp3965
tp3966
tp3967
Rp3968
sg111
I0
sg3931
(g3932
g0
(g45
g2
Ntp3969
Rp3970
(dp3971
g49
I1
sg50
Nsg51
g7
sg52
(dp3972
sbtp3973
sg112
I01
sg114
Nsg3938
g3950
sg115
g190
sg88
Nsg2155
F2.5
sg1877
g3939
sg1879
Nsg25
Nsg1880
g1939
sg34
Nsg2714
g0
(g2091
g2
Ntp3974
Rp3975
(dp3976
g2095
I00
sg2096
Nsg2108
g121
(g122
(I0
tp3977
g124
tp3978
Rp3979
(I1
(I2
I2
tp3980
g59
I00
S'\x00\x00\x00\x00\x00\x00\xf0?\x00\x00\x00\x00\x00\x00*@\x00\x00\x00\x00\x00\x00\xf0?\x00\x00\x00\x00\x00\x00*@'
p3981
tp3982
bsg2115
I00
sg2116
F0.1111111111111111
sg2117
I1
sg2118
I00
sbsbaa(lp3983
Vbottom
p3984
ag0
(g3903
g2
Ntp3985
Rp3986
(dp3987
g6
g7
sg2542
I00
sg41
I01
sg9
g4
sg3907
Nsg8
I01
sg10
Nsg42
Nsg17
g18
sg43
Nsg20
I01
sg2520
g2488
sg44
g0
(g45
g2
Ntp3988
Rp3989
(dp3990
g49
I1
sg50
Nsg51
g7
sg52
(dp3991
sbsg54
g3912
sg23
Nsg24
Nsg77
g3913
sg11
Nsg28
I00
sg29
I00
sg30
(dp3992
sg1875
(NNtp3993
sg2456
g3917
sg32
I00
sg85
Nsg86
I01
sg87
F1.0
sg3918
g3919
sg33
Nsg90
g3912
sg91
Nsg92
I01
sg93
Nsg94
g3920
sg96
Nsg97
g2435
sg99
g100
sg3921
g0
(g45
g2
Ntp3994
Rp3995
(dp3996
g49
I1
sg50
Nsg51
g7
sg52
(dp3997
sbsg101
g102
sg103
g0
(g104
g105
((lp3998
(lp3999
tp4000
tp4001
Rp4002
sg111
I0
sg3931
(g3932
g0
(g45
g2
Ntp4003
Rp4004
(dp4005
g49
I1
sg50
Nsg51
g7
sg52
(dp4006
sbtp4007
sg112
I01
sg114
Nsg3938
g3984
sg115
g314
sg88
Nsg2155
F2.5
sg1877
g3939
sg1879
Nsg25
Nsg1880
g1939
sg34
Nsg2714
g0
(g2091
g2
Ntp4008
Rp4009
(dp4010
g2095
I00
sg2096
Nsg2108
g121
(g122
(I0
tp4011
g124
tp4012
Rp4013
(I1
(I2
I2
tp4014
g59
I00
S'\x00\x00\x00\x00\x00\x00*@\x00\x00\x00\x00\x00\x00\x00\x00\x00\x00\x00\x00\x00\x00*@\x00\x00\x00\x00\x00\x00\x00\x00'
p4015
tp4016
bsg2115
I00
sg2116
F0.1111111111111111
sg2117
I1
sg2118
I00
sbsbaa(lp4017
Vtop
p4018
ag0
(g3903
g2
Ntp4019
Rp4020
(dp4021
g6
g7
sg2542
I00
sg41
I01
sg9
g4
sg3907
Nsg8
I00
sg10
Nsg42
Nsg17
g18
sg43
Nsg20
I01
sg2520
g2488
sg44
g0
(g45
g2
Ntp4022
Rp4023
(dp4024
g49
I1
sg50
Nsg51
g7
sg52
(dp4025
sbsg54
g3912
sg23
Nsg24
Nsg77
g3913
sg11
Nsg28
I00
sg29
I00
sg30
(dp4026
sg1875
(NNtp4027
sg2456
g3917
sg32
I00
sg85
Nsg86
I01
sg87
F1.0
sg3918
g3919
sg33
Nsg90
g3912
sg91
Nsg92
I01
sg93
Nsg94
g3920
sg96
Nsg97
g2435
sg99
g100
sg3921
g0
(g45
g2
Ntp4028
Rp4029
(dp4030
g49
I1
sg50
Nsg51
g7
sg52
(dp4031
sbsg101
g102
sg103
g0
(g104
g105
((lp4032
(lp4033
tp4034
tp4035
Rp4036
sg111
I0
sg3931
(g3932
g0
(g45
g2
Ntp4037
Rp4038
(dp4039
g49
I1
sg50
Nsg51
g7
sg52
(dp4040
sbtp4041
sg112
I01
sg114
Nsg3938
g4018
sg115
g314
sg88
Nsg2155
F2.5
sg1877
g3939
sg1879
Nsg25
Nsg1880
g1939
sg34
Nsg2714
g0
(g2091
g2
Ntp4042
Rp4043
(dp4044
g2095
I00
sg2096
Nsg2108
g121
(g122
(I0
tp4045
g124
tp4046
Rp4047
(I1
(I2
I2
tp4048
g59
I00
S'\x00\x00\x00\x00\x00\x00*@\x00\x00\x00\x00\x00\x00\xf0?\x00\x00\x00\x00\x00\x00*@\x00\x00\x00\x00\x00\x00\xf0?'
p4049
tp4050
bsg2115
I00
sg2116
F0.1111111111111111
sg2117
I1
sg2118
I00
sbsbaatp4051
Rp4052
sS'_anchor'
p4053
VC
p4054
sg43
Nsg1879
NsS'_use_sticky_edges'
p4055
I01
sbtp4056
tp4057
asS'_ind'
p4058
I1
sS'_pos'
p4059
I0
sbsg115
Nsg3895
(lp4060
sg2427
g38
sS'subplotpars'
p4061
g0
(cmatplotlib.figure
SubplotParams
p4062
g2
Ntp4063
Rp4064
(dp4065
g1923
F0.9
sg1925
F0.125
sg1926
F0.88
sg1927
F0.2
sS'validate'
p4066
I01
sg1929
F0.2
sg1931
F0.125
sbsg43
Nsg1879
NsS'bbox_inches'
p4067
g138
sS'transFigure'
p4068
g118
sS'_dpi'
p4069
F72.0
sb.