ccopy_reg
_reconstructor
p0
(cmatplotlib.figure
Figure
p1
c__builtin__
object
p2
Ntp3
Rp4
(dp5
S'_label'
p6
V
p7
sS'_visible'
p8
I01
sS'figure'
p9
NsS'stale_callback'
p10
NsS'_rasterized'
p11
NsS'texts'
p12
(lp13
sS'_hold'
p14
I01
sS'artists'
p15
(lp16
sS'_path_effects'
p17
(lp18
sS'frameon'
p19
I01
sS'_clipon'
p20
I01
sV__mpl_version__
p21
S'2.0.2'
p22
sS'_clippath'
p23
NsS'_sketch'
p24
NsS'_contains'
p25
NsS'_tight_parameters'
p26
(dp27
sS'_mouseover'
p28
I00
sS'_animated'
p29
I00
sS'_propobservers'
p30
(dp31
sS'eventson'
p32
I00
sS'_picker'
p33
NsS'_remove_method'
p34
NsS'figurePatch'
p35
g0
(cmatplotlib.patches
Rectangle
p36
g2
Ntp37
Rp38
(dp39
g6
g7
sS'_width'
p40
F1.0
sS'_fill'
p41
I01
sg9
g4
sg8
I01
sg10
NsS'_agg_filter'
p42
Nsg17
g18
sS'_gid'
p43
Nsg20
I01
sS'_combined_transform'
p44
g0
(cmatplotlib.transforms
IdentityTransform
p45
g2
Ntp46
Rp47
(dp48
S'_invalid'
p49
I1
sS'_inverted'
p50
NsS'_shorthand_name'
p51
g7
sS'_parents'
p52
(dp53
sbsS'_edgecolor'
p54
(cnumpy.core.multiarray
scalar
p55
(cnumpy
dtype
p56
(S'f8'
p57
I0
I1
tp58
Rp59
(I3
S'<'
p60
NNNI-1
I-1
I0
tp61
bS'\x00\x00\x00\x00\x00\x00\xf0?'
p62
tp63
Rp64
g55
(g59
S'\x00\x00\x00\x00\x00\x00\xf0?'
p65
tp66
Rp67
g55
(g59
S'\x00\x00\x00\x00\x00\x00\xf0?'
p68
tp69
Rp70
g55
(g59
S'\x00\x00\x00\x00\x00\x00\x00\x00'
p71
tp72
Rp73
tp74
sg23
NsS'_y'
p75
F0.0
sS'_x'
p76
F0.0
sg24
NsS'_original_edgecolor'
p77
(I1
I1
I1
I0
tp78
sg11
Nsg28
I00
sg29
I00
sg30
(dp79
sS'_rect_transform'
p80
g0
(g45
g2
Ntp81
Rp82
(dp83
g49
I1
sg50
Nsg51
g7
sg52
(dp84
sbsg32
I00
sS'_hatch'
p85
NsS'_stale'
p86
I01
sS'_linewidth'
p87
F0.0
sS'clipbox'
p88
NsS'_height'
p89
F1.0
sg33
NsS'_hatch_color'
p90
g74
sS'_dashes'
p91
NsS'_antialiased'
p92
I00
sS'_dashoffset'
p93
NsS'_original_facecolor'
p94
Vwhite
p95
sS'_snap'
p96
NsS'_facecolor'
p97
(F1.0
F1.0
F1.0
F1.0
tp98
sS'_joinstyle'
p99
Vmiter
p100
sS'_linestyle'
p101
Vsolid
p102
sS'_sticky_edges'
p103
g0
(cmatplotlib.artist
_XYPair
p104
c__builtin__
tuple
p105
((lp106
(lp107
tp108
tp109
Rp110
sS'_oid'
p111
I0
sS'_transformSet'
p112
I01
sS'_angle'
p113
F0.0
sS'_alpha'
p114
NsS'_transform'
p115
g0
(cmatplotlib.transforms
BboxTransformTo
p116
g2
Ntp117
Rp118
(dp119
g49
I2
sS'_mtx'
p120
cnumpy.core.multiarray
_reconstruct
p121
(cnumpy
ndarray
p122
(I0
tp123
S'b'
p124
tp125
Rp126
(I1
(I3
I3
tp127
g59
I00
S'\x00\x00\x00\x00\x00\x00{@\x00\x00\x00\x00\x00\x00\x00\x00\x00\x00\x00\x00\x00\x00\x00\x00\x00\x00\x00\x00\x00\x00\x00\x00\x00\x00\x00\x00\x00\x00r@\x00\x00\x00\x00\x00\x00\x00\x00\x00\x00\x00\x00\x00\x00\x00\x00\x00\x00\x00\x00\x00\x00\x00\x00\x00\x00\x00\x00\x00\x00\xf0?'
p128
tp129
bsg50
NsS'_boxout'
p130
g0
(cmatplotlib.transforms
TransformedBbox
p131
g2
Ntp132
Rp133
(dp134
g49
I2
sS'_bbox'
p135
g0
(cmatplotlib.transforms
Bbox
p136
g2
Ntp137
Rp138
(dp139
g49
I2
sS'_minpos'
p140
g121
(g122
(I0
tp141
g124
tp142
Rp143
(I1
(I2
tp144
g59
I00
S'\x00\x00\x00\x00\x00\x00\xf0\x7f\x00\x00\x00\x00\x00\x00\xf0\x7f'
p145
tp146
bsg52
(dp147
I139855407743504
g133
ssS'_points_orig'
p148
g121
(g122
(I0
tp149
g124
tp150
Rp151
(I1
(I2
I2
tp152
g59
I00
S'\x00\x00\x00\x00\x00\x00\x00\x00\x00\x00\x00\x00\x00\x00\x00\x00\x00\x00\x00\x00\x00\x00\x18@\x00\x00\x00\x00\x00\x00\x10@'
p153
tp154
bsS'_points'
p155
g121
(g122
(I0
tp156
g124
tp157
Rp158
(I1
(I2
I2
tp159
g59
I00
S'\x00\x00\x00\x00\x00\x00\x00\x00\x00\x00\x00\x00\x00\x00\x00\x00\x00\x00\x00\x00\x00\x00\x00@\x00\x00\x00\x00\x00\x00\x00@'
p160
tp161
bsS'_ignore'
p162
I01
sg51
g7
sbsg115
g0
(cmatplotlib.transforms
Affine2D
p163
g2
Ntp164
Rp165
(dp166
g49
I0
sg50
Nsg120
g121
(g122
(I0
tp167
g124
tp168
Rp169
(I1
(I3
I3
tp170
g59
I00
S'\x00\x00\x00\x00\x00\x00R@\x00\x00\x00\x00\x00\x00\x00\x00\x00\x00\x00\x00\x00\x00\x00\x00\x00\x00\x00\x00\x00\x00\x00\x00\x00\x00\x00\x00\x00\x00R@\x00\x00\x00\x00\x00\x00\x00\x00\x00\x00\x00\x00\x00\x00\x00\x00\x00\x00\x00\x00\x00\x00\x00\x00\x00\x00\x00\x00\x00\x00\xf0?'
p171
tp172
bsg51
g7
sg52
(dp173
I139855408922448
g0
(cmatplotlib.transforms
ScaledTranslation
p174
g2
Ntp175
Rp176
(dp177
g49
I1
sg120
NsS'_scale_trans'
p178
g165
sg50
NsS'_t'
p179
(I0
F0.04722222222222222
tp180
sg51
g7
sg52
(dp181
I139855408919120
g0
(cmatplotlib.transforms
CompositeGenericTransform
p182
g2
Ntp183
Rp184
(dp185
g49
I1
sS'input_dims'
p186
I2
sS'_a'
p187
g0
(cmatplotlib.transforms
BlendedGenericTransform
p188
g2
Ntp189
Rp190
(dp191
g49
I2
sg75
g0
(g116
g2
Ntp192
Rp193
(dp194
g49
I2
sg120
g121
(g122
(I0
tp195
g124
tp196
Rp197
(I1
(I3
I3
tp198
g59
I00
S'\xcd\xcc\xcc\xcc\xcc\xect@\x00\x00\x00\x00\x00\x00\x00\x00\x00\x00\x00\x00\x00\x00K@\x00\x00\x00\x00\x00\x00\x00\x00\xaeG\xe1z\x14.k@\x00\x00\x00\x00\x00\x00B@\x00\x00\x00\x00\x00\x00\x00\x00\x00\x00\x00\x00\x00\x00\x00\x00\x00\x00\x00\x00\x00\x00\xf0?'
p199
tp200
bsg50
g0
(g163
g2
Ntp201
Rp202
(dp203
g49
I0
sg50
Nsg120
g121
(g122
(I0
tp204
g124
tp205
Rp206
(I1
(I3
I3
tp207
g59
I00
S'\xe94\xb7\x15\xe5wh?\x00\x00\x00\x00\x00\x00\x00\x00\xa5\x94RJ)\xa5\xc4\xbf\x00\x00\x00\x00\x00\x00\x00\x00zYK\x90^\xd6r?\xa9\xc4Tb*1\xc5\xbf\x00\x00\x00\x00\x00\x00\x00\x00\x00\x00\x00\x00\x00\x00\x00\x00\x00\x00\x00\x00\x00\x00\xf0?'
p208
tp209
bsg51
g7
sg52
(dp210
sbsg130
g0
(g131
g2
Ntp211
Rp212
(dp213
g49
I2
sg135
g0
(g136
g2
Ntp214
Rp215
(dp216
g49
I0
sg140
g121
(g122
(I0
tp217
g124
tp218
Rp219
(I1
(I2
tp220
g59
I00
S'\x00\x00\x00\x00\x00\x00\xf0\x7f\x00\x00\x00\x00\x00\x00\xf0\x7f'
p221
tp222
bsg52
(dp223
I139855303309008
g212
ssg148
g121
(g122
(I0
tp224
g124
tp225
Rp226
(I1
(I2
I2
tp227
g59
I00
S'\x00\x00\x00\x00\x00\x00\xc0?\x00\x00\x00\x00\x00\x00\xc0?\xcd\xcc\xcc\xcc\xcc\xcc\xec?)\\\x8f\xc2\xf5(\xec?'
p228
tp229
bsg155
g121
(g122
(I0
tp230
g124
tp231
Rp232
(I1
(I2
I2
tp233
g59
I00
S'\x00\x00\x00\x00\x00\x00\xc0?\x00\x00\x00\x00\x00\x00\xc0?\xcd\xcc\xcc\xcc\xcc\xcc\xec?)\\\x8f\xc2\xf5(\xec?'
p234
tp235
bsg162
I01
sg51
g7
sbsg115
g118
sg155
g121
(g122
(I0
tp236
g124
tp237
Rp238
(I1
(I2
I2
tp239
g59
I00
S'\x00\x00\x00\x00\x00\x00K@\x00\x00\x00\x00\x00\x00B@\xcd\xcc\xcc\xcc\xccLx@\xaeG\xe1z\x14\xaeo@'
p240
tp241
bsg52
(dp242
I139855303310096
g193
ssg51
g7
sbsg52
(dp243
I139855406544272
g0
(g182
g2
Ntp244
Rp245
(dp246
g49
I2
sg186
I2
sg187
g193
sS'output_dims'
p247
I2
sS'_b'
p248
g0
(g174
g2
Ntp249
Rp250
(dp251
g49
I1
sg120
Nsg178
g165
sg50
Nsg179
(F0.0
F0.08333333333333333
tp252
sg51
g7
sg52
(dp253
I139855406544272
g245
sI139855406543248
g0
(g182
g2
Ntp254
Rp255
(dp256
g49
I2
sg186
I2
sg187
g193
sg247
I2
sg248
g250
sg52
(dp257
sg51
g7
sbsI139855406546064
g0
(g182
g2
Ntp258
Rp259
(dp260
g49
I2
sg186
I2
sg187
g193
sg247
I2
sg248
g250
sg52
(dp261
sg51
g7
sbssbsg52
(dp262
sg51
g7
sbsI139855406546064
g259
sI139855406544912
g0
(g182
g2
Ntp263
Rp264
(dp265
g49
I2
sg186
I2
sg187
g0
(g182
g2
Ntp266
Rp267
(dp268
g49
I1
sg186
I2
sg187
g0
(g116
g2
Ntp269
Rp270
(dp271
g49
I1
sg120
Nsg50
Nsg130
g0
(g136
g2
Ntp272
Rp273
(dp274
g49
I1
sg140
g121
(g122
(I0
tp275
g124
tp276
Rp277
(I1
(I2
tp278
g59
I00
S'\x00\x00\x00\x00\x00\x00\xf0\x7f\x00\x00\x00\x00\x00\x00\xf0\x7f'
p279
tp280
bsg52
(dp281
I139855406546000
g270
ssg148
g121
(g122
(I0
tp282
g124
tp283
Rp284
(I1
(I2
I2
tp285
g59
I00
S'\x00\x00\x00\x00\x00\x00\x00\x00\x00\x00\x00\x00\x00\x00\x00\x00\x00\x00\x00\x00\x00\x00\xf0?\x00\x00\x00\x00\x00\x00\xf0?'
p286
tp287
bsg155
g121
(g122
(I0
tp288
g124
tp289
Rp290
(I1
(I2
I2
tp291
g59
I00
S'\x00\x00\x00\x00\x00\x00\x00\x00\x00\x00\x00\x00\x00\x00\x00\x00\x00\x00\x00\x00\x00\x00\xf0?\x00\x00\x00\x00\x00\x00\xf0?'
p292
tp293
bsg162
I01
sg51
g7
sbsg52
(dp294
I139855406545360
g267
ssg51
g7
sbsg247
I2
sg248
g0
(g163
g2
Ntp295
Rp296
(dp297
g49
I2
sg50
Nsg120
g121
(g122
(I0
tp298
g124
tp299
Rp300
(I1
(I3
I3
tp301
g59
I00
S'\x00\x00\x00\x00\x00\x00\xf0?\x00\x00\x00\x00\x00\x00\x00\x00\x00\x00\x00\x00\x00\x00\x00\x00\x00\x00\x00\x00\x00\x00\x00\x00\x00\x00\x00\x00\x00\x00\xf0?\x00\x00\x00\x00\x00\x00\x00\x00\x00\x00\x00\x00\x00\x00\x00\x00\x00\x00\x00\x00\x00\x00\x00\x00\x00\x00\x00\x00\x00\x00\xf0?'
p302
tp303
bsg51
g7
sg52
(dp304
I139855406545360
g267
ssbsg52
(dp305
I139855406544912
g264
ssg51
g7
sbsg247
I2
sg248
g193
sg52
(dp306
I139855406544848
g0
(g131
g2
Ntp307
Rp308
(dp309
g49
I2
sg135
g0
(g136
g2
Ntp310
Rp311
(dp312
g49
I1
sg140
g121
(g122
(I0
tp313
g124
tp314
Rp315
(I1
(I2
tp316
g59
I00
S'\x00\x00\x00\x00\x00\x00\xf0\x7f\x00\x00\x00\x00\x00\x00\xf0\x7f'
p317
tp318
bsg52
(dp319
I139855406544848
g308
ssg148
g121
(g122
(I0
tp320
g124
tp321
Rp322
(I1
(I2
I2
tp323
g59
I00
S'\x00\x00\x00\x00\x00\x00\x00\x00\x00\x00\x00\x00\x00\x00\x00\x00\x00\x00\x00\x00\x00\x00\xf0?\x00\x00\x00\x00\x00\x00\xf0?'
p324
tp325
bsg155
g121
(g122
(I0
tp326
g124
tp327
Rp328
(I1
(I2
I2
tp329
g59
I00
S'\x00\x00\x00\x00\x00\x00\x00\x00\x00\x00\x00\x00\x00\x00\x00\x00\x00\x00\x00\x00\x00\x00\xf0?\x00\x00\x00\x00\x00\x00\xf0?'
p330
tp331
bsg162
I01
sg51
g7
sbsg115
g264
sg155
Nsg52
(dp332
sg51
g7
sbssg51
g7
sbsI139855402721872
g0
(g182
g2
Ntp333
Rp334
(dp335
g49
I2
sg186
I2
sg187
g0
(g182
g2
Ntp336
Rp337
(dp338
g49
I1
sg186
I2
sg187
g0
(g116
g2
Ntp339
Rp340
(dp341
g49
I1
sg120
Nsg50
Nsg130
g0
(g136
g2
Ntp342
Rp343
(dp344
g49
I1
sg140
g121
(g122
(I0
tp345
g124
tp346
Rp347
(I1
(I2
tp348
g59
I00
S'\x00\x00\x00\x00\x00\x00\xf0\x7f\x00\x00\x00\x00\x00\x00\xf0\x7f'
p349
tp350
bsg52
(dp351
I139855402724496
g340
ssg148
g121
(g122
(I0
tp352
g124
tp353
Rp354
(I1
(I2
I2
tp355
g59
I00
S'\x00\x00\x00\x00\x00\x00\x00\x00\x00\x00\x00\x00\x00\x00\x00\x00\x00\x00\x00\x00\x00\x00\xf0?\x00\x00\x00\x00\x00\x00\xf0?'
p356
tp357
bsg155
g121
(g122
(I0
tp358
g124
tp359
Rp360
(I1
(I2
I2
tp361
g59
I00
S'\x00\x00\x00\x00\x00\x00\x00\x00\x00\x00\x00\x00\x00\x00\x00\x00\x00\x00\x00\x00\x00\x00\xf0?\x00\x00\x00\x00\x00\x00\xf0?'
p362
tp363
bsg162
I01
sg51
g7
sbsg52
(dp364
I139855402722064
g337
ssg51
g7
sbsg247
I2
sg248
g0
(g163
g2
Ntp365
Rp366
(dp367
g49
I2
sg50
Nsg120
g121
(g122
(I0
tp368
g124
tp369
Rp370
(I1
(I3
I3
tp371
g59
I00
S'\x00\x00\x00\x00\x00\x00\xf0?\x00\x00\x00\x00\x00\x00\x00\x00\x00\x00\x00\x00\x00\x00\x00\x00\x00\x00\x00\x00\x00\x00\x00\x00\x00\x00\x00\x00\x00\x00\xf0?\x00\x00\x00\x00\x00\x00\x00\x00\x00\x00\x00\x00\x00\x00\x00\x00\x00\x00\x00\x00\x00\x00\x00\x00\x00\x00\x00\x00\x00\x00\xf0?'
p372
tp373
bsg51
g7
sg52
(dp374
I139855402722064
g337
ssbsg52
(dp375
I139855402721872
g334
ssg51
g7
sbsg247
I2
sg248
g193
sg52
(dp376
I139855402723216
g0
(g131
g2
Ntp377
Rp378
(dp379
g49
I2
sg135
g0
(g136
g2
Ntp380
Rp381
(dp382
g49
I1
sg140
g121
(g122
(I0
tp383
g124
tp384
Rp385
(I1
(I2
tp386
g59
I00
S'\x00\x00\x00\x00\x00\x00\xf0\x7f\x00\x00\x00\x00\x00\x00\xf0\x7f'
p387
tp388
bsg52
(dp389
I139855402723216
g378
ssg148
g121
(g122
(I0
tp390
g124
tp391
Rp392
(I1
(I2
I2
tp393
g59
I00
S'\x00\x00\x00\x00\x00\x00\x00\x00\x00\x00\x00\x00\x00\x00\x00\x00\x00\x00\x00\x00\x00\x00\xf0?\x00\x00\x00\x00\x00\x00\xf0?'
p394
tp395
bsg155
g121
(g122
(I0
tp396
g124
tp397
Rp398
(I1
(I2
I2
tp399
g59
I00
S'\x00\x00\x00\x00\x00\x00\x00\x00\x00\x00\x00\x00\x00\x00\x00\x00\x00\x00\x00\x00\x00\x00\xf0?\x00\x00\x00\x00\x00\x00\xf0?'
p400
tp401
bsg162
I01
sg51
g7
sbsg115
g334
sg155
Nsg52
(dp402
sg51
g7
sbssg51
g7
sbsI139855407357584
g0
(g182
g2
Ntp403
Rp404
(dp405
g49
I2
sg186
I2
sg187
g0
(g182
g2
Ntp406
Rp407
(dp408
g49
I1
sg186
I2
sg187
g0
(g116
g2
Ntp409
Rp410
(dp411
g49
I1
sg120
Nsg50
Nsg130
g0
(g136
g2
Ntp412
Rp413
(dp414
g49
I1
sg140
g121
(g122
(I0
tp415
g124
tp416
Rp417
(I1
(I2
tp418
g59
I00
S'\x00\x00\x00\x00\x00\x00\xf0\x7f\x00\x00\x00\x00\x00\x00\xf0\x7f'
p419
tp420
bsg52
(dp421
I139855408713040
g410
ssg148
g121
(g122
(I0
tp422
g124
tp423
Rp424
(I1
(I2
I2
tp425
g59
I00
S'\x00\x00\x00\x00\x00\x00\x00\x00\x00\x00\x00\x00\x00\x00\x00\x00\x00\x00\x00\x00\x00\x00\xf0?\x00\x00\x00\x00\x00\x00\xf0?'
p426
tp427
bsg155
g121
(g122
(I0
tp428
g124
tp429
Rp430
(I1
(I2
I2
tp431
g59
I00
S'\x00\x00\x00\x00\x00\x00\x00\x00\x00\x00\x00\x00\x00\x00\x00\x00\x00\x00\x00\x00\x00\x00\xf0?\x00\x00\x00\x00\x00\x00\xf0?'
p432
tp433
bsg162
I01
sg51
g7
sbsg52
(dp434
I139855408712464
g407
ssg51
g7
sbsg247
I2
sg248
g0
(g163
g2
Ntp435
Rp436
(dp437
g49
I2
sg50
Nsg120
g121
(g122
(I0
tp438
g124
tp439
Rp440
(I1
(I3
I3
tp441
g59
I00
S'\x00\x00\x00\x00\x00\x00\xf0?\x00\x00\x00\x00\x00\x00\x00\x00\x00\x00\x00\x00\x00\x00\x00\x00\x00\x00\x00\x00\x00\x00\x00\x00\x00\x00\x00\x00\x00\x00\xf0?\x00\x00\x00\x00\x00\x00\x00\x00\x00\x00\x00\x00\x00\x00\x00\x00\x00\x00\x00\x00\x00\x00\x00\x00\x00\x00\x00\x00\x00\x00\xf0?'
p442
tp443
bsg51
g7
sg52
(dp444
I139855408712464
g407
ssbsg52
(dp445
I139855407357584
g404
ssg51
g7
sbsg247
I2
sg248
g193
sg52
(dp446
I139855407354832
g0
(g131
g2
Ntp447
Rp448
(dp449
g49
I2
sg135
g0
(g136
g2
Ntp450
Rp451
(dp452
g49
I1
sg140
g121
(g122
(I0
tp453
g124
tp454
Rp455
(I1
(I2
tp456
g59
I00
S'\x00\x00\x00\x00\x00\x00\xf0\x7f\x00\x00\x00\x00\x00\x00\xf0\x7f'
p457
tp458
bsg52
(dp459
I139855407354832
g448
ssg148
g121
(g122
(I0
tp460
g124
tp461
Rp462
(I1
(I2
I2
tp463
g59
I00
S'\x00\x00\x00\x00\x00\x00\x00\x00\x00\x00\x00\x00\x00\x00\x00\x00\x00\x00\x00\x00\x00\x00\xf0?\x00\x00\x00\x00\x00\x00\xf0?'
p464
tp465
bsg155
g121
(g122
(I0
tp466
g124
tp467
Rp468
(I1
(I2
I2
tp469
g59
I00
S'\x00\x00\x00\x00\x00\x00\x00\x00\x00\x00\x00\x00\x00\x00\x00\x00\x00\x00\x00\x00\x00\x00\xf0?\x00\x00\x00\x00\x00\x00\xf0?'
p470
tp471
bsg162
I01
sg51
g7
sbsg115
g404
sg155
Nsg52
(dp472
sg51
g7
sbssg51
g7
sbsI139855303308816
g190
sI139855406847120
g0
(cmatplotlib.transforms
BlendedAffine2D
p473
g2
Ntp474
Rp475
(dp476
g49
I2
sg120
Nsg75
g193
sg76
g0
(g45
g2
Ntp477
Rp478
(dp479
g49
I1
sg50
Nsg51
g7
sg52
(dp480
I139855406847120
g475
ssbsg50
Nsg51
g7
sg52
(dp481
sbsI139855303310928
g0
(g182
g2
Ntp482
Rp483
(dp484
g49
I2
sg186
I2
sg187
g0
(cmatplotlib.transforms
BboxTransformFrom
p485
g2
Ntp486
Rp487
(dp488
g49
I2
sS'_boxin'
p489
g0
(g131
g2
Ntp490
Rp491
(dp492
g49
I2
sg135
g0
(g136
g2
Ntp493
Rp494
(dp495
g49
I2
sg140
g121
(g122
(I0
tp496
g124
tp497
Rp498
(I1
(I2
tp499
g59
I00
S'\x00\x00\x00\x00\x00\x00\xf0\x7f\x00\x00\x00\x00\x00\x00\xf0\x7f'
p500
tp501
bsg52
(dp502
I139855303311120
g491
ssg148
g121
(g122
(I0
tp503
g124
tp504
Rp505
(I1
(I2
I2
tp506
g59
I00
S'\x00\x00\x00\x00\x00\x00\x00\x00\x00\x00\x00\x00\x00\x00\x00\x00\x00\x00\x00\x00\x00\x00\xf0?\x00\x00\x00\x00\x00\x00\xf0?'
p507
tp508
bsg155
g121
(g122
(I0
tp509
g124
tp510
Rp511
(I1
(I2
I2
tp512
g59
I00
S'\x84\xaa{^\xda\xba\xc7\xbf\xdc\xdeS\x14$]\xe1?\xa8\xba\xe7\xa5\xad{\r@8\xb7\xdcqa\xee$@'
p513
tp514
bsg162
I01
sg51
g7
sbsg115
g0
(cmatplotlib.transforms
TransformWrapper
p515
g2
Ntp516
Rp517
(dp518
Voutput_dims
p519
I2
sVparents
p520
(dp521
I139855303311120
g491
sI139855303311056
g0
(g182
g2
Ntp522
Rp523
(dp524
g49
I2
sg186
I2
sg187
g517
sg247
I2
sg248
g483
sg52
(dp525
I139855303308816
g190
sI139855303310800
g0
(g188
g2
Ntp526
Rp527
(dp528
g49
I2
sg75
g523
sg76
g193
sS'_affine'
p529
Nsg52
(dp530
I139855407356944
g0
(g182
g2
Ntp531
Rp532
(dp533
g49
I1
sg186
I2
sg187
g527
sg247
I2
sg248
g0
(g174
g2
Ntp534
Rp535
(dp536
g49
I1
sg120
Nsg178
g165
sg50
Nsg179
(F-0.1388888888888889
F0.0
tp537
sg51
g7
sg52
(dp538
I139855408919056
g0
(g182
g2
Ntp539
Rp540
(dp541
g49
I1
sg186
I2
sg187
g527
sg247
I2
sg248
g535
sg52
(dp542
sg51
g7
sbsI139855407356432
g0
(g182
g2
Ntp543
Rp544
(dp545
g49
I1
sg186
I2
sg187
g527
sg247
I2
sg248
g535
sg52
(dp546
sg51
g7
sbsI139855407355600
g0
(g182
g2
Ntp547
Rp548
(dp549
g49
I1
sg186
I2
sg187
g527
sg247
I2
sg248
g535
sg52
(dp550
I139855407355280
g0
(g182
g2
Ntp551
Rp552
(dp553
g49
I1
sg186
I2
sg187
g548
sg247
I2
sg248
g0
(g174
g2
Ntp554
Rp555
(dp556
g49
I1
sg120
Nsg178
g165
sg50
Nsg179
(F-0.04861111111111111
I0
tp557
sg51
g7
sg52
(dp558
I139855407355280
g552
ssbsg52
(dp559
sg51
g7
sbssg51
g7
sbsI139855407354320
g0
(g182
g2
Ntp560
Rp561
(dp562
g49
I1
sg186
I2
sg187
g527
sg247
I2
sg248
g535
sg52
(dp563
sg51
g7
sbsI139855407356944
g532
ssbsg52
(dp564
I139855407355088
g0
(g182
g2
Ntp565
Rp566
(dp567
g49
I1
sg186
I2
sg187
g532
sg247
I2
sg248
g0
(g174
g2
Ntp568
Rp569
(dp570
g49
I1
sg120
Nsg178
g165
sg50
Nsg179
(F-0.04722222222222222
I0
tp571
sg51
g7
sg52
(dp572
I139855407355088
g566
ssbsg52
(dp573
sg51
g7
sbssg51
g7
sbsI139855407354320
g561
sI139855408919056
g540
sI139855407355600
g548
sI139855407357392
g0
(g182
g2
Ntp574
Rp575
(dp576
g49
I1
sg186
I2
sg187
g527
sg247
I2
sg248
g0
(g174
g2
Ntp577
Rp578
(dp579
g49
I1
sg120
Nsg178
g165
sg50
Nsg179
(F0.04722222222222222
I0
tp580
sg51
g7
sg52
(dp581
I139855407357392
g575
ssbsg52
(dp582
sg51
g7
sbsI139855407356432
g544
sI139855407356560
g0
(g182
g2
Ntp583
Rp584
(dp585
g49
I1
sg186
I2
sg187
g527
sg247
I2
sg248
g0
(g174
g2
Ntp586
Rp587
(dp588
g49
I1
sg120
Nsg178
g165
sg50
Nsg179
(F0.04861111111111111
I0
tp589
sg51
g7
sg52
(dp590
I139855407356560
g584
ssbsg52
(dp591
sg51
g7
sbssg51
g7
sbssg51
g7
sbssVinput_dims
p592
I2
sVchild
p593
g0
(g473
g2
Ntp594
Rp595
(dp596
g49
I0
sg120
g121
(g122
(I0
tp597
g124
tp598
Rp599
(I1
(I3
I3
tp600
g59
I00
S'\x00\x00\x00\x00\x00\x00\xf0?\x00\x00\x00\x00\x00\x00\x00\x00\x00\x00\x00\x00\x00\x00\x00\x00\x00\x00\x00\x00\x00\x00\x00\x00\x00\x00\x00\x00\x00\x00\xf0?\x00\x00\x00\x00\x00\x00\x00\x00\x00\x00\x00\x00\x00\x00\x00\x00\x00\x00\x00\x00\x00\x00\x00\x00\x00\x00\x00\x00\x00\x00\xf0?'
p601
tp602
bsg75
g0
(g45
g2
Ntp603
Rp604
(dp605
g49
I1
sg50
Nsg51
g7
sg52
(dp606
I139855406546192
g595
ssbsg76
g0
(g45
g2
Ntp607
Rp608
(dp609
g49
I1
sg50
Nsg51
g7
sg52
(dp610
I139855406546192
g595
ssbsg50
g0
(g163
g2
Ntp611
Rp612
(dp613
g49
I0
sg50
Nsg120
g121
(g122
(I0
tp614
g124
tp615
Rp616
(I1
(I3
I3
tp617
g59
I00
S'\x00\x00\x00\x00\x00\x00\xf0?\x00\x00\x00\x00\x00\x00\x00\x00\x00\x00\x00\x00\x00\x00\x00\x00\x00\x00\x00\x00\x00\x00\x00\x00\x00\x00\x00\x00\x00\x00\xf0?\x00\x00\x00\x00\x00\x00\x00\x00\x00\x00\x00\x00\x00\x00\x00\x00\x00\x00\x00\x00\x00\x00\x00\x00\x00\x00\x00\x00\x00\x00\xf0?'
p618
tp619
bsg51
g7
sg52
(dp620
sbsg51
g7
sg52
(dp621
I139855303309328
g517
ssbsbsg155
g121
(g122
(I0
tp622
g124
tp623
Rp624
(I1
(I2
I2
tp625
g59
I00
S'\x00\x00\x00\x00\x00\x00\x00\x00\x00\x00\x00\x00\x00\x00\x00\x00\x00\x00\x00\x00\x00\x00\xf0?\x00\x00\x00\x00\x00\x00\xf0?'
p626
tp627
bsg52
(dp628
I139855303309776
g487
ssg51
g7
sbsg120
g121
(g122
(I0
tp629
g124
tp630
Rp631
(I1
(I3
I3
tp632
g59
I00
S'\x00\x00\x00\x00\x00\x00\xf0?\x00\x00\x00\x00\x00\x00\x00\x00\x00\x00\x00\x00\x00\x00\x00\x80\x00\x00\x00\x00\x00\x00\x00\x00\x00\x00\x00\x00\x00\x00\xf0?\x00\x00\x00\x00\x00\x00\x00\x80\x00\x00\x00\x00\x00\x00\x00\x00\x00\x00\x00\x00\x00\x00\x00\x00\x00\x00\x00\x00\x00\x00\xf0?'
p633
tp634
bsg50
g0
(g163
g2
Ntp635
Rp636
(dp637
g49
I0
sg50
Nsg120
g121
(g122
(I0
tp638
g124
tp639
Rp640
(I1
(I3
I3
tp641
g59
I00
S'\x00\x00\x00\x00\x00\x00\xf0?\x00\x00\x00\x00\x00\x00\x00\x00\x00\x00\x00\x00\x00\x00\x00\x00\x00\x00\x00\x00\x00\x00\x00\x00\x00\x00\x00\x00\x00\x00\xf0?\x00\x00\x00\x00\x00\x00\x00\x00\x00\x00\x00\x00\x00\x00\x00\x00\x00\x00\x00\x00\x00\x00\x00\x00\x00\x00\x00\x00\x00\x00\xf0?'
p642
tp643
bsg51
g7
sg52
(dp644
sbsg51
g7
sg52
(dp645
I139855303310928
g483
ssbsg247
I2
sg248
g193
sg52
(dp646
I139855303311056
g523
ssg51
g7
sbsI139855406543248
g255
sI139855303310800
g527
sI139855409307152
g0
(g473
g2
Ntp647
Rp648
(dp649
g49
I2
sg120
Nsg75
g0
(g45
g2
Ntp650
Rp651
(dp652
g49
I1
sg50
Nsg51
g7
sg52
(dp653
I139855409307152
g648
ssbsg76
g193
sg50
Nsg51
g7
sg52
(dp654
sbsI139855406848592
g0
(g473
g2
Ntp655
Rp656
(dp657
g49
I2
sg120
Nsg75
g0
(g45
g2
Ntp658
Rp659
(dp660
g49
I1
sg50
Nsg51
g7
sg52
(dp661
I139855406848592
g656
ssbsg76
g193
sg50
Nsg51
g7
sg52
(dp662
sbsI139855409305232
g0
(g473
g2
Ntp663
Rp664
(dp665
g49
I2
sg120
Nsg75
g0
(g45
g2
Ntp666
Rp667
(dp668
g49
I1
sg50
Nsg51
g7
sg52
(dp669
I139855409305232
g664
ssbsg76
g193
sg50
Nsg51
g7
sg52
(dp670
sbssg51
g7
sbsg76
g523
sg529
Nsg52
(dp671
I139855409561488
g0
(g182
g2
Ntp672
Rp673
(dp674
g49
I1
sg186
I2
sg187
g190
sg247
I2
sg248
g0
(g174
g2
Ntp675
Rp676
(dp677
g49
I1
sg120
Nsg178
g165
sg50
Nsg179
(F0.0
F-0.1388888888888889
tp678
sg51
g7
sg52
(dp679
I139855409561488
g673
sI139855408709712
g0
(g182
g2
Ntp680
Rp681
(dp682
g49
I1
sg186
I2
sg187
g190
sg247
I2
sg248
g676
sg52
(dp683
sg51
g7
sbsI139855406544656
g0
(g182
g2
Ntp684
Rp685
(dp686
g49
I1
sg186
I2
sg187
g190
sg247
I2
sg248
g676
sg52
(dp687
I139855406545232
g0
(g182
g2
Ntp688
Rp689
(dp690
g49
I1
sg186
I2
sg187
g685
sg247
I2
sg248
g0
(g174
g2
Ntp691
Rp692
(dp693
g49
I1
sg120
Nsg178
g165
sg50
Nsg179
(I0
F-0.04861111111111111
tp694
sg51
g7
sg52
(dp695
I139855406545232
g689
ssbsg52
(dp696
sg51
g7
sbssg51
g7
sbsI139855406546896
g0
(g182
g2
Ntp697
Rp698
(dp699
g49
I1
sg186
I2
sg187
g190
sg247
I2
sg248
g676
sg52
(dp700
I139855406545872
g0
(g182
g2
Ntp701
Rp702
(dp703
g49
I1
sg186
I2
sg187
g698
sg247
I2
sg248
g0
(g174
g2
Ntp704
Rp705
(dp706
g49
I1
sg120
Nsg178
g165
sg50
Nsg179
(I0
F-0.04722222222222222
tp707
sg51
g7
sg52
(dp708
I139855406545872
g702
ssbsg52
(dp709
sg51
g7
sbssg51
g7
sbsI139855406543376
g0
(g182
g2
Ntp710
Rp711
(dp712
g49
I1
sg186
I2
sg187
g190
sg247
I2
sg248
g676
sg52
(dp713
sg51
g7
sbssbsg52
(dp714
sg51
g7
sbsI139855406546896
g698
sI139855408709712
g681
sI139855406544656
g685
sI139855406543376
g711
sI139855408919120
g184
sI139855406546576
g0
(g182
g2
Ntp715
Rp716
(dp717
g49
I1
sg186
I2
sg187
g190
sg247
I2
sg248
g0
(g174
g2
Ntp718
Rp719
(dp720
g49
I1
sg120
Nsg178
g165
sg50
Nsg179
(I0
F0.04861111111111111
tp721
sg51
g7
sg52
(dp722
I139855406546576
g716
ssbsg52
(dp723
sg51
g7
sbssg51
g7
sbsg247
I2
sg248
g176
sg52
(dp724
sg51
g7
sbssbsI139855406543952
g719
sI139855407355856
g587
sI139855406544976
g705
sI139855407357904
g569
sI139855408920912
g535
sI139855406544592
g250
sI139855407354384
g555
sI139855407743504
g133
sI139855402722960
g676
sI139855406543568
g692
sI139855407357712
g578
ssbsg155
g121
(g122
(I0
tp725
g124
tp726
Rp727
(I1
(I2
I2
tp728
g59
I00
S'\x00\x00\x00\x00\x00\x00\x00\x00\x00\x00\x00\x00\x00\x00\x00\x00\x00\x00\x00\x00\x00\x00{@\x00\x00\x00\x00\x00\x00r@'
p729
tp730
bsg52
(dp731
I139855301864144
g118
ssg51
g7
sbsg52
(dp732
I139855303309008
g212
ssg51
g7
sbsS'_us_dashes'
p733
(NNtp734
sS'_capstyle'
p735
Vbutt
p736
sS'_url'
p737
Nsg25
NsS'_axes'
p738
Nsg34
Nsbsg42
Nsg88
NsV_restore_to_pylab
p739
I01
sS'images'
p740
(lp741
sS'_suptitle'
p742
NsS'dpi_scale_trans'
p743
g165
sS'number'
p744
I1
sS'callbacks'
p745
g0
(cmatplotlib.cbook
CallbackRegistry
p746
g2
Ntp747
Rp748
I01
bsg96
NsS'_tight'
p749
I00
sg86
I01
sS'bbox'
p750
g133
sg103
g0
(g104
g105
((lp751
(lp752
tp753
tp754
Rp755
sg111
I0
sS'patches'
p756
(lp757
sS'legends'
p758
(lp759
sS'suppressComposite'
p760
Nsg112
I00
sg114
NsS'_axstack'
p761
g0
(cmatplotlib.figure
AxesStack
p762
g2
Ntp763
Rp764
(dp765
S'_default'
p766
NsS'_elements'
p767
(lp768
(((g0
(cmatplotlib.gridspec
SubplotSpec
p769
g2
Ntp770
Rp771
(dp772
S'num1'
p773
I0
sS'num2'
p774
I0
sS'_gridspec'
p775
g0
(cmatplotlib.gridspec
GridSpec
p776
g2
Ntp777
Rp778
(dp779
S'_nrows'
p780
I1
sS'right'
p781
NsS'_col_width_ratios'
p782
NsS'bottom'
p783
NsS'top'
p784
NsS'wspace'
p785
NsS'_ncols'
p786
I1
sS'hspace'
p787
NsS'_row_height_ratios'
p788
NsS'left'
p789
Nsbsbtp790
(ttp791
(I1
g0
(cmatplotlib.axes._subplots
_PicklableSubplotClassConstructor
p792
g2
Ntp793
Rp794
(cmatplotlib.axes._axes
Axes
p795
tp796
Rp797
(dp798
S'transLimits'
p799
g487
sS'_get_patches_for_fill'
p800
g0
(cmatplotlib.axes._base
_process_plot_var_args
p801
g2
Ntp802
Rp803
(dp804
Vaxes
p805
g797
sVcommand
p806
Vfill
p807
sbsS'_xcid'
p808
I1
sg6
V
p809
sS'legend_'
p810
Nsg12
(lp811
sS'_frameon'
p812
I01
sS'_autoscaleYon'
p813
I01
sg14
I01
sg15
(lp814
sg20
I01
sS'tables'
p815
(lp816
sg756
(lp817
sS'title'
p818
g0
(cmatplotlib.text
Text
p819
g2
Ntp820
Rp821
(dp822
g6
g7
sg8
I01
sg9
g4
sg10
NsS'_fontproperties'
p823
g0
(cmatplotlib.font_manager
FontProperties
p824
g2
Ntp825
Rp826
(dp827
S'_family'
p828
(lp829
Vsans-serif
p830
asS'_file'
p831
NsS'_variant'
p832
Vnormal
p833
sS'_slant'
p834
g833
sS'_size'
p835
F14.399999999999999
sS'_weight'
p836
I400
sS'_stretch'
p837
g833
sbsg42
Nsg17
g18
sS'_multialignment'
p838
Nsg20
I01
sg23
Nsg75
F1.0
sg76
F0.5
sg24
Nsg25
Nsg11
Nsg28
I00
sg29
I00
sg30
(dp839
sS'_renderer'
p840
Nsg32
I00
sg738
g797
sg88
Nsg737
NsS'_rotation_mode'
p841
Nsg33
Nsg96
Nsg86
I01
sS'_verticalalignment'
p842
Vbaseline
p843
sS'_text'
p844
V
p845
sS'_bbox_patch'
p846
Nsg103
g0
(g104
g105
((lp847
(lp848
tp849
tp850
Rp851
sg111
I0
sS'_rotation'
p852
Nsg112
I01
sg114
NsS'_linespacing'
p853
F1.2
sg115
g245
sS'_usetex'
p854
I00
sS'_wrap'
p855
I00
sg43
NsS'_color'
p856
V.15
p857
sS'_horizontalalignment'
p858
Vcenter
p859
sg34
NsbsS'_current_image'
p860
NsS'mouseover_set'
p861
c__builtin__
set
p862
((lp863
tp864
Rp865
sg11
NsS'_cursorProps'
p866
(I1
(g55
(g59
S'\x00\x00\x00\x00\x00\x00\x00\x00'
p867
tp868
Rp869
g55
(g59
S'\x00\x00\x00\x00\x00\x00\x00\x00'
p870
tp871
Rp872
g55
(g59
S'\x00\x00\x00\x00\x00\x00\x00\x00'
p873
tp874
Rp875
I1
tp876
tp877
sS'numRows'
p878
I1
sS'collections'
p879
(lp880
g0
(cmatplotlib.collections
PathCollection
p881
g2
Ntp882
Rp883
(dp884
g6
V_collection0
p885
sg8
I01
sg9
g4
sS'_linestyles'
p886
(lp887
(NNtp888
asS'_offset_position'
p889
Vscreen
p890
sg10
Nsg42
NsS'callbacksSM'
p891
g0
(g746
g2
Ntp892
Rp893
I01
bsg17
NsS'_offsets'
p894
g121
(g122
(I0
tp895
g124
tp896
Rp897
(I1
(I8
I2
tp898
g56
(S'O8'
p899
I0
I1
tp900
Rp901
(I3
S'|'
p902
NNNI-1
I-1
I63
tp903
bI00
(lp904
F0.0
acsympy.core.numbers
Float
p905
((I0
S'13ffffffffffff'
p906
I-49
I53
tp907
tp908
Rp909
(dp910
S'_prec'
p911
I53
sbaF0.5
ag905
((I0
S'113e607e79468f'
p912
I-50
I53
tp913
tp914
Rp915
(dp916
g911
I53
sbaF1.0
ag905
((I0
S'11be7ffc1bb903'
p917
I-51
I53
tp918
tp919
Rp920
(dp921
g911
I53
sbaF1.5
ag905
((I0
S'172b59b99a21b'
p922
I-48
I49
tp923
tp924
Rp925
(dp926
g911
I53
sbaF2.0
ag905
((I0
S'9519806f25649'
p927
I-51
I52
tp928
tp929
Rp930
(dp931
g911
I53
sbaF2.5
ag905
((I0
S'10f8633ee077ef'
p932
I-52
I53
tp933
tp934
Rp935
(dp936
g911
I53
sbaF3.0
ag905
((I0
S'82db0385e6c9f'
p937
I-51
I52
tp938
tp939
Rp940
(dp941
g911
I53
sbaF3.5
ag905
((I0
S'10219d990fa93f'
p942
I-52
I53
tp943
tp944
Rp945
(dp946
g911
I53
sbatp947
bsS'_paths'
p948
(g0
(cmatplotlib.path
Path
p949
g2
Ntp950
Rp951
(dp952
S'_should_simplify'
p953
I00
sS'_codes'
p954
g121
(g122
(I0
tp955
g124
tp956
Rp957
(I1
(I26
tp958
g56
(S'u1'
p959
I0
I1
tp960
Rp961
(I3
S'|'
p962
NNNI-1
I-1
I0
tp963
bI00
S'\x01\x04\x04\x04\x04\x04\x04\x04\x04\x04\x04\x04\x04\x04\x04\x04\x04\x04\x04\x04\x04\x04\x04\x04\x04O'
p964
tp965
bsS'_vertices'
p966
g121
(g122
(I0
tp967
g124
tp968
Rp969
(I1
(I26
I2
tp970
g59
I00
S'\x00\x00\x00\x00\x00\x00\x00\x00\x00\x00\x00\x00\x00\x00\xe0\xbfr\x0fSl\x16\xf9\xc0?\x00\x00\x00\x00\x00\x00\xe0\xbf\x89\xc9\x15\xf7e\xa0\xd0?\x11\xae\xe8\xd5\xd6\xa0\xdc\xbf\xcd;\x7ff\x9e\xa0\xd6?\xcd;\x7ff\x9e\xa0\xd6\xbf\x11\xae\xe8\xd5\xd6\xa0\xdc?\x89\xc9\x15\xf7e\xa0\xd0\xbf\x00\x00\x00\x00\x00\x00\xe0?r\x0fSl\x16\xf9\xc0\xbf\x00\x00\x00\x00\x00\x00\xe0?\x00\x00\x00\x00\x00\x00\x00\x00\x00\x00\x00\x00\x00\x00\xe0?r\x0fSl\x16\xf9\xc0?\x11\xae\xe8\xd5\xd6\xa0\xdc?\x89\xc9\x15\xf7e\xa0\xd0?\xcd;\x7ff\x9e\xa0\xd6?\xcd;\x7ff\x9e\xa0\xd6?\x89\xc9\x15\xf7e\xa0\xd0?\x11\xae\xe8\xd5\xd6\xa0\xdc?r\x0fSl\x16\xf9\xc0?\x00\x00\x00\x00\x00\x00\xe0?\x00\x00\x00\x00\x00\x00\x00\x00\x00\x00\x00\x00\x00\x00\xe0?r\x0fSl\x16\xf9\xc0\xbf\x00\x00\x00\x00\x00\x00\xe0?\x89\xc9\x15\xf7e\xa0\xd0\xbf\x11\xae\xe8\xd5\xd6\xa0\xdc?\xcd;\x7ff\x9e\xa0\xd6\xbf\xcd;\x7ff\x9e\xa0\xd6?\x11\xae\xe8\xd5\xd6\xa0\xdc\xbf\x89\xc9\x15\xf7e\xa0\xd0?\x00\x00\x00\x00\x00\x00\xe0\xbfr\x0fSl\x16\xf9\xc0?\x00\x00\x00\x00\x00\x00\xe0\xbf\x00\x00\x00\x00\x00\x00\x00\x00\x00\x00\x00\x00\x00\x00\xe0\xbfr\x0fSl\x16\xf9\xc0\xbf\x11\xae\xe8\xd5\xd6\xa0\xdc\xbf\x89\xc9\x15\xf7e\xa0\xd0\xbf\xcd;\x7ff\x9e\xa0\xd6\xbf\xcd;\x7ff\x9e\xa0\xd6\xbf\x89\xc9\x15\xf7e\xa0\xd0\xbf\x11\xae\xe8\xd5\xd6\xa0\xdc\xbfr\x0fSl\x16\xf9\xc0\xbf\x00\x00\x00\x00\x00\x00\xe0\xbf\x00\x00\x00\x00\x00\x00\x00\x00\x00\x00\x00\x00\x00\x00\xe0\xbf\x00\x00\x00\x00\x00\x00\x00\x00\x00\x00\x00\x00\x00\x00\xe0\xbf'
p971
tp972
bsS'_readonly'
p973
I00
sS'_simplify_threshold'
p974
F0.1111111111111111
sS'_interpolation_steps'
p975
I1
sS'_has_nonfinite'
p976
I00
sbtp977
sg20
I01
sS'_A'
p978
NsS'_us_linestyles'
p979
(lp980
(NNtp981
asS'_sizes'
p982
g121
(g122
(I0
tp983
g124
tp984
Rp985
(I1
(I1
tp986
g56
(S'i8'
p987
I0
I1
tp988
Rp989
(I3
S'<'
p990
NNNI-1
I-1
I0
tp991
bI00
S'(\x00\x00\x00\x00\x00\x00\x00'
p992
tp993
bsS'_transforms'
p994
g121
(g122
(I0
tp995
g124
tp996
Rp997
(I1
(I1
I3
I3
tp998
g59
I00
S'S[\xda:XL\x19@\x00\x00\x00\x00\x00\x00\x00\x00\x00\x00\x00\x00\x00\x00\x00\x00\x00\x00\x00\x00\x00\x00\x00\x00S[\xda:XL\x19@\x00\x00\x00\x00\x00\x00\x00\x00\x00\x00\x00\x00\x00\x00\x00\x00\x00\x00\x00\x00\x00\x00\x00\x00\x00\x00\x00\x00\x00\x00\xf0?'
p999
tp1000
bsg23
Nsg24
Nsg77
S'k'
p1001
sg11
Nsg28
I00
sS'_facecolors'
p1002
g121
(g122
(I0
tp1003
g124
tp1004
Rp1005
(I1
(I1
I4
tp1006
g59
I00
S'\x00\x00\x00\x00\x00\x00\x00\x00\x00\x00\x00\x00\x00\x00\x00\x00\x00\x00\x00\x00\x00\x00\x00\x00\x00\x00\x00\x00\x00\x00\xf0?'
p1007
tp1008
bsS'_uniform_offsets'
p1009
Nsg29
I00
sg30
(dp1010
sS'_antialiaseds'
p1011
(I01
tp1012
sS'zorder'
p1013
I1
sg32
I00
sS'norm'
p1014
g0
(cmatplotlib.colors
Normalize
p1015
g2
Ntp1016
Rp1017
(dp1018
S'vmax'
p1019
NsS'clip'
p1020
I00
sS'vmin'
p1021
Nsbsg85
NsS'_urls'
p1022
(lp1023
NasS'_edgecolors'
p1024
g121
(g122
(I0
tp1025
g124
tp1026
Rp1027
(I1
(I1
I4
tp1028
g59
I00
S'\x00\x00\x00\x00\x00\x00\x00\x00\x00\x00\x00\x00\x00\x00\x00\x00\x00\x00\x00\x00\x00\x00\x00\x00\x00\x00\x00\x00\x00\x00\xf0?'
p1029
tp1030
bsg88
g378
sS'_pickradius'
p1031
F5.0
sg33
Nsg90
(g55
(g59
S'\x00\x00\x00\x00\x00\x00\x00\x00'
p1032
tp1033
Rp1034
g55
(g59
S'\x00\x00\x00\x00\x00\x00\x00\x00'
p1035
tp1036
Rp1037
g55
(g59
S'\x00\x00\x00\x00\x00\x00\x00\x00'
p1038
tp1039
Rp1040
g55
(g59
S'\x00\x00\x00\x00\x00\x00\xf0?'
p1041
tp1042
Rp1043
tp1044
sg94
g1001
sS'update_dict'
p1045
(dp1046
Varray
p1047
I00
ssg96
Nsg86
I01
sS'_linewidths'
p1048
(F1.0
tp1049
sg103
g0
(g104
g105
((lp1050
(lp1051
tp1052
tp1053
Rp1054
sg111
I0
sS'_is_stroked'
p1055
I01
sS'_is_filled'
p1056
I01
sg112
I01
sS'_transOffset'
p1057
g523
sg114
Nsg115
g0
(g45
g2
Ntp1058
Rp1059
(dp1060
g49
I1
sg50
Nsg51
g7
sg52
(dp1061
sbsS'colorbar'
p1062
NsS'_us_lw'
p1063
g1049
sS'cmap'
p1064
g0
(cmatplotlib.colors
LinearSegmentedColormap
p1065
g2
Ntp1066
Rp1067
(dp1068
S'_gamma'
p1069
F1.0
sS'_i_bad'
p1070
I258
sS'_rgba_over'
p1071
NsS'name'
p1072
VGreys
p1073
sS'_i_under'
p1074
I256
sS'_i_over'
p1075
I257
sS'N'
p1076
I256
sS'_segmentdata'
p1077
(dp1078
S'blue'
p1079
(lp1080
(g55
(g59
S'\x00\x00\x00\x00\x00\x00\x00\x00'
p1081
tp1082
Rp1083
g55
(g59
S'\x00\x00\x00\x00\x00\x00\xf0?'
p1084
tp1085
Rp1086
g1086
tp1087
a(g55
(g59
S'\x00\x00\x00\x00\x00\x00\xc0?'
p1088
tp1089
Rp1090
g55
(g59
S'\x1e\x1e\x1e\x1e\x1e\x1e\xee?'
p1091
tp1092
Rp1093
g1093
tp1094
a(g55
(g59
S'\x00\x00\x00\x00\x00\x00\xd0?'
p1095
tp1096
Rp1097
g55
(g59
S';;;;;;\xeb?'
p1098
tp1099
Rp1100
g1100
tp1101
a(g55
(g59
S'\x00\x00\x00\x00\x00\x00\xd8?'
p1102
tp1103
Rp1104
g55
(g59
S'\xb8\xb7\xb7\xb7\xb7\xb7\xe7?'
p1105
tp1106
Rp1107
g1107
tp1108
a(g55
(g59
S'\x00\x00\x00\x00\x00\x00\xe0?'
p1109
tp1110
Rp1111
g55
(g59
S'\xd3\xd2\xd2\xd2\xd2\xd2\xe2?'
p1112
tp1113
Rp1114
g1114
tp1115
a(g55
(g59
S'\x00\x00\x00\x00\x00\x00\xe4?'
p1116
tp1117
Rp1118
g55
(g59
S'\xdd\xdc\xdc\xdc\xdc\xdc\xdc?'
p1119
tp1120
Rp1121
g1121
tp1122
a(g55
(g59
S'\x00\x00\x00\x00\x00\x00\xe8?'
p1123
tp1124
Rp1125
g55
(g59
S'\x95\x94\x94\x94\x94\x94\xd4?'
p1126
tp1127
Rp1128
g1128
tp1129
a(g55
(g59
S'\x00\x00\x00\x00\x00\x00\xec?'
p1130
tp1131
Rp1132
g55
(g59
S'\x93\x92\x92\x92\x92\x92\xc2?'
p1133
tp1134
Rp1135
g1135
tp1136
a(g55
(g59
S'\x00\x00\x00\x00\x00\x00\xf0?'
p1137
tp1138
Rp1139
g55
(g59
S'\x00\x00\x00\x00\x00\x00\x00\x00'
p1140
tp1141
Rp1142
g1142
tp1143
asS'alpha'
p1144
(lp1145
(g1083
I1
I1
tp1146
a(g1090
I1
I1
tp1147
a(g1097
I1
I1
tp1148
a(g1104
I1
I1
tp1149
a(g1111
I1
I1
tp1150
a(g1118
I1
I1
tp1151
a(g1125
I1
I1
tp1152
a(g1132
I1
I1
tp1153
a(g1139
I1
I1
tp1154
asS'green'
p1155
(lp1156
(g1083
g55
(g59
S'\x00\x00\x00\x00\x00\x00\xf0?'
p1157
tp1158
Rp1159
g1159
tp1160
a(g1090
g55
(g59
S'\x1e\x1e\x1e\x1e\x1e\x1e\xee?'
p1161
tp1162
Rp1163
g1163
tp1164
a(g1097
g55
(g59
S';;;;;;\xeb?'
p1165
tp1166
Rp1167
g1167
tp1168
a(g1104
g55
(g59
S'\xb8\xb7\xb7\xb7\xb7\xb7\xe7?'
p1169
tp1170
Rp1171
g1171
tp1172
a(g1111
g55
(g59
S'\xd3\xd2\xd2\xd2\xd2\xd2\xe2?'
p1173
tp1174
Rp1175
g1175
tp1176
a(g1118
g55
(g59
S'\xdd\xdc\xdc\xdc\xdc\xdc\xdc?'
p1177
tp1178
Rp1179
g1179
tp1180
a(g1125
g55
(g59
S'\x95\x94\x94\x94\x94\x94\xd4?'
p1181
tp1182
Rp1183
g1183
tp1184
a(g1132
g55
(g59
S'\x93\x92\x92\x92\x92\x92\xc2?'
p1185
tp1186
Rp1187
g1187
tp1188
a(g1139
g55
(g59
S'\x00\x00\x00\x00\x00\x00\x00\x00'
p1189
tp1190
Rp1191
g1191
tp1192
asS'red'
p1193
(lp1194
(g1083
g55
(g59
S'\x00\x00\x00\x00\x00\x00\xf0?'
p1195
tp1196
Rp1197
g1197
tp1198
a(g1090
g55
(g59
S'\x1e\x1e\x1e\x1e\x1e\x1e\xee?'
p1199
tp1200
Rp1201
g1201
tp1202
a(g1097
g55
(g59
S';;;;;;\xeb?'
p1203
tp1204
Rp1205
g1205
tp1206
a(g1104
g55
(g59
S'\xb8\xb7\xb7\xb7\xb7\xb7\xe7?'
p1207
tp1208
Rp1209
g1209
tp1210
a(g1111
g55
(g59
S'\xd3\xd2\xd2\xd2\xd2\xd2\xe2?'
p1211
tp1212
Rp1213
g1213
tp1214
a(g1118
g55
(g59
S'\xdd\xdc\xdc\xdc\xdc\xdc\xdc?'
p1215
tp1216
Rp1217
g1217
tp1218
a(g1125
g55
(g59
S'\x95\x94\x94\x94\x94\x94\xd4?'
p1219
tp1220
Rp1221
g1221
tp1222
a(g1132
g55
(g59
S'\x93\x92\x92\x92\x92\x92\xc2?'
p1223
tp1224
Rp1225
g1225
tp1226
a(g1139
g55
(g59
S'\x00\x00\x00\x00\x00\x00\x00\x00'
p1227
tp1228
Rp1229
g1229
tp1230
assS'_rgba_under'
p1231
NsS'_rgba_bad'
p1232
(F0.0
F0.0
F0.0
F0.0
tp1233
sS'monochrome'
p1234
I00
sS'colorbar_extend'
p1235
I00
sS'_isinit'
p1236
I00
sbsg43
Nsg737
Nsg25
Nsg738
g797
sg34
Nsbasg738
g797
sg30
(dp1237
sg32
I00
sS'containers'
p1238
(lp1239
sg29
I00
sg88
NsS'_get_lines'
p1240
g0
(g801
g2
Ntp1241
Rp1242
(dp1243
g805
g797
sg806
Vplot
p1244
sbsS'_aspect'
p1245
Vauto
p1246
sS'fmt_xdata'
p1247
Nsg745
g0
(g746
g2
Ntp1248
Rp1249
I01
bsg96
Nsg97
Vwhite
p1250
sg86
I01
sg750
g212
sS'ignore_existing_data_limits'
p1251
I00
sg24
Nsg111
I0
sg112
I00
sS'_left_title'
p1252
g0
(g819
g2
Ntp1253
Rp1254
(dp1255
g6
g7
sg8
I01
sg9
g4
sg10
Nsg823
g0
(g824
g2
Ntp1256
Rp1257
(dp1258
g828
g829
sg831
Nsg832
g833
sg834
g833
sg835
F14.399999999999999
sg836
I400
sg837
g833
sbsg42
Nsg17
g18
sg838
Nsg20
I01
sg23
Nsg75
F1.0
sg76
F0.0
sg24
Nsg25
Nsg11
Nsg28
I00
sg29
I00
sg30
(dp1259
sg840
Nsg32
I00
sg738
g797
sg88
Nsg737
Nsg841
Nsg33
Nsg96
Nsg86
I01
sg842
Vbaseline
p1260
sg844
V
p1261
sg846
Nsg103
g0
(g104
g105
((lp1262
(lp1263
tp1264
tp1265
Rp1266
sg111
I0
sg852
Nsg112
I01
sg114
Nsg853
F1.2
sg115
g255
sg854
I00
sg855
I00
sg43
Nsg856
g857
sg858
Vleft
p1267
sg34
NsbsS'_right_title'
p1268
g0
(g819
g2
Ntp1269
Rp1270
(dp1271
g6
g7
sg8
I01
sg9
g4
sg10
Nsg823
g0
(g824
g2
Ntp1272
Rp1273
(dp1274
g828
g829
sg831
Nsg832
g833
sg834
g833
sg835
F14.399999999999999
sg836
I400
sg837
g833
sbsg42
Nsg17
g18
sg838
Nsg20
I01
sg23
Nsg75
F1.0
sg76
F1.0
sg24
Nsg25
Nsg11
Nsg28
I00
sg29
I00
sg30
(dp1275
sg840
Nsg32
I00
sg738
g797
sg88
Nsg737
Nsg841
Nsg33
Nsg96
Nsg86
I01
sg842
g1260
sg844
V
p1276
sg846
Nsg103
g0
(g104
g105
((lp1277
(lp1278
tp1279
tp1280
Rp1281
sg111
I0
sg852
Nsg112
I01
sg114
Nsg853
F1.2
sg115
g259
sg854
I00
sg855
I00
sg43
Nsg856
g857
sg858
Vright
p1282
sg34
NsbsS'transScale'
p1283
g517
sg115
NsS'axison'
p1284
I01
sS'patch'
p1285
g0
(g36
g2
Ntp1286
Rp1287
(dp1288
g6
g7
sg40
F1.0
sg41
I01
sg9
g4
sg8
I01
sg10
Nsg42
Nsg17
g18
sg43
Nsg20
I01
sg44
g0
(g45
g2
Ntp1289
Rp1290
(dp1291
g49
I1
sg50
Nsg51
g7
sg52
(dp1292
sbsg54
(F0.0
F0.0
F0.0
F0.0
tp1293
sg23
Nsg75
F0.0
sg76
F0.0
sg24
Nsg77
VNone
p1294
sg11
Nsg28
I00
sg29
I00
sg30
(dp1295
sg80
g337
sg32
I00
sg85
Nsg86
I01
sg87
F0.0
sg88
Nsg89
F1.0
sg33
Nsg90
g1293
sg91
Nsg92
I01
sg93
Nsg94
g1250
sg96
Nsg97
g98
sg99
g100
sg101
g102
sg103
g0
(g104
g105
((lp1296
(lp1297
tp1298
tp1299
Rp1300
sg111
I0
sg112
I01
sg113
F0.0
sg114
Nsg115
g193
sg733
(NNtp1301
sg735
g736
sg737
Nsg25
Nsg738
Nsg34
NsbsS'viewLim'
p1302
g494
sg17
g18
sS'_subplotspec'
p1303
g771
sS'_adjustable'
p1304
Vbox
p1305
sg9
g4
sS'titleOffsetTrans'
p1306
g250
sS'_yaxis_transform'
p1307
g527
sS'_gridOn'
p1308
I00
sg10
NsS'colNum'
p1309
I0
sg42
Nsg740
(lp1310
sS'_autoscaleXon'
p1311
I01
sS'_xmargin'
p1312
F0.05
sS'rowNum'
p1313
I0
sS'_position'
p1314
g215
sS'_rasterization_zorder'
p1315
NsS'_cachedRenderer'
p1316
NsS'_navigate'
p1317
I01
sg23
NsS'_originalPosition'
p1318
g0
(g136
g2
Ntp1319
Rp1320
(dp1321
g49
I1
sg140
g121
(g122
(I0
tp1322
g124
tp1323
Rp1324
(I1
(I2
tp1325
g59
I00
S'\x00\x00\x00\x00\x00\x00\xf0\x7f\x00\x00\x00\x00\x00\x00\xf0\x7f'
p1326
tp1327
bsg52
(dp1328
sg148
g121
(g122
(I0
tp1329
g124
tp1330
Rp1331
(I1
(I2
I2
tp1332
g59
I00
S'\x00\x00\x00\x00\x00\x00\xc0?\x00\x00\x00\x00\x00\x00\xc0?\xcd\xcc\xcc\xcc\xcc\xcc\xec?)\\\x8f\xc2\xf5(\xec?'
p1333
tp1334
bsg155
g121
(g122
(I0
tp1335
g124
tp1336
Rp1337
(I1
(I2
I2
tp1338
g59
I00
S'\x00\x00\x00\x00\x00\x00\xc0?\x00\x00\x00\x00\x00\x00\xc0?\xcd\xcc\xcc\xcc\xcc\xcc\xec?)\\\x8f\xc2\xf5(\xec?'
p1339
tp1340
bsg162
I01
sg51
g7
sbsg25
NsS'_xaxis_transform'
p1341
g190
sg28
I00
sS'figbox'
p1342
g215
sS'xaxis'
p1343
g0
(cmatplotlib.axis
XAxis
p1344
g2
Ntp1345
Rp1346
(dp1347
g6
g7
sS'major'
p1348
g0
(cmatplotlib.axis
Ticker
p1349
g2
Ntp1350
Rp1351
(dp1352
S'locator'
p1353
g0
(cmatplotlib.ticker
AutoLocator
p1354
g2
Ntp1355
Rp1356
(dp1357
S'_min_n_ticks'
p1358
I2
sS'_symmetric'
p1359
I00
sS'_nbins'
p1360
Vauto
p1361
sS'_steps'
p1362
g121
(g122
(I0
tp1363
g124
tp1364
Rp1365
(I1
(I5
tp1366
g59
I00
S'\x00\x00\x00\x00\x00\x00\xf0?\x00\x00\x00\x00\x00\x00\x00@\x00\x00\x00\x00\x00\x00\x04@\x00\x00\x00\x00\x00\x00\x14@\x00\x00\x00\x00\x00\x00$@'
p1367
tp1368
bsS'_prune'
p1369
NsS'_extended_steps'
p1370
g121
(g122
(I0
tp1371
g124
tp1372
Rp1373
(I1
(I10
tp1374
g59
I00
S'\x9a\x99\x99\x99\x99\x99\xb9?\x9a\x99\x99\x99\x99\x99\xc9?\x00\x00\x00\x00\x00\x00\xd0?\x00\x00\x00\x00\x00\x00\xe0?\x00\x00\x00\x00\x00\x00\xf0?\x00\x00\x00\x00\x00\x00\x00@\x00\x00\x00\x00\x00\x00\x04@\x00\x00\x00\x00\x00\x00\x14@\x00\x00\x00\x00\x00\x00$@\x00\x00\x00\x00\x00\x004@'
p1375
tp1376
bsS'_integer'
p1377
I00
sS'axis'
p1378
g1346
sbsS'formatter'
p1379
g0
(cmatplotlib.ticker
ScalarFormatter
p1380
g2
Ntp1381
Rp1382
(dp1383
S'_powerlimits'
p1384
(lp1385
I-7
aI7
asS'orderOfMagnitude'
p1386
I0
sS'_useOffset'
p1387
I01
sS'_useLocale'
p1388
I00
sS'format'
p1389
g7
sS'_useMathText'
p1390
I00
sS'_offset_threshold'
p1391
I4
sS'offset'
p1392
I0
sg854
I00
sS'_scientific'
p1393
I01
sg1378
g1346
sbsbsS'isDefault_label'
p1394
I00
sS'_scale'
p1395
g0
(cmatplotlib.scale
LinearScale
p1396
g2
Ntp1397
Rp1398
sg9
g4
sg8
I01
sS'_gridOnMinor'
p1399
I00
sg10
Nsg42
NsS'_smart_bounds'
p1400
I00
sg17
g18
sg20
I01
sg23
NsS'offsetText'
p1401
g0
(g819
g2
Ntp1402
Rp1403
(dp1404
g6
g7
sg8
I01
sg9
g4
sg10
Nsg823
g0
(g824
g2
Ntp1405
Rp1406
(dp1407
g828
(lp1408
g830
asg831
Nsg832
g833
sg834
g833
sg835
F10.0
sg836
I400
sg837
g833
sbsg42
Nsg17
g18
sg838
Nsg20
I01
sg23
Nsg75
I0
sg76
I1
sg24
Nsg25
Nsg11
Nsg28
I00
sg29
I00
sg30
(dp1409
sg840
Nsg32
I00
sg738
Nsg88
Nsg737
Nsg841
Nsg33
Nsg96
Nsg86
I01
sg842
Vtop
p1410
sg844
V
p1411
sg846
Nsg103
g0
(g104
g105
((lp1412
(lp1413
tp1414
tp1415
Rp1416
sg111
I0
sg852
Nsg112
I01
sg114
Nsg853
F1.2
sg115
g648
sg854
I00
sg855
I00
sg43
Nsg856
V.15
p1417
sg858
Vright
p1418
sg34
Nsbsg24
Nsg25
Nsg11
NsS'label'
p1419
g0
(g819
g2
Ntp1420
Rp1421
(dp1422
g6
g7
sg8
I01
sg9
g4
sg10
Nsg823
g0
(g824
g2
Ntp1423
Rp1424
(dp1425
g828
(lp1426
g830
asg831
Nsg832
g833
sg834
g833
sg835
F12.0
sg836
I400
sg837
g833
sbsg42
Nsg17
g18
sg838
Nsg20
I01
sg23
Nsg75
I0
sg76
F0.5
sg24
Nsg25
Nsg11
Nsg28
I00
sg29
I00
sg30
(dp1427
sg840
Nsg32
I00
sg738
Nsg88
Nsg737
Nsg841
Nsg33
Nsg96
Nsg86
I01
sg842
Vtop
p1428
sg844
V$g_e$ (nS)
p1429
sg846
Nsg103
g0
(g104
g105
((lp1430
(lp1431
tp1432
tp1433
Rp1434
sg111
I0
sg852
Nsg112
I01
sg114
Nsg853
F1.2
sg115
g664
sg854
I00
sg855
I00
sg43
Nsg856
V.15
p1435
sg858
Vcenter
p1436
sg34
Nsbsg28
I00
sS'isDefault_majfmt'
p1437
I01
sg29
I00
sg30
(dp1438
sS'units'
p1439
Nsg32
I00
sS'minor'
p1440
g0
(g1349
g2
Ntp1441
Rp1442
(dp1443
g1353
g0
(cmatplotlib.ticker
NullLocator
p1444
g2
Ntp1445
Rp1446
(dp1447
g1378
g1346
sbsg1379
g0
(cmatplotlib.ticker
NullFormatter
p1448
g2
Ntp1449
Rp1450
(dp1451
g1378
g1346
sbsbsg738
g797
sS'_major_tick_kw'
p1452
(dp1453
Vlabel1On
p1454
I01
sVgridOn
p1455
I00
sVlabel2On
p1456
I00
sVtick1On
p1457
I01
sVtick2On
p1458
I00
ssS'isDefault_minloc'
p1459
I01
sg88
g308
sg33
NsS'_gridOnMajor'
p1460
I00
sS'_lastNumMinorTicks'
p1461
I1
sS'labelpad'
p1462
F4.0
sS'majorTicks'
p1463
(lp1464
g0
(cmatplotlib.axis
XTick
p1465
g2
Ntp1466
Rp1467
(dp1468
g6
g7
sg40
F0.8
sg9
g4
sS'tick1On'
p1469
I01
sg8
I01
sg10
Nsg111
I0
sg42
NsS'_pad'
p1470
F3.5
sS'_labelcolor'
p1471
g1417
sS'gridOn'
p1472
I00
sg835
F0.0
sg17
g18
sS'_tickdir'
p1473
Vout
p1474
sg1419
g0
(g819
g2
Ntp1475
Rp1476
(dp1477
g6
g7
sg8
I01
sg9
g4
sg10
Nsg823
g0
(g824
g2
Ntp1478
Rp1479
(dp1480
g828
(lp1481
g830
asg831
Nsg832
g833
sg834
g833
sg835
F10.0
sg836
I400
sg837
g833
sbsg42
Nsg17
g18
sg838
Nsg20
I01
sg23
Nsg75
I0
sg76
I0
sg24
Nsg25
Nsg11
Nsg28
I00
sg29
I00
sg30
(dp1482
sg840
Nsg32
I00
sg738
Nsg88
Nsg737
Nsg841
Nsg33
Nsg96
Nsg86
I01
sg842
Vtop
p1483
sg844
V
p1484
sg846
Nsg103
g0
(g104
g105
((lp1485
(lp1486
tp1487
tp1488
Rp1489
sg111
I0
sg852
Nsg112
I01
sg114
Nsg853
F1.2
sg115
g689
sg854
I00
sg855
I00
sg43
Nsg856
g1417
sg858
Vcenter
p1490
sg34
Nsbsg20
I01
sg23
NsS'label2On'
p1491
I00
sg24
Nsg25
Nsg11
NsS'tick2On'
p1492
I00
sg28
I00
sg29
I00
sg30
(dp1493
sS'_tickmarkers'
p1494
(I3
I2
tp1495
sg32
I00
sS'_zorder'
p1496
F2.01
sg738
g797
sS'label1On'
p1497
I01
sg88
Nsg737
NsS'label1'
p1498
g1476
sS'label2'
p1499
g0
(g819
g2
Ntp1500
Rp1501
(dp1502
g6
g7
sg8
I01
sg9
g4
sg10
Nsg823
g0
(g824
g2
Ntp1503
Rp1504
(dp1505
g828
(lp1506
g830
asg831
Nsg832
g833
sg834
g833
sg835
F10.0
sg836
I400
sg837
g833
sbsg42
Nsg17
g18
sg838
Nsg20
I01
sg23
Nsg75
I1
sg76
I0
sg24
Nsg25
Nsg11
Nsg28
I00
sg29
I00
sg30
(dp1507
sg840
Nsg32
I00
sg738
Nsg88
Nsg737
Nsg841
Nsg33
Nsg96
Nsg86
I01
sg842
Vbottom
p1508
sg844
V
p1509
sg846
Nsg103
g0
(g104
g105
((lp1510
(lp1511
tp1512
tp1513
Rp1514
sg111
I0
sg852
Nsg112
I01
sg114
Nsg853
F1.2
sg115
g716
sg854
I00
sg855
I00
sg43
Nsg856
g1417
sg858
g1490
sg34
Nsbsg96
NsS'_loc'
p1515
I0
sg86
I01
sg103
g0
(g104
g105
((lp1516
(lp1517
tp1518
tp1519
Rp1520
sS'_base_pad'
p1521
F3.5
sS'tick1line'
p1522
g0
(cmatplotlib.lines
Line2D
p1523
g2
Ntp1524
Rp1525
(dp1526
g6
g7
sS'_dashcapstyle'
p1527
Vbutt
p1528
sg886
Nsg20
I01
sS'_x_filled'
p1529
NsS'ind_offset'
p1530
I0
sg75
Nsg76
Nsg24
Nsg11
Nsg29
I00
sg30
(dp1531
sg32
I00
sg738
NsS'_markeredgewidth'
p1532
F0.8
sS'_dashSeq'
p1533
NsS'_markerfacecoloralt'
p1534
Vnone
p1535
sS'_markeredgecolor'
p1536
Vauto
p1537
sg96
Nsg86
I01
sS'_xorig'
p1538
(I0
tp1539
sg111
I0
sg112
I01
sS'_invalidy'
p1540
I01
sS'_invalidx'
p1541
I01
sg115
g681
sS'_us_dashSeq'
p1542
Nsg1013
F2.01
sg856
g1417
sS'pickradius'
p1543
I5
sg9
g4
sS'verticalOffset'
p1544
Nsg10
Nsg42
Nsg17
g18
sS'_solidjoinstyle'
p1545
Vround
p1546
sg23
Nsg25
Nsg28
I00
sS'_markevery'
p1547
Nsg34
NsS'_transformed_path'
p1548
NsS'_marker'
p1549
g0
(cmatplotlib.markers
MarkerStyle
p1550
g2
Ntp1551
Rp1552
(dp1553
g1549
I3
sS'_alt_path'
p1554
NsS'_snap_threshold'
p1555
F1.0
sg115
g0
(g163
g2
Ntp1556
Rp1557
(dp1558
g49
I2
sg50
Nsg120
g121
(g122
(I0
tp1559
g124
tp1560
Rp1561
(I1
(I3
I3
tp1562
g59
I00
S'\x00\x00\x00\x00\x00\x00\xf0?\x00\x00\x00\x00\x00\x00\x00\x00\x00\x00\x00\x00\x00\x00\x00\x00\x00\x00\x00\x00\x00\x00\x00\x00\x00\x00\x00\x00\x00\x00\xf0\xbf\x00\x00\x00\x00\x00\x00\x00\x00\x00\x00\x00\x00\x00\x00\x00\x00\x00\x00\x00\x00\x00\x00\x00\x00\x00\x00\x00\x00\x00\x00\xf0?'
p1563
tp1564
bsg51
g7
sg52
(dp1565
sbsS'_filled'
p1566
I00
sS'_fillstyle'
p1567
Vfull
p1568
sS'_alt_transform'
p1569
Nsg735
Vbutt
p1570
sg99
Vround
p1571
sS'_path'
p1572
g0
(g949
g2
Ntp1573
Rp1574
(dp1575
g953
I00
sg954
Nsg966
g121
(g122
(I0
tp1576
g124
tp1577
Rp1578
(I1
(I2
I2
tp1579
g59
I00
S'\x00\x00\x00\x00\x00\x00\x00\x80\x00\x00\x00\x00\x00\x00\x00\x00\x00\x00\x00\x00\x00\x00\x00\x80\x00\x00\x00\x00\x00\x00\xf0?'
p1580
tp1581
bsg973
I00
sg974
F0.1111111111111111
sg975
I1
sg976
I00
sbsbsS'_markerfacecolor'
p1582
Vauto
p1583
sg88
Nsg33
Nsg92
I01
sS'_xy'
p1584
Nsg101
VNone
p1585
sg103
g0
(g104
g105
((lp1586
(lp1587
tp1588
tp1589
Rp1590
sS'_subslice'
p1591
I00
sS'_drawstyle'
p1592
Vdefault
p1593
sS'_solidcapstyle'
p1594
g1546
sS'_us_dashOffset'
p1595
Nsg114
NsS'_dashjoinstyle'
p1596
g1546
sS'_markersize'
p1597
F0.0
sg8
I01
sS'_dashOffset'
p1598
Nsg43
Nsg737
NsS'_yorig'
p1599
(I0
tp1600
sg87
F1.0
sg1572
Nsbsg112
I00
sS'gridline'
p1601
g0
(g1523
g2
Ntp1602
Rp1603
(dp1604
g6
g7
sg8
I01
sg1594
g1546
sg9
g4
sg1527
g1528
sg886
Nsg10
Nsg42
Nsg17
g18
sg1545
g1546
sg20
I01
sg1529
Nsg23
Nsg75
g121
(g122
(I0
tp1605
g124
tp1606
Rp1607
(I1
(I2
tp1608
g59
I00
S'\x00\x00\x00\x00\x00\x00\x00\x00\x00\x00\x00\x00\x00\x00\xf0?'
p1609
tp1610
bsg76
g121
(g122
(I0
tp1611
g124
tp1612
Rp1613
(I1
(I2
tp1614
g59
I00
S'\x00\x00\x00\x00\x00\x00\x00\x00\x00\x00\x00\x00\x00\x00\x00\x00'
p1615
tp1616
bsg24
Nsg25
Nsg11
Nsg1538
(F0.0
F0.0
tp1617
sg28
I00
sg1547
Nsg29
I00
sg30
(dp1618
sg1544
Nsg32
I00
sg1591
I00
sg738
Nsg1548
Nsg1532
F1.0
sg1582
g1583
sg1533
Nsg856
V.8
p1619
sg1549
g0
(g1550
g2
Ntp1620
Rp1621
(dp1622
g1549
VNone
p1623
sg1554
Nsg1555
Nsg115
g0
(g45
g2
Ntp1624
Rp1625
(dp1626
g49
I1
sg50
Nsg51
g7
sg52
(dp1627
sbsg1566
I00
sg1567
g1568
sg1569
Nsg735
g1570
sg99
g1571
sg1572
g0
(g949
g2
Ntp1628
Rp1629
(dp1630
g953
I00
sg954
Nsg966
g121
(g122
(I0
tp1631
g124
tp1632
Rp1633
(I1
(I0
I2
tp1634
g59
I00
S''
p1635
tp1636
bsg973
I00
sg974
F0.1111111111111111
sg975
I1
sg976
I00
sbsbsg33
Nsg1534
g1535
sg92
I01
sg1536
g1537
sg96
Nsg1597
F0.0
sg86
I01
sg1584
g121
(g122
(I0
tp1637
g124
tp1638
Rp1639
(I1
(I2
I2
tp1640
g59
I00
S'\x00\x00\x00\x00\x00\x00\x00\x00\x00\x00\x00\x00\x00\x00\x00\x00\x00\x00\x00\x00\x00\x00\x00\x00\x00\x00\x00\x00\x00\x00\xf0?'
p1641
tp1642
bsg101
V-
p1643
sg103
g0
(g104
g105
((lp1644
(lp1645
tp1646
tp1647
Rp1648
sg111
I0
sg1592
g1593
sg1530
I0
sg1595
Nsg1543
I5
sg112
I01
sg114
F1.0
sg1596
g1546
sg1541
I00
sg115
g190
sg1598
Nsg1542
Nsg1540
I00
sg43
Nsg737
Nsg1599
(I0
F1.0
tp1649
sg88
Nsg87
F0.8
sg34
Nsg1572
g0
(g949
g2
Ntp1650
Rp1651
(dp1652
g953
I00
sg954
Nsg966
g1639
sg973
I00
sg974
F0.1111111111111111
sg975
I180
sg976
I00
sbsbsg114
Nsg33
NsS'tick2line'
p1653
g0
(g1523
g2
Ntp1654
Rp1655
(dp1656
g6
g7
sg1527
g1528
sg886
Nsg20
I01
sg1529
Nsg1530
I0
sg75
Nsg76
Nsg24
Nsg11
Nsg29
I00
sg30
(dp1657
sg32
I00
sg738
Nsg1532
F0.8
sg1533
Nsg1534
g1535
sg1536
g1537
sg96
Nsg86
I01
sg1538
(I0
tp1658
sg111
I0
sg112
I01
sg1540
I01
sg1541
I01
sg115
g190
sg1542
Nsg1013
F2.01
sg856
g1417
sg1543
I5
sg9
g4
sg1544
Nsg10
Nsg42
Nsg17
g18
sg1545
g1546
sg23
Nsg25
Nsg28
I00
sg1547
Nsg34
Nsg1548
Nsg1549
g0
(g1550
g2
Ntp1659
Rp1660
(dp1661
g1549
I2
sg1554
Nsg1555
F1.0
sg115
g0
(g163
g2
Ntp1662
Rp1663
(dp1664
g49
I2
sg50
Nsg120
g121
(g122
(I0
tp1665
g124
tp1666
Rp1667
(I1
(I3
I3
tp1668
g59
I00
S'\x00\x00\x00\x00\x00\x00\xf0?\x00\x00\x00\x00\x00\x00\x00\x00\x00\x00\x00\x00\x00\x00\x00\x00\x00\x00\x00\x00\x00\x00\x00\x00\x00\x00\x00\x00\x00\x00\xf0?\x00\x00\x00\x00\x00\x00\x00\x00\x00\x00\x00\x00\x00\x00\x00\x00\x00\x00\x00\x00\x00\x00\x00\x00\x00\x00\x00\x00\x00\x00\xf0?'
p1669
tp1670
bsg51
g7
sg52
(dp1671
sbsg1566
I00
sg1567
g1568
sg1569
Nsg735
g1570
sg99
g1571
sg1572
g1574
sbsg1582
g1583
sg88
Nsg33
Nsg92
I01
sg1584
Nsg101
VNone
p1672
sg103
g0
(g104
g105
((lp1673
(lp1674
tp1675
tp1676
Rp1677
sg1591
I00
sg1592
g1593
sg1594
g1546
sg1595
Nsg114
Nsg1596
g1546
sg1597
F0.0
sg8
I01
sg1598
Nsg43
Nsg737
Nsg1599
(I1
tp1678
sg87
F1.0
sg1572
Nsbsg115
NsS'_labelsize'
p1679
F10.0
sS'_name'
p1680
Vxtick
p1681
sg43
Nsg856
g1417
sg34
NsbasS'isDefault_majloc'
p1682
I01
sg745
g0
(g746
g2
Ntp1683
Rp1684
I01
bsg96
Nsg86
I01
sS'_autolabelpos'
p1685
I01
sg103
g0
(g104
g105
((lp1686
(lp1687
tp1688
tp1689
Rp1690
sg111
I0
sS'_lastNumMajorTicks'
p1691
I1
sS'converter'
p1692
Nsg112
I00
sg114
NsS'offset_text_position'
p1693
Vbottom
p1694
sg115
NsS'label_position'
p1695
Vbottom
p1696
sg43
Nsg737
Nsg1543
I15
sS'minorTicks'
p1697
(lp1698
g0
(g1465
g2
Ntp1699
Rp1700
(dp1701
g6
g7
sg40
F0.6
sg9
g4
sg1469
I01
sg8
I01
sg10
Nsg111
I0
sg42
Nsg1470
F3.4
sg1471
g1417
sg1472
I00
sg835
F0.0
sg17
g18
sg1473
g1474
sg1419
g0
(g819
g2
Ntp1702
Rp1703
(dp1704
g6
g7
sg8
I01
sg9
g4
sg10
Nsg823
g0
(g824
g2
Ntp1705
Rp1706
(dp1707
g828
(lp1708
g830
asg831
Nsg832
g833
sg834
g833
sg835
F10.0
sg836
I400
sg837
g833
sbsg42
Nsg17
g18
sg838
Nsg20
I01
sg23
Nsg75
I0
sg76
I0
sg24
Nsg25
Nsg11
Nsg28
I00
sg29
I00
sg30
(dp1709
sg840
Nsg32
I00
sg738
Nsg88
Nsg737
Nsg841
Nsg33
Nsg96
Nsg86
I01
sg842
g1483
sg844
V
p1710
sg846
Nsg103
g0
(g104
g105
((lp1711
(lp1712
tp1713
tp1714
Rp1715
sg111
I0
sg852
Nsg112
I01
sg114
Nsg853
F1.2
sg115
g702
sg854
I00
sg855
I00
sg43
Nsg856
g1417
sg858
g1490
sg34
Nsbsg20
I01
sg23
Nsg1491
I00
sg24
Nsg25
Nsg11
Nsg1492
I00
sg28
I00
sg29
I00
sg30
(dp1716
sg1494
(I3
I2
tp1717
sg32
I00
sg1496
I2
sg738
g797
sg1497
I01
sg88
Nsg737
Nsg1498
g1703
sg1499
g0
(g819
g2
Ntp1718
Rp1719
(dp1720
g6
g7
sg8
I01
sg9
g4
sg10
Nsg823
g0
(g824
g2
Ntp1721
Rp1722
(dp1723
g828
(lp1724
g830
asg831
Nsg832
g833
sg834
g833
sg835
F10.0
sg836
I400
sg837
g833
sbsg42
Nsg17
g18
sg838
Nsg20
I01
sg23
Nsg75
I1
sg76
I0
sg24
Nsg25
Nsg11
Nsg28
I00
sg29
I00
sg30
(dp1725
sg840
Nsg32
I00
sg738
Nsg88
Nsg737
Nsg841
Nsg33
Nsg96
Nsg86
I01
sg842
g1508
sg844
V
p1726
sg846
Nsg103
g0
(g104
g105
((lp1727
(lp1728
tp1729
tp1730
Rp1731
sg111
I0
sg852
Nsg112
I01
sg114
Nsg853
F1.2
sg115
g184
sg854
I00
sg855
I00
sg43
Nsg856
g1417
sg858
g1490
sg34
Nsbsg96
Nsg1515
I0
sg86
I01
sg103
g0
(g104
g105
((lp1732
(lp1733
tp1734
tp1735
Rp1736
sg1521
F3.4
sg1522
g0
(g1523
g2
Ntp1737
Rp1738
(dp1739
g6
g7
sg1527
g1528
sg886
Nsg20
I01
sg1529
Nsg1530
I0
sg75
Nsg76
Nsg24
Nsg11
Nsg29
I00
sg30
(dp1740
sg32
I00
sg738
Nsg1532
F0.6
sg1533
Nsg1534
g1535
sg1536
g1537
sg96
Nsg86
I01
sg1538
(I0
tp1741
sg111
I0
sg112
I01
sg1540
I01
sg1541
I01
sg115
g711
sg1542
Nsg1013
I2
sg856
g1417
sg1543
I5
sg9
g4
sg1544
Nsg10
Nsg42
Nsg17
g18
sg1545
g1546
sg23
Nsg25
Nsg28
I00
sg1547
Nsg34
Nsg1548
Nsg1549
g0
(g1550
g2
Ntp1742
Rp1743
(dp1744
g1549
I3
sg1554
Nsg1555
F1.0
sg115
g0
(g163
g2
Ntp1745
Rp1746
(dp1747
g49
I2
sg50
Nsg120
g121
(g122
(I0
tp1748
g124
tp1749
Rp1750
(I1
(I3
I3
tp1751
g59
I00
S'\x00\x00\x00\x00\x00\x00\xf0?\x00\x00\x00\x00\x00\x00\x00\x00\x00\x00\x00\x00\x00\x00\x00\x00\x00\x00\x00\x00\x00\x00\x00\x00\x00\x00\x00\x00\x00\x00\xf0\xbf\x00\x00\x00\x00\x00\x00\x00\x00\x00\x00\x00\x00\x00\x00\x00\x00\x00\x00\x00\x00\x00\x00\x00\x00\x00\x00\x00\x00\x00\x00\xf0?'
p1752
tp1753
bsg51
g7
sg52
(dp1754
sbsg1566
I00
sg1567
g1568
sg1569
Nsg735
g1570
sg99
g1571
sg1572
g1574
sbsg1582
g1583
sg88
Nsg33
Nsg92
I01
sg1584
Nsg101
g1585
sg103
g0
(g104
g105
((lp1755
(lp1756
tp1757
tp1758
Rp1759
sg1591
I00
sg1592
g1593
sg1594
g1546
sg1595
Nsg114
Nsg1596
g1546
sg1597
F0.0
sg8
I01
sg1598
Nsg43
Nsg737
Nsg1599
g1600
sg87
F1.0
sg1572
Nsbsg112
I00
sg1601
g0
(g1523
g2
Ntp1760
Rp1761
(dp1762
g6
g7
sg8
I01
sg1594
g1546
sg9
g4
sg1527
g1528
sg886
Nsg10
Nsg42
Nsg17
g18
sg1545
g1546
sg20
I01
sg1529
Nsg23
Nsg75
g121
(g122
(I0
tp1763
g124
tp1764
Rp1765
(I1
(I2
tp1766
g59
I00
S'\x00\x00\x00\x00\x00\x00\x00\x00\x00\x00\x00\x00\x00\x00\xf0?'
p1767
tp1768
bsg76
g121
(g122
(I0
tp1769
g124
tp1770
Rp1771
(I1
(I2
tp1772
g59
I00
S'\x00\x00\x00\x00\x00\x00\x00\x00\x00\x00\x00\x00\x00\x00\x00\x00'
p1773
tp1774
bsg24
Nsg25
Nsg11
Nsg1538
g1617
sg28
I00
sg1547
Nsg29
I00
sg30
(dp1775
sg1544
Nsg32
I00
sg1591
I00
sg738
Nsg1548
Nsg1532
F1.0
sg1582
g1583
sg1533
Nsg856
g1619
sg1549
g0
(g1550
g2
Ntp1776
Rp1777
(dp1778
g1549
g1623
sg1554
Nsg1555
Nsg115
g0
(g45
g2
Ntp1779
Rp1780
(dp1781
g49
I1
sg50
Nsg51
g7
sg52
(dp1782
sbsg1566
I00
sg1567
g1568
sg1569
Nsg735
g1570
sg99
g1571
sg1572
g0
(g949
g2
Ntp1783
Rp1784
(dp1785
g953
I00
sg954
Nsg966
g121
(g122
(I0
tp1786
g124
tp1787
Rp1788
(I1
(I0
I2
tp1789
g59
I00
g1635
tp1790
bsg973
I00
sg974
F0.1111111111111111
sg975
I1
sg976
I00
sbsbsg33
Nsg1534
g1535
sg92
I01
sg1536
g1537
sg96
Nsg1597
F0.0
sg86
I01
sg1584
g121
(g122
(I0
tp1791
g124
tp1792
Rp1793
(I1
(I2
I2
tp1794
g59
I00
S'\x00\x00\x00\x00\x00\x00\x00\x00\x00\x00\x00\x00\x00\x00\x00\x00\x00\x00\x00\x00\x00\x00\x00\x00\x00\x00\x00\x00\x00\x00\xf0?'
p1795
tp1796
bsg101
g1643
sg103
g0
(g104
g105
((lp1797
(lp1798
tp1799
tp1800
Rp1801
sg111
I0
sg1592
g1593
sg1530
I0
sg1595
Nsg1543
I5
sg112
I01
sg114
F1.0
sg1596
g1546
sg1541
I00
sg115
g190
sg1598
Nsg1542
Nsg1540
I00
sg43
Nsg737
Nsg1599
g1649
sg88
Nsg87
F0.8
sg34
Nsg1572
g0
(g949
g2
Ntp1802
Rp1803
(dp1804
g953
I00
sg954
Nsg966
g1793
sg973
I00
sg974
F0.1111111111111111
sg975
I180
sg976
I00
sbsbsg114
Nsg33
Nsg1653
g0
(g1523
g2
Ntp1805
Rp1806
(dp1807
g6
g7
sg1527
g1528
sg886
Nsg20
I01
sg1529
Nsg1530
I0
sg75
Nsg76
Nsg24
Nsg11
Nsg29
I00
sg30
(dp1808
sg32
I00
sg738
Nsg1532
F0.6
sg1533
Nsg1534
g1535
sg1536
g1537
sg96
Nsg86
I01
sg1538
g1658
sg111
I0
sg112
I01
sg1540
I01
sg1541
I01
sg115
g190
sg1542
Nsg1013
I2
sg856
g1417
sg1543
I5
sg9
g4
sg1544
Nsg10
Nsg42
Nsg17
g18
sg1545
g1546
sg23
Nsg25
Nsg28
I00
sg1547
Nsg34
Nsg1548
Nsg1549
g0
(g1550
g2
Ntp1809
Rp1810
(dp1811
g1549
I2
sg1554
Nsg1555
F1.0
sg115
g0
(g163
g2
Ntp1812
Rp1813
(dp1814
g49
I2
sg50
Nsg120
g121
(g122
(I0
tp1815
g124
tp1816
Rp1817
(I1
(I3
I3
tp1818
g59
I00
S'\x00\x00\x00\x00\x00\x00\xf0?\x00\x00\x00\x00\x00\x00\x00\x00\x00\x00\x00\x00\x00\x00\x00\x00\x00\x00\x00\x00\x00\x00\x00\x00\x00\x00\x00\x00\x00\x00\xf0?\x00\x00\x00\x00\x00\x00\x00\x00\x00\x00\x00\x00\x00\x00\x00\x00\x00\x00\x00\x00\x00\x00\x00\x00\x00\x00\x00\x00\x00\x00\xf0?'
p1819
tp1820
bsg51
g7
sg52
(dp1821
sbsg1566
I00
sg1567
g1568
sg1569
Nsg735
g1570
sg99
g1571
sg1572
g1574
sbsg1582
g1583
sg88
Nsg33
Nsg92
I01
sg1584
Nsg101
g1672
sg103
g0
(g104
g105
((lp1822
(lp1823
tp1824
tp1825
Rp1826
sg1591
I00
sg1592
g1593
sg1594
g1546
sg1595
Nsg114
Nsg1596
g1546
sg1597
F0.0
sg8
I01
sg1598
Nsg43
Nsg737
Nsg1599
g1678
sg87
F1.0
sg1572
Nsbsg115
Nsg1679
F10.0
sg1680
g1681
sg43
Nsg856
g1417
sg34
Nsbasg34
NsS'_minor_tick_kw'
p1827
(dp1828
g1454
I01
sg1456
I00
sg1457
I01
sg1458
I00
ssS'isDefault_minfmt'
p1829
I01
sbsS'_navigate_mode'
p1830
Nsg34
NsS'transAxes'
p1831
g193
sS'_connected'
p1832
(dp1833
sS'fmt_ydata'
p1834
NsS'dataLim'
p1835
g0
(g136
g2
Ntp1836
Rp1837
(dp1838
g49
I0
sg140
g121
(g122
(I0
tp1839
g124
tp1840
Rp1841
(I1
(I2
tp1842
g59
I00
S'\xf6\xc0/\x0bX\x13\x0c@\xe4|\x93\xda\x17\xcc\xef?'
p1843
tp1844
bsg52
(dp1845
sg148
g121
(g122
(I0
tp1846
g124
tp1847
Rp1848
(I1
(I2
I2
tp1849
g59
I00
S'\x00\x00\x00\x00\x00\x00\xf0\x7f\x00\x00\x00\x00\x00\x00\xf0\x7f\x00\x00\x00\x00\x00\x00\xf0\xff\x00\x00\x00\x00\x00\x00\xf0\xff'
p1850
tp1851
bsg155
g121
(g122
(I0
tp1852
g124
tp1853
Rp1854
(I1
(I2
I2
tp1855
g59
I00
S'\x00\xf6\xc0/\x0bX\x83\xbf\xe4|\x93\xda\x17\xcc\xef?\xf6\xc0/\x0bX\x13\x0c@X\xbdx5r\x07$@'
p1856
tp1857
bsg162
I01
sg51
g7
sbsS'transData'
p1858
g523
sg33
NsS'_sharey'
p1859
NsS'_sharex'
p1860
NsS'axesPatch'
p1861
g1287
sS'_ymargin'
p1862
F0.05
sS'_axes_locator'
p1863
Nsg103
g0
(g104
g105
((lp1864
(lp1865
tp1866
tp1867
Rp1868
sS'numCols'
p1869
I1
sg114
Nsg749
NsS'yaxis'
p1870
g0
(cmatplotlib.axis
YAxis
p1871
g2
Ntp1872
Rp1873
(dp1874
g6
g7
sg1348
g0
(g1349
g2
Ntp1875
Rp1876
(dp1877
g1353
g0
(g1354
g2
Ntp1878
Rp1879
(dp1880
g1358
I2
sg1359
I00
sg1360
g1361
sg1362
g121
(g122
(I0
tp1881
g124
tp1882
Rp1883
(I1
(I5
tp1884
g59
I00
S'\x00\x00\x00\x00\x00\x00\xf0?\x00\x00\x00\x00\x00\x00\x00@\x00\x00\x00\x00\x00\x00\x04@\x00\x00\x00\x00\x00\x00\x14@\x00\x00\x00\x00\x00\x00$@'
p1885
tp1886
bsg1369
Nsg1370
g121
(g122
(I0
tp1887
g124
tp1888
Rp1889
(I1
(I10
tp1890
g59
I00
S'\x9a\x99\x99\x99\x99\x99\xb9?\x9a\x99\x99\x99\x99\x99\xc9?\x00\x00\x00\x00\x00\x00\xd0?\x00\x00\x00\x00\x00\x00\xe0?\x00\x00\x00\x00\x00\x00\xf0?\x00\x00\x00\x00\x00\x00\x00@\x00\x00\x00\x00\x00\x00\x04@\x00\x00\x00\x00\x00\x00\x14@\x00\x00\x00\x00\x00\x00$@\x00\x00\x00\x00\x00\x004@'
p1891
tp1892
bsg1377
I00
sg1378
g1873
sbsg1379
g0
(g1380
g2
Ntp1893
Rp1894
(dp1895
g1384
g1385
sg1386
I0
sg1387
I01
sg1388
I00
sg1389
g7
sg1390
I00
sg1391
I4
sg1392
I0
sg854
I00
sg1393
I01
sg1378
g1873
sbsbsg1394
I00
sg1395
g0
(g1396
g2
Ntp1896
Rp1897
sg9
g4
sg8
I01
sg1399
I00
sg10
Nsg42
Nsg1400
I00
sg17
g18
sg20
I01
sg23
Nsg1401
g0
(g819
g2
Ntp1898
Rp1899
(dp1900
g6
g7
sg8
I01
sg9
g4
sg10
Nsg823
g0
(g824
g2
Ntp1901
Rp1902
(dp1903
g828
(lp1904
g830
asg831
Nsg832
g833
sg834
g833
sg835
F10.0
sg836
I400
sg837
g833
sbsg42
Nsg17
g18
sg838
Nsg20
I01
sg23
Nsg75
F0.5
sg76
I0
sg24
Nsg25
Nsg11
Nsg28
I00
sg29
I00
sg30
(dp1905
sg840
Nsg32
I00
sg738
Nsg88
Nsg737
Nsg841
Nsg33
Nsg96
Nsg86
I01
sg842
Vbaseline
p1906
sg844
V
p1907
sg846
Nsg103
g0
(g104
g105
((lp1908
(lp1909
tp1910
tp1911
Rp1912
sg111
I0
sg852
Nsg112
I01
sg114
Nsg853
F1.2
sg115
g656
sg854
I00
sg855
I00
sg43
Nsg856
V.15
p1913
sg858
Vleft
p1914
sg34
Nsbsg24
Nsg25
Nsg11
Nsg1419
g0
(g819
g2
Ntp1915
Rp1916
(dp1917
g6
g7
sg8
I01
sg9
g4
sg10
Nsg823
g0
(g824
g2
Ntp1918
Rp1919
(dp1920
g828
(lp1921
g830
asg831
Nsg832
g833
sg834
g833
sg835
F12.0
sg836
I400
sg837
g833
sbsg42
Nsg17
g18
sg838
Nsg20
I01
sg23
Nsg75
F0.5
sg76
I0
sg24
Nsg25
Nsg11
Nsg28
I00
sg29
I00
sg30
(dp1922
sg840
Nsg32
I00
sg738
Nsg88
Nsg737
Nsg841
Vanchor
p1923
sg33
Nsg96
Nsg86
I01
sg842
Vbottom
p1924
sg844
V$\u005cdelta_i$ (ms)
p1925
sg846
Nsg103
g0
(g104
g105
((lp1926
(lp1927
tp1928
tp1929
Rp1930
sg111
I0
sg852
Vvertical
p1931
sg112
I01
sg114
Nsg853
F1.2
sg115
g475
sg854
I00
sg855
I00
sg43
Nsg856
g1435
sg858
Vcenter
p1932
sg34
Nsbsg28
I00
sg1437
I01
sg29
I00
sg30
(dp1933
sg1439
Nsg32
I00
sg1440
g0
(g1349
g2
Ntp1934
Rp1935
(dp1936
g1353
g0
(g1444
g2
Ntp1937
Rp1938
(dp1939
g1378
g1873
sbsg1379
g0
(g1448
g2
Ntp1940
Rp1941
(dp1942
g1378
g1873
sbsbsg738
g797
sg1452
(dp1943
g1454
I01
sg1455
I00
sg1456
I00
sg1457
I01
sg1458
I00
ssg1459
I01
sg88
g448
sg33
Nsg1460
I00
sg1461
I1
sg1462
F4.0
sg1463
(lp1944
g0
(cmatplotlib.axis
YTick
p1945
g2
Ntp1946
Rp1947
(dp1948
g6
g7
sg40
F0.8
sg9
g4
sg1469
I01
sg8
I01
sg10
Nsg111
I0
sg42
Nsg1470
F3.5
sg1471
g1913
sg1472
I00
sg835
F0.0
sg17
g18
sg1473
Vout
p1949
sg1419
g0
(g819
g2
Ntp1950
Rp1951
(dp1952
g6
g7
sg8
I01
sg9
g4
sg10
Nsg823
g0
(g824
g2
Ntp1953
Rp1954
(dp1955
g828
(lp1956
g830
asg831
Nsg832
g833
sg834
g833
sg835
F10.0
sg836
I400
sg837
g833
sbsg42
Nsg17
g18
sg838
Nsg20
I01
sg23
Nsg75
I0
sg76
I0
sg24
Nsg25
Nsg11
Nsg28
I00
sg29
I00
sg30
(dp1957
sg840
Nsg32
I00
sg738
Nsg88
Nsg737
Nsg841
Nsg33
Nsg96
Nsg86
I01
sg842
Vcenter_baseline
p1958
sg844
V
p1959
sg846
Nsg103
g0
(g104
g105
((lp1960
(lp1961
tp1962
tp1963
Rp1964
sg111
I0
sg852
Nsg112
I01
sg114
Nsg853
F1.2
sg115
g552
sg854
I00
sg855
I00
sg43
Nsg856
g1913
sg858
Vright
p1965
sg34
Nsbsg20
I01
sg23
Nsg1491
I00
sg24
Nsg25
Nsg11
Nsg1492
I00
sg28
I00
sg29
I00
sg30
(dp1966
sg1494
(I0
I1
tp1967
sg32
I00
sg1496
F2.01
sg738
g797
sg1497
I01
sg88
Nsg737
Nsg1498
g1951
sg1499
g0
(g819
g2
Ntp1968
Rp1969
(dp1970
g6
g7
sg8
I01
sg9
g4
sg10
Nsg823
g0
(g824
g2
Ntp1971
Rp1972
(dp1973
g828
(lp1974
g830
asg831
Nsg832
g833
sg834
g833
sg835
F10.0
sg836
I400
sg837
g833
sbsg42
Nsg17
g18
sg838
Nsg20
I01
sg23
Nsg75
I0
sg76
I1
sg24
Nsg25
Nsg11
Nsg28
I00
sg29
I00
sg30
(dp1975
sg840
Nsg32
I00
sg738
Nsg88
Nsg737
Nsg841
Nsg33
Nsg96
Nsg86
I01
sg842
g1958
sg844
V
p1976
sg846
Nsg103
g0
(g104
g105
((lp1977
(lp1978
tp1979
tp1980
Rp1981
sg111
I0
sg852
Nsg112
I01
sg114
Nsg853
F1.2
sg115
g584
sg854
I00
sg855
I00
sg43
Nsg856
g1913
sg858
Vleft
p1982
sg34
Nsbsg96
Nsg1515
I0
sg86
I01
sg103
g0
(g104
g105
((lp1983
(lp1984
tp1985
tp1986
Rp1987
sg1521
F3.5
sg1522
g0
(g1523
g2
Ntp1988
Rp1989
(dp1990
g6
g7
sg1527
g1528
sg886
Nsg20
I01
sg1529
Nsg1530
I0
sg75
Nsg76
Nsg24
Nsg11
Nsg29
I00
sg30
(dp1991
sg32
I00
sg738
Nsg1532
F0.8
sg1533
Nsg1534
g1535
sg1536
g1537
sg96
Nsg86
I01
sg1538
(I0
tp1992
sg111
I0
sg112
I01
sg1540
I01
sg1541
I01
sg115
g544
sg1542
Nsg1013
F2.01
sg856
g1913
sg1543
I5
sg9
g4
sg1544
Nsg10
Nsg42
Nsg17
g18
sg1545
g1546
sg23
Nsg25
Nsg28
I00
sg1547
Nsg34
Nsg1548
Nsg1549
g0
(g1550
g2
Ntp1993
Rp1994
(dp1995
g1549
I0
sg1554
Nsg1555
F1.0
sg115
g0
(g163
g2
Ntp1996
Rp1997
(dp1998
g49
I2
sg50
Nsg120
g121
(g122
(I0
tp1999
g124
tp2000
Rp2001
(I1
(I3
I3
tp2002
g59
I00
S'\x00\x00\x00\x00\x00\x00\xf0\xbf\x00\x00\x00\x00\x00\x00\x00\x00\x00\x00\x00\x00\x00\x00\x00\x00\x00\x00\x00\x00\x00\x00\x00\x00\x00\x00\x00\x00\x00\x00\xf0?\x00\x00\x00\x00\x00\x00\x00\x00\x00\x00\x00\x00\x00\x00\x00\x00\x00\x00\x00\x00\x00\x00\x00\x00\x00\x00\x00\x00\x00\x00\xf0?'
p2003
tp2004
bsg51
g7
sg52
(dp2005
sbsg1566
I00
sg1567
g1568
sg1569
Nsg735
g1570
sg99
g1571
sg1572
g0
(g949
g2
Ntp2006
Rp2007
(dp2008
g953
I00
sg954
Nsg966
g121
(g122
(I0
tp2009
g124
tp2010
Rp2011
(I1
(I2
I2
tp2012
g59
I00
S'\x00\x00\x00\x00\x00\x00\x00\x00\x00\x00\x00\x00\x00\x00\x00\x00\x00\x00\x00\x00\x00\x00\xf0?\x00\x00\x00\x00\x00\x00\x00\x00'
p2013
tp2014
bsg973
I00
sg974
F0.1111111111111111
sg975
I1
sg976
I00
sbsbsg1582
g1583
sg88
Nsg33
Nsg92
I01
sg1584
Nsg101
VNone
p2015
sg103
g0
(g104
g105
((lp2016
(lp2017
tp2018
tp2019
Rp2020
sg1591
I00
sg1592
g1593
sg1594
g1546
sg1595
Nsg114
Nsg1596
g1546
sg1597
F0.0
sg8
I01
sg1598
Nsg43
Nsg737
Nsg1599
(I0
tp2021
sg87
F1.0
sg1572
Nsbsg112
I00
sg1601
g0
(g1523
g2
Ntp2022
Rp2023
(dp2024
g6
g7
sg8
I01
sg1594
g1546
sg9
g4
sg1527
g1528
sg886
Nsg10
Nsg42
Nsg17
g18
sg1545
g1546
sg20
I01
sg1529
Nsg23
Nsg75
g121
(g122
(I0
tp2025
g124
tp2026
Rp2027
(I1
(I2
tp2028
g59
I00
S'\x00\x00\x00\x00\x00\x00\x00\x00\x00\x00\x00\x00\x00\x00\x00\x00'
p2029
tp2030
bsg76
g121
(g122
(I0
tp2031
g124
tp2032
Rp2033
(I1
(I2
tp2034
g59
I00
S'\x00\x00\x00\x00\x00\x00\x00\x00\x00\x00\x00\x00\x00\x00\xf0?'
p2035
tp2036
bsg24
Nsg25
Nsg11
Nsg1538
(I0
I1
tp2037
sg28
I00
sg1547
Nsg29
I00
sg30
(dp2038
sg1544
Nsg32
I00
sg1591
I00
sg738
Nsg1548
Nsg1532
F1.0
sg1582
g1583
sg1533
Nsg856
g1619
sg1549
g0
(g1550
g2
Ntp2039
Rp2040
(dp2041
g1549
g1623
sg1554
Nsg1555
Nsg115
g0
(g45
g2
Ntp2042
Rp2043
(dp2044
g49
I1
sg50
Nsg51
g7
sg52
(dp2045
sbsg1566
I00
sg1567
g1568
sg1569
Nsg735
g1570
sg99
g1571
sg1572
g0
(g949
g2
Ntp2046
Rp2047
(dp2048
g953
I00
sg954
Nsg966
g121
(g122
(I0
tp2049
g124
tp2050
Rp2051
(I1
(I0
I2
tp2052
g59
I00
g1635
tp2053
bsg973
I00
sg974
F0.1111111111111111
sg975
I1
sg976
I00
sbsbsg33
Nsg1534
g1535
sg92
I01
sg1536
g1537
sg96
Nsg1597
F0.0
sg86
I01
sg1584
g121
(g122
(I0
tp2054
g124
tp2055
Rp2056
(I1
(I2
I2
tp2057
g59
I00
S'\x00\x00\x00\x00\x00\x00\x00\x00\x00\x00\x00\x00\x00\x00\x00\x00\x00\x00\x00\x00\x00\x00\xf0?\x00\x00\x00\x00\x00\x00\x00\x00'
p2058
tp2059
bsg101
g1643
sg103
g0
(g104
g105
((lp2060
(lp2061
tp2062
tp2063
Rp2064
sg111
I0
sg1592
g1593
sg1530
I0
sg1595
Nsg1543
I5
sg112
I01
sg114
F1.0
sg1596
g1546
sg1541
I00
sg115
g527
sg1598
Nsg1542
Nsg1540
I00
sg43
Nsg737
Nsg1599
(I0
I0
tp2065
sg88
Nsg87
F0.8
sg34
Nsg1572
g0
(g949
g2
Ntp2066
Rp2067
(dp2068
g953
I00
sg954
Nsg966
g2056
sg973
I00
sg974
F0.1111111111111111
sg975
I180
sg976
I00
sbsbsg114
Nsg33
Nsg1653
g0
(g1523
g2
Ntp2069
Rp2070
(dp2071
g6
g7
sg1527
g1528
sg886
Nsg20
I01
sg1529
Nsg1530
I0
sg75
Nsg76
Nsg24
Nsg11
Nsg29
I00
sg30
(dp2072
sg32
I00
sg738
Nsg1532
F0.8
sg1533
Nsg1534
g1535
sg1536
g1537
sg96
Nsg86
I01
sg1538
(I1
tp2073
sg111
I0
sg112
I01
sg1540
I01
sg1541
I01
sg115
g527
sg1542
Nsg1013
F2.01
sg856
g1913
sg1543
I5
sg9
g4
sg1544
Nsg10
Nsg42
Nsg17
g18
sg1545
g1546
sg23
Nsg25
Nsg28
I00
sg1547
Nsg34
Nsg1548
Nsg1549
g0
(g1550
g2
Ntp2074
Rp2075
(dp2076
g1549
I1
sg1554
Nsg1555
F1.0
sg115
g0
(g163
g2
Ntp2077
Rp2078
(dp2079
g49
I2
sg50
Nsg120
g121
(g122
(I0
tp2080
g124
tp2081
Rp2082
(I1
(I3
I3
tp2083
g59
I00
S'\x00\x00\x00\x00\x00\x00\xf0?\x00\x00\x00\x00\x00\x00\x00\x00\x00\x00\x00\x00\x00\x00\x00\x00\x00\x00\x00\x00\x00\x00\x00\x00\x00\x00\x00\x00\x00\x00\xf0?\x00\x00\x00\x00\x00\x00\x00\x00\x00\x00\x00\x00\x00\x00\x00\x00\x00\x00\x00\x00\x00\x00\x00\x00\x00\x00\x00\x00\x00\x00\xf0?'
p2084
tp2085
bsg51
g7
sg52
(dp2086
sbsg1566
I00
sg1567
g1568
sg1569
Nsg735
g1570
sg99
g1571
sg1572
g2007
sbsg1582
g1583
sg88
Nsg33
Nsg92
I01
sg1584
Nsg101
VNone
p2087
sg103
g0
(g104
g105
((lp2088
(lp2089
tp2090
tp2091
Rp2092
sg1591
I00
sg1592
g1593
sg1594
g1546
sg1595
Nsg114
Nsg1596
g1546
sg1597
F0.0
sg8
I01
sg1598
Nsg43
Nsg737
Nsg1599
(I0
tp2093
sg87
F1.0
sg1572
Nsbsg115
Nsg1679
F10.0
sg1680
Vytick
p2094
sg43
Nsg856
g1913
sg34
Nsbasg1682
I01
sg745
g0
(g746
g2
Ntp2095
Rp2096
I01
bsg96
Nsg86
I01
sg1685
I01
sg103
g0
(g104
g105
((lp2097
(lp2098
tp2099
tp2100
Rp2101
sg111
I0
sg1691
I1
sg1692
Nsg112
I00
sg114
Nsg1693
Vleft
p2102
sg115
Nsg1695
Vleft
p2103
sg43
Nsg737
Nsg1543
I15
sg1697
(lp2104
g0
(g1945
g2
Ntp2105
Rp2106
(dp2107
g6
g7
sg40
F0.6
sg9
g4
sg1469
I01
sg8
I01
sg10
Nsg111
I0
sg42
Nsg1470
F3.4
sg1471
g1913
sg1472
I00
sg835
F0.0
sg17
g18
sg1473
g1949
sg1419
g0
(g819
g2
Ntp2108
Rp2109
(dp2110
g6
g7
sg8
I01
sg9
g4
sg10
Nsg823
g0
(g824
g2
Ntp2111
Rp2112
(dp2113
g828
(lp2114
g830
asg831
Nsg832
g833
sg834
g833
sg835
F10.0
sg836
I400
sg837
g833
sbsg42
Nsg17
g18
sg838
Nsg20
I01
sg23
Nsg75
I0
sg76
I0
sg24
Nsg25
Nsg11
Nsg28
I00
sg29
I00
sg30
(dp2115
sg840
Nsg32
I00
sg738
Nsg88
Nsg737
Nsg841
Nsg33
Nsg96
Nsg86
I01
sg842
g1958
sg844
V
p2116
sg846
Nsg103
g0
(g104
g105
((lp2117
(lp2118
tp2119
tp2120
Rp2121
sg111
I0
sg852
Nsg112
I01
sg114
Nsg853
F1.2
sg115
g566
sg854
I00
sg855
I00
sg43
Nsg856
g1913
sg858
g1965
sg34
Nsbsg20
I01
sg23
Nsg1491
I00
sg24
Nsg25
Nsg11
Nsg1492
I00
sg28
I00
sg29
I00
sg30
(dp2122
sg1494
(I0
I1
tp2123
sg32
I00
sg1496
I2
sg738
g797
sg1497
I01
sg88
Nsg737
Nsg1498
g2109
sg1499
g0
(g819
g2
Ntp2124
Rp2125
(dp2126
g6
g7
sg8
I01
sg9
g4
sg10
Nsg823
g0
(g824
g2
Ntp2127
Rp2128
(dp2129
g828
(lp2130
g830
asg831
Nsg832
g833
sg834
g833
sg835
F10.0
sg836
I400
sg837
g833
sbsg42
Nsg17
g18
sg838
Nsg20
I01
sg23
Nsg75
I0
sg76
I1
sg24
Nsg25
Nsg11
Nsg28
I00
sg29
I00
sg30
(dp2131
sg840
Nsg32
I00
sg738
Nsg88
Nsg737
Nsg841
Nsg33
Nsg96
Nsg86
I01
sg842
g1958
sg844
V
p2132
sg846
Nsg103
g0
(g104
g105
((lp2133
(lp2134
tp2135
tp2136
Rp2137
sg111
I0
sg852
Nsg112
I01
sg114
Nsg853
F1.2
sg115
g575
sg854
I00
sg855
I00
sg43
Nsg856
g1913
sg858
g1982
sg34
Nsbsg96
Nsg1515
I0
sg86
I01
sg103
g0
(g104
g105
((lp2138
(lp2139
tp2140
tp2141
Rp2142
sg1521
F3.4
sg1522
g0
(g1523
g2
Ntp2143
Rp2144
(dp2145
g6
g7
sg1527
g1528
sg886
Nsg20
I01
sg1529
Nsg1530
I0
sg75
Nsg76
Nsg24
Nsg11
Nsg29
I00
sg30
(dp2146
sg32
I00
sg738
Nsg1532
F0.6
sg1533
Nsg1534
g1535
sg1536
g1537
sg96
Nsg86
I01
sg1538
g1992
sg111
I0
sg112
I01
sg1540
I01
sg1541
I01
sg115
g561
sg1542
Nsg1013
I2
sg856
g1913
sg1543
I5
sg9
g4
sg1544
Nsg10
Nsg42
Nsg17
g18
sg1545
g1546
sg23
Nsg25
Nsg28
I00
sg1547
Nsg34
Nsg1548
Nsg1549
g0
(g1550
g2
Ntp2147
Rp2148
(dp2149
g1549
I0
sg1554
Nsg1555
F1.0
sg115
g0
(g163
g2
Ntp2150
Rp2151
(dp2152
g49
I2
sg50
Nsg120
g121
(g122
(I0
tp2153
g124
tp2154
Rp2155
(I1
(I3
I3
tp2156
g59
I00
S'\x00\x00\x00\x00\x00\x00\xf0\xbf\x00\x00\x00\x00\x00\x00\x00\x00\x00\x00\x00\x00\x00\x00\x00\x00\x00\x00\x00\x00\x00\x00\x00\x00\x00\x00\x00\x00\x00\x00\xf0?\x00\x00\x00\x00\x00\x00\x00\x00\x00\x00\x00\x00\x00\x00\x00\x00\x00\x00\x00\x00\x00\x00\x00\x00\x00\x00\x00\x00\x00\x00\xf0?'
p2157
tp2158
bsg51
g7
sg52
(dp2159
sbsg1566
I00
sg1567
g1568
sg1569
Nsg735
g1570
sg99
g1571
sg1572
g2007
sbsg1582
g1583
sg88
Nsg33
Nsg92
I01
sg1584
Nsg101
g2015
sg103
g0
(g104
g105
((lp2160
(lp2161
tp2162
tp2163
Rp2164
sg1591
I00
sg1592
g1593
sg1594
g1546
sg1595
Nsg114
Nsg1596
g1546
sg1597
F0.0
sg8
I01
sg1598
Nsg43
Nsg737
Nsg1599
(I0
tp2165
sg87
F1.0
sg1572
Nsbsg112
I00
sg1601
g0
(g1523
g2
Ntp2166
Rp2167
(dp2168
g6
g7
sg8
I01
sg1594
g1546
sg9
g4
sg1527
g1528
sg886
Nsg10
Nsg42
Nsg17
g18
sg1545
g1546
sg20
I01
sg1529
Nsg23
Nsg75
g121
(g122
(I0
tp2169
g124
tp2170
Rp2171
(I1
(I2
tp2172
g59
I00
S'\x00\x00\x00\x00\x00\x00\x00\x00\x00\x00\x00\x00\x00\x00\x00\x00'
p2173
tp2174
bsg76
g121
(g122
(I0
tp2175
g124
tp2176
Rp2177
(I1
(I2
tp2178
g59
I00
S'\x00\x00\x00\x00\x00\x00\x00\x00\x00\x00\x00\x00\x00\x00\xf0?'
p2179
tp2180
bsg24
Nsg25
Nsg11
Nsg1538
g2037
sg28
I00
sg1547
Nsg29
I00
sg30
(dp2181
sg1544
Nsg32
I00
sg1591
I00
sg738
Nsg1548
Nsg1532
F1.0
sg1582
g1583
sg1533
Nsg856
g1619
sg1549
g0
(g1550
g2
Ntp2182
Rp2183
(dp2184
g1549
g1623
sg1554
Nsg1555
Nsg115
g0
(g45
g2
Ntp2185
Rp2186
(dp2187
g49
I1
sg50
Nsg51
g7
sg52
(dp2188
sbsg1566
I00
sg1567
g1568
sg1569
Nsg735
g1570
sg99
g1571
sg1572
g0
(g949
g2
Ntp2189
Rp2190
(dp2191
g953
I00
sg954
Nsg966
g121
(g122
(I0
tp2192
g124
tp2193
Rp2194
(I1
(I0
I2
tp2195
g59
I00
g1635
tp2196
bsg973
I00
sg974
F0.1111111111111111
sg975
I1
sg976
I00
sbsbsg33
Nsg1534
g1535
sg92
I01
sg1536
g1537
sg96
Nsg1597
F0.0
sg86
I01
sg1584
g121
(g122
(I0
tp2197
g124
tp2198
Rp2199
(I1
(I2
I2
tp2200
g59
I00
S'\x00\x00\x00\x00\x00\x00\x00\x00\x00\x00\x00\x00\x00\x00\x00\x00\x00\x00\x00\x00\x00\x00\xf0?\x00\x00\x00\x00\x00\x00\x00\x00'
p2201
tp2202
bsg101
g1643
sg103
g0
(g104
g105
((lp2203
(lp2204
tp2205
tp2206
Rp2207
sg111
I0
sg1592
g1593
sg1530
I0
sg1595
Nsg1543
I5
sg112
I01
sg114
F1.0
sg1596
g1546
sg1541
I00
sg115
g527
sg1598
Nsg1542
Nsg1540
I00
sg43
Nsg737
Nsg1599
g2065
sg88
Nsg87
F0.8
sg34
Nsg1572
g0
(g949
g2
Ntp2208
Rp2209
(dp2210
g953
I00
sg954
Nsg966
g2199
sg973
I00
sg974
F0.1111111111111111
sg975
I180
sg976
I00
sbsbsg114
Nsg33
Nsg1653
g0
(g1523
g2
Ntp2211
Rp2212
(dp2213
g6
g7
sg1527
g1528
sg886
Nsg20
I01
sg1529
Nsg1530
I0
sg75
Nsg76
Nsg24
Nsg11
Nsg29
I00
sg30
(dp2214
sg32
I00
sg738
Nsg1532
F0.6
sg1533
Nsg1534
g1535
sg1536
g1537
sg96
Nsg86
I01
sg1538
g2073
sg111
I0
sg112
I01
sg1540
I01
sg1541
I01
sg115
g527
sg1542
Nsg1013
I2
sg856
g1913
sg1543
I5
sg9
g4
sg1544
Nsg10
Nsg42
Nsg17
g18
sg1545
g1546
sg23
Nsg25
Nsg28
I00
sg1547
Nsg34
Nsg1548
Nsg1549
g0
(g1550
g2
Ntp2215
Rp2216
(dp2217
g1549
I1
sg1554
Nsg1555
F1.0
sg115
g0
(g163
g2
Ntp2218
Rp2219
(dp2220
g49
I2
sg50
Nsg120
g121
(g122
(I0
tp2221
g124
tp2222
Rp2223
(I1
(I3
I3
tp2224
g59
I00
S'\x00\x00\x00\x00\x00\x00\xf0?\x00\x00\x00\x00\x00\x00\x00\x00\x00\x00\x00\x00\x00\x00\x00\x00\x00\x00\x00\x00\x00\x00\x00\x00\x00\x00\x00\x00\x00\x00\xf0?\x00\x00\x00\x00\x00\x00\x00\x00\x00\x00\x00\x00\x00\x00\x00\x00\x00\x00\x00\x00\x00\x00\x00\x00\x00\x00\x00\x00\x00\x00\xf0?'
p2225
tp2226
bsg51
g7
sg52
(dp2227
sbsg1566
I00
sg1567
g1568
sg1569
Nsg735
g1570
sg99
g1571
sg1572
g2007
sbsg1582
g1583
sg88
Nsg33
Nsg92
I01
sg1584
Nsg101
g2087
sg103
g0
(g104
g105
((lp2228
(lp2229
tp2230
tp2231
Rp2232
sg1591
I00
sg1592
g1593
sg1594
g1546
sg1595
Nsg114
Nsg1596
g1546
sg1597
F0.0
sg8
I01
sg1598
Nsg43
Nsg737
Nsg1599
g2093
sg87
F1.0
sg1572
Nsbsg115
Nsg1679
F10.0
sg1680
g2094
sg43
Nsg856
g1913
sg34
Nsbasg34
Nsg1827
(dp2233
g1454
I01
sg1456
I00
sg1457
I01
sg1458
I00
ssg1829
I01
sbsS'_axisbelow'
p2234
I00
sg8
I01
sS'lines'
p2235
(lp2236
sS'_ycid'
p2237
I1
sS'spines'
p2238
ccollections
OrderedDict
p2239
((lp2240
(lp2241
Vleft
p2242
ag0
(cmatplotlib.spines
Spine
p2243
g2
Ntp2244
Rp2245
(dp2246
g6
g7
sg1400
I00
sg41
I01
sg9
g4
sS'_bounds'
p2247
Nsg8
I01
sg10
Nsg42
Nsg17
g18
sg43
Nsg20
I01
sg1378
g1873
sg44
g0
(g45
g2
Ntp2248
Rp2249
(dp2250
g49
I1
sg50
Nsg51
g7
sg52
(dp2251
sbsg54
(F0.15
F0.15
F0.15
F1.0
tp2252
sg23
Nsg24
Nsg77
V.15
p2253
sg11
Nsg28
I00
sg29
I00
sg30
(dp2254
sg733
(NNtp2255
sg1314
(S'outward'
p2256
I10
tp2257
sg32
I00
sg85
Nsg86
I01
sg87
F1.25
sS'_patch_type'
p2258
Vline
p2259
sg33
Nsg90
g2252
sg91
Nsg92
I01
sg93
Nsg94
Vnone
p2260
sg96
Nsg97
g1293
sg99
g100
sS'_patch_transform'
p2261
g0
(g45
g2
Ntp2262
Rp2263
(dp2264
g49
I1
sg50
Nsg51
g7
sg52
(dp2265
sbsg101
g102
sg103
g0
(g104
g105
((lp2266
(lp2267
tp2268
tp2269
Rp2270
sg111
I0
sS'_spine_transform'
p2271
(Vpost
p2272
g535
tp2273
sg112
I01
sg114
NsS'spine_type'
p2274
g2242
sg115
g540
sg88
Nsg1013
F2.5
sg735
Vprojecting
p2275
sg737
Nsg25
Nsg738
g797
sg34
Nsg1572
g0
(g949
g2
Ntp2276
Rp2277
(dp2278
g953
I00
sg954
Nsg966
g121
(g122
(I0
tp2279
g124
tp2280
Rp2281
(I1
(I2
I2
tp2282
g59
I00
S'\x00\x00\x00\x00\x00\x00\x00\x00\x00\x00\x00\x00\x00\x00*@\x00\x00\x00\x00\x00\x00\x00\x00\x00\x00\x00\x00\x00\x00*@'
p2283
tp2284
bsg973
I00
sg974
F0.1111111111111111
sg975
I1
sg976
I00
sbsbaa(lp2285
Vright
p2286
ag0
(g2243
g2
Ntp2287
Rp2288
(dp2289
g6
g7
sg1400
I00
sg41
I01
sg9
g4
sg2247
Nsg8
I00
sg10
Nsg42
Nsg17
g18
sg43
Nsg20
I01
sg1378
g1873
sg44
g0
(g45
g2
Ntp2290
Rp2291
(dp2292
g49
I1
sg50
Nsg51
g7
sg52
(dp2293
sbsg54
g2252
sg23
Nsg24
Nsg77
g2253
sg11
Nsg28
I00
sg29
I00
sg30
(dp2294
sg733
(NNtp2295
sg1314
(Voutward
p2296
F0.0
tp2297
sg32
I00
sg85
Nsg86
I01
sg87
F1.25
sg2258
g2259
sg33
Nsg90
g2252
sg91
Nsg92
I01
sg93
Nsg94
g2260
sg96
Nsg97
g1293
sg99
g100
sg2261
g0
(g45
g2
Ntp2298
Rp2299
(dp2300
g49
I1
sg50
Nsg51
g7
sg52
(dp2301
sbsg101
g102
sg103
g0
(g104
g105
((lp2302
(lp2303
tp2304
tp2305
Rp2306
sg111
I0
sg2271
(Videntity
p2307
g0
(g45
g2
Ntp2308
Rp2309
(dp2310
g49
I1
sg50
Nsg51
g7
sg52
(dp2311
sbtp2312
sg112
I01
sg114
Nsg2274
g2286
sg115
g527
sg88
Nsg1013
F2.5
sg735
g2275
sg737
Nsg25
Nsg738
g797
sg34
Nsg1572
g0
(g949
g2
Ntp2313
Rp2314
(dp2315
g953
I00
sg954
Nsg966
g121
(g122
(I0
tp2316
g124
tp2317
Rp2318
(I1
(I2
I2
tp2319
g59
I00
S'\x00\x00\x00\x00\x00\x00\xf0?\x00\x00\x00\x00\x00\x00*@\x00\x00\x00\x00\x00\x00\xf0?\x00\x00\x00\x00\x00\x00*@'
p2320
tp2321
bsg973
I00
sg974
F0.1111111111111111
sg975
I1
sg976
I00
sbsbaa(lp2322
Vbottom
p2323
ag0
(g2243
g2
Ntp2324
Rp2325
(dp2326
g6
g7
sg1400
I00
sg41
I01
sg9
g4
sg2247
Nsg8
I01
sg10
Nsg42
Nsg17
g18
sg43
Nsg20
I01
sg1378
g1346
sg44
g0
(g45
g2
Ntp2327
Rp2328
(dp2329
g49
I1
sg50
Nsg51
g7
sg52
(dp2330
sbsg54
g2252
sg23
Nsg24
Nsg77
g2253
sg11
Nsg28
I00
sg29
I00
sg30
(dp2331
sg733
(NNtp2332
sg1314
(g2256
I10
tp2333
sg32
I00
sg85
Nsg86
I01
sg87
F1.25
sg2258
g2259
sg33
Nsg90
g2252
sg91
Nsg92
I01
sg93
Nsg94
g2260
sg96
Nsg97
g1293
sg99
g100
sg2261
g0
(g45
g2
Ntp2334
Rp2335
(dp2336
g49
I1
sg50
Nsg51
g7
sg52
(dp2337
sbsg101
g102
sg103
g0
(g104
g105
((lp2338
(lp2339
tp2340
tp2341
Rp2342
sg111
I0
sg2271
(g2272
g676
tp2343
sg112
I01
sg114
Nsg2274
g2323
sg115
g673
sg88
Nsg1013
F2.5
sg735
g2275
sg737
Nsg25
Nsg738
g797
sg34
Nsg1572
g0
(g949
g2
Ntp2344
Rp2345
(dp2346
g953
I00
sg954
Nsg966
g121
(g122
(I0
tp2347
g124
tp2348
Rp2349
(I1
(I2
I2
tp2350
g59
I00
S'\x00\x00\x00\x00\x00\x00*@\x00\x00\x00\x00\x00\x00\x00\x00\x00\x00\x00\x00\x00\x00*@\x00\x00\x00\x00\x00\x00\x00\x00'
p2351
tp2352
bsg973
I00
sg974
F0.1111111111111111
sg975
I1
sg976
I00
sbsbaa(lp2353
Vtop
p2354
ag0
(g2243
g2
Ntp2355
Rp2356
(dp2357
g6
g7
sg1400
I00
sg41
I01
sg9
g4
sg2247
Nsg8
I00
sg10
Nsg42
Nsg17
g18
sg43
Nsg20
I01
sg1378
g1346
sg44
g0
(g45
g2
Ntp2358
Rp2359
(dp2360
g49
I1
sg50
Nsg51
g7
sg52
(dp2361
sbsg54
g2252
sg23
Nsg24
Nsg77
g2253
sg11
Nsg28
I00
sg29
I00
sg30
(dp2362
sg733
(NNtp2363
sg1314
g2297
sg32
I00
sg85
Nsg86
I01
sg87
F1.25
sg2258
g2259
sg33
Nsg90
g2252
sg91
Nsg92
I01
sg93
Nsg94
g2260
sg96
Nsg97
g1293
sg99
g100
sg2261
g0
(g45
g2
Ntp2364
Rp2365
(dp2366
g49
I1
sg50
Nsg51
g7
sg52
(dp2367
sbsg101
g102
sg103
g0
(g104
g105
((lp2368
(lp2369
tp2370
tp2371
Rp2372
sg111
I0
sg2271
(g2307
g0
(g45
g2
Ntp2373
Rp2374
(dp2375
g49
I1
sg50
Nsg51
g7
sg52
(dp2376
sbtp2377
sg112
I01
sg114
Nsg2274
g2354
sg115
g190
sg88
Nsg1013
F2.5
sg735
g2275
sg737
Nsg25
Nsg738
g797
sg34
Nsg1572
g0
(g949
g2
Ntp2378
Rp2379
(dp2380
g953
I00
sg954
Nsg966
g121
(g122
(I0
tp2381
g124
tp2382
Rp2383
(I1
(I2
I2
tp2384
g59
I00
S'\x00\x00\x00\x00\x00\x00*@\x00\x00\x00\x00\x00\x00\xf0?\x00\x00\x00\x00\x00\x00*@\x00\x00\x00\x00\x00\x00\xf0?'
p2385
tp2386
bsg973
I00
sg974
F0.1111111111111111
sg975
I1
sg976
I00
sbsbaatp2387
Rp2388
sS'_anchor'
p2389
VC
p2390
sg43
Nsg737
NsS'_use_sticky_edges'
p2391
I01
sbtp2392
tp2393
asS'_ind'
p2394
I1
sS'_pos'
p2395
I0
sbsg115
Nsg2235
(lp2396
sg1285
g38
sS'subplotpars'
p2397
g0
(cmatplotlib.figure
SubplotParams
p2398
g2
Ntp2399
Rp2400
(dp2401
g781
F0.9
sg783
F0.125
sg784
F0.88
sg785
F0.2
sS'validate'
p2402
I01
sg787
F0.2
sg789
F0.125
sbsg43
Nsg737
NsS'bbox_inches'
p2403
g138
sS'transFigure'
p2404
g118
sS'_dpi'
p2405
F72.0
sb.