ccopy_reg
_reconstructor
p0
(cmatplotlib.figure
Figure
p1
c__builtin__
object
p2
Ntp3
Rp4
(dp5
S'_label'
p6
V
p7
sS'_visible'
p8
I01
sS'figure'
p9
NsS'stale_callback'
p10
NsS'_rasterized'
p11
NsS'texts'
p12
(lp13
sS'_hold'
p14
I01
sS'artists'
p15
(lp16
sS'_path_effects'
p17
(lp18
sS'frameon'
p19
I01
sS'_clipon'
p20
I01
sV__mpl_version__
p21
S'2.0.2'
p22
sS'_clippath'
p23
NsS'_sketch'
p24
NsS'_contains'
p25
NsS'_tight_parameters'
p26
(dp27
sS'_mouseover'
p28
I00
sS'_animated'
p29
I00
sS'_propobservers'
p30
(dp31
sS'eventson'
p32
I00
sS'_picker'
p33
NsS'_remove_method'
p34
NsS'figurePatch'
p35
g0
(cmatplotlib.patches
Rectangle
p36
g2
Ntp37
Rp38
(dp39
g6
g7
sS'_width'
p40
F1.0
sS'_fill'
p41
I01
sg9
g4
sg8
I01
sg10
NsS'_agg_filter'
p42
Nsg17
g18
sS'_gid'
p43
Nsg20
I01
sS'_combined_transform'
p44
g0
(cmatplotlib.transforms
IdentityTransform
p45
g2
Ntp46
Rp47
(dp48
S'_invalid'
p49
I1
sS'_inverted'
p50
NsS'_shorthand_name'
p51
g7
sS'_parents'
p52
(dp53
sbsS'_edgecolor'
p54
(cnumpy.core.multiarray
scalar
p55
(cnumpy
dtype
p56
(S'f8'
p57
I0
I1
tp58
Rp59
(I3
S'<'
p60
NNNI-1
I-1
I0
tp61
bS'\x00\x00\x00\x00\x00\x00\xf0?'
p62
tp63
Rp64
g55
(g59
S'\x00\x00\x00\x00\x00\x00\xf0?'
p65
tp66
Rp67
g55
(g59
S'\x00\x00\x00\x00\x00\x00\xf0?'
p68
tp69
Rp70
g55
(g59
S'\x00\x00\x00\x00\x00\x00\x00\x00'
p71
tp72
Rp73
tp74
sg23
NsS'_y'
p75
F0.0
sS'_x'
p76
F0.0
sg24
NsS'_original_edgecolor'
p77
(I1
I1
I1
I0
tp78
sg11
Nsg28
I00
sg29
I00
sg30
(dp79
sS'_rect_transform'
p80
g0
(g45
g2
Ntp81
Rp82
(dp83
g49
I1
sg50
Nsg51
g7
sg52
(dp84
sbsg32
I00
sS'_hatch'
p85
NsS'_stale'
p86
I01
sS'_linewidth'
p87
F0.0
sS'clipbox'
p88
NsS'_height'
p89
F1.0
sg33
NsS'_hatch_color'
p90
g74
sS'_dashes'
p91
NsS'_antialiased'
p92
I00
sS'_dashoffset'
p93
NsS'_original_facecolor'
p94
Vwhite
p95
sS'_snap'
p96
NsS'_facecolor'
p97
(F1.0
F1.0
F1.0
F1.0
tp98
sS'_joinstyle'
p99
Vmiter
p100
sS'_linestyle'
p101
Vsolid
p102
sS'_sticky_edges'
p103
g0
(cmatplotlib.artist
_XYPair
p104
c__builtin__
tuple
p105
((lp106
(lp107
tp108
tp109
Rp110
sS'_oid'
p111
I0
sS'_transformSet'
p112
I01
sS'_angle'
p113
F0.0
sS'_alpha'
p114
NsS'_transform'
p115
g0
(cmatplotlib.transforms
BboxTransformTo
p116
g2
Ntp117
Rp118
(dp119
g49
I2
sS'_mtx'
p120
cnumpy.core.multiarray
_reconstruct
p121
(cnumpy
ndarray
p122
(I0
tp123
S'b'
p124
tp125
Rp126
(I1
(I3
I3
tp127
g59
I00
S'\x00\x00\x00\x00\x00\x00{@\x00\x00\x00\x00\x00\x00\x00\x00\x00\x00\x00\x00\x00\x00\x00\x00\x00\x00\x00\x00\x00\x00\x00\x00\x00\x00\x00\x00\x00\x00r@\x00\x00\x00\x00\x00\x00\x00\x00\x00\x00\x00\x00\x00\x00\x00\x00\x00\x00\x00\x00\x00\x00\x00\x00\x00\x00\x00\x00\x00\x00\xf0?'
p128
tp129
bsg50
NsS'_boxout'
p130
g0
(cmatplotlib.transforms
TransformedBbox
p131
g2
Ntp132
Rp133
(dp134
g49
I2
sS'_bbox'
p135
g0
(cmatplotlib.transforms
Bbox
p136
g2
Ntp137
Rp138
(dp139
g49
I2
sS'_minpos'
p140
g121
(g122
(I0
tp141
g124
tp142
Rp143
(I1
(I2
tp144
g59
I00
S'\x00\x00\x00\x00\x00\x00\xf0\x7f\x00\x00\x00\x00\x00\x00\xf0\x7f'
p145
tp146
bsg52
(dp147
I139867859527632
g133
ssS'_points_orig'
p148
g121
(g122
(I0
tp149
g124
tp150
Rp151
(I1
(I2
I2
tp152
g59
I00
S'\x00\x00\x00\x00\x00\x00\x00\x00\x00\x00\x00\x00\x00\x00\x00\x00\x00\x00\x00\x00\x00\x00\x18@\x00\x00\x00\x00\x00\x00\x10@'
p153
tp154
bsS'_points'
p155
g121
(g122
(I0
tp156
g124
tp157
Rp158
(I1
(I2
I2
tp159
g59
I00
S'\x00\x00\x00\x00\x00\x00\x00\x00\x00\x00\x00\x00\x00\x00\x00\x00\x00\x00\x00\x00\x00\x00\xf8?\x00\x00\x00\x00\x00\x00\xf8?'
p160
tp161
bsS'_ignore'
p162
I01
sg51
g7
sbsg115
g0
(cmatplotlib.transforms
Affine2D
p163
g2
Ntp164
Rp165
(dp166
g49
I0
sg50
Nsg120
g121
(g122
(I0
tp167
g124
tp168
Rp169
(I1
(I3
I3
tp170
g59
I00
S'\x00\x00\x00\x00\x00\x00R@\x00\x00\x00\x00\x00\x00\x00\x00\x00\x00\x00\x00\x00\x00\x00\x00\x00\x00\x00\x00\x00\x00\x00\x00\x00\x00\x00\x00\x00\x00R@\x00\x00\x00\x00\x00\x00\x00\x00\x00\x00\x00\x00\x00\x00\x00\x00\x00\x00\x00\x00\x00\x00\x00\x00\x00\x00\x00\x00\x00\x00\xf0?'
p171
tp172
bsg51
g7
sg52
(dp173
I139867859238736
g0
(cmatplotlib.transforms
ScaledTranslation
p174
g2
Ntp175
Rp176
(dp177
g49
I1
sg120
NsS'_scale_trans'
p178
g165
sg50
NsS'_t'
p179
(I0
F-0.04722222222222222
tp180
sg51
g7
sg52
(dp181
I139867859238416
g0
(cmatplotlib.transforms
CompositeGenericTransform
p182
g2
Ntp183
Rp184
(dp185
g49
I2
sS'input_dims'
p186
I2
sS'_a'
p187
g0
(cmatplotlib.transforms
BlendedGenericTransform
p188
g2
Ntp189
Rp190
(dp191
g49
I2
sg75
g0
(g116
g2
Ntp192
Rp193
(dp194
g49
I2
sg120
g121
(g122
(I0
tp195
g124
tp196
Rp197
(I1
(I3
I3
tp198
g59
I00
S'\xcd\xcc\xcc\xcc\xcc\xect@\x00\x00\x00\x00\x00\x00\x00\x00\x00\x00\x00\x00\x00\x00K@\x00\x00\x00\x00\x00\x00\x00\x00\xaeG\xe1z\x14.k@\x00\x00\x00\x00\x00\x00B@\x00\x00\x00\x00\x00\x00\x00\x00\x00\x00\x00\x00\x00\x00\x00\x00\x00\x00\x00\x00\x00\x00\xf0?'
p199
tp200
bsg50
g0
(g163
g2
Ntp201
Rp202
(dp203
g49
I0
sg50
Nsg120
g121
(g122
(I0
tp204
g124
tp205
Rp206
(I1
(I3
I3
tp207
g59
I00
S'\xe94\xb7\x15\xe5wh?\x00\x00\x00\x00\x00\x00\x00\x00\xa5\x94RJ)\xa5\xc4\xbf\x00\x00\x00\x00\x00\x00\x00\x00zYK\x90^\xd6r?\xa9\xc4Tb*1\xc5\xbf\x00\x00\x00\x00\x00\x00\x00\x00\x00\x00\x00\x00\x00\x00\x00\x00\x00\x00\x00\x00\x00\x00\xf0?'
p208
tp209
bsg51
g7
sg52
(dp210
sbsg130
g0
(g131
g2
Ntp211
Rp212
(dp213
g49
I2
sg135
g0
(g136
g2
Ntp214
Rp215
(dp216
g49
I0
sg140
g121
(g122
(I0
tp217
g124
tp218
Rp219
(I1
(I2
tp220
g59
I00
S'\x00\x00\x00\x00\x00\x00\xf0\x7f\x00\x00\x00\x00\x00\x00\xf0\x7f'
p221
tp222
bsg52
(dp223
I139867859529552
g212
ssg148
g121
(g122
(I0
tp224
g124
tp225
Rp226
(I1
(I2
I2
tp227
g59
I00
S'\x00\x00\x00\x00\x00\x00\xc0?\x00\x00\x00\x00\x00\x00\xc0?\xcd\xcc\xcc\xcc\xcc\xcc\xec?)\\\x8f\xc2\xf5(\xec?'
p228
tp229
bsg155
g121
(g122
(I0
tp230
g124
tp231
Rp232
(I1
(I2
I2
tp233
g59
I00
S'\x00\x00\x00\x00\x00\x00\xc0?\x00\x00\x00\x00\x00\x00\xc0?\xcd\xcc\xcc\xcc\xcc\xcc\xec?)\\\x8f\xc2\xf5(\xec?'
p234
tp235
bsg162
I01
sg51
g7
sbsg115
g118
sg155
g121
(g122
(I0
tp236
g124
tp237
Rp238
(I1
(I2
I2
tp239
g59
I00
S'\x00\x00\x00\x00\x00\x00K@\x00\x00\x00\x00\x00\x00B@\xcd\xcc\xcc\xcc\xccLx@\xaeG\xe1z\x14\xaeo@'
p240
tp241
bsg52
(dp242
I139867859083472
g193
ssg51
g7
sbsg52
(dp243
I139867858949200
g0
(g182
g2
Ntp244
Rp245
(dp246
g49
I2
sg186
I2
sg187
g0
(g182
g2
Ntp247
Rp248
(dp249
g49
I1
sg186
I2
sg187
g0
(g116
g2
Ntp250
Rp251
(dp252
g49
I1
sg120
Nsg50
Nsg130
g0
(g136
g2
Ntp253
Rp254
(dp255
g49
I1
sg140
g121
(g122
(I0
tp256
g124
tp257
Rp258
(I1
(I2
tp259
g59
I00
S'\x00\x00\x00\x00\x00\x00\xf0\x7f\x00\x00\x00\x00\x00\x00\xf0\x7f'
p260
tp261
bsg52
(dp262
I139867858949072
g251
ssg148
g121
(g122
(I0
tp263
g124
tp264
Rp265
(I1
(I2
I2
tp266
g59
I00
S'\x00\x00\x00\x00\x00\x00\x00\x00\x00\x00\x00\x00\x00\x00\x00\x00\x00\x00\x00\x00\x00\x00\xf0?\x00\x00\x00\x00\x00\x00\xf0?'
p267
tp268
bsg155
g121
(g122
(I0
tp269
g124
tp270
Rp271
(I1
(I2
I2
tp272
g59
I00
S'\x00\x00\x00\x00\x00\x00\x00\x00\x00\x00\x00\x00\x00\x00\x00\x00\x00\x00\x00\x00\x00\x00\xf0?\x00\x00\x00\x00\x00\x00\xf0?'
p273
tp274
bsg162
I01
sg51
g7
sbsg52
(dp275
I139867858949136
g248
ssg51
g7
sbsS'output_dims'
p276
I2
sS'_b'
p277
g0
(g163
g2
Ntp278
Rp279
(dp280
g49
I2
sg50
Nsg120
g121
(g122
(I0
tp281
g124
tp282
Rp283
(I1
(I3
I3
tp284
g59
I00
S'\x00\x00\x00\x00\x00\x00\xf0?\x00\x00\x00\x00\x00\x00\x00\x00\x00\x00\x00\x00\x00\x00\x00\x00\x00\x00\x00\x00\x00\x00\x00\x00\x00\x00\x00\x00\x00\x00\xf0?\x00\x00\x00\x00\x00\x00\x00\x00\x00\x00\x00\x00\x00\x00\x00\x00\x00\x00\x00\x00\x00\x00\x00\x00\x00\x00\x00\x00\x00\x00\xf0?'
p285
tp286
bsg51
g7
sg52
(dp287
I139867858949136
g248
ssbsg52
(dp288
I139867858949200
g245
ssg51
g7
sbsg276
I2
sg277
g193
sg52
(dp289
I139867858949264
g0
(g131
g2
Ntp290
Rp291
(dp292
g49
I2
sg135
g0
(g136
g2
Ntp293
Rp294
(dp295
g49
I1
sg140
g121
(g122
(I0
tp296
g124
tp297
Rp298
(I1
(I2
tp299
g59
I00
S'\x00\x00\x00\x00\x00\x00\xf0\x7f\x00\x00\x00\x00\x00\x00\xf0\x7f'
p300
tp301
bsg52
(dp302
I139867858949264
g291
ssg148
g121
(g122
(I0
tp303
g124
tp304
Rp305
(I1
(I2
I2
tp306
g59
I00
S'\x00\x00\x00\x00\x00\x00\x00\x00\x00\x00\x00\x00\x00\x00\x00\x00\x00\x00\x00\x00\x00\x00\xf0?\x00\x00\x00\x00\x00\x00\xf0?'
p307
tp308
bsg155
g121
(g122
(I0
tp309
g124
tp310
Rp311
(I1
(I2
I2
tp312
g59
I00
S'\x00\x00\x00\x00\x00\x00\x00\x00\x00\x00\x00\x00\x00\x00\x00\x00\x00\x00\x00\x00\x00\x00\xf0?\x00\x00\x00\x00\x00\x00\xf0?'
p313
tp314
bsg162
I01
sg51
g7
sbsg115
g245
sg155
Nsg52
(dp315
sg51
g7
sbssg51
g7
sbsI139867859543312
g0
(cmatplotlib.transforms
BlendedAffine2D
p316
g2
Ntp317
Rp318
(dp319
g49
I2
sg120
Nsg75
g0
(g45
g2
Ntp320
Rp321
(dp322
g49
I1
sg50
Nsg51
g7
sg52
(dp323
I139867859543312
g318
ssbsg76
g193
sg50
Nsg51
g7
sg52
(dp324
sbsI139867858842256
g0
(g182
g2
Ntp325
Rp326
(dp327
g49
I2
sg186
I2
sg187
g0
(g182
g2
Ntp328
Rp329
(dp330
g49
I1
sg186
I2
sg187
g0
(g116
g2
Ntp331
Rp332
(dp333
g49
I1
sg120
Nsg50
Nsg130
g0
(g136
g2
Ntp334
Rp335
(dp336
g49
I1
sg140
g121
(g122
(I0
tp337
g124
tp338
Rp339
(I1
(I2
tp340
g59
I00
S'\x00\x00\x00\x00\x00\x00\xf0\x7f\x00\x00\x00\x00\x00\x00\xf0\x7f'
p341
tp342
bsg52
(dp343
I139867858842128
g332
ssg148
g121
(g122
(I0
tp344
g124
tp345
Rp346
(I1
(I2
I2
tp347
g59
I00
S'\x00\x00\x00\x00\x00\x00\x00\x00\x00\x00\x00\x00\x00\x00\x00\x00\x00\x00\x00\x00\x00\x00\xf0?\x00\x00\x00\x00\x00\x00\xf0?'
p348
tp349
bsg155
g121
(g122
(I0
tp350
g124
tp351
Rp352
(I1
(I2
I2
tp353
g59
I00
S'\x00\x00\x00\x00\x00\x00\x00\x00\x00\x00\x00\x00\x00\x00\x00\x00\x00\x00\x00\x00\x00\x00\xf0?\x00\x00\x00\x00\x00\x00\xf0?'
p354
tp355
bsg162
I01
sg51
g7
sbsg52
(dp356
I139867858842192
g329
ssg51
g7
sbsg276
I2
sg277
g0
(g163
g2
Ntp357
Rp358
(dp359
g49
I2
sg50
Nsg120
g121
(g122
(I0
tp360
g124
tp361
Rp362
(I1
(I3
I3
tp363
g59
I00
S'\x00\x00\x00\x00\x00\x00\xf0?\x00\x00\x00\x00\x00\x00\x00\x00\x00\x00\x00\x00\x00\x00\x00\x00\x00\x00\x00\x00\x00\x00\x00\x00\x00\x00\x00\x00\x00\x00\xf0?\x00\x00\x00\x00\x00\x00\x00\x00\x00\x00\x00\x00\x00\x00\x00\x00\x00\x00\x00\x00\x00\x00\x00\x00\x00\x00\x00\x00\x00\x00\xf0?'
p364
tp365
bsg51
g7
sg52
(dp366
I139867858842192
g329
ssbsg52
(dp367
I139867858842256
g326
ssg51
g7
sbsg276
I2
sg277
g193
sg52
(dp368
I139867858842320
g0
(g131
g2
Ntp369
Rp370
(dp371
g49
I2
sg135
g0
(g136
g2
Ntp372
Rp373
(dp374
g49
I1
sg140
g121
(g122
(I0
tp375
g124
tp376
Rp377
(I1
(I2
tp378
g59
I00
S'\x00\x00\x00\x00\x00\x00\xf0\x7f\x00\x00\x00\x00\x00\x00\xf0\x7f'
p379
tp380
bsg52
(dp381
I139867858842320
g370
ssg148
g121
(g122
(I0
tp382
g124
tp383
Rp384
(I1
(I2
I2
tp385
g59
I00
S'\x00\x00\x00\x00\x00\x00\x00\x00\x00\x00\x00\x00\x00\x00\x00\x00\x00\x00\x00\x00\x00\x00\xf0?\x00\x00\x00\x00\x00\x00\xf0?'
p386
tp387
bsg155
g121
(g122
(I0
tp388
g124
tp389
Rp390
(I1
(I2
I2
tp391
g59
I00
S'\x00\x00\x00\x00\x00\x00\x00\x00\x00\x00\x00\x00\x00\x00\x00\x00\x00\x00\x00\x00\x00\x00\xf0?\x00\x00\x00\x00\x00\x00\xf0?'
p392
tp393
bsg162
I01
sg51
g7
sbsg115
g326
sg155
Nsg52
(dp394
sg51
g7
sbssg51
g7
sbsI139867859285904
g0
(g182
g2
Ntp395
Rp396
(dp397
g49
I2
sg186
I2
sg187
g0
(g182
g2
Ntp398
Rp399
(dp400
g49
I1
sg186
I2
sg187
g0
(g116
g2
Ntp401
Rp402
(dp403
g49
I1
sg120
Nsg50
Nsg130
g0
(g136
g2
Ntp404
Rp405
(dp406
g49
I1
sg140
g121
(g122
(I0
tp407
g124
tp408
Rp409
(I1
(I2
tp410
g59
I00
S'\x00\x00\x00\x00\x00\x00\xf0\x7f\x00\x00\x00\x00\x00\x00\xf0\x7f'
p411
tp412
bsg52
(dp413
I139867859285840
g402
ssg148
g121
(g122
(I0
tp414
g124
tp415
Rp416
(I1
(I2
I2
tp417
g59
I00
S'\x00\x00\x00\x00\x00\x00\x00\x00\x00\x00\x00\x00\x00\x00\x00\x00\x00\x00\x00\x00\x00\x00\xf0?\x00\x00\x00\x00\x00\x00\xf0?'
p418
tp419
bsg155
g121
(g122
(I0
tp420
g124
tp421
Rp422
(I1
(I2
I2
tp423
g59
I00
S'\x00\x00\x00\x00\x00\x00\x00\x00\x00\x00\x00\x00\x00\x00\x00\x00\x00\x00\x00\x00\x00\x00\xf0?\x00\x00\x00\x00\x00\x00\xf0?'
p424
tp425
bsg162
I01
sg51
g7
sbsg52
(dp426
I139867859285648
g399
ssg51
g7
sbsg276
I2
sg277
g0
(g163
g2
Ntp427
Rp428
(dp429
g49
I2
sg50
Nsg120
g121
(g122
(I0
tp430
g124
tp431
Rp432
(I1
(I3
I3
tp433
g59
I00
S'\x00\x00\x00\x00\x00\x00\xf0?\x00\x00\x00\x00\x00\x00\x00\x00\x00\x00\x00\x00\x00\x00\x00\x00\x00\x00\x00\x00\x00\x00\x00\x00\x00\x00\x00\x00\x00\x00\xf0?\x00\x00\x00\x00\x00\x00\x00\x00\x00\x00\x00\x00\x00\x00\x00\x00\x00\x00\x00\x00\x00\x00\x00\x00\x00\x00\x00\x00\x00\x00\xf0?'
p434
tp435
bsg51
g7
sg52
(dp436
I139867859285648
g399
ssbsg52
(dp437
I139867859285904
g396
ssg51
g7
sbsg276
I2
sg277
g193
sg52
(dp438
I139867859285968
g0
(g131
g2
Ntp439
Rp440
(dp441
g49
I2
sg135
g0
(g136
g2
Ntp442
Rp443
(dp444
g49
I1
sg140
g121
(g122
(I0
tp445
g124
tp446
Rp447
(I1
(I2
tp448
g59
I00
S'\x00\x00\x00\x00\x00\x00\xf0\x7f\x00\x00\x00\x00\x00\x00\xf0\x7f'
p449
tp450
bsg52
(dp451
I139867859285968
g440
ssg148
g121
(g122
(I0
tp452
g124
tp453
Rp454
(I1
(I2
I2
tp455
g59
I00
S'\x00\x00\x00\x00\x00\x00\x00\x00\x00\x00\x00\x00\x00\x00\x00\x00\x00\x00\x00\x00\x00\x00\xf0?\x00\x00\x00\x00\x00\x00\xf0?'
p456
tp457
bsg155
g121
(g122
(I0
tp458
g124
tp459
Rp460
(I1
(I2
I2
tp461
g59
I00
S'\x00\x00\x00\x00\x00\x00\x00\x00\x00\x00\x00\x00\x00\x00\x00\x00\x00\x00\x00\x00\x00\x00\xf0?\x00\x00\x00\x00\x00\x00\xf0?'
p462
tp463
bsg162
I01
sg51
g7
sbsg115
g396
sg155
Nsg52
(dp464
sg51
g7
sbssg51
g7
sbsI139867858949648
g0
(g182
g2
Ntp465
Rp466
(dp467
g49
I2
sg186
I2
sg187
g0
(g182
g2
Ntp468
Rp469
(dp470
g49
I1
sg186
I2
sg187
g0
(g116
g2
Ntp471
Rp472
(dp473
g49
I1
sg120
Nsg50
Nsg130
g0
(g136
g2
Ntp474
Rp475
(dp476
g49
I1
sg140
g121
(g122
(I0
tp477
g124
tp478
Rp479
(I1
(I2
tp480
g59
I00
S'\x00\x00\x00\x00\x00\x00\xf0\x7f\x00\x00\x00\x00\x00\x00\xf0\x7f'
p481
tp482
bsg52
(dp483
I139867858949520
g472
ssg148
g121
(g122
(I0
tp484
g124
tp485
Rp486
(I1
(I2
I2
tp487
g59
I00
S'\x00\x00\x00\x00\x00\x00\x00\x00\x00\x00\x00\x00\x00\x00\x00\x00\x00\x00\x00\x00\x00\x00\xf0?\x00\x00\x00\x00\x00\x00\xf0?'
p488
tp489
bsg155
g121
(g122
(I0
tp490
g124
tp491
Rp492
(I1
(I2
I2
tp493
g59
I00
S'\x00\x00\x00\x00\x00\x00\x00\x00\x00\x00\x00\x00\x00\x00\x00\x00\x00\x00\x00\x00\x00\x00\xf0?\x00\x00\x00\x00\x00\x00\xf0?'
p494
tp495
bsg162
I01
sg51
g7
sbsg52
(dp496
I139867858949584
g469
ssg51
g7
sbsg276
I2
sg277
g0
(g163
g2
Ntp497
Rp498
(dp499
g49
I2
sg50
Nsg120
g121
(g122
(I0
tp500
g124
tp501
Rp502
(I1
(I3
I3
tp503
g59
I00
S'\x00\x00\x00\x00\x00\x00\xf0?\x00\x00\x00\x00\x00\x00\x00\x00\x00\x00\x00\x00\x00\x00\x00\x00\x00\x00\x00\x00\x00\x00\x00\x00\x00\x00\x00\x00\x00\x00\xf0?\x00\x00\x00\x00\x00\x00\x00\x00\x00\x00\x00\x00\x00\x00\x00\x00\x00\x00\x00\x00\x00\x00\x00\x00\x00\x00\x00\x00\x00\x00\xf0?'
p504
tp505
bsg51
g7
sg52
(dp506
I139867858949584
g469
ssbsg52
(dp507
I139867858949648
g466
ssg51
g7
sbsg276
I2
sg277
g193
sg52
(dp508
I139867858949712
g0
(g131
g2
Ntp509
Rp510
(dp511
g49
I2
sg135
g0
(g136
g2
Ntp512
Rp513
(dp514
g49
I1
sg140
g121
(g122
(I0
tp515
g124
tp516
Rp517
(I1
(I2
tp518
g59
I00
S'\x00\x00\x00\x00\x00\x00\xf0\x7f\x00\x00\x00\x00\x00\x00\xf0\x7f'
p519
tp520
bsg52
(dp521
I139867858949712
g510
ssg148
g121
(g122
(I0
tp522
g124
tp523
Rp524
(I1
(I2
I2
tp525
g59
I00
S'\x00\x00\x00\x00\x00\x00\x00\x00\x00\x00\x00\x00\x00\x00\x00\x00\x00\x00\x00\x00\x00\x00\xf0?\x00\x00\x00\x00\x00\x00\xf0?'
p526
tp527
bsg155
g121
(g122
(I0
tp528
g124
tp529
Rp530
(I1
(I2
I2
tp531
g59
I00
S'\x00\x00\x00\x00\x00\x00\x00\x00\x00\x00\x00\x00\x00\x00\x00\x00\x00\x00\x00\x00\x00\x00\xf0?\x00\x00\x00\x00\x00\x00\xf0?'
p532
tp533
bsg162
I01
sg51
g7
sbsg115
g466
sg155
Nsg52
(dp534
sg51
g7
sbssg51
g7
sbsI139867858843152
g0
(g182
g2
Ntp535
Rp536
(dp537
g49
I2
sg186
I2
sg187
g0
(g182
g2
Ntp538
Rp539
(dp540
g49
I1
sg186
I2
sg187
g0
(g116
g2
Ntp541
Rp542
(dp543
g49
I1
sg120
Nsg50
Nsg130
g0
(g136
g2
Ntp544
Rp545
(dp546
g49
I1
sg140
g121
(g122
(I0
tp547
g124
tp548
Rp549
(I1
(I2
tp550
g59
I00
S'\x00\x00\x00\x00\x00\x00\xf0\x7f\x00\x00\x00\x00\x00\x00\xf0\x7f'
p551
tp552
bsg52
(dp553
I139867858843024
g542
ssg148
g121
(g122
(I0
tp554
g124
tp555
Rp556
(I1
(I2
I2
tp557
g59
I00
S'\x00\x00\x00\x00\x00\x00\x00\x00\x00\x00\x00\x00\x00\x00\x00\x00\x00\x00\x00\x00\x00\x00\xf0?\x00\x00\x00\x00\x00\x00\xf0?'
p558
tp559
bsg155
g121
(g122
(I0
tp560
g124
tp561
Rp562
(I1
(I2
I2
tp563
g59
I00
S'\x00\x00\x00\x00\x00\x00\x00\x00\x00\x00\x00\x00\x00\x00\x00\x00\x00\x00\x00\x00\x00\x00\xf0?\x00\x00\x00\x00\x00\x00\xf0?'
p564
tp565
bsg162
I01
sg51
g7
sbsg52
(dp566
I139867858843088
g539
ssg51
g7
sbsg276
I2
sg277
g0
(g163
g2
Ntp567
Rp568
(dp569
g49
I2
sg50
Nsg120
g121
(g122
(I0
tp570
g124
tp571
Rp572
(I1
(I3
I3
tp573
g59
I00
S'\x00\x00\x00\x00\x00\x00\xf0?\x00\x00\x00\x00\x00\x00\x00\x00\x00\x00\x00\x00\x00\x00\x00\x00\x00\x00\x00\x00\x00\x00\x00\x00\x00\x00\x00\x00\x00\x00\xf0?\x00\x00\x00\x00\x00\x00\x00\x00\x00\x00\x00\x00\x00\x00\x00\x00\x00\x00\x00\x00\x00\x00\x00\x00\x00\x00\x00\x00\x00\x00\xf0?'
p574
tp575
bsg51
g7
sg52
(dp576
I139867858843088
g539
ssbsg52
(dp577
I139867858843152
g536
ssg51
g7
sbsg276
I2
sg277
g193
sg52
(dp578
I139867858843216
g0
(g131
g2
Ntp579
Rp580
(dp581
g49
I2
sg135
g0
(g136
g2
Ntp582
Rp583
(dp584
g49
I1
sg140
g121
(g122
(I0
tp585
g124
tp586
Rp587
(I1
(I2
tp588
g59
I00
S'\x00\x00\x00\x00\x00\x00\xf0\x7f\x00\x00\x00\x00\x00\x00\xf0\x7f'
p589
tp590
bsg52
(dp591
I139867858843216
g580
ssg148
g121
(g122
(I0
tp592
g124
tp593
Rp594
(I1
(I2
I2
tp595
g59
I00
S'\x00\x00\x00\x00\x00\x00\x00\x00\x00\x00\x00\x00\x00\x00\x00\x00\x00\x00\x00\x00\x00\x00\xf0?\x00\x00\x00\x00\x00\x00\xf0?'
p596
tp597
bsg155
g121
(g122
(I0
tp598
g124
tp599
Rp600
(I1
(I2
I2
tp601
g59
I00
S'\x00\x00\x00\x00\x00\x00\x00\x00\x00\x00\x00\x00\x00\x00\x00\x00\x00\x00\x00\x00\x00\x00\xf0?\x00\x00\x00\x00\x00\x00\xf0?'
p602
tp603
bsg162
I01
sg51
g7
sbsg115
g536
sg155
Nsg52
(dp604
sg51
g7
sbssg51
g7
sbsI139867859195728
g0
(g182
g2
Ntp605
Rp606
(dp607
g49
I2
sg186
I2
sg187
g193
sg276
I2
sg277
g0
(g174
g2
Ntp608
Rp609
(dp610
g49
I1
sg120
Nsg178
g165
sg50
Nsg179
(F0.0
F0.08333333333333333
tp611
sg51
g7
sg52
(dp612
I139867859195920
g0
(g182
g2
Ntp613
Rp614
(dp615
g49
I2
sg186
I2
sg187
g193
sg276
I2
sg277
g609
sg52
(dp616
sg51
g7
sbsI139867859195792
g0
(g182
g2
Ntp617
Rp618
(dp619
g49
I2
sg186
I2
sg187
g193
sg276
I2
sg277
g609
sg52
(dp620
sg51
g7
sbsI139867859195728
g606
ssbsg52
(dp621
sg51
g7
sbsI139867859195792
g618
sI139867859085264
g0
(g316
g2
Ntp622
Rp623
(dp624
g49
I2
sg120
Nsg75
g193
sg76
g0
(g45
g2
Ntp625
Rp626
(dp627
g49
I1
sg50
Nsg51
g7
sg52
(dp628
I139867859085264
g623
ssbsg50
Nsg51
g7
sg52
(dp629
sbsI139867859195920
g614
sI139867859085520
g0
(g316
g2
Ntp630
Rp631
(dp632
g49
I2
sg120
Nsg75
g0
(g45
g2
Ntp633
Rp634
(dp635
g49
I1
sg50
Nsg51
g7
sg52
(dp636
I139867859085520
g631
ssbsg76
g193
sg50
Nsg51
g7
sg52
(dp637
sbsI139867859544336
g0
(g316
g2
Ntp638
Rp639
(dp640
g49
I2
sg120
Nsg75
g0
(g45
g2
Ntp641
Rp642
(dp643
g49
I1
sg50
Nsg51
g7
sg52
(dp644
I139867859544336
g639
ssbsg76
g193
sg50
Nsg51
g7
sg52
(dp645
sbsI139867858844048
g0
(g182
g2
Ntp646
Rp647
(dp648
g49
I2
sg186
I2
sg187
g0
(g182
g2
Ntp649
Rp650
(dp651
g49
I1
sg186
I2
sg187
g0
(g116
g2
Ntp652
Rp653
(dp654
g49
I1
sg120
Nsg50
Nsg130
g0
(g136
g2
Ntp655
Rp656
(dp657
g49
I1
sg140
g121
(g122
(I0
tp658
g124
tp659
Rp660
(I1
(I2
tp661
g59
I00
S'\x00\x00\x00\x00\x00\x00\xf0\x7f\x00\x00\x00\x00\x00\x00\xf0\x7f'
p662
tp663
bsg52
(dp664
I139867858843920
g653
ssg148
g121
(g122
(I0
tp665
g124
tp666
Rp667
(I1
(I2
I2
tp668
g59
I00
S'\x00\x00\x00\x00\x00\x00\x00\x00\x00\x00\x00\x00\x00\x00\x00\x00\x00\x00\x00\x00\x00\x00\xf0?\x00\x00\x00\x00\x00\x00\xf0?'
p669
tp670
bsg155
g121
(g122
(I0
tp671
g124
tp672
Rp673
(I1
(I2
I2
tp674
g59
I00
S'\x00\x00\x00\x00\x00\x00\x00\x00\x00\x00\x00\x00\x00\x00\x00\x00\x00\x00\x00\x00\x00\x00\xf0?\x00\x00\x00\x00\x00\x00\xf0?'
p675
tp676
bsg162
I01
sg51
g7
sbsg52
(dp677
I139867858843984
g650
ssg51
g7
sbsg276
I2
sg277
g0
(g163
g2
Ntp678
Rp679
(dp680
g49
I2
sg50
Nsg120
g121
(g122
(I0
tp681
g124
tp682
Rp683
(I1
(I3
I3
tp684
g59
I00
S'\x00\x00\x00\x00\x00\x00\xf0?\x00\x00\x00\x00\x00\x00\x00\x00\x00\x00\x00\x00\x00\x00\x00\x00\x00\x00\x00\x00\x00\x00\x00\x00\x00\x00\x00\x00\x00\x00\xf0?\x00\x00\x00\x00\x00\x00\x00\x00\x00\x00\x00\x00\x00\x00\x00\x00\x00\x00\x00\x00\x00\x00\x00\x00\x00\x00\x00\x00\x00\x00\xf0?'
p685
tp686
bsg51
g7
sg52
(dp687
I139867858843984
g650
ssbsg52
(dp688
I139867858844048
g647
ssg51
g7
sbsg276
I2
sg277
g193
sg52
(dp689
I139867858844112
g0
(g131
g2
Ntp690
Rp691
(dp692
g49
I2
sg135
g0
(g136
g2
Ntp693
Rp694
(dp695
g49
I1
sg140
g121
(g122
(I0
tp696
g124
tp697
Rp698
(I1
(I2
tp699
g59
I00
S'\x00\x00\x00\x00\x00\x00\xf0\x7f\x00\x00\x00\x00\x00\x00\xf0\x7f'
p700
tp701
bsg52
(dp702
I139867858844112
g691
ssg148
g121
(g122
(I0
tp703
g124
tp704
Rp705
(I1
(I2
I2
tp706
g59
I00
S'\x00\x00\x00\x00\x00\x00\x00\x00\x00\x00\x00\x00\x00\x00\x00\x00\x00\x00\x00\x00\x00\x00\xf0?\x00\x00\x00\x00\x00\x00\xf0?'
p707
tp708
bsg155
g121
(g122
(I0
tp709
g124
tp710
Rp711
(I1
(I2
I2
tp712
g59
I00
S'\x00\x00\x00\x00\x00\x00\x00\x00\x00\x00\x00\x00\x00\x00\x00\x00\x00\x00\x00\x00\x00\x00\xf0?\x00\x00\x00\x00\x00\x00\xf0?'
p713
tp714
bsg162
I01
sg51
g7
sbsg115
g647
sg155
Nsg52
(dp715
sg51
g7
sbssg51
g7
sbsI139867858950672
g0
(g182
g2
Ntp716
Rp717
(dp718
g49
I2
sg186
I2
sg187
g0
(g182
g2
Ntp719
Rp720
(dp721
g49
I1
sg186
I2
sg187
g0
(g116
g2
Ntp722
Rp723
(dp724
g49
I1
sg120
Nsg50
Nsg130
g0
(g136
g2
Ntp725
Rp726
(dp727
g49
I1
sg140
g121
(g122
(I0
tp728
g124
tp729
Rp730
(I1
(I2
tp731
g59
I00
S'\x00\x00\x00\x00\x00\x00\xf0\x7f\x00\x00\x00\x00\x00\x00\xf0\x7f'
p732
tp733
bsg52
(dp734
I139867858950544
g723
ssg148
g121
(g122
(I0
tp735
g124
tp736
Rp737
(I1
(I2
I2
tp738
g59
I00
S'\x00\x00\x00\x00\x00\x00\x00\x00\x00\x00\x00\x00\x00\x00\x00\x00\x00\x00\x00\x00\x00\x00\xf0?\x00\x00\x00\x00\x00\x00\xf0?'
p739
tp740
bsg155
g121
(g122
(I0
tp741
g124
tp742
Rp743
(I1
(I2
I2
tp744
g59
I00
S'\x00\x00\x00\x00\x00\x00\x00\x00\x00\x00\x00\x00\x00\x00\x00\x00\x00\x00\x00\x00\x00\x00\xf0?\x00\x00\x00\x00\x00\x00\xf0?'
p745
tp746
bsg162
I01
sg51
g7
sbsg52
(dp747
I139867858950608
g720
ssg51
g7
sbsg276
I2
sg277
g0
(g163
g2
Ntp748
Rp749
(dp750
g49
I2
sg50
Nsg120
g121
(g122
(I0
tp751
g124
tp752
Rp753
(I1
(I3
I3
tp754
g59
I00
S'\x00\x00\x00\x00\x00\x00\xf0?\x00\x00\x00\x00\x00\x00\x00\x00\x00\x00\x00\x00\x00\x00\x00\x00\x00\x00\x00\x00\x00\x00\x00\x00\x00\x00\x00\x00\x00\x00\xf0?\x00\x00\x00\x00\x00\x00\x00\x00\x00\x00\x00\x00\x00\x00\x00\x00\x00\x00\x00\x00\x00\x00\x00\x00\x00\x00\x00\x00\x00\x00\xf0?'
p755
tp756
bsg51
g7
sg52
(dp757
I139867858950608
g720
ssbsg52
(dp758
I139867858950672
g717
ssg51
g7
sbsg276
I2
sg277
g193
sg52
(dp759
I139867858950736
g0
(g131
g2
Ntp760
Rp761
(dp762
g49
I2
sg135
g0
(g136
g2
Ntp763
Rp764
(dp765
g49
I1
sg140
g121
(g122
(I0
tp766
g124
tp767
Rp768
(I1
(I2
tp769
g59
I00
S'\x00\x00\x00\x00\x00\x00\xf0\x7f\x00\x00\x00\x00\x00\x00\xf0\x7f'
p770
tp771
bsg52
(dp772
I139867858950736
g761
ssg148
g121
(g122
(I0
tp773
g124
tp774
Rp775
(I1
(I2
I2
tp776
g59
I00
S'\x00\x00\x00\x00\x00\x00\x00\x00\x00\x00\x00\x00\x00\x00\x00\x00\x00\x00\x00\x00\x00\x00\xf0?\x00\x00\x00\x00\x00\x00\xf0?'
p777
tp778
bsg155
g121
(g122
(I0
tp779
g124
tp780
Rp781
(I1
(I2
I2
tp782
g59
I00
S'\x00\x00\x00\x00\x00\x00\x00\x00\x00\x00\x00\x00\x00\x00\x00\x00\x00\x00\x00\x00\x00\x00\xf0?\x00\x00\x00\x00\x00\x00\xf0?'
p783
tp784
bsg162
I01
sg51
g7
sbsg115
g717
sg155
Nsg52
(dp785
sg51
g7
sbssg51
g7
sbsI139867858844496
g0
(g182
g2
Ntp786
Rp787
(dp788
g49
I2
sg186
I2
sg187
g0
(g182
g2
Ntp789
Rp790
(dp791
g49
I1
sg186
I2
sg187
g0
(g116
g2
Ntp792
Rp793
(dp794
g49
I1
sg120
Nsg50
Nsg130
g0
(g136
g2
Ntp795
Rp796
(dp797
g49
I1
sg140
g121
(g122
(I0
tp798
g124
tp799
Rp800
(I1
(I2
tp801
g59
I00
S'\x00\x00\x00\x00\x00\x00\xf0\x7f\x00\x00\x00\x00\x00\x00\xf0\x7f'
p802
tp803
bsg52
(dp804
I139867858844368
g793
ssg148
g121
(g122
(I0
tp805
g124
tp806
Rp807
(I1
(I2
I2
tp808
g59
I00
S'\x00\x00\x00\x00\x00\x00\x00\x00\x00\x00\x00\x00\x00\x00\x00\x00\x00\x00\x00\x00\x00\x00\xf0?\x00\x00\x00\x00\x00\x00\xf0?'
p809
tp810
bsg155
g121
(g122
(I0
tp811
g124
tp812
Rp813
(I1
(I2
I2
tp814
g59
I00
S'\x00\x00\x00\x00\x00\x00\x00\x00\x00\x00\x00\x00\x00\x00\x00\x00\x00\x00\x00\x00\x00\x00\xf0?\x00\x00\x00\x00\x00\x00\xf0?'
p815
tp816
bsg162
I01
sg51
g7
sbsg52
(dp817
I139867858844432
g790
ssg51
g7
sbsg276
I2
sg277
g0
(g163
g2
Ntp818
Rp819
(dp820
g49
I2
sg50
Nsg120
g121
(g122
(I0
tp821
g124
tp822
Rp823
(I1
(I3
I3
tp824
g59
I00
S'\x00\x00\x00\x00\x00\x00\xf0?\x00\x00\x00\x00\x00\x00\x00\x00\x00\x00\x00\x00\x00\x00\x00\x00\x00\x00\x00\x00\x00\x00\x00\x00\x00\x00\x00\x00\x00\x00\xf0?\x00\x00\x00\x00\x00\x00\x00\x00\x00\x00\x00\x00\x00\x00\x00\x00\x00\x00\x00\x00\x00\x00\x00\x00\x00\x00\x00\x00\x00\x00\xf0?'
p825
tp826
bsg51
g7
sg52
(dp827
I139867858844432
g790
ssbsg52
(dp828
I139867858844496
g787
ssg51
g7
sbsg276
I2
sg277
g193
sg52
(dp829
I139867858844560
g0
(g131
g2
Ntp830
Rp831
(dp832
g49
I2
sg135
g0
(g136
g2
Ntp833
Rp834
(dp835
g49
I1
sg140
g121
(g122
(I0
tp836
g124
tp837
Rp838
(I1
(I2
tp839
g59
I00
S'\x00\x00\x00\x00\x00\x00\xf0\x7f\x00\x00\x00\x00\x00\x00\xf0\x7f'
p840
tp841
bsg52
(dp842
I139867858844560
g831
ssg148
g121
(g122
(I0
tp843
g124
tp844
Rp845
(I1
(I2
I2
tp846
g59
I00
S'\x00\x00\x00\x00\x00\x00\x00\x00\x00\x00\x00\x00\x00\x00\x00\x00\x00\x00\x00\x00\x00\x00\xf0?\x00\x00\x00\x00\x00\x00\xf0?'
p847
tp848
bsg155
g121
(g122
(I0
tp849
g124
tp850
Rp851
(I1
(I2
I2
tp852
g59
I00
S'\x00\x00\x00\x00\x00\x00\x00\x00\x00\x00\x00\x00\x00\x00\x00\x00\x00\x00\x00\x00\x00\x00\xf0?\x00\x00\x00\x00\x00\x00\xf0?'
p853
tp854
bsg162
I01
sg51
g7
sbsg115
g787
sg155
Nsg52
(dp855
sg51
g7
sbssg51
g7
sbsI139867858841808
g0
(g182
g2
Ntp856
Rp857
(dp858
g49
I2
sg186
I2
sg187
g0
(g182
g2
Ntp859
Rp860
(dp861
g49
I1
sg186
I2
sg187
g0
(g116
g2
Ntp862
Rp863
(dp864
g49
I1
sg120
Nsg50
Nsg130
g0
(g136
g2
Ntp865
Rp866
(dp867
g49
I1
sg140
g121
(g122
(I0
tp868
g124
tp869
Rp870
(I1
(I2
tp871
g59
I00
S'\x00\x00\x00\x00\x00\x00\xf0\x7f\x00\x00\x00\x00\x00\x00\xf0\x7f'
p872
tp873
bsg52
(dp874
I139867858841680
g863
ssg148
g121
(g122
(I0
tp875
g124
tp876
Rp877
(I1
(I2
I2
tp878
g59
I00
S'\x00\x00\x00\x00\x00\x00\x00\x00\x00\x00\x00\x00\x00\x00\x00\x00\x00\x00\x00\x00\x00\x00\xf0?\x00\x00\x00\x00\x00\x00\xf0?'
p879
tp880
bsg155
g121
(g122
(I0
tp881
g124
tp882
Rp883
(I1
(I2
I2
tp884
g59
I00
S'\x00\x00\x00\x00\x00\x00\x00\x00\x00\x00\x00\x00\x00\x00\x00\x00\x00\x00\x00\x00\x00\x00\xf0?\x00\x00\x00\x00\x00\x00\xf0?'
p885
tp886
bsg162
I01
sg51
g7
sbsg52
(dp887
I139867858841744
g860
ssg51
g7
sbsg276
I2
sg277
g0
(g163
g2
Ntp888
Rp889
(dp890
g49
I2
sg50
Nsg120
g121
(g122
(I0
tp891
g124
tp892
Rp893
(I1
(I3
I3
tp894
g59
I00
S'\x00\x00\x00\x00\x00\x00\xf0?\x00\x00\x00\x00\x00\x00\x00\x00\x00\x00\x00\x00\x00\x00\x00\x00\x00\x00\x00\x00\x00\x00\x00\x00\x00\x00\x00\x00\x00\x00\xf0?\x00\x00\x00\x00\x00\x00\x00\x00\x00\x00\x00\x00\x00\x00\x00\x00\x00\x00\x00\x00\x00\x00\x00\x00\x00\x00\x00\x00\x00\x00\xf0?'
p895
tp896
bsg51
g7
sg52
(dp897
I139867858841744
g860
ssbsg52
(dp898
I139867858841808
g857
ssg51
g7
sbsg276
I2
sg277
g193
sg52
(dp899
I139867858841872
g0
(g131
g2
Ntp900
Rp901
(dp902
g49
I2
sg135
g0
(g136
g2
Ntp903
Rp904
(dp905
g49
I1
sg140
g121
(g122
(I0
tp906
g124
tp907
Rp908
(I1
(I2
tp909
g59
I00
S'\x00\x00\x00\x00\x00\x00\xf0\x7f\x00\x00\x00\x00\x00\x00\xf0\x7f'
p910
tp911
bsg52
(dp912
I139867858841872
g901
ssg148
g121
(g122
(I0
tp913
g124
tp914
Rp915
(I1
(I2
I2
tp916
g59
I00
S'\x00\x00\x00\x00\x00\x00\x00\x00\x00\x00\x00\x00\x00\x00\x00\x00\x00\x00\x00\x00\x00\x00\xf0?\x00\x00\x00\x00\x00\x00\xf0?'
p917
tp918
bsg155
g121
(g122
(I0
tp919
g124
tp920
Rp921
(I1
(I2
I2
tp922
g59
I00
S'\x00\x00\x00\x00\x00\x00\x00\x00\x00\x00\x00\x00\x00\x00\x00\x00\x00\x00\x00\x00\x00\x00\xf0?\x00\x00\x00\x00\x00\x00\xf0?'
p923
tp924
bsg162
I01
sg51
g7
sbsg115
g857
sg155
Nsg52
(dp925
sg51
g7
sbssg51
g7
sbsI139867858844944
g0
(g182
g2
Ntp926
Rp927
(dp928
g49
I2
sg186
I2
sg187
g0
(g182
g2
Ntp929
Rp930
(dp931
g49
I1
sg186
I2
sg187
g0
(g116
g2
Ntp932
Rp933
(dp934
g49
I1
sg120
Nsg50
Nsg130
g0
(g136
g2
Ntp935
Rp936
(dp937
g49
I1
sg140
g121
(g122
(I0
tp938
g124
tp939
Rp940
(I1
(I2
tp941
g59
I00
S'\x00\x00\x00\x00\x00\x00\xf0\x7f\x00\x00\x00\x00\x00\x00\xf0\x7f'
p942
tp943
bsg52
(dp944
I139867858844816
g933
ssg148
g121
(g122
(I0
tp945
g124
tp946
Rp947
(I1
(I2
I2
tp948
g59
I00
S'\x00\x00\x00\x00\x00\x00\x00\x00\x00\x00\x00\x00\x00\x00\x00\x00\x00\x00\x00\x00\x00\x00\xf0?\x00\x00\x00\x00\x00\x00\xf0?'
p949
tp950
bsg155
g121
(g122
(I0
tp951
g124
tp952
Rp953
(I1
(I2
I2
tp954
g59
I00
S'\x00\x00\x00\x00\x00\x00\x00\x00\x00\x00\x00\x00\x00\x00\x00\x00\x00\x00\x00\x00\x00\x00\xf0?\x00\x00\x00\x00\x00\x00\xf0?'
p955
tp956
bsg162
I01
sg51
g7
sbsg52
(dp957
I139867858844880
g930
ssg51
g7
sbsg276
I2
sg277
g0
(g163
g2
Ntp958
Rp959
(dp960
g49
I2
sg50
Nsg120
g121
(g122
(I0
tp961
g124
tp962
Rp963
(I1
(I3
I3
tp964
g59
I00
S'\x00\x00\x00\x00\x00\x00\xf0?\x00\x00\x00\x00\x00\x00\x00\x00\x00\x00\x00\x00\x00\x00\x00\x00\x00\x00\x00\x00\x00\x00\x00\x00\x00\x00\x00\x00\x00\x00\xf0?\x00\x00\x00\x00\x00\x00\x00\x00\x00\x00\x00\x00\x00\x00\x00\x00\x00\x00\x00\x00\x00\x00\x00\x00\x00\x00\x00\x00\x00\x00\xf0?'
p965
tp966
bsg51
g7
sg52
(dp967
I139867858844880
g930
ssbsg52
(dp968
I139867858844944
g927
ssg51
g7
sbsg276
I2
sg277
g193
sg52
(dp969
I139867858845008
g0
(g131
g2
Ntp970
Rp971
(dp972
g49
I2
sg135
g0
(g136
g2
Ntp973
Rp974
(dp975
g49
I1
sg140
g121
(g122
(I0
tp976
g124
tp977
Rp978
(I1
(I2
tp979
g59
I00
S'\x00\x00\x00\x00\x00\x00\xf0\x7f\x00\x00\x00\x00\x00\x00\xf0\x7f'
p980
tp981
bsg52
(dp982
I139867858845008
g971
ssg148
g121
(g122
(I0
tp983
g124
tp984
Rp985
(I1
(I2
I2
tp986
g59
I00
S'\x00\x00\x00\x00\x00\x00\x00\x00\x00\x00\x00\x00\x00\x00\x00\x00\x00\x00\x00\x00\x00\x00\xf0?\x00\x00\x00\x00\x00\x00\xf0?'
p987
tp988
bsg155
g121
(g122
(I0
tp989
g124
tp990
Rp991
(I1
(I2
I2
tp992
g59
I00
S'\x00\x00\x00\x00\x00\x00\x00\x00\x00\x00\x00\x00\x00\x00\x00\x00\x00\x00\x00\x00\x00\x00\xf0?\x00\x00\x00\x00\x00\x00\xf0?'
p993
tp994
bsg162
I01
sg51
g7
sbsg115
g927
sg155
Nsg52
(dp995
sg51
g7
sbssg51
g7
sbsI139867859286864
g0
(g182
g2
Ntp996
Rp997
(dp998
g49
I2
sg186
I2
sg187
g0
(g182
g2
Ntp999
Rp1000
(dp1001
g49
I1
sg186
I2
sg187
g0
(g116
g2
Ntp1002
Rp1003
(dp1004
g49
I1
sg120
Nsg50
Nsg130
g0
(g136
g2
Ntp1005
Rp1006
(dp1007
g49
I1
sg140
g121
(g122
(I0
tp1008
g124
tp1009
Rp1010
(I1
(I2
tp1011
g59
I00
S'\x00\x00\x00\x00\x00\x00\xf0\x7f\x00\x00\x00\x00\x00\x00\xf0\x7f'
p1012
tp1013
bsg52
(dp1014
I139867859286736
g1003
ssg148
g121
(g122
(I0
tp1015
g124
tp1016
Rp1017
(I1
(I2
I2
tp1018
g59
I00
S'\x00\x00\x00\x00\x00\x00\x00\x00\x00\x00\x00\x00\x00\x00\x00\x00\x00\x00\x00\x00\x00\x00\xf0?\x00\x00\x00\x00\x00\x00\xf0?'
p1019
tp1020
bsg155
g121
(g122
(I0
tp1021
g124
tp1022
Rp1023
(I1
(I2
I2
tp1024
g59
I00
S'\x00\x00\x00\x00\x00\x00\x00\x00\x00\x00\x00\x00\x00\x00\x00\x00\x00\x00\x00\x00\x00\x00\xf0?\x00\x00\x00\x00\x00\x00\xf0?'
p1025
tp1026
bsg162
I01
sg51
g7
sbsg52
(dp1027
I139867859286800
g1000
ssg51
g7
sbsg276
I2
sg277
g0
(g163
g2
Ntp1028
Rp1029
(dp1030
g49
I2
sg50
Nsg120
g121
(g122
(I0
tp1031
g124
tp1032
Rp1033
(I1
(I3
I3
tp1034
g59
I00
S'\x00\x00\x00\x00\x00\x00\xf0?\x00\x00\x00\x00\x00\x00\x00\x00\x00\x00\x00\x00\x00\x00\x00\x00\x00\x00\x00\x00\x00\x00\x00\x00\x00\x00\x00\x00\x00\x00\xf0?\x00\x00\x00\x00\x00\x00\x00\x00\x00\x00\x00\x00\x00\x00\x00\x00\x00\x00\x00\x00\x00\x00\x00\x00\x00\x00\x00\x00\x00\x00\xf0?'
p1035
tp1036
bsg51
g7
sg52
(dp1037
I139867859286800
g1000
ssbsg52
(dp1038
I139867859286864
g997
ssg51
g7
sbsg276
I2
sg277
g193
sg52
(dp1039
I139867859286928
g0
(g131
g2
Ntp1040
Rp1041
(dp1042
g49
I2
sg135
g0
(g136
g2
Ntp1043
Rp1044
(dp1045
g49
I1
sg140
g121
(g122
(I0
tp1046
g124
tp1047
Rp1048
(I1
(I2
tp1049
g59
I00
S'\x00\x00\x00\x00\x00\x00\xf0\x7f\x00\x00\x00\x00\x00\x00\xf0\x7f'
p1050
tp1051
bsg52
(dp1052
I139867859286928
g1041
ssg148
g121
(g122
(I0
tp1053
g124
tp1054
Rp1055
(I1
(I2
I2
tp1056
g59
I00
S'\x00\x00\x00\x00\x00\x00\x00\x00\x00\x00\x00\x00\x00\x00\x00\x00\x00\x00\x00\x00\x00\x00\xf0?\x00\x00\x00\x00\x00\x00\xf0?'
p1057
tp1058
bsg155
g121
(g122
(I0
tp1059
g124
tp1060
Rp1061
(I1
(I2
I2
tp1062
g59
I00
S'\x00\x00\x00\x00\x00\x00\x00\x00\x00\x00\x00\x00\x00\x00\x00\x00\x00\x00\x00\x00\x00\x00\xf0?\x00\x00\x00\x00\x00\x00\xf0?'
p1063
tp1064
bsg162
I01
sg51
g7
sbsg115
g997
sg155
Nsg52
(dp1065
sg51
g7
sbssg51
g7
sbsI139867858843536
g0
(g182
g2
Ntp1066
Rp1067
(dp1068
g49
I2
sg186
I2
sg187
g0
(g182
g2
Ntp1069
Rp1070
(dp1071
g49
I1
sg186
I2
sg187
g0
(g116
g2
Ntp1072
Rp1073
(dp1074
g49
I1
sg120
Nsg50
Nsg130
g0
(g136
g2
Ntp1075
Rp1076
(dp1077
g49
I1
sg140
g121
(g122
(I0
tp1078
g124
tp1079
Rp1080
(I1
(I2
tp1081
g59
I00
S'\x00\x00\x00\x00\x00\x00\xf0\x7f\x00\x00\x00\x00\x00\x00\xf0\x7f'
p1082
tp1083
bsg52
(dp1084
I139867858843408
g1073
ssg148
g121
(g122
(I0
tp1085
g124
tp1086
Rp1087
(I1
(I2
I2
tp1088
g59
I00
S'\x00\x00\x00\x00\x00\x00\x00\x00\x00\x00\x00\x00\x00\x00\x00\x00\x00\x00\x00\x00\x00\x00\xf0?\x00\x00\x00\x00\x00\x00\xf0?'
p1089
tp1090
bsg155
g121
(g122
(I0
tp1091
g124
tp1092
Rp1093
(I1
(I2
I2
tp1094
g59
I00
S'\x00\x00\x00\x00\x00\x00\x00\x00\x00\x00\x00\x00\x00\x00\x00\x00\x00\x00\x00\x00\x00\x00\xf0?\x00\x00\x00\x00\x00\x00\xf0?'
p1095
tp1096
bsg162
I01
sg51
g7
sbsg52
(dp1097
I139867858843472
g1070
ssg51
g7
sbsg276
I2
sg277
g0
(g163
g2
Ntp1098
Rp1099
(dp1100
g49
I2
sg50
Nsg120
g121
(g122
(I0
tp1101
g124
tp1102
Rp1103
(I1
(I3
I3
tp1104
g59
I00
S'\x00\x00\x00\x00\x00\x00\xf0?\x00\x00\x00\x00\x00\x00\x00\x00\x00\x00\x00\x00\x00\x00\x00\x00\x00\x00\x00\x00\x00\x00\x00\x00\x00\x00\x00\x00\x00\x00\xf0?\x00\x00\x00\x00\x00\x00\x00\x00\x00\x00\x00\x00\x00\x00\x00\x00\x00\x00\x00\x00\x00\x00\x00\x00\x00\x00\x00\x00\x00\x00\xf0?'
p1105
tp1106
bsg51
g7
sg52
(dp1107
I139867858843472
g1070
ssbsg52
(dp1108
I139867858843536
g1067
ssg51
g7
sbsg276
I2
sg277
g193
sg52
(dp1109
I139867858843600
g0
(g131
g2
Ntp1110
Rp1111
(dp1112
g49
I2
sg135
g0
(g136
g2
Ntp1113
Rp1114
(dp1115
g49
I1
sg140
g121
(g122
(I0
tp1116
g124
tp1117
Rp1118
(I1
(I2
tp1119
g59
I00
S'\x00\x00\x00\x00\x00\x00\xf0\x7f\x00\x00\x00\x00\x00\x00\xf0\x7f'
p1120
tp1121
bsg52
(dp1122
I139867858843600
g1111
ssg148
g121
(g122
(I0
tp1123
g124
tp1124
Rp1125
(I1
(I2
I2
tp1126
g59
I00
S'\x00\x00\x00\x00\x00\x00\x00\x00\x00\x00\x00\x00\x00\x00\x00\x00\x00\x00\x00\x00\x00\x00\xf0?\x00\x00\x00\x00\x00\x00\xf0?'
p1127
tp1128
bsg155
g121
(g122
(I0
tp1129
g124
tp1130
Rp1131
(I1
(I2
I2
tp1132
g59
I00
S'\x00\x00\x00\x00\x00\x00\x00\x00\x00\x00\x00\x00\x00\x00\x00\x00\x00\x00\x00\x00\x00\x00\xf0?\x00\x00\x00\x00\x00\x00\xf0?'
p1133
tp1134
bsg162
I01
sg51
g7
sbsg115
g1067
sg155
Nsg52
(dp1135
sg51
g7
sbssg51
g7
sbsI139867859286416
g0
(g182
g2
Ntp1136
Rp1137
(dp1138
g49
I2
sg186
I2
sg187
g0
(g182
g2
Ntp1139
Rp1140
(dp1141
g49
I1
sg186
I2
sg187
g0
(g116
g2
Ntp1142
Rp1143
(dp1144
g49
I1
sg120
Nsg50
Nsg130
g0
(g136
g2
Ntp1145
Rp1146
(dp1147
g49
I1
sg140
g121
(g122
(I0
tp1148
g124
tp1149
Rp1150
(I1
(I2
tp1151
g59
I00
S'\x00\x00\x00\x00\x00\x00\xf0\x7f\x00\x00\x00\x00\x00\x00\xf0\x7f'
p1152
tp1153
bsg52
(dp1154
I139867859286288
g1143
ssg148
g121
(g122
(I0
tp1155
g124
tp1156
Rp1157
(I1
(I2
I2
tp1158
g59
I00
S'\x00\x00\x00\x00\x00\x00\x00\x00\x00\x00\x00\x00\x00\x00\x00\x00\x00\x00\x00\x00\x00\x00\xf0?\x00\x00\x00\x00\x00\x00\xf0?'
p1159
tp1160
bsg155
g121
(g122
(I0
tp1161
g124
tp1162
Rp1163
(I1
(I2
I2
tp1164
g59
I00
S'\x00\x00\x00\x00\x00\x00\x00\x00\x00\x00\x00\x00\x00\x00\x00\x00\x00\x00\x00\x00\x00\x00\xf0?\x00\x00\x00\x00\x00\x00\xf0?'
p1165
tp1166
bsg162
I01
sg51
g7
sbsg52
(dp1167
I139867859286352
g1140
ssg51
g7
sbsg276
I2
sg277
g0
(g163
g2
Ntp1168
Rp1169
(dp1170
g49
I2
sg50
Nsg120
g121
(g122
(I0
tp1171
g124
tp1172
Rp1173
(I1
(I3
I3
tp1174
g59
I00
S'\x00\x00\x00\x00\x00\x00\xf0?\x00\x00\x00\x00\x00\x00\x00\x00\x00\x00\x00\x00\x00\x00\x00\x00\x00\x00\x00\x00\x00\x00\x00\x00\x00\x00\x00\x00\x00\x00\xf0?\x00\x00\x00\x00\x00\x00\x00\x00\x00\x00\x00\x00\x00\x00\x00\x00\x00\x00\x00\x00\x00\x00\x00\x00\x00\x00\x00\x00\x00\x00\xf0?'
p1175
tp1176
bsg51
g7
sg52
(dp1177
I139867859286352
g1140
ssbsg52
(dp1178
I139867859286416
g1137
ssg51
g7
sbsg276
I2
sg277
g193
sg52
(dp1179
I139867859286480
g0
(g131
g2
Ntp1180
Rp1181
(dp1182
g49
I2
sg135
g0
(g136
g2
Ntp1183
Rp1184
(dp1185
g49
I1
sg140
g121
(g122
(I0
tp1186
g124
tp1187
Rp1188
(I1
(I2
tp1189
g59
I00
S'\x00\x00\x00\x00\x00\x00\xf0\x7f\x00\x00\x00\x00\x00\x00\xf0\x7f'
p1190
tp1191
bsg52
(dp1192
I139867859286480
g1181
ssg148
g121
(g122
(I0
tp1193
g124
tp1194
Rp1195
(I1
(I2
I2
tp1196
g59
I00
S'\x00\x00\x00\x00\x00\x00\x00\x00\x00\x00\x00\x00\x00\x00\x00\x00\x00\x00\x00\x00\x00\x00\xf0?\x00\x00\x00\x00\x00\x00\xf0?'
p1197
tp1198
bsg155
g121
(g122
(I0
tp1199
g124
tp1200
Rp1201
(I1
(I2
I2
tp1202
g59
I00
S'\x00\x00\x00\x00\x00\x00\x00\x00\x00\x00\x00\x00\x00\x00\x00\x00\x00\x00\x00\x00\x00\x00\xf0?\x00\x00\x00\x00\x00\x00\xf0?'
p1203
tp1204
bsg162
I01
sg51
g7
sbsg115
g1137
sg155
Nsg52
(dp1205
sg51
g7
sbssg51
g7
sbsI139867858842704
g0
(g182
g2
Ntp1206
Rp1207
(dp1208
g49
I2
sg186
I2
sg187
g0
(g182
g2
Ntp1209
Rp1210
(dp1211
g49
I1
sg186
I2
sg187
g0
(g116
g2
Ntp1212
Rp1213
(dp1214
g49
I1
sg120
Nsg50
Nsg130
g0
(g136
g2
Ntp1215
Rp1216
(dp1217
g49
I1
sg140
g121
(g122
(I0
tp1218
g124
tp1219
Rp1220
(I1
(I2
tp1221
g59
I00
S'\x00\x00\x00\x00\x00\x00\xf0\x7f\x00\x00\x00\x00\x00\x00\xf0\x7f'
p1222
tp1223
bsg52
(dp1224
I139867858842576
g1213
ssg148
g121
(g122
(I0
tp1225
g124
tp1226
Rp1227
(I1
(I2
I2
tp1228
g59
I00
S'\x00\x00\x00\x00\x00\x00\x00\x00\x00\x00\x00\x00\x00\x00\x00\x00\x00\x00\x00\x00\x00\x00\xf0?\x00\x00\x00\x00\x00\x00\xf0?'
p1229
tp1230
bsg155
g121
(g122
(I0
tp1231
g124
tp1232
Rp1233
(I1
(I2
I2
tp1234
g59
I00
S'\x00\x00\x00\x00\x00\x00\x00\x00\x00\x00\x00\x00\x00\x00\x00\x00\x00\x00\x00\x00\x00\x00\xf0?\x00\x00\x00\x00\x00\x00\xf0?'
p1235
tp1236
bsg162
I01
sg51
g7
sbsg52
(dp1237
I139867858842640
g1210
ssg51
g7
sbsg276
I2
sg277
g0
(g163
g2
Ntp1238
Rp1239
(dp1240
g49
I2
sg50
Nsg120
g121
(g122
(I0
tp1241
g124
tp1242
Rp1243
(I1
(I3
I3
tp1244
g59
I00
S'\x00\x00\x00\x00\x00\x00\xf0?\x00\x00\x00\x00\x00\x00\x00\x00\x00\x00\x00\x00\x00\x00\x00\x00\x00\x00\x00\x00\x00\x00\x00\x00\x00\x00\x00\x00\x00\x00\xf0?\x00\x00\x00\x00\x00\x00\x00\x00\x00\x00\x00\x00\x00\x00\x00\x00\x00\x00\x00\x00\x00\x00\x00\x00\x00\x00\x00\x00\x00\x00\xf0?'
p1245
tp1246
bsg51
g7
sg52
(dp1247
I139867858842640
g1210
ssbsg52
(dp1248
I139867858842704
g1207
ssg51
g7
sbsg276
I2
sg277
g193
sg52
(dp1249
I139867858842768
g0
(g131
g2
Ntp1250
Rp1251
(dp1252
g49
I2
sg135
g0
(g136
g2
Ntp1253
Rp1254
(dp1255
g49
I1
sg140
g121
(g122
(I0
tp1256
g124
tp1257
Rp1258
(I1
(I2
tp1259
g59
I00
S'\x00\x00\x00\x00\x00\x00\xf0\x7f\x00\x00\x00\x00\x00\x00\xf0\x7f'
p1260
tp1261
bsg52
(dp1262
I139867858842768
g1251
ssg148
g121
(g122
(I0
tp1263
g124
tp1264
Rp1265
(I1
(I2
I2
tp1266
g59
I00
S'\x00\x00\x00\x00\x00\x00\x00\x00\x00\x00\x00\x00\x00\x00\x00\x00\x00\x00\x00\x00\x00\x00\xf0?\x00\x00\x00\x00\x00\x00\xf0?'
p1267
tp1268
bsg155
g121
(g122
(I0
tp1269
g124
tp1270
Rp1271
(I1
(I2
I2
tp1272
g59
I00
S'\x00\x00\x00\x00\x00\x00\x00\x00\x00\x00\x00\x00\x00\x00\x00\x00\x00\x00\x00\x00\x00\x00\xf0?\x00\x00\x00\x00\x00\x00\xf0?'
p1273
tp1274
bsg162
I01
sg51
g7
sbsg115
g1207
sg155
Nsg52
(dp1275
sg51
g7
sbssg51
g7
sbsI139867859287312
g0
(g182
g2
Ntp1276
Rp1277
(dp1278
g49
I2
sg186
I2
sg187
g0
(g182
g2
Ntp1279
Rp1280
(dp1281
g49
I1
sg186
I2
sg187
g0
(g116
g2
Ntp1282
Rp1283
(dp1284
g49
I1
sg120
Nsg50
Nsg130
g0
(g136
g2
Ntp1285
Rp1286
(dp1287
g49
I1
sg140
g121
(g122
(I0
tp1288
g124
tp1289
Rp1290
(I1
(I2
tp1291
g59
I00
S'\x00\x00\x00\x00\x00\x00\xf0\x7f\x00\x00\x00\x00\x00\x00\xf0\x7f'
p1292
tp1293
bsg52
(dp1294
I139867859287184
g1283
ssg148
g121
(g122
(I0
tp1295
g124
tp1296
Rp1297
(I1
(I2
I2
tp1298
g59
I00
S'\x00\x00\x00\x00\x00\x00\x00\x00\x00\x00\x00\x00\x00\x00\x00\x00\x00\x00\x00\x00\x00\x00\xf0?\x00\x00\x00\x00\x00\x00\xf0?'
p1299
tp1300
bsg155
g121
(g122
(I0
tp1301
g124
tp1302
Rp1303
(I1
(I2
I2
tp1304
g59
I00
S'\x00\x00\x00\x00\x00\x00\x00\x00\x00\x00\x00\x00\x00\x00\x00\x00\x00\x00\x00\x00\x00\x00\xf0?\x00\x00\x00\x00\x00\x00\xf0?'
p1305
tp1306
bsg162
I01
sg51
g7
sbsg52
(dp1307
I139867859287248
g1280
ssg51
g7
sbsg276
I2
sg277
g0
(g163
g2
Ntp1308
Rp1309
(dp1310
g49
I2
sg50
Nsg120
g121
(g122
(I0
tp1311
g124
tp1312
Rp1313
(I1
(I3
I3
tp1314
g59
I00
S'\x00\x00\x00\x00\x00\x00\xf0?\x00\x00\x00\x00\x00\x00\x00\x00\x00\x00\x00\x00\x00\x00\x00\x00\x00\x00\x00\x00\x00\x00\x00\x00\x00\x00\x00\x00\x00\x00\xf0?\x00\x00\x00\x00\x00\x00\x00\x00\x00\x00\x00\x00\x00\x00\x00\x00\x00\x00\x00\x00\x00\x00\x00\x00\x00\x00\x00\x00\x00\x00\xf0?'
p1315
tp1316
bsg51
g7
sg52
(dp1317
I139867859287248
g1280
ssbsg52
(dp1318
I139867859287312
g1277
ssg51
g7
sbsg276
I2
sg277
g193
sg52
(dp1319
I139867859287376
g0
(g131
g2
Ntp1320
Rp1321
(dp1322
g49
I2
sg135
g0
(g136
g2
Ntp1323
Rp1324
(dp1325
g49
I1
sg140
g121
(g122
(I0
tp1326
g124
tp1327
Rp1328
(I1
(I2
tp1329
g59
I00
S'\x00\x00\x00\x00\x00\x00\xf0\x7f\x00\x00\x00\x00\x00\x00\xf0\x7f'
p1330
tp1331
bsg52
(dp1332
I139867859287376
g1321
ssg148
g121
(g122
(I0
tp1333
g124
tp1334
Rp1335
(I1
(I2
I2
tp1336
g59
I00
S'\x00\x00\x00\x00\x00\x00\x00\x00\x00\x00\x00\x00\x00\x00\x00\x00\x00\x00\x00\x00\x00\x00\xf0?\x00\x00\x00\x00\x00\x00\xf0?'
p1337
tp1338
bsg155
g121
(g122
(I0
tp1339
g124
tp1340
Rp1341
(I1
(I2
I2
tp1342
g59
I00
S'\x00\x00\x00\x00\x00\x00\x00\x00\x00\x00\x00\x00\x00\x00\x00\x00\x00\x00\x00\x00\x00\x00\xf0?\x00\x00\x00\x00\x00\x00\xf0?'
p1343
tp1344
bsg162
I01
sg51
g7
sbsg115
g1277
sg155
Nsg52
(dp1345
sg51
g7
sbssg51
g7
sbsI139867858948304
g0
(g182
g2
Ntp1346
Rp1347
(dp1348
g49
I2
sg186
I2
sg187
g0
(g182
g2
Ntp1349
Rp1350
(dp1351
g49
I1
sg186
I2
sg187
g0
(g116
g2
Ntp1352
Rp1353
(dp1354
g49
I1
sg120
Nsg50
Nsg130
g0
(g136
g2
Ntp1355
Rp1356
(dp1357
g49
I1
sg140
g121
(g122
(I0
tp1358
g124
tp1359
Rp1360
(I1
(I2
tp1361
g59
I00
S'\x00\x00\x00\x00\x00\x00\xf0\x7f\x00\x00\x00\x00\x00\x00\xf0\x7f'
p1362
tp1363
bsg52
(dp1364
I139867858948176
g1353
ssg148
g121
(g122
(I0
tp1365
g124
tp1366
Rp1367
(I1
(I2
I2
tp1368
g59
I00
S'\x00\x00\x00\x00\x00\x00\x00\x00\x00\x00\x00\x00\x00\x00\x00\x00\x00\x00\x00\x00\x00\x00\xf0?\x00\x00\x00\x00\x00\x00\xf0?'
p1369
tp1370
bsg155
g121
(g122
(I0
tp1371
g124
tp1372
Rp1373
(I1
(I2
I2
tp1374
g59
I00
S'\x00\x00\x00\x00\x00\x00\x00\x00\x00\x00\x00\x00\x00\x00\x00\x00\x00\x00\x00\x00\x00\x00\xf0?\x00\x00\x00\x00\x00\x00\xf0?'
p1375
tp1376
bsg162
I01
sg51
g7
sbsg52
(dp1377
I139867858948240
g1350
ssg51
g7
sbsg276
I2
sg277
g0
(g163
g2
Ntp1378
Rp1379
(dp1380
g49
I2
sg50
Nsg120
g121
(g122
(I0
tp1381
g124
tp1382
Rp1383
(I1
(I3
I3
tp1384
g59
I00
S'\x00\x00\x00\x00\x00\x00\xf0?\x00\x00\x00\x00\x00\x00\x00\x00\x00\x00\x00\x00\x00\x00\x00\x00\x00\x00\x00\x00\x00\x00\x00\x00\x00\x00\x00\x00\x00\x00\xf0?\x00\x00\x00\x00\x00\x00\x00\x00\x00\x00\x00\x00\x00\x00\x00\x00\x00\x00\x00\x00\x00\x00\x00\x00\x00\x00\x00\x00\x00\x00\xf0?'
p1385
tp1386
bsg51
g7
sg52
(dp1387
I139867858948240
g1350
ssbsg52
(dp1388
I139867858948304
g1347
ssg51
g7
sbsg276
I2
sg277
g193
sg52
(dp1389
I139867858948368
g0
(g131
g2
Ntp1390
Rp1391
(dp1392
g49
I2
sg135
g0
(g136
g2
Ntp1393
Rp1394
(dp1395
g49
I1
sg140
g121
(g122
(I0
tp1396
g124
tp1397
Rp1398
(I1
(I2
tp1399
g59
I00
S'\x00\x00\x00\x00\x00\x00\xf0\x7f\x00\x00\x00\x00\x00\x00\xf0\x7f'
p1400
tp1401
bsg52
(dp1402
I139867858948368
g1391
ssg148
g121
(g122
(I0
tp1403
g124
tp1404
Rp1405
(I1
(I2
I2
tp1406
g59
I00
S'\x00\x00\x00\x00\x00\x00\x00\x00\x00\x00\x00\x00\x00\x00\x00\x00\x00\x00\x00\x00\x00\x00\xf0?\x00\x00\x00\x00\x00\x00\xf0?'
p1407
tp1408
bsg155
g121
(g122
(I0
tp1409
g124
tp1410
Rp1411
(I1
(I2
I2
tp1412
g59
I00
S'\x00\x00\x00\x00\x00\x00\x00\x00\x00\x00\x00\x00\x00\x00\x00\x00\x00\x00\x00\x00\x00\x00\xf0?\x00\x00\x00\x00\x00\x00\xf0?'
p1413
tp1414
bsg162
I01
sg51
g7
sbsg115
g1347
sg155
Nsg52
(dp1415
sg51
g7
sbssg51
g7
sbsI139867859083664
g0
(g182
g2
Ntp1416
Rp1417
(dp1418
g49
I2
sg186
I2
sg187
g0
(cmatplotlib.transforms
BboxTransformFrom
p1419
g2
Ntp1420
Rp1421
(dp1422
g49
I2
sS'_boxin'
p1423
g0
(g131
g2
Ntp1424
Rp1425
(dp1426
g49
I2
sg135
g0
(g136
g2
Ntp1427
Rp1428
(dp1429
g49
I2
sg140
g121
(g122
(I0
tp1430
g124
tp1431
Rp1432
(I1
(I2
tp1433
g59
I00
S'\x00\x00\x00\x00\x00\x00\xf0\x7f\x00\x00\x00\x00\x00\x00\xf0\x7f'
p1434
tp1435
bsg52
(dp1436
I139867859083408
g1425
ssg148
g121
(g122
(I0
tp1437
g124
tp1438
Rp1439
(I1
(I2
I2
tp1440
g59
I00
S'\x00\x00\x00\x00\x00\x00\x00\x00\x00\x00\x00\x00\x00\x00\x00\x00\x00\x00\x00\x00\x00\x00\xf0?\x00\x00\x00\x00\x00\x00\xf0?'
p1441
tp1442
bsg155
g121
(g122
(I0
tp1443
g124
tp1444
Rp1445
(I1
(I2
I2
tp1446
g59
I00
S'\x00\x00\x00\x00\x00\x00\x00\x00\x00\x00\x00\x00\x00\x00\x00\x00\x00\x00\x00\x00\x00\x00\x12@\x00\x00\x00\x00\x00\x00*@'
p1447
tp1448
bsg162
I01
sg51
g7
sbsg115
g0
(cmatplotlib.transforms
TransformWrapper
p1449
g2
Ntp1450
Rp1451
(dp1452
Voutput_dims
p1453
I2
sVparents
p1454
(dp1455
I139867859083408
g1425
sI139867859083728
g0
(g182
g2
Ntp1456
Rp1457
(dp1458
g49
I2
sg186
I2
sg187
g1451
sg276
I2
sg277
g1417
sg52
(dp1459
I139867859083792
g190
sI139867859083856
g0
(g188
g2
Ntp1460
Rp1461
(dp1462
g49
I2
sg75
g1457
sg76
g193
sS'_affine'
p1463
Nsg52
(dp1464
I139867859545360
g0
(g182
g2
Ntp1465
Rp1466
(dp1467
g49
I2
sg186
I2
sg187
g1461
sg276
I2
sg277
g0
(g174
g2
Ntp1468
Rp1469
(dp1470
g49
I1
sg120
Nsg178
g165
sg50
Nsg179
(F-0.04722222222222222
I0
tp1471
sg51
g7
sg52
(dp1472
I139867859545360
g1466
ssbsg52
(dp1473
sg51
g7
sbsI139867859235024
g0
(g182
g2
Ntp1474
Rp1475
(dp1476
g49
I2
sg186
I2
sg187
g1461
sg276
I2
sg277
g0
(g174
g2
Ntp1477
Rp1478
(dp1479
g49
I1
sg120
Nsg178
g165
sg50
Nsg179
(F0.04722222222222222
I0
tp1480
sg51
g7
sg52
(dp1481
I139867859235024
g1475
ssbsg52
(dp1482
sg51
g7
sbsI139867859086608
g0
(g182
g2
Ntp1483
Rp1484
(dp1485
g49
I2
sg186
I2
sg187
g1461
sg276
I2
sg277
g0
(g174
g2
Ntp1486
Rp1487
(dp1488
g49
I1
sg120
Nsg178
g165
sg50
Nsg179
(F-0.04722222222222222
I0
tp1489
sg51
g7
sg52
(dp1490
I139867859086608
g1484
ssbsg52
(dp1491
sg51
g7
sbsI139867859196944
g0
(g182
g2
Ntp1492
Rp1493
(dp1494
g49
I2
sg186
I2
sg187
g1461
sg276
I2
sg277
g0
(g174
g2
Ntp1495
Rp1496
(dp1497
g49
I1
sg120
Nsg178
g165
sg50
Nsg179
(F0.04861111111111111
I0
tp1498
sg51
g7
sg52
(dp1499
I139867859196944
g1493
ssbsg52
(dp1500
sg51
g7
sbsI139867859196688
g0
(g182
g2
Ntp1501
Rp1502
(dp1503
g49
I2
sg186
I2
sg187
g1461
sg276
I2
sg277
g0
(g174
g2
Ntp1504
Rp1505
(dp1506
g49
I1
sg120
Nsg178
g165
sg50
Nsg179
(F-0.04861111111111111
I0
tp1507
sg51
g7
sg52
(dp1508
I139867859196688
g1502
ssbsg52
(dp1509
sg51
g7
sbsI139867859086096
g0
(g182
g2
Ntp1510
Rp1511
(dp1512
g49
I2
sg186
I2
sg187
g1461
sg276
I2
sg277
g0
(g174
g2
Ntp1513
Rp1514
(dp1515
g49
I1
sg120
Nsg178
g165
sg50
Nsg179
(F0.04722222222222222
I0
tp1516
sg51
g7
sg52
(dp1517
I139867859086096
g1511
ssbsg52
(dp1518
sg51
g7
sbssg51
g7
sbssg51
g7
sbssVinput_dims
p1519
I2
sVchild
p1520
g0
(g316
g2
Ntp1521
Rp1522
(dp1523
g49
I0
sg120
g121
(g122
(I0
tp1524
g124
tp1525
Rp1526
(I1
(I3
I3
tp1527
g59
I00
S'\x00\x00\x00\x00\x00\x00\xf0?\x00\x00\x00\x00\x00\x00\x00\x00\x00\x00\x00\x00\x00\x00\x00\x00\x00\x00\x00\x00\x00\x00\x00\x00\x00\x00\x00\x00\x00\x00\xf0?\x00\x00\x00\x00\x00\x00\x00\x00\x00\x00\x00\x00\x00\x00\x00\x00\x00\x00\x00\x00\x00\x00\x00\x00\x00\x00\x00\x00\x00\x00\xf0?'
p1528
tp1529
bsg75
g0
(g45
g2
Ntp1530
Rp1531
(dp1532
g49
I1
sg50
Nsg51
g7
sg52
(dp1533
I139867859083536
g1522
ssbsg76
g0
(g45
g2
Ntp1534
Rp1535
(dp1536
g49
I1
sg50
Nsg51
g7
sg52
(dp1537
I139867859083536
g1522
ssbsg50
g0
(g163
g2
Ntp1538
Rp1539
(dp1540
g49
I0
sg50
Nsg120
g121
(g122
(I0
tp1541
g124
tp1542
Rp1543
(I1
(I3
I3
tp1544
g59
I00
S'\x00\x00\x00\x00\x00\x00\xf0?\x00\x00\x00\x00\x00\x00\x00\x00\x00\x00\x00\x00\x00\x00\x00\x00\x00\x00\x00\x00\x00\x00\x00\x00\x00\x00\x00\x00\x00\x00\xf0?\x00\x00\x00\x00\x00\x00\x00\x00\x00\x00\x00\x00\x00\x00\x00\x00\x00\x00\x00\x00\x00\x00\x00\x00\x00\x00\x00\x00\x00\x00\xf0?'
p1545
tp1546
bsg51
g7
sg52
(dp1547
sbsg51
g7
sg52
(dp1548
I139867859083600
g1451
ssbsbsg155
g121
(g122
(I0
tp1549
g124
tp1550
Rp1551
(I1
(I2
I2
tp1552
g59
I00
S'\x00\x00\x00\x00\x00\x00\x00\x00\x00\x00\x00\x00\x00\x00\x00\x00\x00\x00\x00\x00\x00\x00\xf0?\x00\x00\x00\x00\x00\x00\xf0?'
p1553
tp1554
bsg52
(dp1555
I139867859083344
g1421
ssg51
g7
sbsg120
g121
(g122
(I0
tp1556
g124
tp1557
Rp1558
(I1
(I3
I3
tp1559
g59
I00
S'\x00\x00\x00\x00\x00\x00\xf0?\x00\x00\x00\x00\x00\x00\x00\x00\x00\x00\x00\x00\x00\x00\x00\x80\x00\x00\x00\x00\x00\x00\x00\x00\x00\x00\x00\x00\x00\x00\xf0?\x00\x00\x00\x00\x00\x00\x00\x80\x00\x00\x00\x00\x00\x00\x00\x00\x00\x00\x00\x00\x00\x00\x00\x00\x00\x00\x00\x00\x00\x00\xf0?'
p1560
tp1561
bsg50
g0
(g163
g2
Ntp1562
Rp1563
(dp1564
g49
I0
sg50
Nsg120
g121
(g122
(I0
tp1565
g124
tp1566
Rp1567
(I1
(I3
I3
tp1568
g59
I00
S'\x00\x00\x00\x00\x00\x00\xf0?\x00\x00\x00\x00\x00\x00\x00\x00\x00\x00\x00\x00\x00\x00\x00\x00\x00\x00\x00\x00\x00\x00\x00\x00\x00\x00\x00\x00\x00\x00\xf0?\x00\x00\x00\x00\x00\x00\x00\x00\x00\x00\x00\x00\x00\x00\x00\x00\x00\x00\x00\x00\x00\x00\x00\x00\x00\x00\x00\x00\x00\x00\xf0?'
p1569
tp1570
bsg51
g7
sg52
(dp1571
sbsg51
g7
sg52
(dp1572
I139867859083664
g1417
ssbsg276
I2
sg277
g193
sg52
(dp1573
I139867859083728
g1457
ssg51
g7
sbsI139867859083792
g190
sI139867859083856
g1461
sI139867858948752
g0
(g182
g2
Ntp1574
Rp1575
(dp1576
g49
I2
sg186
I2
sg187
g0
(g182
g2
Ntp1577
Rp1578
(dp1579
g49
I1
sg186
I2
sg187
g0
(g116
g2
Ntp1580
Rp1581
(dp1582
g49
I1
sg120
Nsg50
Nsg130
g0
(g136
g2
Ntp1583
Rp1584
(dp1585
g49
I1
sg140
g121
(g122
(I0
tp1586
g124
tp1587
Rp1588
(I1
(I2
tp1589
g59
I00
S'\x00\x00\x00\x00\x00\x00\xf0\x7f\x00\x00\x00\x00\x00\x00\xf0\x7f'
p1590
tp1591
bsg52
(dp1592
I139867858948624
g1581
ssg148
g121
(g122
(I0
tp1593
g124
tp1594
Rp1595
(I1
(I2
I2
tp1596
g59
I00
S'\x00\x00\x00\x00\x00\x00\x00\x00\x00\x00\x00\x00\x00\x00\x00\x00\x00\x00\x00\x00\x00\x00\xf0?\x00\x00\x00\x00\x00\x00\xf0?'
p1597
tp1598
bsg155
g121
(g122
(I0
tp1599
g124
tp1600
Rp1601
(I1
(I2
I2
tp1602
g59
I00
S'\x00\x00\x00\x00\x00\x00\x00\x00\x00\x00\x00\x00\x00\x00\x00\x00\x00\x00\x00\x00\x00\x00\xf0?\x00\x00\x00\x00\x00\x00\xf0?'
p1603
tp1604
bsg162
I01
sg51
g7
sbsg52
(dp1605
I139867858948688
g1578
ssg51
g7
sbsg276
I2
sg277
g0
(g163
g2
Ntp1606
Rp1607
(dp1608
g49
I2
sg50
Nsg120
g121
(g122
(I0
tp1609
g124
tp1610
Rp1611
(I1
(I3
I3
tp1612
g59
I00
S'\x00\x00\x00\x00\x00\x00\xf0?\x00\x00\x00\x00\x00\x00\x00\x00\x00\x00\x00\x00\x00\x00\x00\x00\x00\x00\x00\x00\x00\x00\x00\x00\x00\x00\x00\x00\x00\x00\xf0?\x00\x00\x00\x00\x00\x00\x00\x00\x00\x00\x00\x00\x00\x00\x00\x00\x00\x00\x00\x00\x00\x00\x00\x00\x00\x00\x00\x00\x00\x00\xf0?'
p1613
tp1614
bsg51
g7
sg52
(dp1615
I139867858948688
g1578
ssbsg52
(dp1616
I139867858948752
g1575
ssg51
g7
sbsg276
I2
sg277
g193
sg52
(dp1617
I139867858948816
g0
(g131
g2
Ntp1618
Rp1619
(dp1620
g49
I2
sg135
g0
(g136
g2
Ntp1621
Rp1622
(dp1623
g49
I1
sg140
g121
(g122
(I0
tp1624
g124
tp1625
Rp1626
(I1
(I2
tp1627
g59
I00
S'\x00\x00\x00\x00\x00\x00\xf0\x7f\x00\x00\x00\x00\x00\x00\xf0\x7f'
p1628
tp1629
bsg52
(dp1630
I139867858948816
g1619
ssg148
g121
(g122
(I0
tp1631
g124
tp1632
Rp1633
(I1
(I2
I2
tp1634
g59
I00
S'\x00\x00\x00\x00\x00\x00\x00\x00\x00\x00\x00\x00\x00\x00\x00\x00\x00\x00\x00\x00\x00\x00\xf0?\x00\x00\x00\x00\x00\x00\xf0?'
p1635
tp1636
bsg155
g121
(g122
(I0
tp1637
g124
tp1638
Rp1639
(I1
(I2
I2
tp1640
g59
I00
S'\x00\x00\x00\x00\x00\x00\x00\x00\x00\x00\x00\x00\x00\x00\x00\x00\x00\x00\x00\x00\x00\x00\xf0?\x00\x00\x00\x00\x00\x00\xf0?'
p1641
tp1642
bsg162
I01
sg51
g7
sbsg115
g1575
sg155
Nsg52
(dp1643
sg51
g7
sbssg51
g7
sbssg51
g7
sbsg76
g1457
sg1463
Nsg52
(dp1644
I139867859237840
g0
(g182
g2
Ntp1645
Rp1646
(dp1647
g49
I2
sg186
I2
sg187
g190
sg276
I2
sg277
g0
(g174
g2
Ntp1648
Rp1649
(dp1650
g49
I1
sg120
Nsg178
g165
sg50
Nsg179
(I0
F0.04722222222222222
tp1651
sg51
g7
sg52
(dp1652
I139867859237840
g1646
ssbsg52
(dp1653
sg51
g7
sbsI139867859236112
g0
(g182
g2
Ntp1654
Rp1655
(dp1656
g49
I2
sg186
I2
sg187
g190
sg276
I2
sg277
g0
(g174
g2
Ntp1657
Rp1658
(dp1659
g49
I1
sg120
Nsg178
g165
sg50
Nsg179
(I0
F-0.04861111111111111
tp1660
sg51
g7
sg52
(dp1661
I139867859236112
g1655
ssbsg52
(dp1662
sg51
g7
sbsI139867859237008
g0
(g182
g2
Ntp1663
Rp1664
(dp1665
g49
I2
sg186
I2
sg187
g190
sg276
I2
sg277
g0
(g174
g2
Ntp1666
Rp1667
(dp1668
g49
I1
sg120
Nsg178
g165
sg50
Nsg179
(I0
F0.04861111111111111
tp1669
sg51
g7
sg52
(dp1670
I139867859237008
g1664
ssbsg52
(dp1671
sg51
g7
sbsI139867859237328
g0
(g182
g2
Ntp1672
Rp1673
(dp1674
g49
I2
sg186
I2
sg187
g190
sg276
I2
sg277
g0
(g174
g2
Ntp1675
Rp1676
(dp1677
g49
I1
sg120
Nsg178
g165
sg50
Nsg179
(I0
F0.04722222222222222
tp1678
sg51
g7
sg52
(dp1679
I139867859237328
g1673
ssbsg52
(dp1680
sg51
g7
sbsI139867859238416
g184
sI139867859237584
g0
(g182
g2
Ntp1681
Rp1682
(dp1683
g49
I2
sg186
I2
sg187
g190
sg276
I2
sg277
g0
(g174
g2
Ntp1684
Rp1685
(dp1686
g49
I1
sg120
Nsg178
g165
sg50
Nsg179
(I0
F-0.04722222222222222
tp1687
sg51
g7
sg52
(dp1688
I139867859237584
g1682
ssbsg52
(dp1689
sg51
g7
sbssg51
g7
sbsg276
I2
sg277
g176
sg52
(dp1690
sg51
g7
sbssbsI139867859196880
g1496
sI139867859527632
g133
sI139867859237904
g1649
sI139867859235856
g1658
sI139867859235088
g1478
sI139867859235792
g1667
sI139867859238288
g1676
sI139867859085712
g1487
sI139867859195216
g609
sI139867859086992
g1514
sI139867859546064
g1469
sI139867859196624
g1505
sI139867859237648
g1685
ssbsg155
g121
(g122
(I0
tp1691
g124
tp1692
Rp1693
(I1
(I2
I2
tp1694
g59
I00
S'\x00\x00\x00\x00\x00\x00\x00\x00\x00\x00\x00\x00\x00\x00\x00\x00\x00\x00\x00\x00\x00\x00{@\x00\x00\x00\x00\x00\x00r@'
p1695
tp1696
bsg52
(dp1697
I139867859528208
g118
ssg51
g7
sbsg52
(dp1698
I139867859529552
g212
ssg51
g7
sbsS'_us_dashes'
p1699
(NNtp1700
sS'_capstyle'
p1701
Vbutt
p1702
sS'_url'
p1703
Nsg25
NsS'_axes'
p1704
Nsg34
Nsbsg42
Nsg88
NsV_restore_to_pylab
p1705
I01
sS'images'
p1706
(lp1707
sS'_suptitle'
p1708
NsS'dpi_scale_trans'
p1709
g165
sS'number'
p1710
I1
sS'callbacks'
p1711
g0
(cmatplotlib.cbook
CallbackRegistry
p1712
g2
Ntp1713
Rp1714
I01
bsg96
NsS'_tight'
p1715
I00
sg86
I01
sS'bbox'
p1716
g133
sg103
g0
(g104
g105
((lp1717
(lp1718
tp1719
tp1720
Rp1721
sg111
I0
sS'patches'
p1722
(lp1723
sS'legends'
p1724
(lp1725
sS'suppressComposite'
p1726
Nsg112
I00
sg114
NsS'_axstack'
p1727
g0
(cmatplotlib.figure
AxesStack
p1728
g2
Ntp1729
Rp1730
(dp1731
S'_default'
p1732
NsS'_elements'
p1733
(lp1734
(((g0
(cmatplotlib.gridspec
SubplotSpec
p1735
g2
Ntp1736
Rp1737
(dp1738
S'num1'
p1739
I0
sS'num2'
p1740
I0
sS'_gridspec'
p1741
g0
(cmatplotlib.gridspec
GridSpec
p1742
g2
Ntp1743
Rp1744
(dp1745
S'_nrows'
p1746
I1
sS'right'
p1747
NsS'_col_width_ratios'
p1748
NsS'bottom'
p1749
NsS'top'
p1750
NsS'wspace'
p1751
NsS'_ncols'
p1752
I1
sS'hspace'
p1753
NsS'_row_height_ratios'
p1754
NsS'left'
p1755
Nsbsbtp1756
(ttp1757
(I1
g0
(cmatplotlib.axes._subplots
_PicklableSubplotClassConstructor
p1758
g2
Ntp1759
Rp1760
(cmatplotlib.axes._axes
Axes
p1761
tp1762
Rp1763
(dp1764
S'transLimits'
p1765
g1421
sS'_get_patches_for_fill'
p1766
g0
(cmatplotlib.axes._base
_process_plot_var_args
p1767
g2
Ntp1768
Rp1769
(dp1770
Vaxes
p1771
g1763
sVcommand
p1772
Vfill
p1773
sbsS'_xcid'
p1774
I1
sg6
V
p1775
sS'legend_'
p1776
Nsg12
(lp1777
sS'_frameon'
p1778
I01
sS'_autoscaleYon'
p1779
I00
sg14
I01
sg15
(lp1780
sg20
I01
sS'tables'
p1781
(lp1782
sg1722
(lp1783
sS'title'
p1784
g0
(cmatplotlib.text
Text
p1785
g2
Ntp1786
Rp1787
(dp1788
g6
g7
sg8
I01
sg9
g4
sg10
NsS'_fontproperties'
p1789
g0
(cmatplotlib.font_manager
FontProperties
p1790
g2
Ntp1791
Rp1792
(dp1793
S'_family'
p1794
(lp1795
Vsans-serif
p1796
asS'_file'
p1797
NsS'_variant'
p1798
Vnormal
p1799
sS'_slant'
p1800
g1799
sS'_size'
p1801
F9.6
sS'_weight'
p1802
I400
sS'_stretch'
p1803
g1799
sbsg42
Nsg17
g18
sS'_multialignment'
p1804
Nsg20
I01
sg23
Nsg75
F1.0
sg76
F0.5
sg24
Nsg25
Nsg11
Nsg28
I00
sg29
I00
sg30
(dp1805
sS'_renderer'
p1806
Nsg32
I00
sg1704
g1763
sg88
Nsg1703
NsS'_rotation_mode'
p1807
Nsg33
Nsg96
Nsg86
I01
sS'_verticalalignment'
p1808
Vbaseline
p1809
sS'_text'
p1810
V
p1811
sS'_bbox_patch'
p1812
Nsg103
g0
(g104
g105
((lp1813
(lp1814
tp1815
tp1816
Rp1817
sg111
I0
sS'_rotation'
p1818
Nsg112
I01
sg114
NsS'_linespacing'
p1819
F1.2
sg115
g614
sS'_usetex'
p1820
I00
sS'_wrap'
p1821
I00
sg43
NsS'_color'
p1822
V0.
p1823
sS'_horizontalalignment'
p1824
Vcenter
p1825
sg34
NsbsS'_current_image'
p1826
NsS'mouseover_set'
p1827
c__builtin__
set
p1828
((lp1829
tp1830
Rp1831
sg11
NsS'_cursorProps'
p1832
(I1
(g55
(g59
S'\x00\x00\x00\x00\x00\x00\x00\x00'
p1833
tp1834
Rp1835
g55
(g59
S'\x00\x00\x00\x00\x00\x00\x00\x00'
p1836
tp1837
Rp1838
g55
(g59
S'\x00\x00\x00\x00\x00\x00\x00\x00'
p1839
tp1840
Rp1841
I1
tp1842
tp1843
sS'numRows'
p1844
I1
sS'collections'
p1845
(lp1846
g0
(cmatplotlib.collections
PathCollection
p1847
g2
Ntp1848
Rp1849
(dp1850
g6
V_collection0
p1851
sg8
I01
sg9
g4
sS'_linestyles'
p1852
(lp1853
(NNtp1854
asS'_offset_position'
p1855
Vscreen
p1856
sg10
Nsg42
NsS'callbacksSM'
p1857
g0
(g1712
g2
Ntp1858
Rp1859
I01
bsg17
NsS'_offsets'
p1860
g121
(g122
(I0
tp1861
g124
tp1862
Rp1863
(I1
(I10
I2
tp1864
g56
(S'O8'
p1865
I0
I1
tp1866
Rp1867
(I3
S'|'
p1868
NNNI-1
I-1
I63
tp1869
bI00
(lp1870
F0.01
acsympy.core.numbers
Float
p1871
((I0
S'12fL'
p1872
I-1
I9
tp1873
tp1874
Rp1875
(dp1876
S'_prec'
p1877
I53
sbaF0.45333333333333337
ag1871
((I0
S'4cf0f0f0f0f0fL'
p1878
I-48
I51
tp1879
tp1880
Rp1881
(dp1882
g1877
I53
sbaF0.8966666666666667
ag1871
((I0
S'658816d713fc3L'
p1883
I-49
I51
tp1884
tp1885
Rp1886
(dp1887
g1877
I53
sbaF1.34
ag1871
((I0
S'14f4898d5f85bbL'
p1888
I-51
I53
tp1889
tp1890
Rp1891
(dp1892
g1877
I53
sbaF1.7833333333333334
ag1871
((I0
S'12ba9de81323e3L'
p1893
I-51
I53
tp1894
tp1895
Rp1896
(dp1897
g1877
I53
sbaF2.2266666666666666
ag1871
((I0
S'458e901886e5fL'
p1898
I-49
I51
tp1899
tp1900
Rp1901
(dp1902
g1877
I53
sbaF2.67
ag1871
((I0
S'20fd1fa3f47e9L'
p1903
I-48
I50
tp1904
tp1905
Rp1906
(dp1907
g1877
I53
sbaF3.1133333333333333
ag1871
((I0
S'1fb57291d0db47L'
p1908
I-52
I53
tp1909
tp1910
Rp1911
(dp1912
g1877
I53
sbaF3.5566666666666666
ag1871
((I0
S'1ebf75cd9da179L'
p1913
I-52
I53
tp1914
tp1915
Rp1916
(dp1917
g1877
I53
sbaF4.0
ag1871
((I0
S'fL'
p1918
I-3
I4
tp1919
tp1920
Rp1921
(dp1922
g1877
I53
sbatp1923
bsS'_paths'
p1924
(g0
(cmatplotlib.path
Path
p1925
g2
Ntp1926
Rp1927
(dp1928
S'_should_simplify'
p1929
I00
sS'_codes'
p1930
g121
(g122
(I0
tp1931
g124
tp1932
Rp1933
(I1
(I26
tp1934
g56
(S'u1'
p1935
I0
I1
tp1936
Rp1937
(I3
S'|'
p1938
NNNI-1
I-1
I0
tp1939
bI00
S'\x01\x04\x04\x04\x04\x04\x04\x04\x04\x04\x04\x04\x04\x04\x04\x04\x04\x04\x04\x04\x04\x04\x04\x04\x04O'
p1940
tp1941
bsS'_vertices'
p1942
g121
(g122
(I0
tp1943
g124
tp1944
Rp1945
(I1
(I26
I2
tp1946
g59
I00
S'\x00\x00\x00\x00\x00\x00\x00\x00\x00\x00\x00\x00\x00\x00\xe0\xbfr\x0fSl\x16\xf9\xc0?\x00\x00\x00\x00\x00\x00\xe0\xbf\x89\xc9\x15\xf7e\xa0\xd0?\x11\xae\xe8\xd5\xd6\xa0\xdc\xbf\xcd;\x7ff\x9e\xa0\xd6?\xcd;\x7ff\x9e\xa0\xd6\xbf\x11\xae\xe8\xd5\xd6\xa0\xdc?\x89\xc9\x15\xf7e\xa0\xd0\xbf\x00\x00\x00\x00\x00\x00\xe0?r\x0fSl\x16\xf9\xc0\xbf\x00\x00\x00\x00\x00\x00\xe0?\x00\x00\x00\x00\x00\x00\x00\x00\x00\x00\x00\x00\x00\x00\xe0?r\x0fSl\x16\xf9\xc0?\x11\xae\xe8\xd5\xd6\xa0\xdc?\x89\xc9\x15\xf7e\xa0\xd0?\xcd;\x7ff\x9e\xa0\xd6?\xcd;\x7ff\x9e\xa0\xd6?\x89\xc9\x15\xf7e\xa0\xd0?\x11\xae\xe8\xd5\xd6\xa0\xdc?r\x0fSl\x16\xf9\xc0?\x00\x00\x00\x00\x00\x00\xe0?\x00\x00\x00\x00\x00\x00\x00\x00\x00\x00\x00\x00\x00\x00\xe0?r\x0fSl\x16\xf9\xc0\xbf\x00\x00\x00\x00\x00\x00\xe0?\x89\xc9\x15\xf7e\xa0\xd0\xbf\x11\xae\xe8\xd5\xd6\xa0\xdc?\xcd;\x7ff\x9e\xa0\xd6\xbf\xcd;\x7ff\x9e\xa0\xd6?\x11\xae\xe8\xd5\xd6\xa0\xdc\xbf\x89\xc9\x15\xf7e\xa0\xd0?\x00\x00\x00\x00\x00\x00\xe0\xbfr\x0fSl\x16\xf9\xc0?\x00\x00\x00\x00\x00\x00\xe0\xbf\x00\x00\x00\x00\x00\x00\x00\x00\x00\x00\x00\x00\x00\x00\xe0\xbfr\x0fSl\x16\xf9\xc0\xbf\x11\xae\xe8\xd5\xd6\xa0\xdc\xbf\x89\xc9\x15\xf7e\xa0\xd0\xbf\xcd;\x7ff\x9e\xa0\xd6\xbf\xcd;\x7ff\x9e\xa0\xd6\xbf\x89\xc9\x15\xf7e\xa0\xd0\xbf\x11\xae\xe8\xd5\xd6\xa0\xdc\xbfr\x0fSl\x16\xf9\xc0\xbf\x00\x00\x00\x00\x00\x00\xe0\xbf\x00\x00\x00\x00\x00\x00\x00\x00\x00\x00\x00\x00\x00\x00\xe0\xbf\x00\x00\x00\x00\x00\x00\x00\x00\x00\x00\x00\x00\x00\x00\xe0\xbf'
p1947
tp1948
bsS'_readonly'
p1949
I00
sS'_simplify_threshold'
p1950
F0.1111111111111111
sS'_interpolation_steps'
p1951
I1
sS'_has_nonfinite'
p1952
I00
sbtp1953
sg20
I01
sS'_A'
p1954
NsS'_us_linestyles'
p1955
(lp1956
(NNtp1957
asS'_sizes'
p1958
g121
(g122
(I0
tp1959
g124
tp1960
Rp1961
(I1
(I1
tp1962
g56
(S'i8'
p1963
I0
I1
tp1964
Rp1965
(I3
S'<'
p1966
NNNI-1
I-1
I0
tp1967
bI00
S'(\x00\x00\x00\x00\x00\x00\x00'
p1968
tp1969
bsS'_transforms'
p1970
g121
(g122
(I0
tp1971
g124
tp1972
Rp1973
(I1
(I1
I3
I3
tp1974
g59
I00
S'S[\xda:XL\x19@\x00\x00\x00\x00\x00\x00\x00\x00\x00\x00\x00\x00\x00\x00\x00\x00\x00\x00\x00\x00\x00\x00\x00\x00S[\xda:XL\x19@\x00\x00\x00\x00\x00\x00\x00\x00\x00\x00\x00\x00\x00\x00\x00\x00\x00\x00\x00\x00\x00\x00\x00\x00\x00\x00\x00\x00\x00\x00\xf0?'
p1975
tp1976
bsg23
Nsg24
Nsg77
S'k'
p1977
sg11
Nsg28
I00
sS'_facecolors'
p1978
g121
(g122
(I0
tp1979
g124
tp1980
Rp1981
(I1
(I1
I4
tp1982
g59
I00
S'\x00\x00\x00\x00\x00\x00\x00\x00\x00\x00\x00\x00\x00\x00\x00\x00\x00\x00\x00\x00\x00\x00\x00\x00\x00\x00\x00\x00\x00\x00\xf0?'
p1983
tp1984
bsS'_uniform_offsets'
p1985
Nsg29
I00
sg30
(dp1986
sS'_antialiaseds'
p1987
(I01
tp1988
sS'zorder'
p1989
I1
sg32
I00
sS'norm'
p1990
g0
(cmatplotlib.colors
Normalize
p1991
g2
Ntp1992
Rp1993
(dp1994
S'vmax'
p1995
NsS'clip'
p1996
I00
sS'vmin'
p1997
Nsbsg85
NsS'_urls'
p1998
(lp1999
NasS'_edgecolors'
p2000
g121
(g122
(I0
tp2001
g124
tp2002
Rp2003
(I1
(I1
I4
tp2004
g59
I00
S'\x00\x00\x00\x00\x00\x00\x00\x00\x00\x00\x00\x00\x00\x00\x00\x00\x00\x00\x00\x00\x00\x00\x00\x00\x00\x00\x00\x00\x00\x00\xf0?'
p2005
tp2006
bsg88
g761
sS'_pickradius'
p2007
F5.0
sg33
Nsg90
(g55
(g59
S'\x00\x00\x00\x00\x00\x00\x00\x00'
p2008
tp2009
Rp2010
g55
(g59
S'\x00\x00\x00\x00\x00\x00\x00\x00'
p2011
tp2012
Rp2013
g55
(g59
S'\x00\x00\x00\x00\x00\x00\x00\x00'
p2014
tp2015
Rp2016
g55
(g59
S'\x00\x00\x00\x00\x00\x00\xf0?'
p2017
tp2018
Rp2019
tp2020
sg94
g1977
sS'update_dict'
p2021
(dp2022
Varray
p2023
I00
ssg96
Nsg86
I01
sS'_linewidths'
p2024
(F1.0
tp2025
sg103
g0
(g104
g105
((lp2026
(lp2027
tp2028
tp2029
Rp2030
sg111
I0
sS'_is_stroked'
p2031
I01
sS'_is_filled'
p2032
I01
sg112
I01
sS'_transOffset'
p2033
g1457
sg114
Nsg115
g0
(g45
g2
Ntp2034
Rp2035
(dp2036
g49
I1
sg50
Nsg51
g7
sg52
(dp2037
sbsS'colorbar'
p2038
NsS'_us_lw'
p2039
g2025
sS'cmap'
p2040
g0
(cmatplotlib.colors
LinearSegmentedColormap
p2041
g2
Ntp2042
Rp2043
(dp2044
S'_gamma'
p2045
F1.0
sS'_i_bad'
p2046
I258
sS'_rgba_over'
p2047
NsS'name'
p2048
VGreys
p2049
sS'_i_under'
p2050
I256
sS'_i_over'
p2051
I257
sS'N'
p2052
I256
sS'_segmentdata'
p2053
(dp2054
S'blue'
p2055
(lp2056
(g55
(g59
S'\x00\x00\x00\x00\x00\x00\x00\x00'
p2057
tp2058
Rp2059
g55
(g59
S'\x00\x00\x00\x00\x00\x00\xf0?'
p2060
tp2061
Rp2062
g2062
tp2063
a(g55
(g59
S'\x00\x00\x00\x00\x00\x00\xc0?'
p2064
tp2065
Rp2066
g55
(g59
S'\x1e\x1e\x1e\x1e\x1e\x1e\xee?'
p2067
tp2068
Rp2069
g2069
tp2070
a(g55
(g59
S'\x00\x00\x00\x00\x00\x00\xd0?'
p2071
tp2072
Rp2073
g55
(g59
S';;;;;;\xeb?'
p2074
tp2075
Rp2076
g2076
tp2077
a(g55
(g59
S'\x00\x00\x00\x00\x00\x00\xd8?'
p2078
tp2079
Rp2080
g55
(g59
S'\xb8\xb7\xb7\xb7\xb7\xb7\xe7?'
p2081
tp2082
Rp2083
g2083
tp2084
a(g55
(g59
S'\x00\x00\x00\x00\x00\x00\xe0?'
p2085
tp2086
Rp2087
g55
(g59
S'\xd3\xd2\xd2\xd2\xd2\xd2\xe2?'
p2088
tp2089
Rp2090
g2090
tp2091
a(g55
(g59
S'\x00\x00\x00\x00\x00\x00\xe4?'
p2092
tp2093
Rp2094
g55
(g59
S'\xdd\xdc\xdc\xdc\xdc\xdc\xdc?'
p2095
tp2096
Rp2097
g2097
tp2098
a(g55
(g59
S'\x00\x00\x00\x00\x00\x00\xe8?'
p2099
tp2100
Rp2101
g55
(g59
S'\x95\x94\x94\x94\x94\x94\xd4?'
p2102
tp2103
Rp2104
g2104
tp2105
a(g55
(g59
S'\x00\x00\x00\x00\x00\x00\xec?'
p2106
tp2107
Rp2108
g55
(g59
S'\x93\x92\x92\x92\x92\x92\xc2?'
p2109
tp2110
Rp2111
g2111
tp2112
a(g55
(g59
S'\x00\x00\x00\x00\x00\x00\xf0?'
p2113
tp2114
Rp2115
g55
(g59
S'\x00\x00\x00\x00\x00\x00\x00\x00'
p2116
tp2117
Rp2118
g2118
tp2119
asS'alpha'
p2120
(lp2121
(g2059
I1
I1
tp2122
a(g2066
I1
I1
tp2123
a(g2073
I1
I1
tp2124
a(g2080
I1
I1
tp2125
a(g2087
I1
I1
tp2126
a(g2094
I1
I1
tp2127
a(g2101
I1
I1
tp2128
a(g2108
I1
I1
tp2129
a(g2115
I1
I1
tp2130
asS'green'
p2131
(lp2132
(g2059
g55
(g59
S'\x00\x00\x00\x00\x00\x00\xf0?'
p2133
tp2134
Rp2135
g2135
tp2136
a(g2066
g55
(g59
S'\x1e\x1e\x1e\x1e\x1e\x1e\xee?'
p2137
tp2138
Rp2139
g2139
tp2140
a(g2073
g55
(g59
S';;;;;;\xeb?'
p2141
tp2142
Rp2143
g2143
tp2144
a(g2080
g55
(g59
S'\xb8\xb7\xb7\xb7\xb7\xb7\xe7?'
p2145
tp2146
Rp2147
g2147
tp2148
a(g2087
g55
(g59
S'\xd3\xd2\xd2\xd2\xd2\xd2\xe2?'
p2149
tp2150
Rp2151
g2151
tp2152
a(g2094
g55
(g59
S'\xdd\xdc\xdc\xdc\xdc\xdc\xdc?'
p2153
tp2154
Rp2155
g2155
tp2156
a(g2101
g55
(g59
S'\x95\x94\x94\x94\x94\x94\xd4?'
p2157
tp2158
Rp2159
g2159
tp2160
a(g2108
g55
(g59
S'\x93\x92\x92\x92\x92\x92\xc2?'
p2161
tp2162
Rp2163
g2163
tp2164
a(g2115
g55
(g59
S'\x00\x00\x00\x00\x00\x00\x00\x00'
p2165
tp2166
Rp2167
g2167
tp2168
asS'red'
p2169
(lp2170
(g2059
g55
(g59
S'\x00\x00\x00\x00\x00\x00\xf0?'
p2171
tp2172
Rp2173
g2173
tp2174
a(g2066
g55
(g59
S'\x1e\x1e\x1e\x1e\x1e\x1e\xee?'
p2175
tp2176
Rp2177
g2177
tp2178
a(g2073
g55
(g59
S';;;;;;\xeb?'
p2179
tp2180
Rp2181
g2181
tp2182
a(g2080
g55
(g59
S'\xb8\xb7\xb7\xb7\xb7\xb7\xe7?'
p2183
tp2184
Rp2185
g2185
tp2186
a(g2087
g55
(g59
S'\xd3\xd2\xd2\xd2\xd2\xd2\xe2?'
p2187
tp2188
Rp2189
g2189
tp2190
a(g2094
g55
(g59
S'\xdd\xdc\xdc\xdc\xdc\xdc\xdc?'
p2191
tp2192
Rp2193
g2193
tp2194
a(g2101
g55
(g59
S'\x95\x94\x94\x94\x94\x94\xd4?'
p2195
tp2196
Rp2197
g2197
tp2198
a(g2108
g55
(g59
S'\x93\x92\x92\x92\x92\x92\xc2?'
p2199
tp2200
Rp2201
g2201
tp2202
a(g2115
g55
(g59
S'\x00\x00\x00\x00\x00\x00\x00\x00'
p2203
tp2204
Rp2205
g2205
tp2206
assS'_rgba_under'
p2207
NsS'_rgba_bad'
p2208
(F0.0
F0.0
F0.0
F0.0
tp2209
sS'monochrome'
p2210
I00
sS'colorbar_extend'
p2211
I00
sS'_isinit'
p2212
I00
sbsg43
Nsg1703
Nsg25
Nsg1704
g1763
sg34
Nsbasg1704
g1763
sg30
(dp2213
sg32
I00
sS'containers'
p2214
(lp2215
sg29
I00
sg88
NsS'_get_lines'
p2216
g0
(g1767
g2
Ntp2217
Rp2218
(dp2219
g1771
g1763
sg1772
Vplot
p2220
sbsS'_aspect'
p2221
Vauto
p2222
sS'fmt_xdata'
p2223
Nsg1711
g0
(g1712
g2
Ntp2224
Rp2225
I01
bsg96
Nsg97
Vwhite
p2226
sg86
I01
sg1716
g212
sS'ignore_existing_data_limits'
p2227
I00
sg24
Nsg111
I0
sg112
I00
sS'_left_title'
p2228
g0
(g1785
g2
Ntp2229
Rp2230
(dp2231
g6
g7
sg8
I01
sg9
g4
sg10
Nsg1789
g0
(g1790
g2
Ntp2232
Rp2233
(dp2234
g1794
g1795
sg1797
Nsg1798
g1799
sg1800
g1799
sg1801
F9.6
sg1802
I400
sg1803
g1799
sbsg42
Nsg17
g18
sg1804
Nsg20
I01
sg23
Nsg75
F1.0
sg76
F0.0
sg24
Nsg25
Nsg11
Nsg28
I00
sg29
I00
sg30
(dp2235
sg1806
Nsg32
I00
sg1704
g1763
sg88
Nsg1703
Nsg1807
Nsg33
Nsg96
Nsg86
I01
sg1808
Vbaseline
p2236
sg1810
V
p2237
sg1812
Nsg103
g0
(g104
g105
((lp2238
(lp2239
tp2240
tp2241
Rp2242
sg111
I0
sg1818
Nsg112
I01
sg114
Nsg1819
F1.2
sg115
g618
sg1820
I00
sg1821
I00
sg43
Nsg1822
g1823
sg1824
Vleft
p2243
sg34
NsbsS'_right_title'
p2244
g0
(g1785
g2
Ntp2245
Rp2246
(dp2247
g6
g7
sg8
I01
sg9
g4
sg10
Nsg1789
g0
(g1790
g2
Ntp2248
Rp2249
(dp2250
g1794
g1795
sg1797
Nsg1798
g1799
sg1800
g1799
sg1801
F9.6
sg1802
I400
sg1803
g1799
sbsg42
Nsg17
g18
sg1804
Nsg20
I01
sg23
Nsg75
F1.0
sg76
F1.0
sg24
Nsg25
Nsg11
Nsg28
I00
sg29
I00
sg30
(dp2251
sg1806
Nsg32
I00
sg1704
g1763
sg88
Nsg1703
Nsg1807
Nsg33
Nsg96
Nsg86
I01
sg1808
g2236
sg1810
V
p2252
sg1812
Nsg103
g0
(g104
g105
((lp2253
(lp2254
tp2255
tp2256
Rp2257
sg111
I0
sg1818
Nsg112
I01
sg114
Nsg1819
F1.2
sg115
g606
sg1820
I00
sg1821
I00
sg43
Nsg1822
g1823
sg1824
Vright
p2258
sg34
NsbsS'transScale'
p2259
g1451
sg115
NsS'axison'
p2260
I01
sS'patch'
p2261
g0
(g36
g2
Ntp2262
Rp2263
(dp2264
g6
g7
sg40
F1.0
sg41
I01
sg9
g4
sg8
I01
sg10
Nsg42
Nsg17
g18
sg43
Nsg20
I01
sg44
g0
(g45
g2
Ntp2265
Rp2266
(dp2267
g49
I1
sg50
Nsg51
g7
sg52
(dp2268
sbsg54
(F0.0
F0.0
F0.0
F0.0
tp2269
sg23
Nsg75
F0.0
sg76
F0.0
sg24
Nsg77
VNone
p2270
sg11
Nsg28
I00
sg29
I00
sg30
(dp2271
sg80
g720
sg32
I00
sg85
Nsg86
I01
sg87
F0.0
sg88
Nsg89
F1.0
sg33
Nsg90
g2269
sg91
Nsg92
I01
sg93
Nsg94
g2226
sg96
Nsg97
g98
sg99
g100
sg101
g102
sg103
g0
(g104
g105
((lp2272
(lp2273
tp2274
tp2275
Rp2276
sg111
I0
sg112
I01
sg113
F0.0
sg114
Nsg115
g193
sg1699
(NNtp2277
sg1701
g1702
sg1703
Nsg25
Nsg1704
Nsg34
NsbsS'viewLim'
p2278
g1428
sg17
g18
sS'_subplotspec'
p2279
g1737
sS'_adjustable'
p2280
Vbox
p2281
sg9
g4
sS'titleOffsetTrans'
p2282
g609
sS'_yaxis_transform'
p2283
g1461
sS'_gridOn'
p2284
I00
sg10
NsS'colNum'
p2285
I0
sg42
Nsg1706
(lp2286
sS'_autoscaleXon'
p2287
I00
sS'_xmargin'
p2288
F0.05
sS'rowNum'
p2289
I0
sS'_position'
p2290
g215
sS'_rasterization_zorder'
p2291
NsS'_cachedRenderer'
p2292
NsS'_navigate'
p2293
I01
sg23
NsS'_originalPosition'
p2294
g0
(g136
g2
Ntp2295
Rp2296
(dp2297
g49
I1
sg140
g121
(g122
(I0
tp2298
g124
tp2299
Rp2300
(I1
(I2
tp2301
g59
I00
S'\x00\x00\x00\x00\x00\x00\xf0\x7f\x00\x00\x00\x00\x00\x00\xf0\x7f'
p2302
tp2303
bsg52
(dp2304
sg148
g121
(g122
(I0
tp2305
g124
tp2306
Rp2307
(I1
(I2
I2
tp2308
g59
I00
S'\x00\x00\x00\x00\x00\x00\xc0?\x00\x00\x00\x00\x00\x00\xc0?\xcd\xcc\xcc\xcc\xcc\xcc\xec?)\\\x8f\xc2\xf5(\xec?'
p2309
tp2310
bsg155
g121
(g122
(I0
tp2311
g124
tp2312
Rp2313
(I1
(I2
I2
tp2314
g59
I00
S'\x00\x00\x00\x00\x00\x00\xc0?\x00\x00\x00\x00\x00\x00\xc0?\xcd\xcc\xcc\xcc\xcc\xcc\xec?)\\\x8f\xc2\xf5(\xec?'
p2315
tp2316
bsg162
I01
sg51
g7
sbsg25
NsS'_xaxis_transform'
p2317
g190
sg28
I00
sS'figbox'
p2318
g215
sS'xaxis'
p2319
g0
(cmatplotlib.axis
XAxis
p2320
g2
Ntp2321
Rp2322
(dp2323
g6
g7
sS'major'
p2324
g0
(cmatplotlib.axis
Ticker
p2325
g2
Ntp2326
Rp2327
(dp2328
S'locator'
p2329
g0
(cmatplotlib.ticker
FixedLocator
p2330
g2
Ntp2331
Rp2332
(dp2333
S'locs'
p2334
g121
(g122
(I0
tp2335
g124
tp2336
Rp2337
(I1
(I4
tp2338
g1965
I00
S'\x00\x00\x00\x00\x00\x00\x00\x00\x01\x00\x00\x00\x00\x00\x00\x00\x02\x00\x00\x00\x00\x00\x00\x00\x03\x00\x00\x00\x00\x00\x00\x00'
p2339
tp2340
bsS'axis'
p2341
g2322
sS'nbins'
p2342
NsbsS'formatter'
p2343
g0
(cmatplotlib.ticker
ScalarFormatter
p2344
g2
Ntp2345
Rp2346
(dp2347
S'_powerlimits'
p2348
(lp2349
I-7
aI7
asS'orderOfMagnitude'
p2350
I0
sS'_useOffset'
p2351
I01
sS'_useLocale'
p2352
I00
sS'format'
p2353
g7
sS'_useMathText'
p2354
I00
sS'_offset_threshold'
p2355
I4
sS'offset'
p2356
I0
sg1820
I00
sS'_scientific'
p2357
I01
sg2341
g2322
sbsbsS'isDefault_label'
p2358
I00
sS'_scale'
p2359
g0
(cmatplotlib.scale
LinearScale
p2360
g2
Ntp2361
Rp2362
sg9
g4
sg8
I01
sS'_gridOnMinor'
p2363
I00
sg10
Nsg42
NsS'_smart_bounds'
p2364
I00
sg17
g18
sg20
I01
sg23
NsS'offsetText'
p2365
g0
(g1785
g2
Ntp2366
Rp2367
(dp2368
g6
g7
sg8
I01
sg9
g4
sg10
Nsg1789
g0
(g1790
g2
Ntp2369
Rp2370
(dp2371
g1794
(lp2372
g1796
asg1797
Nsg1798
g1799
sg1800
g1799
sg1801
F8.0
sg1802
I400
sg1803
g1799
sbsg42
Nsg17
g18
sg1804
Nsg20
I01
sg23
Nsg75
I0
sg76
I1
sg24
Nsg25
Nsg11
Nsg28
I00
sg29
I00
sg30
(dp2373
sg1806
Nsg32
I00
sg1704
Nsg88
Nsg1703
Nsg1807
Nsg33
Nsg96
Nsg86
I01
sg1808
Vtop
p2374
sg1810
V
p2375
sg1812
Nsg103
g0
(g104
g105
((lp2376
(lp2377
tp2378
tp2379
Rp2380
sg111
I0
sg1818
Nsg112
I01
sg114
Nsg1819
F1.2
sg115
g318
sg1820
I00
sg1821
I00
sg43
Nsg1822
V0.
p2381
sg1824
Vright
p2382
sg34
Nsbsg24
Nsg25
Nsg11
NsS'label'
p2383
g0
(g1785
g2
Ntp2384
Rp2385
(dp2386
g6
g7
sg8
I01
sg9
g4
sg10
Nsg1789
g0
(g1790
g2
Ntp2387
Rp2388
(dp2389
g1794
(lp2390
g1796
asg1797
Nsg1798
g1799
sg1800
g1799
sg1801
F10.0
sg1802
I400
sg1803
g1799
sbsg42
Nsg17
g18
sg1804
Nsg20
I01
sg23
Nsg75
I0
sg76
F0.5
sg24
Nsg25
Nsg11
Nsg28
I00
sg29
I00
sg30
(dp2391
sg1806
Nsg32
I00
sg1704
Nsg88
Nsg1703
Nsg1807
Nsg33
Nsg96
Nsg86
I01
sg1808
Vtop
p2392
sg1810
V$g_{exc}$ (nS)
p2393
sg1812
Nsg103
g0
(g104
g105
((lp2394
(lp2395
tp2396
tp2397
Rp2398
sg111
I0
sg1818
Nsg112
I01
sg114
Nsg1819
F1.2
sg115
g639
sg1820
I00
sg1821
I00
sg43
Nsg1822
V0.
p2399
sg1824
Vcenter
p2400
sg34
Nsbsg28
I00
sS'isDefault_majfmt'
p2401
I01
sg29
I00
sg30
(dp2402
sS'units'
p2403
Nsg32
I00
sS'minor'
p2404
g0
(g2325
g2
Ntp2405
Rp2406
(dp2407
g2329
g0
(cmatplotlib.ticker
NullLocator
p2408
g2
Ntp2409
Rp2410
(dp2411
g2341
g2322
sbsg2343
g0
(cmatplotlib.ticker
NullFormatter
p2412
g2
Ntp2413
Rp2414
(dp2415
g2341
g2322
sbsbsg1704
g1763
sS'_major_tick_kw'
p2416
(dp2417
Vlabel1On
p2418
I01
sVgridOn
p2419
I00
sVlabel2On
p2420
I00
sVtick1On
p2421
I01
sVtick2On
p2422
I00
ssS'isDefault_minloc'
p2423
I01
sg88
g440
sg33
NsS'_gridOnMajor'
p2424
I00
sS'_lastNumMinorTicks'
p2425
I1
sS'labelpad'
p2426
F4.0
sS'majorTicks'
p2427
(lp2428
g0
(cmatplotlib.axis
XTick
p2429
g2
Ntp2430
Rp2431
(dp2432
g6
g7
sg40
F0.8
sg9
g4
sS'tick1On'
p2433
I01
sg8
I01
sg10
Nsg111
I0
sg42
NsS'_pad'
p2434
F3.5
sS'_labelcolor'
p2435
g2381
sS'gridOn'
p2436
I00
sg1801
F0.0
sg17
g18
sS'_tickdir'
p2437
Vout
p2438
sg2383
g0
(g1785
g2
Ntp2439
Rp2440
(dp2441
g6
g7
sg8
I01
sg9
g4
sg10
Nsg1789
g0
(g1790
g2
Ntp2442
Rp2443
(dp2444
g1794
(lp2445
g1796
asg1797
Nsg1798
g1799
sg1800
g1799
sg1801
F8.0
sg1802
I400
sg1803
g1799
sbsg42
Nsg17
g18
sg1804
Nsg20
I01
sg23
Nsg75
I0
sg76
I0
sg24
Nsg25
Nsg11
Nsg28
I00
sg29
I00
sg30
(dp2446
sg1806
Nsg32
I00
sg1704
Nsg88
Nsg1703
Nsg1807
Nsg33
Nsg96
Nsg86
I01
sg1808
Vtop
p2447
sg1810
V
p2448
sg1812
Nsg103
g0
(g104
g105
((lp2449
(lp2450
tp2451
tp2452
Rp2453
sg111
I0
sg1818
Nsg112
I01
sg114
Nsg1819
F1.2
sg115
g1655
sg1820
I00
sg1821
I00
sg43
Nsg1822
g2381
sg1824
Vcenter
p2454
sg34
Nsbsg20
I01
sg23
NsS'label2On'
p2455
I00
sg24
Nsg25
Nsg11
NsS'tick2On'
p2456
I00
sg28
I00
sg29
I00
sg30
(dp2457
sS'_tickmarkers'
p2458
(I3
I2
tp2459
sg32
I00
sS'_zorder'
p2460
F2.01
sg1704
g1763
sS'label1On'
p2461
I01
sg88
g1181
sg1703
NsS'label1'
p2462
g2440
sS'label2'
p2463
g0
(g1785
g2
Ntp2464
Rp2465
(dp2466
g6
g7
sg8
I01
sg9
g4
sg10
Nsg1789
g0
(g1790
g2
Ntp2467
Rp2468
(dp2469
g1794
(lp2470
g1796
asg1797
Nsg1798
g1799
sg1800
g1799
sg1801
F8.0
sg1802
I400
sg1803
g1799
sbsg42
Nsg17
g18
sg1804
Nsg20
I01
sg23
Nsg75
I1
sg76
I0
sg24
Nsg25
Nsg11
Nsg28
I00
sg29
I00
sg30
(dp2471
sg1806
Nsg32
I00
sg1704
Nsg88
Nsg1703
Nsg1807
Nsg33
Nsg96
Nsg86
I01
sg1808
Vbottom
p2472
sg1810
V
p2473
sg1812
Nsg103
g0
(g104
g105
((lp2474
(lp2475
tp2476
tp2477
Rp2478
sg111
I0
sg1818
Nsg112
I01
sg114
Nsg1819
F1.2
sg115
g1664
sg1820
I00
sg1821
I00
sg43
Nsg1822
g2381
sg1824
g2454
sg34
Nsbsg96
NsS'_loc'
p2479
I0
sg86
I01
sg103
g0
(g104
g105
((lp2480
(lp2481
tp2482
tp2483
Rp2484
sS'_base_pad'
p2485
F3.5
sS'tick1line'
p2486
g0
(cmatplotlib.lines
Line2D
p2487
g2
Ntp2488
Rp2489
(dp2490
g6
g7
sS'_dashcapstyle'
p2491
Vbutt
p2492
sg1852
Nsg20
I01
sS'_x_filled'
p2493
NsS'ind_offset'
p2494
I0
sg75
Nsg76
Nsg24
Nsg11
Nsg29
I00
sg30
(dp2495
sg32
I00
sg1704
NsS'_markeredgewidth'
p2496
F0.8
sS'_dashSeq'
p2497
NsS'_markerfacecoloralt'
p2498
Vnone
p2499
sS'_markeredgecolor'
p2500
Vauto
p2501
sg96
Nsg86
I01
sS'_xorig'
p2502
(I0
tp2503
sg111
I0
sg112
I01
sS'_invalidy'
p2504
I01
sS'_invalidx'
p2505
I01
sg115
g190
sS'_us_dashSeq'
p2506
Nsg1989
F2.01
sg1822
g2381
sS'pickradius'
p2507
I5
sg9
g4
sS'verticalOffset'
p2508
Nsg10
Nsg42
Nsg17
g18
sS'_solidjoinstyle'
p2509
Vround
p2510
sg23
Nsg25
Nsg28
I00
sS'_markevery'
p2511
Nsg34
NsS'_transformed_path'
p2512
NsS'_marker'
p2513
g0
(cmatplotlib.markers
MarkerStyle
p2514
g2
Ntp2515
Rp2516
(dp2517
g2513
I3
sS'_alt_path'
p2518
NsS'_snap_threshold'
p2519
F1.0
sg115
g0
(g163
g2
Ntp2520
Rp2521
(dp2522
g49
I2
sg50
Nsg120
g121
(g122
(I0
tp2523
g124
tp2524
Rp2525
(I1
(I3
I3
tp2526
g59
I00
S'\x00\x00\x00\x00\x00\x00\xf0?\x00\x00\x00\x00\x00\x00\x00\x00\x00\x00\x00\x00\x00\x00\x00\x00\x00\x00\x00\x00\x00\x00\x00\x00\x00\x00\x00\x00\x00\x00\xf0\xbf\x00\x00\x00\x00\x00\x00\x00\x00\x00\x00\x00\x00\x00\x00\x00\x00\x00\x00\x00\x00\x00\x00\x00\x00\x00\x00\x00\x00\x00\x00\xf0?'
p2527
tp2528
bsg51
g7
sg52
(dp2529
sbsS'_filled'
p2530
I00
sS'_fillstyle'
p2531
Vfull
p2532
sS'_alt_transform'
p2533
Nsg1701
Vbutt
p2534
sg99
Vround
p2535
sS'_path'
p2536
g0
(g1925
g2
Ntp2537
Rp2538
(dp2539
g1929
I00
sg1930
Nsg1942
g121
(g122
(I0
tp2540
g124
tp2541
Rp2542
(I1
(I2
I2
tp2543
g59
I00
S'\x00\x00\x00\x00\x00\x00\x00\x80\x00\x00\x00\x00\x00\x00\x00\x00\x00\x00\x00\x00\x00\x00\x00\x80\x00\x00\x00\x00\x00\x00\xf0?'
p2544
tp2545
bsg1949
I00
sg1950
F0.1111111111111111
sg1951
I1
sg1952
I00
sbsbsS'_markerfacecolor'
p2546
Vauto
p2547
sg88
Nsg33
Nsg92
I01
sS'_xy'
p2548
Nsg101
VNone
p2549
sg103
g0
(g104
g105
((lp2550
(lp2551
tp2552
tp2553
Rp2554
sS'_subslice'
p2555
I00
sS'_drawstyle'
p2556
Vdefault
p2557
sS'_solidcapstyle'
p2558
g2510
sS'_us_dashOffset'
p2559
Nsg114
NsS'_dashjoinstyle'
p2560
g2510
sS'_markersize'
p2561
F0.0
sg8
I01
sS'_dashOffset'
p2562
Nsg43
Nsg1703
NsS'_yorig'
p2563
(I0
tp2564
sg87
F0.5
sg2536
Nsbsg112
I00
sS'gridline'
p2565
g0
(g2487
g2
Ntp2566
Rp2567
(dp2568
g6
g7
sg8
I01
sg2558
g2510
sg9
g4
sg2491
g2492
sg1852
Nsg10
Nsg42
Nsg17
g18
sg2509
g2510
sg20
I01
sg2493
Nsg23
Nsg75
g121
(g122
(I0
tp2569
g124
tp2570
Rp2571
(I1
(I2
tp2572
g59
I00
S'\x00\x00\x00\x00\x00\x00\x00\x00\x00\x00\x00\x00\x00\x00\xf0?'
p2573
tp2574
bsg76
g121
(g122
(I0
tp2575
g124
tp2576
Rp2577
(I1
(I2
tp2578
g59
I00
S'\x00\x00\x00\x00\x00\x00\x00\x00\x00\x00\x00\x00\x00\x00\x00\x00'
p2579
tp2580
bsg24
Nsg25
Nsg11
Nsg2502
(F0.0
F0.0
tp2581
sg28
I00
sg2511
Nsg29
I00
sg30
(dp2582
sg2508
Nsg32
I00
sg2555
I00
sg1704
Nsg2512
Nsg2496
F1.0
sg2546
g2547
sg2497
Nsg1822
V.8
p2583
sg2513
g0
(g2514
g2
Ntp2584
Rp2585
(dp2586
g2513
VNone
p2587
sg2518
Nsg2519
Nsg115
g0
(g45
g2
Ntp2588
Rp2589
(dp2590
g49
I1
sg50
Nsg51
g7
sg52
(dp2591
sbsg2530
I00
sg2531
g2532
sg2533
Nsg1701
g2534
sg99
g2535
sg2536
g0
(g1925
g2
Ntp2592
Rp2593
(dp2594
g1929
I00
sg1930
Nsg1942
g121
(g122
(I0
tp2595
g124
tp2596
Rp2597
(I1
(I0
I2
tp2598
g59
I00
S''
p2599
tp2600
bsg1949
I00
sg1950
F0.1111111111111111
sg1951
I1
sg1952
I00
sbsbsg33
Nsg2498
g2499
sg92
I01
sg2500
g2501
sg96
Nsg2561
F0.0
sg86
I01
sg2548
g121
(g122
(I0
tp2601
g124
tp2602
Rp2603
(I1
(I2
I2
tp2604
g59
I00
S'\x00\x00\x00\x00\x00\x00\x00\x00\x00\x00\x00\x00\x00\x00\x00\x00\x00\x00\x00\x00\x00\x00\x00\x00\x00\x00\x00\x00\x00\x00\xf0?'
p2605
tp2606
bsg101
V-
p2607
sg103
g0
(g104
g105
((lp2608
(lp2609
tp2610
tp2611
Rp2612
sg111
I0
sg2556
g2557
sg2494
I0
sg2559
Nsg2507
I5
sg112
I01
sg114
F1.0
sg2560
g2510
sg2505
I00
sg115
g190
sg2562
Nsg2506
Nsg2504
I00
sg43
Nsg1703
Nsg2563
(I0
F1.0
tp2613
sg88
g1041
sg87
F0.8
sg34
Nsg2536
g0
(g1925
g2
Ntp2614
Rp2615
(dp2616
g1929
I00
sg1930
Nsg1942
g2603
sg1949
I00
sg1950
F0.1111111111111111
sg1951
I180
sg1952
I00
sbsbsg114
Nsg33
NsS'tick2line'
p2617
g0
(g2487
g2
Ntp2618
Rp2619
(dp2620
g6
g7
sg2491
g2492
sg1852
Nsg20
I01
sg2493
Nsg2494
I0
sg75
Nsg76
Nsg24
Nsg11
Nsg29
I00
sg30
(dp2621
sg32
I00
sg1704
Nsg2496
F0.8
sg2497
Nsg2498
g2499
sg2500
g2501
sg96
Nsg86
I01
sg2502
(I0
tp2622
sg111
I0
sg112
I01
sg2504
I01
sg2505
I01
sg115
g190
sg2506
Nsg1989
F2.01
sg1822
g2381
sg2507
I5
sg9
g4
sg2508
Nsg10
Nsg42
Nsg17
g18
sg2509
g2510
sg23
Nsg25
Nsg28
I00
sg2511
Nsg34
Nsg2512
Nsg2513
g0
(g2514
g2
Ntp2623
Rp2624
(dp2625
g2513
I2
sg2518
Nsg2519
F1.0
sg115
g0
(g163
g2
Ntp2626
Rp2627
(dp2628
g49
I2
sg50
Nsg120
g121
(g122
(I0
tp2629
g124
tp2630
Rp2631
(I1
(I3
I3
tp2632
g59
I00
S'\x00\x00\x00\x00\x00\x00\xf0?\x00\x00\x00\x00\x00\x00\x00\x00\x00\x00\x00\x00\x00\x00\x00\x00\x00\x00\x00\x00\x00\x00\x00\x00\x00\x00\x00\x00\x00\x00\xf0?\x00\x00\x00\x00\x00\x00\x00\x00\x00\x00\x00\x00\x00\x00\x00\x00\x00\x00\x00\x00\x00\x00\x00\x00\x00\x00\x00\x00\x00\x00\xf0?'
p2633
tp2634
bsg51
g7
sg52
(dp2635
sbsg2530
I00
sg2531
g2532
sg2533
Nsg1701
g2534
sg99
g2535
sg2536
g2538
sbsg2546
g2547
sg88
Nsg33
Nsg92
I01
sg2548
Nsg101
VNone
p2636
sg103
g0
(g104
g105
((lp2637
(lp2638
tp2639
tp2640
Rp2641
sg2555
I00
sg2556
g2557
sg2558
g2510
sg2559
Nsg114
Nsg2560
g2510
sg2561
F0.0
sg8
I01
sg2562
Nsg43
Nsg1703
Nsg2563
(I1
tp2642
sg87
F0.5
sg2536
Nsbsg115
NsS'_labelsize'
p2643
F8.0
sS'_name'
p2644
Vxtick
p2645
sg43
Nsg1822
g2381
sg34
Nsbag0
(g2429
g2
Ntp2646
Rp2647
(dp2648
g6
g7
sg40
F0.8
sg9
g4
sg2433
I01
sg8
I01
sg10
Nsg111
I0
sg42
Nsg2434
F3.5
sg2435
g2381
sg2436
I00
sg1801
F0.0
sg17
g18
sg2437
g2438
sg2383
g0
(g1785
g2
Ntp2649
Rp2650
(dp2651
g6
g7
sg8
I01
sg9
g4
sg10
Nsg1789
g0
(g1790
g2
Ntp2652
Rp2653
(dp2654
g1794
g2445
sg1797
Nsg1798
g1799
sg1800
g1799
sg1801
F8.0
sg1802
I400
sg1803
g1799
sbsg42
Nsg17
g18
sg1804
Nsg20
I01
sg23
Nsg75
I0
sg76
I0
sg24
Nsg25
Nsg11
Nsg28
I00
sg29
I00
sg30
(dp2655
sg1806
Nsg32
I00
sg1704
Nsg88
Nsg1703
Nsg1807
Nsg33
Nsg96
Nsg86
I01
sg1808
g2447
sg1810
V
p2656
sg1812
Nsg103
g0
(g104
g105
((lp2657
(lp2658
tp2659
tp2660
Rp2661
sg111
I0
sg1818
Nsg112
I01
sg114
Nsg1819
F1.2
sg115
g1655
sg1820
I00
sg1821
I00
sg43
Nsg1822
g2381
sg1824
g2454
sg34
Nsbsg20
I01
sg23
Nsg2455
I00
sg24
Nsg25
Nsg11
Nsg2456
I00
sg28
I00
sg29
I00
sg30
(dp2662
sg2458
(I3
I2
tp2663
sg32
I00
sg2460
F2.01
sg1704
g1763
sg2461
I01
sg88
g1321
sg1703
Nsg2462
g2650
sg2463
g0
(g1785
g2
Ntp2664
Rp2665
(dp2666
g6
g7
sg8
I01
sg9
g4
sg10
Nsg1789
g0
(g1790
g2
Ntp2667
Rp2668
(dp2669
g1794
g2470
sg1797
Nsg1798
g1799
sg1800
g1799
sg1801
F8.0
sg1802
I400
sg1803
g1799
sbsg42
Nsg17
g18
sg1804
Nsg20
I01
sg23
Nsg75
I1
sg76
I0
sg24
Nsg25
Nsg11
Nsg28
I00
sg29
I00
sg30
(dp2670
sg1806
Nsg32
I00
sg1704
Nsg88
Nsg1703
Nsg1807
Nsg33
Nsg96
Nsg86
I01
sg1808
g2472
sg1810
V
p2671
sg1812
Nsg103
g0
(g104
g105
((lp2672
(lp2673
tp2674
tp2675
Rp2676
sg111
I0
sg1818
Nsg112
I01
sg114
Nsg1819
F1.2
sg115
g1664
sg1820
I00
sg1821
I00
sg43
Nsg1822
g2381
sg1824
g2454
sg34
Nsbsg96
Nsg2479
I0
sg86
I01
sg103
g0
(g104
g105
((lp2677
(lp2678
tp2679
tp2680
Rp2681
sg2485
F3.5
sg2486
g0
(g2487
g2
Ntp2682
Rp2683
(dp2684
g6
g7
sg2491
g2492
sg1852
Nsg20
I01
sg2493
Nsg2494
I0
sg75
Nsg76
Nsg24
Nsg11
Nsg29
I00
sg30
(dp2685
sg32
I00
sg1704
Nsg2496
F0.8
sg2497
Nsg2498
g2499
sg2500
g2501
sg96
Nsg86
I01
sg2502
(I0
tp2686
sg111
I0
sg112
I01
sg2504
I01
sg2505
I01
sg115
g190
sg2506
Nsg1989
F2.01
sg1822
g2381
sg2507
I5
sg9
g4
sg2508
Nsg10
Nsg42
Nsg17
g18
sg2509
g2510
sg23
Nsg25
Nsg28
I00
sg2511
Nsg34
Nsg2512
Nsg2513
g0
(g2514
g2
Ntp2687
Rp2688
(dp2689
g2513
I3
sg2518
Nsg2519
F1.0
sg115
g0
(g163
g2
Ntp2690
Rp2691
(dp2692
g49
I2
sg50
Nsg120
g121
(g122
(I0
tp2693
g124
tp2694
Rp2695
(I1
(I3
I3
tp2696
g59
I00
S'\x00\x00\x00\x00\x00\x00\xf0?\x00\x00\x00\x00\x00\x00\x00\x00\x00\x00\x00\x00\x00\x00\x00\x00\x00\x00\x00\x00\x00\x00\x00\x00\x00\x00\x00\x00\x00\x00\xf0\xbf\x00\x00\x00\x00\x00\x00\x00\x00\x00\x00\x00\x00\x00\x00\x00\x00\x00\x00\x00\x00\x00\x00\x00\x00\x00\x00\x00\x00\x00\x00\xf0?'
p2697
tp2698
bsg51
g7
sg52
(dp2699
sbsg2530
I00
sg2531
g2532
sg2533
Nsg1701
g2534
sg99
g2535
sg2536
g2538
sbsg2546
g2547
sg88
Nsg33
Nsg92
I01
sg2548
Nsg101
g2549
sg103
g0
(g104
g105
((lp2700
(lp2701
tp2702
tp2703
Rp2704
sg2555
I00
sg2556
g2557
sg2558
g2510
sg2559
Nsg114
Nsg2560
g2510
sg2561
F0.0
sg8
I01
sg2562
Nsg43
Nsg1703
Nsg2563
g2564
sg87
F0.5
sg2536
Nsbsg112
I00
sg2565
g0
(g2487
g2
Ntp2705
Rp2706
(dp2707
g6
g7
sg8
I01
sg2558
g2510
sg9
g4
sg2491
g2492
sg1852
Nsg10
Nsg42
Nsg17
g18
sg2509
g2510
sg20
I01
sg2493
Nsg23
Nsg75
g121
(g122
(I0
tp2708
g124
tp2709
Rp2710
(I1
(I2
tp2711
g59
I00
S'\x00\x00\x00\x00\x00\x00\x00\x00\x00\x00\x00\x00\x00\x00\xf0?'
p2712
tp2713
bsg76
g121
(g122
(I0
tp2714
g124
tp2715
Rp2716
(I1
(I2
tp2717
g59
I00
S'\x00\x00\x00\x00\x00\x00\x00\x00\x00\x00\x00\x00\x00\x00\x00\x00'
p2718
tp2719
bsg24
Nsg25
Nsg11
Nsg2502
g2581
sg28
I00
sg2511
Nsg29
I00
sg30
(dp2720
sg2508
Nsg32
I00
sg2555
I00
sg1704
Nsg2512
Nsg2496
F1.0
sg2546
g2547
sg2497
Nsg1822
g2583
sg2513
g0
(g2514
g2
Ntp2721
Rp2722
(dp2723
g2513
g2587
sg2518
Nsg2519
Nsg115
g0
(g45
g2
Ntp2724
Rp2725
(dp2726
g49
I1
sg50
Nsg51
g7
sg52
(dp2727
sbsg2530
I00
sg2531
g2532
sg2533
Nsg1701
g2534
sg99
g2535
sg2536
g0
(g1925
g2
Ntp2728
Rp2729
(dp2730
g1929
I00
sg1930
Nsg1942
g121
(g122
(I0
tp2731
g124
tp2732
Rp2733
(I1
(I0
I2
tp2734
g59
I00
g2599
tp2735
bsg1949
I00
sg1950
F0.1111111111111111
sg1951
I1
sg1952
I00
sbsbsg33
Nsg2498
g2499
sg92
I01
sg2500
g2501
sg96
Nsg2561
F0.0
sg86
I01
sg2548
g121
(g122
(I0
tp2736
g124
tp2737
Rp2738
(I1
(I2
I2
tp2739
g59
I00
S'\x00\x00\x00\x00\x00\x00\x00\x00\x00\x00\x00\x00\x00\x00\x00\x00\x00\x00\x00\x00\x00\x00\x00\x00\x00\x00\x00\x00\x00\x00\xf0?'
p2740
tp2741
bsg101
g2607
sg103
g0
(g104
g105
((lp2742
(lp2743
tp2744
tp2745
Rp2746
sg111
I0
sg2556
g2557
sg2494
I0
sg2559
Nsg2507
I5
sg112
I01
sg114
F1.0
sg2560
g2510
sg2505
I00
sg115
g190
sg2562
Nsg2506
Nsg2504
I00
sg43
Nsg1703
Nsg2563
g2613
sg88
g1041
sg87
F0.8
sg34
Nsg2536
g0
(g1925
g2
Ntp2747
Rp2748
(dp2749
g1929
I00
sg1930
Nsg1942
g2738
sg1949
I00
sg1950
F0.1111111111111111
sg1951
I180
sg1952
I00
sbsbsg114
Nsg33
Nsg2617
g0
(g2487
g2
Ntp2750
Rp2751
(dp2752
g6
g7
sg2491
g2492
sg1852
Nsg20
I01
sg2493
Nsg2494
I0
sg75
Nsg76
Nsg24
Nsg11
Nsg29
I00
sg30
(dp2753
sg32
I00
sg1704
Nsg2496
F0.8
sg2497
Nsg2498
g2499
sg2500
g2501
sg96
Nsg86
I01
sg2502
(I0
tp2754
sg111
I0
sg112
I01
sg2504
I01
sg2505
I01
sg115
g190
sg2506
Nsg1989
F2.01
sg1822
g2381
sg2507
I5
sg9
g4
sg2508
Nsg10
Nsg42
Nsg17
g18
sg2509
g2510
sg23
Nsg25
Nsg28
I00
sg2511
Nsg34
Nsg2512
Nsg2513
g0
(g2514
g2
Ntp2755
Rp2756
(dp2757
g2513
I2
sg2518
Nsg2519
F1.0
sg115
g0
(g163
g2
Ntp2758
Rp2759
(dp2760
g49
I2
sg50
Nsg120
g121
(g122
(I0
tp2761
g124
tp2762
Rp2763
(I1
(I3
I3
tp2764
g59
I00
S'\x00\x00\x00\x00\x00\x00\xf0?\x00\x00\x00\x00\x00\x00\x00\x00\x00\x00\x00\x00\x00\x00\x00\x00\x00\x00\x00\x00\x00\x00\x00\x00\x00\x00\x00\x00\x00\x00\xf0?\x00\x00\x00\x00\x00\x00\x00\x00\x00\x00\x00\x00\x00\x00\x00\x00\x00\x00\x00\x00\x00\x00\x00\x00\x00\x00\x00\x00\x00\x00\xf0?'
p2765
tp2766
bsg51
g7
sg52
(dp2767
sbsg2530
I00
sg2531
g2532
sg2533
Nsg1701
g2534
sg99
g2535
sg2536
g2538
sbsg2546
g2547
sg88
Nsg33
Nsg92
I01
sg2548
Nsg101
g2636
sg103
g0
(g104
g105
((lp2768
(lp2769
tp2770
tp2771
Rp2772
sg2555
I00
sg2556
g2557
sg2558
g2510
sg2559
Nsg114
Nsg2560
g2510
sg2561
F0.0
sg8
I01
sg2562
Nsg43
Nsg1703
Nsg2563
g2642
sg87
F0.5
sg2536
Nsbsg115
Nsg2643
F8.0
sg2644
g2645
sg43
Nsg1822
g2381
sg34
Nsbag0
(g2429
g2
Ntp2773
Rp2774
(dp2775
g6
g7
sg40
F0.8
sg9
g4
sg2433
I01
sg8
I01
sg10
Nsg111
I0
sg42
Nsg2434
F3.5
sg2435
g2381
sg2436
I00
sg1801
F0.0
sg17
g18
sg2437
g2438
sg2383
g0
(g1785
g2
Ntp2776
Rp2777
(dp2778
g6
g7
sg8
I01
sg9
g4
sg10
Nsg1789
g0
(g1790
g2
Ntp2779
Rp2780
(dp2781
g1794
g2445
sg1797
Nsg1798
g1799
sg1800
g1799
sg1801
F8.0
sg1802
I400
sg1803
g1799
sbsg42
Nsg17
g18
sg1804
Nsg20
I01
sg23
Nsg75
I0
sg76
I0
sg24
Nsg25
Nsg11
Nsg28
I00
sg29
I00
sg30
(dp2782
sg1806
Nsg32
I00
sg1704
Nsg88
Nsg1703
Nsg1807
Nsg33
Nsg96
Nsg86
I01
sg1808
g2447
sg1810
V
p2783
sg1812
Nsg103
g0
(g104
g105
((lp2784
(lp2785
tp2786
tp2787
Rp2788
sg111
I0
sg1818
Nsg112
I01
sg114
Nsg1819
F1.2
sg115
g1655
sg1820
I00
sg1821
I00
sg43
Nsg1822
g2381
sg1824
g2454
sg34
Nsbsg20
I01
sg23
Nsg2455
I00
sg24
Nsg25
Nsg11
Nsg2456
I00
sg28
I00
sg29
I00
sg30
(dp2789
sg2458
(I3
I2
tp2790
sg32
I00
sg2460
F2.01
sg1704
g1763
sg2461
I01
sg88
Nsg1703
Nsg2462
g2777
sg2463
g0
(g1785
g2
Ntp2791
Rp2792
(dp2793
g6
g7
sg8
I01
sg9
g4
sg10
Nsg1789
g0
(g1790
g2
Ntp2794
Rp2795
(dp2796
g1794
g2470
sg1797
Nsg1798
g1799
sg1800
g1799
sg1801
F8.0
sg1802
I400
sg1803
g1799
sbsg42
Nsg17
g18
sg1804
Nsg20
I01
sg23
Nsg75
I1
sg76
I0
sg24
Nsg25
Nsg11
Nsg28
I00
sg29
I00
sg30
(dp2797
sg1806
Nsg32
I00
sg1704
Nsg88
Nsg1703
Nsg1807
Nsg33
Nsg96
Nsg86
I01
sg1808
g2472
sg1810
V
p2798
sg1812
Nsg103
g0
(g104
g105
((lp2799
(lp2800
tp2801
tp2802
Rp2803
sg111
I0
sg1818
Nsg112
I01
sg114
Nsg1819
F1.2
sg115
g1664
sg1820
I00
sg1821
I00
sg43
Nsg1822
g2381
sg1824
g2454
sg34
Nsbsg96
Nsg2479
I0
sg86
I01
sg103
g0
(g104
g105
((lp2804
(lp2805
tp2806
tp2807
Rp2808
sg2485
F3.5
sg2486
g0
(g2487
g2
Ntp2809
Rp2810
(dp2811
g6
g7
sg2491
g2492
sg1852
Nsg20
I01
sg2493
Nsg2494
I0
sg75
Nsg76
Nsg24
Nsg11
Nsg29
I00
sg30
(dp2812
sg32
I00
sg1704
Nsg2496
F0.8
sg2497
Nsg2498
g2499
sg2500
g2501
sg96
Nsg86
I01
sg2502
(I0
tp2813
sg111
I0
sg112
I01
sg2504
I01
sg2505
I01
sg115
g190
sg2506
Nsg1989
F2.01
sg1822
g2381
sg2507
I5
sg9
g4
sg2508
Nsg10
Nsg42
Nsg17
g18
sg2509
g2510
sg23
Nsg25
Nsg28
I00
sg2511
Nsg34
Nsg2512
Nsg2513
g0
(g2514
g2
Ntp2814
Rp2815
(dp2816
g2513
I3
sg2518
Nsg2519
F1.0
sg115
g0
(g163
g2
Ntp2817
Rp2818
(dp2819
g49
I2
sg50
Nsg120
g121
(g122
(I0
tp2820
g124
tp2821
Rp2822
(I1
(I3
I3
tp2823
g59
I00
S'\x00\x00\x00\x00\x00\x00\xf0?\x00\x00\x00\x00\x00\x00\x00\x00\x00\x00\x00\x00\x00\x00\x00\x00\x00\x00\x00\x00\x00\x00\x00\x00\x00\x00\x00\x00\x00\x00\xf0\xbf\x00\x00\x00\x00\x00\x00\x00\x00\x00\x00\x00\x00\x00\x00\x00\x00\x00\x00\x00\x00\x00\x00\x00\x00\x00\x00\x00\x00\x00\x00\xf0?'
p2824
tp2825
bsg51
g7
sg52
(dp2826
sbsg2530
I00
sg2531
g2532
sg2533
Nsg1701
g2534
sg99
g2535
sg2536
g2538
sbsg2546
g2547
sg88
Nsg33
Nsg92
I01
sg2548
Nsg101
g2549
sg103
g0
(g104
g105
((lp2827
(lp2828
tp2829
tp2830
Rp2831
sg2555
I00
sg2556
g2557
sg2558
g2510
sg2559
Nsg114
Nsg2560
g2510
sg2561
F0.0
sg8
I01
sg2562
Nsg43
Nsg1703
Nsg2563
g2564
sg87
F0.5
sg2536
Nsbsg112
I00
sg2565
g0
(g2487
g2
Ntp2832
Rp2833
(dp2834
g6
g7
sg8
I01
sg2558
g2510
sg9
g4
sg2491
g2492
sg1852
Nsg10
Nsg42
Nsg17
g18
sg2509
g2510
sg20
I01
sg2493
Nsg23
Nsg75
g121
(g122
(I0
tp2835
g124
tp2836
Rp2837
(I1
(I2
tp2838
g59
I00
S'\x00\x00\x00\x00\x00\x00\x00\x00\x00\x00\x00\x00\x00\x00\xf0?'
p2839
tp2840
bsg76
g121
(g122
(I0
tp2841
g124
tp2842
Rp2843
(I1
(I2
tp2844
g59
I00
S'\x00\x00\x00\x00\x00\x00\x00\x00\x00\x00\x00\x00\x00\x00\x00\x00'
p2845
tp2846
bsg24
Nsg25
Nsg11
Nsg2502
g2581
sg28
I00
sg2511
Nsg29
I00
sg30
(dp2847
sg2508
Nsg32
I00
sg2555
I00
sg1704
Nsg2512
Nsg2496
F1.0
sg2546
g2547
sg2497
Nsg1822
g2583
sg2513
g0
(g2514
g2
Ntp2848
Rp2849
(dp2850
g2513
g2587
sg2518
Nsg2519
Nsg115
g0
(g45
g2
Ntp2851
Rp2852
(dp2853
g49
I1
sg50
Nsg51
g7
sg52
(dp2854
sbsg2530
I00
sg2531
g2532
sg2533
Nsg1701
g2534
sg99
g2535
sg2536
g0
(g1925
g2
Ntp2855
Rp2856
(dp2857
g1929
I00
sg1930
Nsg1942
g121
(g122
(I0
tp2858
g124
tp2859
Rp2860
(I1
(I0
I2
tp2861
g59
I00
g2599
tp2862
bsg1949
I00
sg1950
F0.1111111111111111
sg1951
I1
sg1952
I00
sbsbsg33
Nsg2498
g2499
sg92
I01
sg2500
g2501
sg96
Nsg2561
F0.0
sg86
I01
sg2548
g121
(g122
(I0
tp2863
g124
tp2864
Rp2865
(I1
(I2
I2
tp2866
g59
I00
S'\x00\x00\x00\x00\x00\x00\x00\x00\x00\x00\x00\x00\x00\x00\x00\x00\x00\x00\x00\x00\x00\x00\x00\x00\x00\x00\x00\x00\x00\x00\xf0?'
p2867
tp2868
bsg101
g2607
sg103
g0
(g104
g105
((lp2869
(lp2870
tp2871
tp2872
Rp2873
sg111
I0
sg2556
g2557
sg2494
I0
sg2559
Nsg2507
I5
sg112
I01
sg114
F1.0
sg2560
g2510
sg2505
I00
sg115
g190
sg2562
Nsg2506
Nsg2504
I00
sg43
Nsg1703
Nsg2563
g2613
sg88
g1041
sg87
F0.8
sg34
Nsg2536
g0
(g1925
g2
Ntp2874
Rp2875
(dp2876
g1929
I00
sg1930
Nsg1942
g2865
sg1949
I00
sg1950
F0.1111111111111111
sg1951
I180
sg1952
I00
sbsbsg114
Nsg33
Nsg2617
g0
(g2487
g2
Ntp2877
Rp2878
(dp2879
g6
g7
sg2491
g2492
sg1852
Nsg20
I01
sg2493
Nsg2494
I0
sg75
Nsg76
Nsg24
Nsg11
Nsg29
I00
sg30
(dp2880
sg32
I00
sg1704
Nsg2496
F0.8
sg2497
Nsg2498
g2499
sg2500
g2501
sg96
Nsg86
I01
sg2502
(I0
tp2881
sg111
I0
sg112
I01
sg2504
I01
sg2505
I01
sg115
g190
sg2506
Nsg1989
F2.01
sg1822
g2381
sg2507
I5
sg9
g4
sg2508
Nsg10
Nsg42
Nsg17
g18
sg2509
g2510
sg23
Nsg25
Nsg28
I00
sg2511
Nsg34
Nsg2512
Nsg2513
g0
(g2514
g2
Ntp2882
Rp2883
(dp2884
g2513
I2
sg2518
Nsg2519
F1.0
sg115
g0
(g163
g2
Ntp2885
Rp2886
(dp2887
g49
I2
sg50
Nsg120
g121
(g122
(I0
tp2888
g124
tp2889
Rp2890
(I1
(I3
I3
tp2891
g59
I00
S'\x00\x00\x00\x00\x00\x00\xf0?\x00\x00\x00\x00\x00\x00\x00\x00\x00\x00\x00\x00\x00\x00\x00\x00\x00\x00\x00\x00\x00\x00\x00\x00\x00\x00\x00\x00\x00\x00\xf0?\x00\x00\x00\x00\x00\x00\x00\x00\x00\x00\x00\x00\x00\x00\x00\x00\x00\x00\x00\x00\x00\x00\x00\x00\x00\x00\x00\x00\x00\x00\xf0?'
p2892
tp2893
bsg51
g7
sg52
(dp2894
sbsg2530
I00
sg2531
g2532
sg2533
Nsg1701
g2534
sg99
g2535
sg2536
g2538
sbsg2546
g2547
sg88
Nsg33
Nsg92
I01
sg2548
Nsg101
g2636
sg103
g0
(g104
g105
((lp2895
(lp2896
tp2897
tp2898
Rp2899
sg2555
I00
sg2556
g2557
sg2558
g2510
sg2559
Nsg114
Nsg2560
g2510
sg2561
F0.0
sg8
I01
sg2562
Nsg43
Nsg1703
Nsg2563
g2642
sg87
F0.5
sg2536
Nsbsg115
Nsg2643
F8.0
sg2644
g2645
sg43
Nsg1822
g2381
sg34
Nsbag0
(g2429
g2
Ntp2900
Rp2901
(dp2902
g6
g7
sg40
F0.8
sg9
g4
sg2433
I01
sg8
I01
sg10
Nsg111
I0
sg42
Nsg2434
F3.5
sg2435
g2381
sg2436
I00
sg1801
F0.0
sg17
g18
sg2437
g2438
sg2383
g0
(g1785
g2
Ntp2903
Rp2904
(dp2905
g6
g7
sg8
I01
sg9
g4
sg10
Nsg1789
g0
(g1790
g2
Ntp2906
Rp2907
(dp2908
g1794
g2445
sg1797
Nsg1798
g1799
sg1800
g1799
sg1801
F8.0
sg1802
I400
sg1803
g1799
sbsg42
Nsg17
g18
sg1804
Nsg20
I01
sg23
Nsg75
I0
sg76
I0
sg24
Nsg25
Nsg11
Nsg28
I00
sg29
I00
sg30
(dp2909
sg1806
Nsg32
I00
sg1704
Nsg88
Nsg1703
Nsg1807
Nsg33
Nsg96
Nsg86
I01
sg1808
g2447
sg1810
V
p2910
sg1812
Nsg103
g0
(g104
g105
((lp2911
(lp2912
tp2913
tp2914
Rp2915
sg111
I0
sg1818
Nsg112
I01
sg114
Nsg1819
F1.2
sg115
g1655
sg1820
I00
sg1821
I00
sg43
Nsg1822
g2381
sg1824
g2454
sg34
Nsbsg20
I01
sg23
Nsg2455
I00
sg24
Nsg25
Nsg11
Nsg2456
I00
sg28
I00
sg29
I00
sg30
(dp2916
sg2458
(I3
I2
tp2917
sg32
I00
sg2460
F2.01
sg1704
g1763
sg2461
I01
sg88
Nsg1703
Nsg2462
g2904
sg2463
g0
(g1785
g2
Ntp2918
Rp2919
(dp2920
g6
g7
sg8
I01
sg9
g4
sg10
Nsg1789
g0
(g1790
g2
Ntp2921
Rp2922
(dp2923
g1794
g2470
sg1797
Nsg1798
g1799
sg1800
g1799
sg1801
F8.0
sg1802
I400
sg1803
g1799
sbsg42
Nsg17
g18
sg1804
Nsg20
I01
sg23
Nsg75
I1
sg76
I0
sg24
Nsg25
Nsg11
Nsg28
I00
sg29
I00
sg30
(dp2924
sg1806
Nsg32
I00
sg1704
Nsg88
Nsg1703
Nsg1807
Nsg33
Nsg96
Nsg86
I01
sg1808
g2472
sg1810
V
p2925
sg1812
Nsg103
g0
(g104
g105
((lp2926
(lp2927
tp2928
tp2929
Rp2930
sg111
I0
sg1818
Nsg112
I01
sg114
Nsg1819
F1.2
sg115
g1664
sg1820
I00
sg1821
I00
sg43
Nsg1822
g2381
sg1824
g2454
sg34
Nsbsg96
Nsg2479
I0
sg86
I01
sg103
g0
(g104
g105
((lp2931
(lp2932
tp2933
tp2934
Rp2935
sg2485
F3.5
sg2486
g0
(g2487
g2
Ntp2936
Rp2937
(dp2938
g6
g7
sg2491
g2492
sg1852
Nsg20
I01
sg2493
Nsg2494
I0
sg75
Nsg76
Nsg24
Nsg11
Nsg29
I00
sg30
(dp2939
sg32
I00
sg1704
Nsg2496
F0.8
sg2497
Nsg2498
g2499
sg2500
g2501
sg96
Nsg86
I01
sg2502
(I0
tp2940
sg111
I0
sg112
I01
sg2504
I01
sg2505
I01
sg115
g190
sg2506
Nsg1989
F2.01
sg1822
g2381
sg2507
I5
sg9
g4
sg2508
Nsg10
Nsg42
Nsg17
g18
sg2509
g2510
sg23
Nsg25
Nsg28
I00
sg2511
Nsg34
Nsg2512
Nsg2513
g0
(g2514
g2
Ntp2941
Rp2942
(dp2943
g2513
I3
sg2518
Nsg2519
F1.0
sg115
g0
(g163
g2
Ntp2944
Rp2945
(dp2946
g49
I2
sg50
Nsg120
g121
(g122
(I0
tp2947
g124
tp2948
Rp2949
(I1
(I3
I3
tp2950
g59
I00
S'\x00\x00\x00\x00\x00\x00\xf0?\x00\x00\x00\x00\x00\x00\x00\x00\x00\x00\x00\x00\x00\x00\x00\x00\x00\x00\x00\x00\x00\x00\x00\x00\x00\x00\x00\x00\x00\x00\xf0\xbf\x00\x00\x00\x00\x00\x00\x00\x00\x00\x00\x00\x00\x00\x00\x00\x00\x00\x00\x00\x00\x00\x00\x00\x00\x00\x00\x00\x00\x00\x00\xf0?'
p2951
tp2952
bsg51
g7
sg52
(dp2953
sbsg2530
I00
sg2531
g2532
sg2533
Nsg1701
g2534
sg99
g2535
sg2536
g2538
sbsg2546
g2547
sg88
Nsg33
Nsg92
I01
sg2548
Nsg101
g2549
sg103
g0
(g104
g105
((lp2954
(lp2955
tp2956
tp2957
Rp2958
sg2555
I00
sg2556
g2557
sg2558
g2510
sg2559
Nsg114
Nsg2560
g2510
sg2561
F0.0
sg8
I01
sg2562
Nsg43
Nsg1703
Nsg2563
g2564
sg87
F0.5
sg2536
Nsbsg112
I00
sg2565
g0
(g2487
g2
Ntp2959
Rp2960
(dp2961
g6
g7
sg8
I01
sg2558
g2510
sg9
g4
sg2491
g2492
sg1852
Nsg10
Nsg42
Nsg17
g18
sg2509
g2510
sg20
I01
sg2493
Nsg23
Nsg75
g121
(g122
(I0
tp2962
g124
tp2963
Rp2964
(I1
(I2
tp2965
g59
I00
S'\x00\x00\x00\x00\x00\x00\x00\x00\x00\x00\x00\x00\x00\x00\xf0?'
p2966
tp2967
bsg76
g121
(g122
(I0
tp2968
g124
tp2969
Rp2970
(I1
(I2
tp2971
g59
I00
S'\x00\x00\x00\x00\x00\x00\x00\x00\x00\x00\x00\x00\x00\x00\x00\x00'
p2972
tp2973
bsg24
Nsg25
Nsg11
Nsg2502
g2581
sg28
I00
sg2511
Nsg29
I00
sg30
(dp2974
sg2508
Nsg32
I00
sg2555
I00
sg1704
Nsg2512
Nsg2496
F1.0
sg2546
g2547
sg2497
Nsg1822
g2583
sg2513
g0
(g2514
g2
Ntp2975
Rp2976
(dp2977
g2513
g2587
sg2518
Nsg2519
Nsg115
g0
(g45
g2
Ntp2978
Rp2979
(dp2980
g49
I1
sg50
Nsg51
g7
sg52
(dp2981
sbsg2530
I00
sg2531
g2532
sg2533
Nsg1701
g2534
sg99
g2535
sg2536
g0
(g1925
g2
Ntp2982
Rp2983
(dp2984
g1929
I00
sg1930
Nsg1942
g121
(g122
(I0
tp2985
g124
tp2986
Rp2987
(I1
(I0
I2
tp2988
g59
I00
g2599
tp2989
bsg1949
I00
sg1950
F0.1111111111111111
sg1951
I1
sg1952
I00
sbsbsg33
Nsg2498
g2499
sg92
I01
sg2500
g2501
sg96
Nsg2561
F0.0
sg86
I01
sg2548
g121
(g122
(I0
tp2990
g124
tp2991
Rp2992
(I1
(I2
I2
tp2993
g59
I00
S'\x00\x00\x00\x00\x00\x00\x00\x00\x00\x00\x00\x00\x00\x00\x00\x00\x00\x00\x00\x00\x00\x00\x00\x00\x00\x00\x00\x00\x00\x00\xf0?'
p2994
tp2995
bsg101
g2607
sg103
g0
(g104
g105
((lp2996
(lp2997
tp2998
tp2999
Rp3000
sg111
I0
sg2556
g2557
sg2494
I0
sg2559
Nsg2507
I5
sg112
I01
sg114
F1.0
sg2560
g2510
sg2505
I00
sg115
g190
sg2562
Nsg2506
Nsg2504
I00
sg43
Nsg1703
Nsg2563
g2613
sg88
g1041
sg87
F0.8
sg34
Nsg2536
g0
(g1925
g2
Ntp3001
Rp3002
(dp3003
g1929
I00
sg1930
Nsg1942
g2992
sg1949
I00
sg1950
F0.1111111111111111
sg1951
I180
sg1952
I00
sbsbsg114
Nsg33
Nsg2617
g0
(g2487
g2
Ntp3004
Rp3005
(dp3006
g6
g7
sg2491
g2492
sg1852
Nsg20
I01
sg2493
Nsg2494
I0
sg75
Nsg76
Nsg24
Nsg11
Nsg29
I00
sg30
(dp3007
sg32
I00
sg1704
Nsg2496
F0.8
sg2497
Nsg2498
g2499
sg2500
g2501
sg96
Nsg86
I01
sg2502
g2881
sg111
I0
sg112
I01
sg2504
I01
sg2505
I01
sg115
g190
sg2506
Nsg1989
F2.01
sg1822
g2381
sg2507
I5
sg9
g4
sg2508
Nsg10
Nsg42
Nsg17
g18
sg2509
g2510
sg23
Nsg25
Nsg28
I00
sg2511
Nsg34
Nsg2512
Nsg2513
g0
(g2514
g2
Ntp3008
Rp3009
(dp3010
g2513
I2
sg2518
Nsg2519
F1.0
sg115
g0
(g163
g2
Ntp3011
Rp3012
(dp3013
g49
I2
sg50
Nsg120
g121
(g122
(I0
tp3014
g124
tp3015
Rp3016
(I1
(I3
I3
tp3017
g59
I00
S'\x00\x00\x00\x00\x00\x00\xf0?\x00\x00\x00\x00\x00\x00\x00\x00\x00\x00\x00\x00\x00\x00\x00\x00\x00\x00\x00\x00\x00\x00\x00\x00\x00\x00\x00\x00\x00\x00\xf0?\x00\x00\x00\x00\x00\x00\x00\x00\x00\x00\x00\x00\x00\x00\x00\x00\x00\x00\x00\x00\x00\x00\x00\x00\x00\x00\x00\x00\x00\x00\xf0?'
p3018
tp3019
bsg51
g7
sg52
(dp3020
sbsg2530
I00
sg2531
g2532
sg2533
Nsg1701
g2534
sg99
g2535
sg2536
g2538
sbsg2546
g2547
sg88
Nsg33
Nsg92
I01
sg2548
Nsg101
g2636
sg103
g0
(g104
g105
((lp3021
(lp3022
tp3023
tp3024
Rp3025
sg2555
I00
sg2556
g2557
sg2558
g2510
sg2559
Nsg114
Nsg2560
g2510
sg2561
F0.0
sg8
I01
sg2562
Nsg43
Nsg1703
Nsg2563
g2642
sg87
F0.5
sg2536
Nsbsg115
Nsg2643
F8.0
sg2644
g2645
sg43
Nsg1822
g2381
sg34
NsbasS'isDefault_majloc'
p3026
I00
sg1711
g0
(g1712
g2
Ntp3027
Rp3028
I01
bsg96
Nsg86
I01
sS'_autolabelpos'
p3029
I01
sg103
g0
(g104
g105
((lp3030
(lp3031
tp3032
tp3033
Rp3034
sg111
I0
sS'_lastNumMajorTicks'
p3035
I4
sS'converter'
p3036
Nsg112
I00
sg114
NsS'offset_text_position'
p3037
Vbottom
p3038
sg115
NsS'label_position'
p3039
Vbottom
p3040
sg43
Nsg1703
Nsg2507
I15
sS'minorTicks'
p3041
(lp3042
g0
(g2429
g2
Ntp3043
Rp3044
(dp3045
g6
g7
sg40
F0.6
sg9
g4
sg2433
I01
sg8
I01
sg10
Nsg111
I0
sg42
Nsg2434
F3.4
sg2435
g2381
sg2436
I00
sg1801
F0.0
sg17
g18
sg2437
g2438
sg2383
g0
(g1785
g2
Ntp3046
Rp3047
(dp3048
g6
g7
sg8
I01
sg9
g4
sg10
Nsg1789
g0
(g1790
g2
Ntp3049
Rp3050
(dp3051
g1794
(lp3052
g1796
asg1797
Nsg1798
g1799
sg1800
g1799
sg1801
F8.0
sg1802
I400
sg1803
g1799
sbsg42
Nsg17
g18
sg1804
Nsg20
I01
sg23
Nsg75
I0
sg76
I0
sg24
Nsg25
Nsg11
Nsg28
I00
sg29
I00
sg30
(dp3053
sg1806
Nsg32
I00
sg1704
Nsg88
Nsg1703
Nsg1807
Nsg33
Nsg96
Nsg86
I01
sg1808
g2447
sg1810
V
p3054
sg1812
Nsg103
g0
(g104
g105
((lp3055
(lp3056
tp3057
tp3058
Rp3059
sg111
I0
sg1818
Nsg112
I01
sg114
Nsg1819
F1.2
sg115
g1682
sg1820
I00
sg1821
I00
sg43
Nsg1822
g2381
sg1824
g2454
sg34
Nsbsg20
I01
sg23
Nsg2455
I00
sg24
Nsg25
Nsg11
Nsg2456
I00
sg28
I00
sg29
I00
sg30
(dp3060
sg2458
(I3
I2
tp3061
sg32
I00
sg2460
I2
sg1704
g1763
sg2461
I01
sg88
g901
sg1703
Nsg2462
g3047
sg2463
g0
(g1785
g2
Ntp3062
Rp3063
(dp3064
g6
g7
sg8
I01
sg9
g4
sg10
Nsg1789
g0
(g1790
g2
Ntp3065
Rp3066
(dp3067
g1794
(lp3068
g1796
asg1797
Nsg1798
g1799
sg1800
g1799
sg1801
F8.0
sg1802
I400
sg1803
g1799
sbsg42
Nsg17
g18
sg1804
Nsg20
I01
sg23
Nsg75
I1
sg76
I0
sg24
Nsg25
Nsg11
Nsg28
I00
sg29
I00
sg30
(dp3069
sg1806
Nsg32
I00
sg1704
Nsg88
Nsg1703
Nsg1807
Nsg33
Nsg96
Nsg86
I01
sg1808
g2472
sg1810
V
p3070
sg1812
Nsg103
g0
(g104
g105
((lp3071
(lp3072
tp3073
tp3074
Rp3075
sg111
I0
sg1818
Nsg112
I01
sg114
Nsg1819
F1.2
sg115
g1646
sg1820
I00
sg1821
I00
sg43
Nsg1822
g2381
sg1824
g2454
sg34
Nsbsg96
Nsg2479
I0
sg86
I01
sg103
g0
(g104
g105
((lp3076
(lp3077
tp3078
tp3079
Rp3080
sg2485
F3.4
sg2486
g0
(g2487
g2
Ntp3081
Rp3082
(dp3083
g6
g7
sg2491
g2492
sg1852
Nsg20
I01
sg2493
Nsg2494
I0
sg75
Nsg76
Nsg24
Nsg11
Nsg29
I00
sg30
(dp3084
sg32
I00
sg1704
Nsg2496
F0.6
sg2497
Nsg2498
g2499
sg2500
g2501
sg96
Nsg86
I01
sg2502
(I0
tp3085
sg111
I0
sg112
I01
sg2504
I01
sg2505
I01
sg115
g190
sg2506
Nsg1989
I2
sg1822
g2381
sg2507
I5
sg9
g4
sg2508
Nsg10
Nsg42
Nsg17
g18
sg2509
g2510
sg23
Nsg25
Nsg28
I00
sg2511
Nsg34
Nsg2512
Nsg2513
g0
(g2514
g2
Ntp3086
Rp3087
(dp3088
g2513
I3
sg2518
Nsg2519
F1.0
sg115
g0
(g163
g2
Ntp3089
Rp3090
(dp3091
g49
I2
sg50
Nsg120
g121
(g122
(I0
tp3092
g124
tp3093
Rp3094
(I1
(I3
I3
tp3095
g59
I00
S'\x00\x00\x00\x00\x00\x00\xf0?\x00\x00\x00\x00\x00\x00\x00\x00\x00\x00\x00\x00\x00\x00\x00\x00\x00\x00\x00\x00\x00\x00\x00\x00\x00\x00\x00\x00\x00\x00\xf0\xbf\x00\x00\x00\x00\x00\x00\x00\x00\x00\x00\x00\x00\x00\x00\x00\x00\x00\x00\x00\x00\x00\x00\x00\x00\x00\x00\x00\x00\x00\x00\xf0?'
p3096
tp3097
bsg51
g7
sg52
(dp3098
sbsg2530
I00
sg2531
g2532
sg2533
Nsg1701
g2534
sg99
g2535
sg2536
g2538
sbsg2546
g2547
sg88
Nsg33
Nsg92
I01
sg2548
Nsg101
g2549
sg103
g0
(g104
g105
((lp3099
(lp3100
tp3101
tp3102
Rp3103
sg2555
I00
sg2556
g2557
sg2558
g2510
sg2559
Nsg114
Nsg2560
g2510
sg2561
F0.0
sg8
I01
sg2562
Nsg43
Nsg1703
Nsg2563
g2564
sg87
F0.5
sg2536
Nsbsg112
I00
sg2565
g0
(g2487
g2
Ntp3104
Rp3105
(dp3106
g6
g7
sg8
I01
sg2558
g2510
sg9
g4
sg2491
g2492
sg1852
Nsg10
Nsg42
Nsg17
g18
sg2509
g2510
sg20
I01
sg2493
Nsg23
Nsg75
g121
(g122
(I0
tp3107
g124
tp3108
Rp3109
(I1
(I2
tp3110
g59
I00
S'\x00\x00\x00\x00\x00\x00\x00\x00\x00\x00\x00\x00\x00\x00\xf0?'
p3111
tp3112
bsg76
g121
(g122
(I0
tp3113
g124
tp3114
Rp3115
(I1
(I2
tp3116
g59
I00
S'\x00\x00\x00\x00\x00\x00\x00\x00\x00\x00\x00\x00\x00\x00\x00\x00'
p3117
tp3118
bsg24
Nsg25
Nsg11
Nsg2502
g2581
sg28
I00
sg2511
Nsg29
I00
sg30
(dp3119
sg2508
Nsg32
I00
sg2555
I00
sg1704
Nsg2512
Nsg2496
F1.0
sg2546
g2547
sg2497
Nsg1822
g2583
sg2513
g0
(g2514
g2
Ntp3120
Rp3121
(dp3122
g2513
g2587
sg2518
Nsg2519
Nsg115
g0
(g45
g2
Ntp3123
Rp3124
(dp3125
g49
I1
sg50
Nsg51
g7
sg52
(dp3126
sbsg2530
I00
sg2531
g2532
sg2533
Nsg1701
g2534
sg99
g2535
sg2536
g0
(g1925
g2
Ntp3127
Rp3128
(dp3129
g1929
I00
sg1930
Nsg1942
g121
(g122
(I0
tp3130
g124
tp3131
Rp3132
(I1
(I0
I2
tp3133
g59
I00
g2599
tp3134
bsg1949
I00
sg1950
F0.1111111111111111
sg1951
I1
sg1952
I00
sbsbsg33
Nsg2498
g2499
sg92
I01
sg2500
g2501
sg96
Nsg2561
F0.0
sg86
I01
sg2548
g121
(g122
(I0
tp3135
g124
tp3136
Rp3137
(I1
(I2
I2
tp3138
g59
I00
S'\x00\x00\x00\x00\x00\x00\x00\x00\x00\x00\x00\x00\x00\x00\x00\x00\x00\x00\x00\x00\x00\x00\x00\x00\x00\x00\x00\x00\x00\x00\xf0?'
p3139
tp3140
bsg101
g2607
sg103
g0
(g104
g105
((lp3141
(lp3142
tp3143
tp3144
Rp3145
sg111
I0
sg2556
g2557
sg2494
I0
sg2559
Nsg2507
I5
sg112
I01
sg114
F1.0
sg2560
g2510
sg2505
I00
sg115
g190
sg2562
Nsg2506
Nsg2504
I00
sg43
Nsg1703
Nsg2563
g2613
sg88
g370
sg87
F0.8
sg34
Nsg2536
g0
(g1925
g2
Ntp3146
Rp3147
(dp3148
g1929
I00
sg1930
Nsg1942
g3137
sg1949
I00
sg1950
F0.1111111111111111
sg1951
I180
sg1952
I00
sbsbsg114
Nsg33
Nsg2617
g0
(g2487
g2
Ntp3149
Rp3150
(dp3151
g6
g7
sg2491
g2492
sg1852
Nsg20
I01
sg2493
Nsg2494
I0
sg75
Nsg76
Nsg24
Nsg11
Nsg29
I00
sg30
(dp3152
sg32
I00
sg1704
Nsg2496
F0.6
sg2497
Nsg2498
g2499
sg2500
g2501
sg96
Nsg86
I01
sg2502
(I0
tp3153
sg111
I0
sg112
I01
sg2504
I01
sg2505
I01
sg115
g190
sg2506
Nsg1989
I2
sg1822
g2381
sg2507
I5
sg9
g4
sg2508
Nsg10
Nsg42
Nsg17
g18
sg2509
g2510
sg23
Nsg25
Nsg28
I00
sg2511
Nsg34
Nsg2512
Nsg2513
g0
(g2514
g2
Ntp3154
Rp3155
(dp3156
g2513
I2
sg2518
Nsg2519
F1.0
sg115
g0
(g163
g2
Ntp3157
Rp3158
(dp3159
g49
I2
sg50
Nsg120
g121
(g122
(I0
tp3160
g124
tp3161
Rp3162
(I1
(I3
I3
tp3163
g59
I00
S'\x00\x00\x00\x00\x00\x00\xf0?\x00\x00\x00\x00\x00\x00\x00\x00\x00\x00\x00\x00\x00\x00\x00\x00\x00\x00\x00\x00\x00\x00\x00\x00\x00\x00\x00\x00\x00\x00\xf0?\x00\x00\x00\x00\x00\x00\x00\x00\x00\x00\x00\x00\x00\x00\x00\x00\x00\x00\x00\x00\x00\x00\x00\x00\x00\x00\x00\x00\x00\x00\xf0?'
p3164
tp3165
bsg51
g7
sg52
(dp3166
sbsg2530
I00
sg2531
g2532
sg2533
Nsg1701
g2534
sg99
g2535
sg2536
g2538
sbsg2546
g2547
sg88
Nsg33
Nsg92
I01
sg2548
Nsg101
g2636
sg103
g0
(g104
g105
((lp3167
(lp3168
tp3169
tp3170
Rp3171
sg2555
I00
sg2556
g2557
sg2558
g2510
sg2559
Nsg114
Nsg2560
g2510
sg2561
F0.0
sg8
I01
sg2562
Nsg43
Nsg1703
Nsg2563
g2642
sg87
F0.5
sg2536
Nsbsg115
Nsg2643
F8.0
sg2644
g2645
sg43
Nsg1822
g2381
sg34
Nsbag0
(g2429
g2
Ntp3172
Rp3173
(dp3174
g6
g7
sg40
F0.6
sg9
g4
sg2433
I01
sg8
I01
sg10
Nsg111
I0
sg42
Nsg2434
F3.4
sg2435
g2381
sg2436
I00
sg1801
F0.0
sg17
g18
sg2437
g2438
sg2383
g0
(g1785
g2
Ntp3175
Rp3176
(dp3177
g6
g7
sg8
I01
sg9
g4
sg10
Nsg1789
g0
(g1790
g2
Ntp3178
Rp3179
(dp3180
g1794
(lp3181
g1796
asg1797
Nsg1798
g1799
sg1800
g1799
sg1801
F8.0
sg1802
I400
sg1803
g1799
sbsg42
Nsg17
g18
sg1804
Nsg20
I01
sg23
Nsg75
I0
sg76
I0
sg24
Nsg25
Nsg11
Nsg28
I00
sg29
I00
sg30
(dp3182
sg1806
Nsg32
I00
sg1704
Nsg88
Nsg1703
Nsg1807
Nsg33
Nsg96
Nsg86
I01
sg1808
g2447
sg1810
V
p3183
sg1812
Nsg103
g0
(g104
g105
((lp3184
(lp3185
tp3186
tp3187
Rp3188
sg111
I0
sg1818
Nsg112
I01
sg114
Nsg1819
F1.2
sg115
g184
sg1820
I00
sg1821
I00
sg43
Nsg1822
g2381
sg1824
g2454
sg34
Nsbsg20
I01
sg23
Nsg2455
I00
sg24
Nsg25
Nsg11
Nsg2456
I00
sg28
I00
sg29
I00
sg30
(dp3189
sg2458
(I3
I2
tp3190
sg32
I00
sg2460
I2
sg1704
g1763
sg2461
I01
sg88
g1251
sg1703
Nsg2462
g3176
sg2463
g0
(g1785
g2
Ntp3191
Rp3192
(dp3193
g6
g7
sg8
I01
sg9
g4
sg10
Nsg1789
g0
(g1790
g2
Ntp3194
Rp3195
(dp3196
g1794
(lp3197
g1796
asg1797
Nsg1798
g1799
sg1800
g1799
sg1801
F8.0
sg1802
I400
sg1803
g1799
sbsg42
Nsg17
g18
sg1804
Nsg20
I01
sg23
Nsg75
I1
sg76
I0
sg24
Nsg25
Nsg11
Nsg28
I00
sg29
I00
sg30
(dp3198
sg1806
Nsg32
I00
sg1704
Nsg88
Nsg1703
Nsg1807
Nsg33
Nsg96
Nsg86
I01
sg1808
g2472
sg1810
V
p3199
sg1812
Nsg103
g0
(g104
g105
((lp3200
(lp3201
tp3202
tp3203
Rp3204
sg111
I0
sg1818
Nsg112
I01
sg114
Nsg1819
F1.2
sg115
g1673
sg1820
I00
sg1821
I00
sg43
Nsg1822
g2381
sg1824
g2454
sg34
Nsbsg96
Nsg2479
I0
sg86
I01
sg103
g0
(g104
g105
((lp3205
(lp3206
tp3207
tp3208
Rp3209
sg2485
F3.4
sg2486
g0
(g2487
g2
Ntp3210
Rp3211
(dp3212
g6
g7
sg2491
g2492
sg1852
Nsg20
I01
sg2493
Nsg2494
I0
sg75
Nsg76
Nsg24
Nsg11
Nsg29
I00
sg30
(dp3213
sg32
I00
sg1704
Nsg2496
F0.6
sg2497
Nsg2498
g2499
sg2500
g2501
sg96
Nsg86
I01
sg2502
(I0
tp3214
sg111
I0
sg112
I01
sg2504
I01
sg2505
I01
sg115
g190
sg2506
Nsg1989
I2
sg1822
g2381
sg2507
I5
sg9
g4
sg2508
Nsg10
Nsg42
Nsg17
g18
sg2509
g2510
sg23
Nsg25
Nsg28
I00
sg2511
Nsg34
Nsg2512
Nsg2513
g0
(g2514
g2
Ntp3215
Rp3216
(dp3217
g2513
I3
sg2518
Nsg2519
F1.0
sg115
g0
(g163
g2
Ntp3218
Rp3219
(dp3220
g49
I2
sg50
Nsg120
g121
(g122
(I0
tp3221
g124
tp3222
Rp3223
(I1
(I3
I3
tp3224
g59
I00
S'\x00\x00\x00\x00\x00\x00\xf0?\x00\x00\x00\x00\x00\x00\x00\x00\x00\x00\x00\x00\x00\x00\x00\x00\x00\x00\x00\x00\x00\x00\x00\x00\x00\x00\x00\x00\x00\x00\xf0\xbf\x00\x00\x00\x00\x00\x00\x00\x00\x00\x00\x00\x00\x00\x00\x00\x00\x00\x00\x00\x00\x00\x00\x00\x00\x00\x00\x00\x00\x00\x00\xf0?'
p3225
tp3226
bsg51
g7
sg52
(dp3227
sbsg2530
I00
sg2531
g2532
sg2533
Nsg1701
g2534
sg99
g2535
sg2536
g2538
sbsg2546
g2547
sg88
Nsg33
Nsg92
I01
sg2548
Nsg101
g2549
sg103
g0
(g104
g105
((lp3228
(lp3229
tp3230
tp3231
Rp3232
sg2555
I00
sg2556
g2557
sg2558
g2510
sg2559
Nsg114
Nsg2560
g2510
sg2561
F0.0
sg8
I01
sg2562
Nsg43
Nsg1703
Nsg2563
g2564
sg87
F0.5
sg2536
Nsbsg112
I00
sg2565
g0
(g2487
g2
Ntp3233
Rp3234
(dp3235
g6
g7
sg8
I01
sg2558
g2510
sg9
g4
sg2491
g2492
sg1852
Nsg10
Nsg42
Nsg17
g18
sg2509
g2510
sg20
I01
sg2493
Nsg23
Nsg75
g121
(g122
(I0
tp3236
g124
tp3237
Rp3238
(I1
(I2
tp3239
g59
I00
S'\x00\x00\x00\x00\x00\x00\x00\x00\x00\x00\x00\x00\x00\x00\xf0?'
p3240
tp3241
bsg76
g121
(g122
(I0
tp3242
g124
tp3243
Rp3244
(I1
(I2
tp3245
g59
I00
S'\x00\x00\x00\x00\x00\x00\x00\x00\x00\x00\x00\x00\x00\x00\x00\x00'
p3246
tp3247
bsg24
Nsg25
Nsg11
Nsg2502
g2581
sg28
I00
sg2511
Nsg29
I00
sg30
(dp3248
sg2508
Nsg32
I00
sg2555
I00
sg1704
Nsg2512
Nsg2496
F1.0
sg2546
g2547
sg2497
Nsg1822
g2583
sg2513
g0
(g2514
g2
Ntp3249
Rp3250
(dp3251
g2513
g2587
sg2518
Nsg2519
Nsg115
g0
(g45
g2
Ntp3252
Rp3253
(dp3254
g49
I1
sg50
Nsg51
g7
sg52
(dp3255
sbsg2530
I00
sg2531
g2532
sg2533
Nsg1701
g2534
sg99
g2535
sg2536
g0
(g1925
g2
Ntp3256
Rp3257
(dp3258
g1929
I00
sg1930
Nsg1942
g121
(g122
(I0
tp3259
g124
tp3260
Rp3261
(I1
(I0
I2
tp3262
g59
I00
g2599
tp3263
bsg1949
I00
sg1950
F0.1111111111111111
sg1951
I1
sg1952
I00
sbsbsg33
Nsg2498
g2499
sg92
I01
sg2500
g2501
sg96
Nsg2561
F0.0
sg86
I01
sg2548
g121
(g122
(I0
tp3264
g124
tp3265
Rp3266
(I1
(I2
I2
tp3267
g59
I00
S'\x00\x00\x00\x00\x00\x00\x00\x00\x00\x00\x00\x00\x00\x00\x00\x00\x00\x00\x00\x00\x00\x00\x00\x00\x00\x00\x00\x00\x00\x00\xf0?'
p3268
tp3269
bsg101
g2607
sg103
g0
(g104
g105
((lp3270
(lp3271
tp3272
tp3273
Rp3274
sg111
I0
sg2556
g2557
sg2494
I0
sg2559
Nsg2507
I5
sg112
I01
sg114
F1.0
sg2560
g2510
sg2505
I00
sg115
g190
sg2562
Nsg2506
Nsg2504
I00
sg43
Nsg1703
Nsg2563
g2613
sg88
g580
sg87
F0.8
sg34
Nsg2536
g0
(g1925
g2
Ntp3275
Rp3276
(dp3277
g1929
I00
sg1930
Nsg1942
g3266
sg1949
I00
sg1950
F0.1111111111111111
sg1951
I180
sg1952
I00
sbsbsg114
Nsg33
Nsg2617
g0
(g2487
g2
Ntp3278
Rp3279
(dp3280
g6
g7
sg2491
g2492
sg1852
Nsg20
I01
sg2493
Nsg2494
I0
sg75
Nsg76
Nsg24
Nsg11
Nsg29
I00
sg30
(dp3281
sg32
I00
sg1704
Nsg2496
F0.6
sg2497
Nsg2498
g2499
sg2500
g2501
sg96
Nsg86
I01
sg2502
(I0
tp3282
sg111
I0
sg112
I01
sg2504
I01
sg2505
I01
sg115
g190
sg2506
Nsg1989
I2
sg1822
g2381
sg2507
I5
sg9
g4
sg2508
Nsg10
Nsg42
Nsg17
g18
sg2509
g2510
sg23
Nsg25
Nsg28
I00
sg2511
Nsg34
Nsg2512
Nsg2513
g0
(g2514
g2
Ntp3283
Rp3284
(dp3285
g2513
I2
sg2518
Nsg2519
F1.0
sg115
g0
(g163
g2
Ntp3286
Rp3287
(dp3288
g49
I2
sg50
Nsg120
g121
(g122
(I0
tp3289
g124
tp3290
Rp3291
(I1
(I3
I3
tp3292
g59
I00
S'\x00\x00\x00\x00\x00\x00\xf0?\x00\x00\x00\x00\x00\x00\x00\x00\x00\x00\x00\x00\x00\x00\x00\x00\x00\x00\x00\x00\x00\x00\x00\x00\x00\x00\x00\x00\x00\x00\xf0?\x00\x00\x00\x00\x00\x00\x00\x00\x00\x00\x00\x00\x00\x00\x00\x00\x00\x00\x00\x00\x00\x00\x00\x00\x00\x00\x00\x00\x00\x00\xf0?'
p3293
tp3294
bsg51
g7
sg52
(dp3295
sbsg2530
I00
sg2531
g2532
sg2533
Nsg1701
g2534
sg99
g2535
sg2536
g2538
sbsg2546
g2547
sg88
Nsg33
Nsg92
I01
sg2548
Nsg101
g2636
sg103
g0
(g104
g105
((lp3296
(lp3297
tp3298
tp3299
Rp3300
sg2555
I00
sg2556
g2557
sg2558
g2510
sg2559
Nsg114
Nsg2560
g2510
sg2561
F0.0
sg8
I01
sg2562
Nsg43
Nsg1703
Nsg2563
g2642
sg87
F0.5
sg2536
Nsbsg115
Nsg2643
F8.0
sg2644
g2645
sg43
Nsg1822
g2381
sg34
Nsbasg34
NsS'_minor_tick_kw'
p3301
(dp3302
g2418
I01
sg2420
I00
sg2421
I01
sg2422
I00
ssS'isDefault_minfmt'
p3303
I01
sbsS'_navigate_mode'
p3304
Nsg34
NsS'transAxes'
p3305
g193
sS'_connected'
p3306
(dp3307
sS'fmt_ydata'
p3308
NsS'dataLim'
p3309
g0
(g136
g2
Ntp3310
Rp3311
(dp3312
g49
I0
sg140
g121
(g122
(I0
tp3313
g124
tp3314
Rp3315
(I1
(I2
tp3316
g59
I00
S'\x00\xe7\xd1~a-B?3\x15:Tn\xc4\xfd?'
p3317
tp3318
bsg52
(dp3319
sg148
g121
(g122
(I0
tp3320
g124
tp3321
Rp3322
(I1
(I2
I2
tp3323
g59
I00
S'\x00\x00\x00\x00\x00\x00\xf0\x7f\x00\x00\x00\x00\x00\x00\xf0\x7f\x00\x00\x00\x00\x00\x00\xf0\xff\x00\x00\x00\x00\x00\x00\xf0\xff'
p3324
tp3325
bsg155
g121
(g122
(I0
tp3326
g124
tp3327
Rp3328
(I1
(I2
I2
tp3329
g59
I00
S'\x00\xe7\xd1~a-B?3\x15:Tn\xc4\xfd?{\xe0\x97\x05\xac\t\x10@\xd4\x8bW#w\xf0b@'
p3330
tp3331
bsg162
I01
sg51
g7
sbsS'transData'
p3332
g1457
sg33
NsS'_sharey'
p3333
NsS'_sharex'
p3334
NsS'axesPatch'
p3335
g2263
sS'_ymargin'
p3336
F0.05
sS'_axes_locator'
p3337
Nsg103
g0
(g104
g105
((lp3338
(lp3339
tp3340
tp3341
Rp3342
sS'numCols'
p3343
I1
sg114
Nsg1715
NsS'yaxis'
p3344
g0
(cmatplotlib.axis
YAxis
p3345
g2
Ntp3346
Rp3347
(dp3348
g6
g7
sg2324
g0
(g2325
g2
Ntp3349
Rp3350
(dp3351
g2329
g0
(g2330
g2
Ntp3352
Rp3353
(dp3354
g2334
g121
(g122
(I0
tp3355
g124
tp3356
Rp3357
(I1
(I7
tp3358
g1965
I00
S'\x00\x00\x00\x00\x00\x00\x00\x00\x02\x00\x00\x00\x00\x00\x00\x00\x04\x00\x00\x00\x00\x00\x00\x00\x06\x00\x00\x00\x00\x00\x00\x00\x08\x00\x00\x00\x00\x00\x00\x00\n\x00\x00\x00\x00\x00\x00\x00\x0c\x00\x00\x00\x00\x00\x00\x00'
p3359
tp3360
bsg2341
g3347
sg2342
Nsbsg2343
g0
(g2344
g2
Ntp3361
Rp3362
(dp3363
g2348
g2349
sg2350
I0
sg2351
I01
sg2352
I00
sg2353
g7
sg2354
I00
sg2355
I4
sg2356
I0
sg1820
I00
sg2357
I01
sg2341
g3347
sbsbsg2358
I00
sg2359
g0
(g2360
g2
Ntp3364
Rp3365
sg9
g4
sg8
I01
sg2363
I00
sg10
Nsg42
Nsg2364
I00
sg17
g18
sg20
I01
sg23
Nsg2365
g0
(g1785
g2
Ntp3366
Rp3367
(dp3368
g6
g7
sg8
I01
sg9
g4
sg10
Nsg1789
g0
(g1790
g2
Ntp3369
Rp3370
(dp3371
g1794
(lp3372
g1796
asg1797
Nsg1798
g1799
sg1800
g1799
sg1801
F8.0
sg1802
I400
sg1803
g1799
sbsg42
Nsg17
g18
sg1804
Nsg20
I01
sg23
Nsg75
F0.5
sg76
I0
sg24
Nsg25
Nsg11
Nsg28
I00
sg29
I00
sg30
(dp3373
sg1806
Nsg32
I00
sg1704
Nsg88
Nsg1703
Nsg1807
Nsg33
Nsg96
Nsg86
I01
sg1808
Vbaseline
p3374
sg1810
V
p3375
sg1812
Nsg103
g0
(g104
g105
((lp3376
(lp3377
tp3378
tp3379
Rp3380
sg111
I0
sg1818
Nsg112
I01
sg114
Nsg1819
F1.2
sg115
g631
sg1820
I00
sg1821
I00
sg43
Nsg1822
V0.
p3381
sg1824
Vleft
p3382
sg34
Nsbsg24
Nsg25
Nsg11
Nsg2383
g0
(g1785
g2
Ntp3383
Rp3384
(dp3385
g6
g7
sg8
I01
sg9
g4
sg10
Nsg1789
g0
(g1790
g2
Ntp3386
Rp3387
(dp3388
g1794
(lp3389
g1796
asg1797
Nsg1798
g1799
sg1800
g1799
sg1801
F10.0
sg1802
I400
sg1803
g1799
sbsg42
Nsg17
g18
sg1804
Nsg20
I01
sg23
Nsg75
F0.5
sg76
I0
sg24
Nsg25
Nsg11
Nsg28
I00
sg29
I00
sg30
(dp3390
sg1806
Nsg32
I00
sg1704
Nsg88
Nsg1703
Nsg1807
Vanchor
p3391
sg33
Nsg96
Nsg86
I01
sg1808
Vbottom
p3392
sg1810
V$\u005cdelta_i$ (ms)
p3393
sg1812
Nsg103
g0
(g104
g105
((lp3394
(lp3395
tp3396
tp3397
Rp3398
sg111
I0
sg1818
Vvertical
p3399
sg112
I01
sg114
Nsg1819
F1.2
sg115
g623
sg1820
I00
sg1821
I00
sg43
Nsg1822
g2399
sg1824
Vcenter
p3400
sg34
Nsbsg28
I00
sg2401
I01
sg29
I00
sg30
(dp3401
sg2403
Nsg32
I00
sg2404
g0
(g2325
g2
Ntp3402
Rp3403
(dp3404
g2329
g0
(g2408
g2
Ntp3405
Rp3406
(dp3407
g2341
g3347
sbsg2343
g0
(g2412
g2
Ntp3408
Rp3409
(dp3410
g2341
g3347
sbsbsg1704
g1763
sg2416
(dp3411
g2418
I01
sg2419
I00
sg2420
I00
sg2421
I01
sg2422
I00
ssg2423
I01
sg88
g1111
sg33
Nsg2424
I00
sg2425
I1
sg2426
F4.0
sg2427
(lp3412
g0
(cmatplotlib.axis
YTick
p3413
g2
Ntp3414
Rp3415
(dp3416
g6
g7
sg40
F0.8
sg9
g4
sg2433
I01
sg8
I01
sg10
Nsg111
I0
sg42
Nsg2434
F3.5
sg2435
g3381
sg2436
I00
sg1801
F0.0
sg17
g18
sg2437
Vout
p3417
sg2383
g0
(g1785
g2
Ntp3418
Rp3419
(dp3420
g6
g7
sg8
I01
sg9
g4
sg10
Nsg1789
g0
(g1790
g2
Ntp3421
Rp3422
(dp3423
g1794
(lp3424
g1796
asg1797
Nsg1798
g1799
sg1800
g1799
sg1801
F8.0
sg1802
I400
sg1803
g1799
sbsg42
Nsg17
g18
sg1804
Nsg20
I01
sg23
Nsg75
I0
sg76
I0
sg24
Nsg25
Nsg11
Nsg28
I00
sg29
I00
sg30
(dp3425
sg1806
Nsg32
I00
sg1704
Nsg88
Nsg1703
Nsg1807
Nsg33
Nsg96
Nsg86
I01
sg1808
Vcenter_baseline
p3426
sg1810
V
p3427
sg1812
Nsg103
g0
(g104
g105
((lp3428
(lp3429
tp3430
tp3431
Rp3432
sg111
I0
sg1818
Nsg112
I01
sg114
Nsg1819
F1.2
sg115
g1502
sg1820
I00
sg1821
I00
sg43
Nsg1822
g3381
sg1824
Vright
p3433
sg34
Nsbsg20
I01
sg23
Nsg2455
I00
sg24
Nsg25
Nsg11
Nsg2456
I00
sg28
I00
sg29
I00
sg30
(dp3434
sg2458
(I0
I1
tp3435
sg32
I00
sg2460
F2.01
sg1704
g1763
sg2461
I01
sg88
g691
sg1703
Nsg2462
g3419
sg2463
g0
(g1785
g2
Ntp3436
Rp3437
(dp3438
g6
g7
sg8
I01
sg9
g4
sg10
Nsg1789
g0
(g1790
g2
Ntp3439
Rp3440
(dp3441
g1794
(lp3442
g1796
asg1797
Nsg1798
g1799
sg1800
g1799
sg1801
F8.0
sg1802
I400
sg1803
g1799
sbsg42
Nsg17
g18
sg1804
Nsg20
I01
sg23
Nsg75
I0
sg76
I1
sg24
Nsg25
Nsg11
Nsg28
I00
sg29
I00
sg30
(dp3443
sg1806
Nsg32
I00
sg1704
Nsg88
Nsg1703
Nsg1807
Nsg33
Nsg96
Nsg86
I01
sg1808
g3426
sg1810
V
p3444
sg1812
Nsg103
g0
(g104
g105
((lp3445
(lp3446
tp3447
tp3448
Rp3449
sg111
I0
sg1818
Nsg112
I01
sg114
Nsg1819
F1.2
sg115
g1493
sg1820
I00
sg1821
I00
sg43
Nsg1822
g3381
sg1824
Vleft
p3450
sg34
Nsbsg96
Nsg2479
I0
sg86
I01
sg103
g0
(g104
g105
((lp3451
(lp3452
tp3453
tp3454
Rp3455
sg2485
F3.5
sg2486
g0
(g2487
g2
Ntp3456
Rp3457
(dp3458
g6
g7
sg2491
g2492
sg1852
Nsg20
I01
sg2493
Nsg2494
I0
sg75
Nsg76
Nsg24
Nsg11
Nsg29
I00
sg30
(dp3459
sg32
I00
sg1704
Nsg2496
F0.8
sg2497
Nsg2498
g2499
sg2500
g2501
sg96
Nsg86
I01
sg2502
(I0
tp3460
sg111
I0
sg112
I01
sg2504
I01
sg2505
I01
sg115
g1461
sg2506
Nsg1989
F2.01
sg1822
g3381
sg2507
I5
sg9
g4
sg2508
Nsg10
Nsg42
Nsg17
g18
sg2509
g2510
sg23
Nsg25
Nsg28
I00
sg2511
Nsg34
Nsg2512
Nsg2513
g0
(g2514
g2
Ntp3461
Rp3462
(dp3463
g2513
I0
sg2518
Nsg2519
F1.0
sg115
g0
(g163
g2
Ntp3464
Rp3465
(dp3466
g49
I2
sg50
Nsg120
g121
(g122
(I0
tp3467
g124
tp3468
Rp3469
(I1
(I3
I3
tp3470
g59
I00
S'\x00\x00\x00\x00\x00\x00\xf0\xbf\x00\x00\x00\x00\x00\x00\x00\x00\x00\x00\x00\x00\x00\x00\x00\x00\x00\x00\x00\x00\x00\x00\x00\x00\x00\x00\x00\x00\x00\x00\xf0?\x00\x00\x00\x00\x00\x00\x00\x00\x00\x00\x00\x00\x00\x00\x00\x00\x00\x00\x00\x00\x00\x00\x00\x00\x00\x00\x00\x00\x00\x00\xf0?'
p3471
tp3472
bsg51
g7
sg52
(dp3473
sbsg2530
I00
sg2531
g2532
sg2533
Nsg1701
g2534
sg99
g2535
sg2536
g0
(g1925
g2
Ntp3474
Rp3475
(dp3476
g1929
I00
sg1930
Nsg1942
g121
(g122
(I0
tp3477
g124
tp3478
Rp3479
(I1
(I2
I2
tp3480
g59
I00
S'\x00\x00\x00\x00\x00\x00\x00\x00\x00\x00\x00\x00\x00\x00\x00\x00\x00\x00\x00\x00\x00\x00\xf0?\x00\x00\x00\x00\x00\x00\x00\x00'
p3481
tp3482
bsg1949
I00
sg1950
F0.1111111111111111
sg1951
I1
sg1952
I00
sbsbsg2546
g2547
sg88
Nsg33
Nsg92
I01
sg2548
Nsg101
VNone
p3483
sg103
g0
(g104
g105
((lp3484
(lp3485
tp3486
tp3487
Rp3488
sg2555
I00
sg2556
g2557
sg2558
g2510
sg2559
Nsg114
Nsg2560
g2510
sg2561
F0.0
sg8
I01
sg2562
Nsg43
Nsg1703
Nsg2563
(I0
tp3489
sg87
F0.5
sg2536
Nsbsg112
I00
sg2565
g0
(g2487
g2
Ntp3490
Rp3491
(dp3492
g6
g7
sg8
I01
sg2558
g2510
sg9
g4
sg2491
g2492
sg1852
Nsg10
Nsg42
Nsg17
g18
sg2509
g2510
sg20
I01
sg2493
Nsg23
Nsg75
g121
(g122
(I0
tp3493
g124
tp3494
Rp3495
(I1
(I2
tp3496
g59
I00
S'\x00\x00\x00\x00\x00\x00\x00\x00\x00\x00\x00\x00\x00\x00\x00\x00'
p3497
tp3498
bsg76
g121
(g122
(I0
tp3499
g124
tp3500
Rp3501
(I1
(I2
tp3502
g59
I00
S'\x00\x00\x00\x00\x00\x00\x00\x00\x00\x00\x00\x00\x00\x00\xf0?'
p3503
tp3504
bsg24
Nsg25
Nsg11
Nsg2502
(I0
I1
tp3505
sg28
I00
sg2511
Nsg29
I00
sg30
(dp3506
sg2508
Nsg32
I00
sg2555
I00
sg1704
Nsg2512
Nsg2496
F1.0
sg2546
g2547
sg2497
Nsg1822
g2583
sg2513
g0
(g2514
g2
Ntp3507
Rp3508
(dp3509
g2513
g2587
sg2518
Nsg2519
Nsg115
g0
(g45
g2
Ntp3510
Rp3511
(dp3512
g49
I1
sg50
Nsg51
g7
sg52
(dp3513
sbsg2530
I00
sg2531
g2532
sg2533
Nsg1701
g2534
sg99
g2535
sg2536
g0
(g1925
g2
Ntp3514
Rp3515
(dp3516
g1929
I00
sg1930
Nsg1942
g121
(g122
(I0
tp3517
g124
tp3518
Rp3519
(I1
(I0
I2
tp3520
g59
I00
g2599
tp3521
bsg1949
I00
sg1950
F0.1111111111111111
sg1951
I1
sg1952
I00
sbsbsg33
Nsg2498
g2499
sg92
I01
sg2500
g2501
sg96
Nsg2561
F0.0
sg86
I01
sg2548
g121
(g122
(I0
tp3522
g124
tp3523
Rp3524
(I1
(I2
I2
tp3525
g59
I00
S'\x00\x00\x00\x00\x00\x00\x00\x00\x00\x00\x00\x00\x00\x00\x00\x00\x00\x00\x00\x00\x00\x00\xf0?\x00\x00\x00\x00\x00\x00\x00\x00'
p3526
tp3527
bsg101
g2607
sg103
g0
(g104
g105
((lp3528
(lp3529
tp3530
tp3531
Rp3532
sg111
I0
sg2556
g2557
sg2494
I0
sg2559
Nsg2507
I5
sg112
I01
sg114
F1.0
sg2560
g2510
sg2505
I00
sg115
g1461
sg2562
Nsg2506
Nsg2504
I00
sg43
Nsg1703
Nsg2563
(I0
I0
tp3533
sg88
g831
sg87
F0.8
sg34
Nsg2536
g0
(g1925
g2
Ntp3534
Rp3535
(dp3536
g1929
I00
sg1930
Nsg1942
g3524
sg1949
I00
sg1950
F0.1111111111111111
sg1951
I180
sg1952
I00
sbsbsg114
Nsg33
Nsg2617
g0
(g2487
g2
Ntp3537
Rp3538
(dp3539
g6
g7
sg2491
g2492
sg1852
Nsg20
I01
sg2493
Nsg2494
I0
sg75
Nsg76
Nsg24
Nsg11
Nsg29
I00
sg30
(dp3540
sg32
I00
sg1704
Nsg2496
F0.8
sg2497
Nsg2498
g2499
sg2500
g2501
sg96
Nsg86
I01
sg2502
(I1
tp3541
sg111
I0
sg112
I01
sg2504
I01
sg2505
I01
sg115
g1461
sg2506
Nsg1989
F2.01
sg1822
g3381
sg2507
I5
sg9
g4
sg2508
Nsg10
Nsg42
Nsg17
g18
sg2509
g2510
sg23
Nsg25
Nsg28
I00
sg2511
Nsg34
Nsg2512
Nsg2513
g0
(g2514
g2
Ntp3542
Rp3543
(dp3544
g2513
I1
sg2518
Nsg2519
F1.0
sg115
g0
(g163
g2
Ntp3545
Rp3546
(dp3547
g49
I2
sg50
Nsg120
g121
(g122
(I0
tp3548
g124
tp3549
Rp3550
(I1
(I3
I3
tp3551
g59
I00
S'\x00\x00\x00\x00\x00\x00\xf0?\x00\x00\x00\x00\x00\x00\x00\x00\x00\x00\x00\x00\x00\x00\x00\x00\x00\x00\x00\x00\x00\x00\x00\x00\x00\x00\x00\x00\x00\x00\xf0?\x00\x00\x00\x00\x00\x00\x00\x00\x00\x00\x00\x00\x00\x00\x00\x00\x00\x00\x00\x00\x00\x00\x00\x00\x00\x00\x00\x00\x00\x00\xf0?'
p3552
tp3553
bsg51
g7
sg52
(dp3554
sbsg2530
I00
sg2531
g2532
sg2533
Nsg1701
g2534
sg99
g2535
sg2536
g3475
sbsg2546
g2547
sg88
Nsg33
Nsg92
I01
sg2548
Nsg101
VNone
p3555
sg103
g0
(g104
g105
((lp3556
(lp3557
tp3558
tp3559
Rp3560
sg2555
I00
sg2556
g2557
sg2558
g2510
sg2559
Nsg114
Nsg2560
g2510
sg2561
F0.0
sg8
I01
sg2562
Nsg43
Nsg1703
Nsg2563
(I0
tp3561
sg87
F0.5
sg2536
Nsbsg115
Nsg2643
F8.0
sg2644
Vytick
p3562
sg43
Nsg1822
g3381
sg34
Nsbag0
(g3413
g2
Ntp3563
Rp3564
(dp3565
g6
g7
sg40
F0.8
sg9
g4
sg2433
I01
sg8
I01
sg10
Nsg111
I0
sg42
Nsg2434
F3.5
sg2435
g3381
sg2436
I00
sg1801
F0.0
sg17
g18
sg2437
g3417
sg2383
g0
(g1785
g2
Ntp3566
Rp3567
(dp3568
g6
g7
sg8
I01
sg9
g4
sg10
Nsg1789
g0
(g1790
g2
Ntp3569
Rp3570
(dp3571
g1794
g3424
sg1797
Nsg1798
g1799
sg1800
g1799
sg1801
F8.0
sg1802
I400
sg1803
g1799
sbsg42
Nsg17
g18
sg1804
Nsg20
I01
sg23
Nsg75
I0
sg76
I0
sg24
Nsg25
Nsg11
Nsg28
I00
sg29
I00
sg30
(dp3572
sg1806
Nsg32
I00
sg1704
Nsg88
Nsg1703
Nsg1807
Nsg33
Nsg96
Nsg86
I01
sg1808
g3426
sg1810
V
p3573
sg1812
Nsg103
g0
(g104
g105
((lp3574
(lp3575
tp3576
tp3577
Rp3578
sg111
I0
sg1818
Nsg112
I01
sg114
Nsg1819
F1.2
sg115
g1502
sg1820
I00
sg1821
I00
sg43
Nsg1822
g3381
sg1824
g3433
sg34
Nsbsg20
I01
sg23
Nsg2455
I00
sg24
Nsg25
Nsg11
Nsg2456
I00
sg28
I00
sg29
I00
sg30
(dp3579
sg2458
(I0
I1
tp3580
sg32
I00
sg2460
F2.01
sg1704
g1763
sg2461
I01
sg88
g971
sg1703
Nsg2462
g3567
sg2463
g0
(g1785
g2
Ntp3581
Rp3582
(dp3583
g6
g7
sg8
I01
sg9
g4
sg10
Nsg1789
g0
(g1790
g2
Ntp3584
Rp3585
(dp3586
g1794
g3442
sg1797
Nsg1798
g1799
sg1800
g1799
sg1801
F8.0
sg1802
I400
sg1803
g1799
sbsg42
Nsg17
g18
sg1804
Nsg20
I01
sg23
Nsg75
I0
sg76
I1
sg24
Nsg25
Nsg11
Nsg28
I00
sg29
I00
sg30
(dp3587
sg1806
Nsg32
I00
sg1704
Nsg88
Nsg1703
Nsg1807
Nsg33
Nsg96
Nsg86
I01
sg1808
g3426
sg1810
V
p3588
sg1812
Nsg103
g0
(g104
g105
((lp3589
(lp3590
tp3591
tp3592
Rp3593
sg111
I0
sg1818
Nsg112
I01
sg114
Nsg1819
F1.2
sg115
g1493
sg1820
I00
sg1821
I00
sg43
Nsg1822
g3381
sg1824
g3450
sg34
Nsbsg96
Nsg2479
I0
sg86
I01
sg103
g0
(g104
g105
((lp3594
(lp3595
tp3596
tp3597
Rp3598
sg2485
F3.5
sg2486
g0
(g2487
g2
Ntp3599
Rp3600
(dp3601
g6
g7
sg2491
g2492
sg1852
Nsg20
I01
sg2493
Nsg2494
I0
sg75
Nsg76
Nsg24
Nsg11
Nsg29
I00
sg30
(dp3602
sg32
I00
sg1704
Nsg2496
F0.8
sg2497
Nsg2498
g2499
sg2500
g2501
sg96
Nsg86
I01
sg2502
g3460
sg111
I0
sg112
I01
sg2504
I01
sg2505
I01
sg115
g1461
sg2506
Nsg1989
F2.01
sg1822
g3381
sg2507
I5
sg9
g4
sg2508
Nsg10
Nsg42
Nsg17
g18
sg2509
g2510
sg23
Nsg25
Nsg28
I00
sg2511
Nsg34
Nsg2512
Nsg2513
g0
(g2514
g2
Ntp3603
Rp3604
(dp3605
g2513
I0
sg2518
Nsg2519
F1.0
sg115
g0
(g163
g2
Ntp3606
Rp3607
(dp3608
g49
I2
sg50
Nsg120
g121
(g122
(I0
tp3609
g124
tp3610
Rp3611
(I1
(I3
I3
tp3612
g59
I00
S'\x00\x00\x00\x00\x00\x00\xf0\xbf\x00\x00\x00\x00\x00\x00\x00\x00\x00\x00\x00\x00\x00\x00\x00\x00\x00\x00\x00\x00\x00\x00\x00\x00\x00\x00\x00\x00\x00\x00\xf0?\x00\x00\x00\x00\x00\x00\x00\x00\x00\x00\x00\x00\x00\x00\x00\x00\x00\x00\x00\x00\x00\x00\x00\x00\x00\x00\x00\x00\x00\x00\xf0?'
p3613
tp3614
bsg51
g7
sg52
(dp3615
sbsg2530
I00
sg2531
g2532
sg2533
Nsg1701
g2534
sg99
g2535
sg2536
g3475
sbsg2546
g2547
sg88
Nsg33
Nsg92
I01
sg2548
Nsg101
g3483
sg103
g0
(g104
g105
((lp3616
(lp3617
tp3618
tp3619
Rp3620
sg2555
I00
sg2556
g2557
sg2558
g2510
sg2559
Nsg114
Nsg2560
g2510
sg2561
F0.0
sg8
I01
sg2562
Nsg43
Nsg1703
Nsg2563
(I0
tp3621
sg87
F0.5
sg2536
Nsbsg112
I00
sg2565
g0
(g2487
g2
Ntp3622
Rp3623
(dp3624
g6
g7
sg8
I01
sg2558
g2510
sg9
g4
sg2491
g2492
sg1852
Nsg10
Nsg42
Nsg17
g18
sg2509
g2510
sg20
I01
sg2493
Nsg23
Nsg75
g121
(g122
(I0
tp3625
g124
tp3626
Rp3627
(I1
(I2
tp3628
g59
I00
S'\x00\x00\x00\x00\x00\x00\x00\x00\x00\x00\x00\x00\x00\x00\x00\x00'
p3629
tp3630
bsg76
g121
(g122
(I0
tp3631
g124
tp3632
Rp3633
(I1
(I2
tp3634
g59
I00
S'\x00\x00\x00\x00\x00\x00\x00\x00\x00\x00\x00\x00\x00\x00\xf0?'
p3635
tp3636
bsg24
Nsg25
Nsg11
Nsg2502
g3505
sg28
I00
sg2511
Nsg29
I00
sg30
(dp3637
sg2508
Nsg32
I00
sg2555
I00
sg1704
Nsg2512
Nsg2496
F1.0
sg2546
g2547
sg2497
Nsg1822
g2583
sg2513
g0
(g2514
g2
Ntp3638
Rp3639
(dp3640
g2513
g2587
sg2518
Nsg2519
Nsg115
g0
(g45
g2
Ntp3641
Rp3642
(dp3643
g49
I1
sg50
Nsg51
g7
sg52
(dp3644
sbsg2530
I00
sg2531
g2532
sg2533
Nsg1701
g2534
sg99
g2535
sg2536
g0
(g1925
g2
Ntp3645
Rp3646
(dp3647
g1929
I00
sg1930
Nsg1942
g121
(g122
(I0
tp3648
g124
tp3649
Rp3650
(I1
(I0
I2
tp3651
g59
I00
g2599
tp3652
bsg1949
I00
sg1950
F0.1111111111111111
sg1951
I1
sg1952
I00
sbsbsg33
Nsg2498
g2499
sg92
I01
sg2500
g2501
sg96
Nsg2561
F0.0
sg86
I01
sg2548
g121
(g122
(I0
tp3653
g124
tp3654
Rp3655
(I1
(I2
I2
tp3656
g59
I00
S'\x00\x00\x00\x00\x00\x00\x00\x00\x00\x00\x00\x00\x00\x00\x00\x00\x00\x00\x00\x00\x00\x00\xf0?\x00\x00\x00\x00\x00\x00\x00\x00'
p3657
tp3658
bsg101
g2607
sg103
g0
(g104
g105
((lp3659
(lp3660
tp3661
tp3662
Rp3663
sg111
I0
sg2556
g2557
sg2494
I0
sg2559
Nsg2507
I5
sg112
I01
sg114
F1.0
sg2560
g2510
sg2505
I00
sg115
g1461
sg2562
Nsg2506
Nsg2504
I00
sg43
Nsg1703
Nsg2563
g3533
sg88
g831
sg87
F0.8
sg34
Nsg2536
g0
(g1925
g2
Ntp3664
Rp3665
(dp3666
g1929
I00
sg1930
Nsg1942
g3655
sg1949
I00
sg1950
F0.1111111111111111
sg1951
I180
sg1952
I00
sbsbsg114
Nsg33
Nsg2617
g0
(g2487
g2
Ntp3667
Rp3668
(dp3669
g6
g7
sg2491
g2492
sg1852
Nsg20
I01
sg2493
Nsg2494
I0
sg75
Nsg76
Nsg24
Nsg11
Nsg29
I00
sg30
(dp3670
sg32
I00
sg1704
Nsg2496
F0.8
sg2497
Nsg2498
g2499
sg2500
g2501
sg96
Nsg86
I01
sg2502
g3541
sg111
I0
sg112
I01
sg2504
I01
sg2505
I01
sg115
g1461
sg2506
Nsg1989
F2.01
sg1822
g3381
sg2507
I5
sg9
g4
sg2508
Nsg10
Nsg42
Nsg17
g18
sg2509
g2510
sg23
Nsg25
Nsg28
I00
sg2511
Nsg34
Nsg2512
Nsg2513
g0
(g2514
g2
Ntp3671
Rp3672
(dp3673
g2513
I1
sg2518
Nsg2519
F1.0
sg115
g0
(g163
g2
Ntp3674
Rp3675
(dp3676
g49
I2
sg50
Nsg120
g121
(g122
(I0
tp3677
g124
tp3678
Rp3679
(I1
(I3
I3
tp3680
g59
I00
S'\x00\x00\x00\x00\x00\x00\xf0?\x00\x00\x00\x00\x00\x00\x00\x00\x00\x00\x00\x00\x00\x00\x00\x00\x00\x00\x00\x00\x00\x00\x00\x00\x00\x00\x00\x00\x00\x00\xf0?\x00\x00\x00\x00\x00\x00\x00\x00\x00\x00\x00\x00\x00\x00\x00\x00\x00\x00\x00\x00\x00\x00\x00\x00\x00\x00\x00\x00\x00\x00\xf0?'
p3681
tp3682
bsg51
g7
sg52
(dp3683
sbsg2530
I00
sg2531
g2532
sg2533
Nsg1701
g2534
sg99
g2535
sg2536
g3475
sbsg2546
g2547
sg88
Nsg33
Nsg92
I01
sg2548
Nsg101
g3555
sg103
g0
(g104
g105
((lp3684
(lp3685
tp3686
tp3687
Rp3688
sg2555
I00
sg2556
g2557
sg2558
g2510
sg2559
Nsg114
Nsg2560
g2510
sg2561
F0.0
sg8
I01
sg2562
Nsg43
Nsg1703
Nsg2563
(I0
tp3689
sg87
F0.5
sg2536
Nsbsg115
Nsg2643
F8.0
sg2644
g3562
sg43
Nsg1822
g3381
sg34
Nsbag0
(g3413
g2
Ntp3690
Rp3691
(dp3692
g6
g7
sg40
F0.8
sg9
g4
sg2433
I01
sg8
I01
sg10
Nsg111
I0
sg42
Nsg2434
F3.5
sg2435
g3381
sg2436
I00
sg1801
F0.0
sg17
g18
sg2437
g3417
sg2383
g0
(g1785
g2
Ntp3693
Rp3694
(dp3695
g6
g7
sg8
I01
sg9
g4
sg10
Nsg1789
g0
(g1790
g2
Ntp3696
Rp3697
(dp3698
g1794
g3424
sg1797
Nsg1798
g1799
sg1800
g1799
sg1801
F8.0
sg1802
I400
sg1803
g1799
sbsg42
Nsg17
g18
sg1804
Nsg20
I01
sg23
Nsg75
I0
sg76
I0
sg24
Nsg25
Nsg11
Nsg28
I00
sg29
I00
sg30
(dp3699
sg1806
Nsg32
I00
sg1704
Nsg88
Nsg1703
Nsg1807
Nsg33
Nsg96
Nsg86
I01
sg1808
g3426
sg1810
V
p3700
sg1812
Nsg103
g0
(g104
g105
((lp3701
(lp3702
tp3703
tp3704
Rp3705
sg111
I0
sg1818
Nsg112
I01
sg114
Nsg1819
F1.2
sg115
g1502
sg1820
I00
sg1821
I00
sg43
Nsg1822
g3381
sg1824
g3433
sg34
Nsbsg20
I01
sg23
Nsg2455
I00
sg24
Nsg25
Nsg11
Nsg2456
I00
sg28
I00
sg29
I00
sg30
(dp3706
sg2458
(I0
I1
tp3707
sg32
I00
sg2460
F2.01
sg1704
g1763
sg2461
I01
sg88
Nsg1703
Nsg2462
g3694
sg2463
g0
(g1785
g2
Ntp3708
Rp3709
(dp3710
g6
g7
sg8
I01
sg9
g4
sg10
Nsg1789
g0
(g1790
g2
Ntp3711
Rp3712
(dp3713
g1794
g3442
sg1797
Nsg1798
g1799
sg1800
g1799
sg1801
F8.0
sg1802
I400
sg1803
g1799
sbsg42
Nsg17
g18
sg1804
Nsg20
I01
sg23
Nsg75
I0
sg76
I1
sg24
Nsg25
Nsg11
Nsg28
I00
sg29
I00
sg30
(dp3714
sg1806
Nsg32
I00
sg1704
Nsg88
Nsg1703
Nsg1807
Nsg33
Nsg96
Nsg86
I01
sg1808
g3426
sg1810
V
p3715
sg1812
Nsg103
g0
(g104
g105
((lp3716
(lp3717
tp3718
tp3719
Rp3720
sg111
I0
sg1818
Nsg112
I01
sg114
Nsg1819
F1.2
sg115
g1493
sg1820
I00
sg1821
I00
sg43
Nsg1822
g3381
sg1824
g3450
sg34
Nsbsg96
Nsg2479
I0
sg86
I01
sg103
g0
(g104
g105
((lp3721
(lp3722
tp3723
tp3724
Rp3725
sg2485
F3.5
sg2486
g0
(g2487
g2
Ntp3726
Rp3727
(dp3728
g6
g7
sg2491
g2492
sg1852
Nsg20
I01
sg2493
Nsg2494
I0
sg75
Nsg76
Nsg24
Nsg11
Nsg29
I00
sg30
(dp3729
sg32
I00
sg1704
Nsg2496
F0.8
sg2497
Nsg2498
g2499
sg2500
g2501
sg96
Nsg86
I01
sg2502
g3460
sg111
I0
sg112
I01
sg2504
I01
sg2505
I01
sg115
g1461
sg2506
Nsg1989
F2.01
sg1822
g3381
sg2507
I5
sg9
g4
sg2508
Nsg10
Nsg42
Nsg17
g18
sg2509
g2510
sg23
Nsg25
Nsg28
I00
sg2511
Nsg34
Nsg2512
Nsg2513
g0
(g2514
g2
Ntp3730
Rp3731
(dp3732
g2513
I0
sg2518
Nsg2519
F1.0
sg115
g0
(g163
g2
Ntp3733
Rp3734
(dp3735
g49
I2
sg50
Nsg120
g121
(g122
(I0
tp3736
g124
tp3737
Rp3738
(I1
(I3
I3
tp3739
g59
I00
S'\x00\x00\x00\x00\x00\x00\xf0\xbf\x00\x00\x00\x00\x00\x00\x00\x00\x00\x00\x00\x00\x00\x00\x00\x00\x00\x00\x00\x00\x00\x00\x00\x00\x00\x00\x00\x00\x00\x00\xf0?\x00\x00\x00\x00\x00\x00\x00\x00\x00\x00\x00\x00\x00\x00\x00\x00\x00\x00\x00\x00\x00\x00\x00\x00\x00\x00\x00\x00\x00\x00\xf0?'
p3740
tp3741
bsg51
g7
sg52
(dp3742
sbsg2530
I00
sg2531
g2532
sg2533
Nsg1701
g2534
sg99
g2535
sg2536
g3475
sbsg2546
g2547
sg88
Nsg33
Nsg92
I01
sg2548
Nsg101
g3483
sg103
g0
(g104
g105
((lp3743
(lp3744
tp3745
tp3746
Rp3747
sg2555
I00
sg2556
g2557
sg2558
g2510
sg2559
Nsg114
Nsg2560
g2510
sg2561
F0.0
sg8
I01
sg2562
Nsg43
Nsg1703
Nsg2563
(I0
tp3748
sg87
F0.5
sg2536
Nsbsg112
I00
sg2565
g0
(g2487
g2
Ntp3749
Rp3750
(dp3751
g6
g7
sg8
I01
sg2558
g2510
sg9
g4
sg2491
g2492
sg1852
Nsg10
Nsg42
Nsg17
g18
sg2509
g2510
sg20
I01
sg2493
Nsg23
Nsg75
g121
(g122
(I0
tp3752
g124
tp3753
Rp3754
(I1
(I2
tp3755
g59
I00
S'\x00\x00\x00\x00\x00\x00\x00\x00\x00\x00\x00\x00\x00\x00\x00\x00'
p3756
tp3757
bsg76
g121
(g122
(I0
tp3758
g124
tp3759
Rp3760
(I1
(I2
tp3761
g59
I00
S'\x00\x00\x00\x00\x00\x00\x00\x00\x00\x00\x00\x00\x00\x00\xf0?'
p3762
tp3763
bsg24
Nsg25
Nsg11
Nsg2502
g3505
sg28
I00
sg2511
Nsg29
I00
sg30
(dp3764
sg2508
Nsg32
I00
sg2555
I00
sg1704
Nsg2512
Nsg2496
F1.0
sg2546
g2547
sg2497
Nsg1822
g2583
sg2513
g0
(g2514
g2
Ntp3765
Rp3766
(dp3767
g2513
g2587
sg2518
Nsg2519
Nsg115
g0
(g45
g2
Ntp3768
Rp3769
(dp3770
g49
I1
sg50
Nsg51
g7
sg52
(dp3771
sbsg2530
I00
sg2531
g2532
sg2533
Nsg1701
g2534
sg99
g2535
sg2536
g0
(g1925
g2
Ntp3772
Rp3773
(dp3774
g1929
I00
sg1930
Nsg1942
g121
(g122
(I0
tp3775
g124
tp3776
Rp3777
(I1
(I0
I2
tp3778
g59
I00
g2599
tp3779
bsg1949
I00
sg1950
F0.1111111111111111
sg1951
I1
sg1952
I00
sbsbsg33
Nsg2498
g2499
sg92
I01
sg2500
g2501
sg96
Nsg2561
F0.0
sg86
I01
sg2548
g121
(g122
(I0
tp3780
g124
tp3781
Rp3782
(I1
(I2
I2
tp3783
g59
I00
S'\x00\x00\x00\x00\x00\x00\x00\x00\x00\x00\x00\x00\x00\x00\x00\x00\x00\x00\x00\x00\x00\x00\xf0?\x00\x00\x00\x00\x00\x00\x00\x00'
p3784
tp3785
bsg101
g2607
sg103
g0
(g104
g105
((lp3786
(lp3787
tp3788
tp3789
Rp3790
sg111
I0
sg2556
g2557
sg2494
I0
sg2559
Nsg2507
I5
sg112
I01
sg114
F1.0
sg2560
g2510
sg2505
I00
sg115
g1461
sg2562
Nsg2506
Nsg2504
I00
sg43
Nsg1703
Nsg2563
g3533
sg88
g831
sg87
F0.8
sg34
Nsg2536
g0
(g1925
g2
Ntp3791
Rp3792
(dp3793
g1929
I00
sg1930
Nsg1942
g3782
sg1949
I00
sg1950
F0.1111111111111111
sg1951
I180
sg1952
I00
sbsbsg114
Nsg33
Nsg2617
g0
(g2487
g2
Ntp3794
Rp3795
(dp3796
g6
g7
sg2491
g2492
sg1852
Nsg20
I01
sg2493
Nsg2494
I0
sg75
Nsg76
Nsg24
Nsg11
Nsg29
I00
sg30
(dp3797
sg32
I00
sg1704
Nsg2496
F0.8
sg2497
Nsg2498
g2499
sg2500
g2501
sg96
Nsg86
I01
sg2502
g3541
sg111
I0
sg112
I01
sg2504
I01
sg2505
I01
sg115
g1461
sg2506
Nsg1989
F2.01
sg1822
g3381
sg2507
I5
sg9
g4
sg2508
Nsg10
Nsg42
Nsg17
g18
sg2509
g2510
sg23
Nsg25
Nsg28
I00
sg2511
Nsg34
Nsg2512
Nsg2513
g0
(g2514
g2
Ntp3798
Rp3799
(dp3800
g2513
I1
sg2518
Nsg2519
F1.0
sg115
g0
(g163
g2
Ntp3801
Rp3802
(dp3803
g49
I2
sg50
Nsg120
g121
(g122
(I0
tp3804
g124
tp3805
Rp3806
(I1
(I3
I3
tp3807
g59
I00
S'\x00\x00\x00\x00\x00\x00\xf0?\x00\x00\x00\x00\x00\x00\x00\x00\x00\x00\x00\x00\x00\x00\x00\x00\x00\x00\x00\x00\x00\x00\x00\x00\x00\x00\x00\x00\x00\x00\xf0?\x00\x00\x00\x00\x00\x00\x00\x00\x00\x00\x00\x00\x00\x00\x00\x00\x00\x00\x00\x00\x00\x00\x00\x00\x00\x00\x00\x00\x00\x00\xf0?'
p3808
tp3809
bsg51
g7
sg52
(dp3810
sbsg2530
I00
sg2531
g2532
sg2533
Nsg1701
g2534
sg99
g2535
sg2536
g3475
sbsg2546
g2547
sg88
Nsg33
Nsg92
I01
sg2548
Nsg101
g3555
sg103
g0
(g104
g105
((lp3811
(lp3812
tp3813
tp3814
Rp3815
sg2555
I00
sg2556
g2557
sg2558
g2510
sg2559
Nsg114
Nsg2560
g2510
sg2561
F0.0
sg8
I01
sg2562
Nsg43
Nsg1703
Nsg2563
(I0
tp3816
sg87
F0.5
sg2536
Nsbsg115
Nsg2643
F8.0
sg2644
g3562
sg43
Nsg1822
g3381
sg34
Nsbag0
(g3413
g2
Ntp3817
Rp3818
(dp3819
g6
g7
sg40
F0.8
sg9
g4
sg2433
I01
sg8
I01
sg10
Nsg111
I0
sg42
Nsg2434
F3.5
sg2435
g3381
sg2436
I00
sg1801
F0.0
sg17
g18
sg2437
g3417
sg2383
g0
(g1785
g2
Ntp3820
Rp3821
(dp3822
g6
g7
sg8
I01
sg9
g4
sg10
Nsg1789
g0
(g1790
g2
Ntp3823
Rp3824
(dp3825
g1794
g3424
sg1797
Nsg1798
g1799
sg1800
g1799
sg1801
F8.0
sg1802
I400
sg1803
g1799
sbsg42
Nsg17
g18
sg1804
Nsg20
I01
sg23
Nsg75
I0
sg76
I0
sg24
Nsg25
Nsg11
Nsg28
I00
sg29
I00
sg30
(dp3826
sg1806
Nsg32
I00
sg1704
Nsg88
Nsg1703
Nsg1807
Nsg33
Nsg96
Nsg86
I01
sg1808
g3426
sg1810
V
p3827
sg1812
Nsg103
g0
(g104
g105
((lp3828
(lp3829
tp3830
tp3831
Rp3832
sg111
I0
sg1818
Nsg112
I01
sg114
Nsg1819
F1.2
sg115
g1502
sg1820
I00
sg1821
I00
sg43
Nsg1822
g3381
sg1824
g3433
sg34
Nsbsg20
I01
sg23
Nsg2455
I00
sg24
Nsg25
Nsg11
Nsg2456
I00
sg28
I00
sg29
I00
sg30
(dp3833
sg2458
(I0
I1
tp3834
sg32
I00
sg2460
F2.01
sg1704
g1763
sg2461
I01
sg88
Nsg1703
Nsg2462
g3821
sg2463
g0
(g1785
g2
Ntp3835
Rp3836
(dp3837
g6
g7
sg8
I01
sg9
g4
sg10
Nsg1789
g0
(g1790
g2
Ntp3838
Rp3839
(dp3840
g1794
g3442
sg1797
Nsg1798
g1799
sg1800
g1799
sg1801
F8.0
sg1802
I400
sg1803
g1799
sbsg42
Nsg17
g18
sg1804
Nsg20
I01
sg23
Nsg75
I0
sg76
I1
sg24
Nsg25
Nsg11
Nsg28
I00
sg29
I00
sg30
(dp3841
sg1806
Nsg32
I00
sg1704
Nsg88
Nsg1703
Nsg1807
Nsg33
Nsg96
Nsg86
I01
sg1808
g3426
sg1810
V
p3842
sg1812
Nsg103
g0
(g104
g105
((lp3843
(lp3844
tp3845
tp3846
Rp3847
sg111
I0
sg1818
Nsg112
I01
sg114
Nsg1819
F1.2
sg115
g1493
sg1820
I00
sg1821
I00
sg43
Nsg1822
g3381
sg1824
g3450
sg34
Nsbsg96
Nsg2479
I0
sg86
I01
sg103
g0
(g104
g105
((lp3848
(lp3849
tp3850
tp3851
Rp3852
sg2485
F3.5
sg2486
g0
(g2487
g2
Ntp3853
Rp3854
(dp3855
g6
g7
sg2491
g2492
sg1852
Nsg20
I01
sg2493
Nsg2494
I0
sg75
Nsg76
Nsg24
Nsg11
Nsg29
I00
sg30
(dp3856
sg32
I00
sg1704
Nsg2496
F0.8
sg2497
Nsg2498
g2499
sg2500
g2501
sg96
Nsg86
I01
sg2502
g3460
sg111
I0
sg112
I01
sg2504
I01
sg2505
I01
sg115
g1461
sg2506
Nsg1989
F2.01
sg1822
g3381
sg2507
I5
sg9
g4
sg2508
Nsg10
Nsg42
Nsg17
g18
sg2509
g2510
sg23
Nsg25
Nsg28
I00
sg2511
Nsg34
Nsg2512
Nsg2513
g0
(g2514
g2
Ntp3857
Rp3858
(dp3859
g2513
I0
sg2518
Nsg2519
F1.0
sg115
g0
(g163
g2
Ntp3860
Rp3861
(dp3862
g49
I2
sg50
Nsg120
g121
(g122
(I0
tp3863
g124
tp3864
Rp3865
(I1
(I3
I3
tp3866
g59
I00
S'\x00\x00\x00\x00\x00\x00\xf0\xbf\x00\x00\x00\x00\x00\x00\x00\x00\x00\x00\x00\x00\x00\x00\x00\x00\x00\x00\x00\x00\x00\x00\x00\x00\x00\x00\x00\x00\x00\x00\xf0?\x00\x00\x00\x00\x00\x00\x00\x00\x00\x00\x00\x00\x00\x00\x00\x00\x00\x00\x00\x00\x00\x00\x00\x00\x00\x00\x00\x00\x00\x00\xf0?'
p3867
tp3868
bsg51
g7
sg52
(dp3869
sbsg2530
I00
sg2531
g2532
sg2533
Nsg1701
g2534
sg99
g2535
sg2536
g3475
sbsg2546
g2547
sg88
Nsg33
Nsg92
I01
sg2548
Nsg101
g3483
sg103
g0
(g104
g105
((lp3870
(lp3871
tp3872
tp3873
Rp3874
sg2555
I00
sg2556
g2557
sg2558
g2510
sg2559
Nsg114
Nsg2560
g2510
sg2561
F0.0
sg8
I01
sg2562
Nsg43
Nsg1703
Nsg2563
(I0
tp3875
sg87
F0.5
sg2536
Nsbsg112
I00
sg2565
g0
(g2487
g2
Ntp3876
Rp3877
(dp3878
g6
g7
sg8
I01
sg2558
g2510
sg9
g4
sg2491
g2492
sg1852
Nsg10
Nsg42
Nsg17
g18
sg2509
g2510
sg20
I01
sg2493
Nsg23
Nsg75
g121
(g122
(I0
tp3879
g124
tp3880
Rp3881
(I1
(I2
tp3882
g59
I00
S'\x00\x00\x00\x00\x00\x00\x00\x00\x00\x00\x00\x00\x00\x00\x00\x00'
p3883
tp3884
bsg76
g121
(g122
(I0
tp3885
g124
tp3886
Rp3887
(I1
(I2
tp3888
g59
I00
S'\x00\x00\x00\x00\x00\x00\x00\x00\x00\x00\x00\x00\x00\x00\xf0?'
p3889
tp3890
bsg24
Nsg25
Nsg11
Nsg2502
g3505
sg28
I00
sg2511
Nsg29
I00
sg30
(dp3891
sg2508
Nsg32
I00
sg2555
I00
sg1704
Nsg2512
Nsg2496
F1.0
sg2546
g2547
sg2497
Nsg1822
g2583
sg2513
g0
(g2514
g2
Ntp3892
Rp3893
(dp3894
g2513
g2587
sg2518
Nsg2519
Nsg115
g0
(g45
g2
Ntp3895
Rp3896
(dp3897
g49
I1
sg50
Nsg51
g7
sg52
(dp3898
sbsg2530
I00
sg2531
g2532
sg2533
Nsg1701
g2534
sg99
g2535
sg2536
g0
(g1925
g2
Ntp3899
Rp3900
(dp3901
g1929
I00
sg1930
Nsg1942
g121
(g122
(I0
tp3902
g124
tp3903
Rp3904
(I1
(I0
I2
tp3905
g59
I00
g2599
tp3906
bsg1949
I00
sg1950
F0.1111111111111111
sg1951
I1
sg1952
I00
sbsbsg33
Nsg2498
g2499
sg92
I01
sg2500
g2501
sg96
Nsg2561
F0.0
sg86
I01
sg2548
g121
(g122
(I0
tp3907
g124
tp3908
Rp3909
(I1
(I2
I2
tp3910
g59
I00
S'\x00\x00\x00\x00\x00\x00\x00\x00\x00\x00\x00\x00\x00\x00\x00\x00\x00\x00\x00\x00\x00\x00\xf0?\x00\x00\x00\x00\x00\x00\x00\x00'
p3911
tp3912
bsg101
g2607
sg103
g0
(g104
g105
((lp3913
(lp3914
tp3915
tp3916
Rp3917
sg111
I0
sg2556
g2557
sg2494
I0
sg2559
Nsg2507
I5
sg112
I01
sg114
F1.0
sg2560
g2510
sg2505
I00
sg115
g1461
sg2562
Nsg2506
Nsg2504
I00
sg43
Nsg1703
Nsg2563
g3533
sg88
g831
sg87
F0.8
sg34
Nsg2536
g0
(g1925
g2
Ntp3918
Rp3919
(dp3920
g1929
I00
sg1930
Nsg1942
g3909
sg1949
I00
sg1950
F0.1111111111111111
sg1951
I180
sg1952
I00
sbsbsg114
Nsg33
Nsg2617
g0
(g2487
g2
Ntp3921
Rp3922
(dp3923
g6
g7
sg2491
g2492
sg1852
Nsg20
I01
sg2493
Nsg2494
I0
sg75
Nsg76
Nsg24
Nsg11
Nsg29
I00
sg30
(dp3924
sg32
I00
sg1704
Nsg2496
F0.8
sg2497
Nsg2498
g2499
sg2500
g2501
sg96
Nsg86
I01
sg2502
g3541
sg111
I0
sg112
I01
sg2504
I01
sg2505
I01
sg115
g1461
sg2506
Nsg1989
F2.01
sg1822
g3381
sg2507
I5
sg9
g4
sg2508
Nsg10
Nsg42
Nsg17
g18
sg2509
g2510
sg23
Nsg25
Nsg28
I00
sg2511
Nsg34
Nsg2512
Nsg2513
g0
(g2514
g2
Ntp3925
Rp3926
(dp3927
g2513
I1
sg2518
Nsg2519
F1.0
sg115
g0
(g163
g2
Ntp3928
Rp3929
(dp3930
g49
I2
sg50
Nsg120
g121
(g122
(I0
tp3931
g124
tp3932
Rp3933
(I1
(I3
I3
tp3934
g59
I00
S'\x00\x00\x00\x00\x00\x00\xf0?\x00\x00\x00\x00\x00\x00\x00\x00\x00\x00\x00\x00\x00\x00\x00\x00\x00\x00\x00\x00\x00\x00\x00\x00\x00\x00\x00\x00\x00\x00\xf0?\x00\x00\x00\x00\x00\x00\x00\x00\x00\x00\x00\x00\x00\x00\x00\x00\x00\x00\x00\x00\x00\x00\x00\x00\x00\x00\x00\x00\x00\x00\xf0?'
p3935
tp3936
bsg51
g7
sg52
(dp3937
sbsg2530
I00
sg2531
g2532
sg2533
Nsg1701
g2534
sg99
g2535
sg2536
g3475
sbsg2546
g2547
sg88
Nsg33
Nsg92
I01
sg2548
Nsg101
g3555
sg103
g0
(g104
g105
((lp3938
(lp3939
tp3940
tp3941
Rp3942
sg2555
I00
sg2556
g2557
sg2558
g2510
sg2559
Nsg114
Nsg2560
g2510
sg2561
F0.0
sg8
I01
sg2562
Nsg43
Nsg1703
Nsg2563
g3816
sg87
F0.5
sg2536
Nsbsg115
Nsg2643
F8.0
sg2644
g3562
sg43
Nsg1822
g3381
sg34
Nsbag0
(g3413
g2
Ntp3943
Rp3944
(dp3945
g6
g7
sg40
F0.8
sg9
g4
sg2433
I01
sg8
I01
sg10
Nsg111
I0
sg42
Nsg2434
F3.5
sg2435
g3381
sg2436
I00
sg1801
F0.0
sg17
g18
sg2437
g3417
sg2383
g0
(g1785
g2
Ntp3946
Rp3947
(dp3948
g6
g7
sg8
I01
sg9
g4
sg10
Nsg1789
g0
(g1790
g2
Ntp3949
Rp3950
(dp3951
g1794
g3424
sg1797
Nsg1798
g1799
sg1800
g1799
sg1801
F8.0
sg1802
I400
sg1803
g1799
sbsg42
Nsg17
g18
sg1804
Nsg20
I01
sg23
Nsg75
I0
sg76
I0
sg24
Nsg25
Nsg11
Nsg28
I00
sg29
I00
sg30
(dp3952
sg1806
Nsg32
I00
sg1704
Nsg88
Nsg1703
Nsg1807
Nsg33
Nsg96
Nsg86
I01
sg1808
g3426
sg1810
V
p3953
sg1812
Nsg103
g0
(g104
g105
((lp3954
(lp3955
tp3956
tp3957
Rp3958
sg111
I0
sg1818
Nsg112
I01
sg114
Nsg1819
F1.2
sg115
g1502
sg1820
I00
sg1821
I00
sg43
Nsg1822
g3381
sg1824
g3433
sg34
Nsbsg20
I01
sg23
Nsg2455
I00
sg24
Nsg25
Nsg11
Nsg2456
I00
sg28
I00
sg29
I00
sg30
(dp3959
sg2458
(I0
I1
tp3960
sg32
I00
sg2460
F2.01
sg1704
g1763
sg2461
I01
sg88
Nsg1703
Nsg2462
g3947
sg2463
g0
(g1785
g2
Ntp3961
Rp3962
(dp3963
g6
g7
sg8
I01
sg9
g4
sg10
Nsg1789
g0
(g1790
g2
Ntp3964
Rp3965
(dp3966
g1794
g3442
sg1797
Nsg1798
g1799
sg1800
g1799
sg1801
F8.0
sg1802
I400
sg1803
g1799
sbsg42
Nsg17
g18
sg1804
Nsg20
I01
sg23
Nsg75
I0
sg76
I1
sg24
Nsg25
Nsg11
Nsg28
I00
sg29
I00
sg30
(dp3967
sg1806
Nsg32
I00
sg1704
Nsg88
Nsg1703
Nsg1807
Nsg33
Nsg96
Nsg86
I01
sg1808
g3426
sg1810
V
p3968
sg1812
Nsg103
g0
(g104
g105
((lp3969
(lp3970
tp3971
tp3972
Rp3973
sg111
I0
sg1818
Nsg112
I01
sg114
Nsg1819
F1.2
sg115
g1493
sg1820
I00
sg1821
I00
sg43
Nsg1822
g3381
sg1824
g3450
sg34
Nsbsg96
Nsg2479
I0
sg86
I01
sg103
g0
(g104
g105
((lp3974
(lp3975
tp3976
tp3977
Rp3978
sg2485
F3.5
sg2486
g0
(g2487
g2
Ntp3979
Rp3980
(dp3981
g6
g7
sg2491
g2492
sg1852
Nsg20
I01
sg2493
Nsg2494
I0
sg75
Nsg76
Nsg24
Nsg11
Nsg29
I00
sg30
(dp3982
sg32
I00
sg1704
Nsg2496
F0.8
sg2497
Nsg2498
g2499
sg2500
g2501
sg96
Nsg86
I01
sg2502
g3460
sg111
I0
sg112
I01
sg2504
I01
sg2505
I01
sg115
g1461
sg2506
Nsg1989
F2.01
sg1822
g3381
sg2507
I5
sg9
g4
sg2508
Nsg10
Nsg42
Nsg17
g18
sg2509
g2510
sg23
Nsg25
Nsg28
I00
sg2511
Nsg34
Nsg2512
Nsg2513
g0
(g2514
g2
Ntp3983
Rp3984
(dp3985
g2513
I0
sg2518
Nsg2519
F1.0
sg115
g0
(g163
g2
Ntp3986
Rp3987
(dp3988
g49
I2
sg50
Nsg120
g121
(g122
(I0
tp3989
g124
tp3990
Rp3991
(I1
(I3
I3
tp3992
g59
I00
S'\x00\x00\x00\x00\x00\x00\xf0\xbf\x00\x00\x00\x00\x00\x00\x00\x00\x00\x00\x00\x00\x00\x00\x00\x00\x00\x00\x00\x00\x00\x00\x00\x00\x00\x00\x00\x00\x00\x00\xf0?\x00\x00\x00\x00\x00\x00\x00\x00\x00\x00\x00\x00\x00\x00\x00\x00\x00\x00\x00\x00\x00\x00\x00\x00\x00\x00\x00\x00\x00\x00\xf0?'
p3993
tp3994
bsg51
g7
sg52
(dp3995
sbsg2530
I00
sg2531
g2532
sg2533
Nsg1701
g2534
sg99
g2535
sg2536
g3475
sbsg2546
g2547
sg88
Nsg33
Nsg92
I01
sg2548
Nsg101
g3483
sg103
g0
(g104
g105
((lp3996
(lp3997
tp3998
tp3999
Rp4000
sg2555
I00
sg2556
g2557
sg2558
g2510
sg2559
Nsg114
Nsg2560
g2510
sg2561
F0.0
sg8
I01
sg2562
Nsg43
Nsg1703
Nsg2563
(I0
tp4001
sg87
F0.5
sg2536
Nsbsg112
I00
sg2565
g0
(g2487
g2
Ntp4002
Rp4003
(dp4004
g6
g7
sg8
I01
sg2558
g2510
sg9
g4
sg2491
g2492
sg1852
Nsg10
Nsg42
Nsg17
g18
sg2509
g2510
sg20
I01
sg2493
Nsg23
Nsg75
g121
(g122
(I0
tp4005
g124
tp4006
Rp4007
(I1
(I2
tp4008
g59
I00
S'\x00\x00\x00\x00\x00\x00\x00\x00\x00\x00\x00\x00\x00\x00\x00\x00'
p4009
tp4010
bsg76
g121
(g122
(I0
tp4011
g124
tp4012
Rp4013
(I1
(I2
tp4014
g59
I00
S'\x00\x00\x00\x00\x00\x00\x00\x00\x00\x00\x00\x00\x00\x00\xf0?'
p4015
tp4016
bsg24
Nsg25
Nsg11
Nsg2502
g3505
sg28
I00
sg2511
Nsg29
I00
sg30
(dp4017
sg2508
Nsg32
I00
sg2555
I00
sg1704
Nsg2512
Nsg2496
F1.0
sg2546
g2547
sg2497
Nsg1822
g2583
sg2513
g0
(g2514
g2
Ntp4018
Rp4019
(dp4020
g2513
g2587
sg2518
Nsg2519
Nsg115
g0
(g45
g2
Ntp4021
Rp4022
(dp4023
g49
I1
sg50
Nsg51
g7
sg52
(dp4024
sbsg2530
I00
sg2531
g2532
sg2533
Nsg1701
g2534
sg99
g2535
sg2536
g0
(g1925
g2
Ntp4025
Rp4026
(dp4027
g1929
I00
sg1930
Nsg1942
g121
(g122
(I0
tp4028
g124
tp4029
Rp4030
(I1
(I0
I2
tp4031
g59
I00
g2599
tp4032
bsg1949
I00
sg1950
F0.1111111111111111
sg1951
I1
sg1952
I00
sbsbsg33
Nsg2498
g2499
sg92
I01
sg2500
g2501
sg96
Nsg2561
F0.0
sg86
I01
sg2548
g121
(g122
(I0
tp4033
g124
tp4034
Rp4035
(I1
(I2
I2
tp4036
g59
I00
S'\x00\x00\x00\x00\x00\x00\x00\x00\x00\x00\x00\x00\x00\x00\x00\x00\x00\x00\x00\x00\x00\x00\xf0?\x00\x00\x00\x00\x00\x00\x00\x00'
p4037
tp4038
bsg101
g2607
sg103
g0
(g104
g105
((lp4039
(lp4040
tp4041
tp4042
Rp4043
sg111
I0
sg2556
g2557
sg2494
I0
sg2559
Nsg2507
I5
sg112
I01
sg114
F1.0
sg2560
g2510
sg2505
I00
sg115
g1461
sg2562
Nsg2506
Nsg2504
I00
sg43
Nsg1703
Nsg2563
g3533
sg88
g831
sg87
F0.8
sg34
Nsg2536
g0
(g1925
g2
Ntp4044
Rp4045
(dp4046
g1929
I00
sg1930
Nsg1942
g4035
sg1949
I00
sg1950
F0.1111111111111111
sg1951
I180
sg1952
I00
sbsbsg114
Nsg33
Nsg2617
g0
(g2487
g2
Ntp4047
Rp4048
(dp4049
g6
g7
sg2491
g2492
sg1852
Nsg20
I01
sg2493
Nsg2494
I0
sg75
Nsg76
Nsg24
Nsg11
Nsg29
I00
sg30
(dp4050
sg32
I00
sg1704
Nsg2496
F0.8
sg2497
Nsg2498
g2499
sg2500
g2501
sg96
Nsg86
I01
sg2502
g3541
sg111
I0
sg112
I01
sg2504
I01
sg2505
I01
sg115
g1461
sg2506
Nsg1989
F2.01
sg1822
g3381
sg2507
I5
sg9
g4
sg2508
Nsg10
Nsg42
Nsg17
g18
sg2509
g2510
sg23
Nsg25
Nsg28
I00
sg2511
Nsg34
Nsg2512
Nsg2513
g0
(g2514
g2
Ntp4051
Rp4052
(dp4053
g2513
I1
sg2518
Nsg2519
F1.0
sg115
g0
(g163
g2
Ntp4054
Rp4055
(dp4056
g49
I2
sg50
Nsg120
g121
(g122
(I0
tp4057
g124
tp4058
Rp4059
(I1
(I3
I3
tp4060
g59
I00
S'\x00\x00\x00\x00\x00\x00\xf0?\x00\x00\x00\x00\x00\x00\x00\x00\x00\x00\x00\x00\x00\x00\x00\x00\x00\x00\x00\x00\x00\x00\x00\x00\x00\x00\x00\x00\x00\x00\xf0?\x00\x00\x00\x00\x00\x00\x00\x00\x00\x00\x00\x00\x00\x00\x00\x00\x00\x00\x00\x00\x00\x00\x00\x00\x00\x00\x00\x00\x00\x00\xf0?'
p4061
tp4062
bsg51
g7
sg52
(dp4063
sbsg2530
I00
sg2531
g2532
sg2533
Nsg1701
g2534
sg99
g2535
sg2536
g3475
sbsg2546
g2547
sg88
Nsg33
Nsg92
I01
sg2548
Nsg101
g3555
sg103
g0
(g104
g105
((lp4064
(lp4065
tp4066
tp4067
Rp4068
sg2555
I00
sg2556
g2557
sg2558
g2510
sg2559
Nsg114
Nsg2560
g2510
sg2561
F0.0
sg8
I01
sg2562
Nsg43
Nsg1703
Nsg2563
g3816
sg87
F0.5
sg2536
Nsbsg115
Nsg2643
F8.0
sg2644
g3562
sg43
Nsg1822
g3381
sg34
Nsbag0
(g3413
g2
Ntp4069
Rp4070
(dp4071
g6
g7
sg40
F0.8
sg9
g4
sg2433
I01
sg8
I01
sg10
Nsg111
I0
sg42
Nsg2434
F3.5
sg2435
g3381
sg2436
I00
sg1801
F0.0
sg17
g18
sg2437
g3417
sg2383
g0
(g1785
g2
Ntp4072
Rp4073
(dp4074
g6
g7
sg8
I01
sg9
g4
sg10
Nsg1789
g0
(g1790
g2
Ntp4075
Rp4076
(dp4077
g1794
g3424
sg1797
Nsg1798
g1799
sg1800
g1799
sg1801
F8.0
sg1802
I400
sg1803
g1799
sbsg42
Nsg17
g18
sg1804
Nsg20
I01
sg23
Nsg75
I0
sg76
I0
sg24
Nsg25
Nsg11
Nsg28
I00
sg29
I00
sg30
(dp4078
sg1806
Nsg32
I00
sg1704
Nsg88
Nsg1703
Nsg1807
Nsg33
Nsg96
Nsg86
I01
sg1808
g3426
sg1810
V
p4079
sg1812
Nsg103
g0
(g104
g105
((lp4080
(lp4081
tp4082
tp4083
Rp4084
sg111
I0
sg1818
Nsg112
I01
sg114
Nsg1819
F1.2
sg115
g1502
sg1820
I00
sg1821
I00
sg43
Nsg1822
g3381
sg1824
g3433
sg34
Nsbsg20
I01
sg23
Nsg2455
I00
sg24
Nsg25
Nsg11
Nsg2456
I00
sg28
I00
sg29
I00
sg30
(dp4085
sg2458
(I0
I1
tp4086
sg32
I00
sg2460
F2.01
sg1704
g1763
sg2461
I01
sg88
Nsg1703
Nsg2462
g4073
sg2463
g0
(g1785
g2
Ntp4087
Rp4088
(dp4089
g6
g7
sg8
I01
sg9
g4
sg10
Nsg1789
g0
(g1790
g2
Ntp4090
Rp4091
(dp4092
g1794
g3442
sg1797
Nsg1798
g1799
sg1800
g1799
sg1801
F8.0
sg1802
I400
sg1803
g1799
sbsg42
Nsg17
g18
sg1804
Nsg20
I01
sg23
Nsg75
I0
sg76
I1
sg24
Nsg25
Nsg11
Nsg28
I00
sg29
I00
sg30
(dp4093
sg1806
Nsg32
I00
sg1704
Nsg88
Nsg1703
Nsg1807
Nsg33
Nsg96
Nsg86
I01
sg1808
g3426
sg1810
V
p4094
sg1812
Nsg103
g0
(g104
g105
((lp4095
(lp4096
tp4097
tp4098
Rp4099
sg111
I0
sg1818
Nsg112
I01
sg114
Nsg1819
F1.2
sg115
g1493
sg1820
I00
sg1821
I00
sg43
Nsg1822
g3381
sg1824
g3450
sg34
Nsbsg96
Nsg2479
I0
sg86
I01
sg103
g0
(g104
g105
((lp4100
(lp4101
tp4102
tp4103
Rp4104
sg2485
F3.5
sg2486
g0
(g2487
g2
Ntp4105
Rp4106
(dp4107
g6
g7
sg2491
g2492
sg1852
Nsg20
I01
sg2493
Nsg2494
I0
sg75
Nsg76
Nsg24
Nsg11
Nsg29
I00
sg30
(dp4108
sg32
I00
sg1704
Nsg2496
F0.8
sg2497
Nsg2498
g2499
sg2500
g2501
sg96
Nsg86
I01
sg2502
g3460
sg111
I0
sg112
I01
sg2504
I01
sg2505
I01
sg115
g1461
sg2506
Nsg1989
F2.01
sg1822
g3381
sg2507
I5
sg9
g4
sg2508
Nsg10
Nsg42
Nsg17
g18
sg2509
g2510
sg23
Nsg25
Nsg28
I00
sg2511
Nsg34
Nsg2512
Nsg2513
g0
(g2514
g2
Ntp4109
Rp4110
(dp4111
g2513
I0
sg2518
Nsg2519
F1.0
sg115
g0
(g163
g2
Ntp4112
Rp4113
(dp4114
g49
I2
sg50
Nsg120
g121
(g122
(I0
tp4115
g124
tp4116
Rp4117
(I1
(I3
I3
tp4118
g59
I00
S'\x00\x00\x00\x00\x00\x00\xf0\xbf\x00\x00\x00\x00\x00\x00\x00\x00\x00\x00\x00\x00\x00\x00\x00\x00\x00\x00\x00\x00\x00\x00\x00\x00\x00\x00\x00\x00\x00\x00\xf0?\x00\x00\x00\x00\x00\x00\x00\x00\x00\x00\x00\x00\x00\x00\x00\x00\x00\x00\x00\x00\x00\x00\x00\x00\x00\x00\x00\x00\x00\x00\xf0?'
p4119
tp4120
bsg51
g7
sg52
(dp4121
sbsg2530
I00
sg2531
g2532
sg2533
Nsg1701
g2534
sg99
g2535
sg2536
g3475
sbsg2546
g2547
sg88
Nsg33
Nsg92
I01
sg2548
Nsg101
g3483
sg103
g0
(g104
g105
((lp4122
(lp4123
tp4124
tp4125
Rp4126
sg2555
I00
sg2556
g2557
sg2558
g2510
sg2559
Nsg114
Nsg2560
g2510
sg2561
F0.0
sg8
I01
sg2562
Nsg43
Nsg1703
Nsg2563
(I0
tp4127
sg87
F0.5
sg2536
Nsbsg112
I00
sg2565
g0
(g2487
g2
Ntp4128
Rp4129
(dp4130
g6
g7
sg8
I01
sg2558
g2510
sg9
g4
sg2491
g2492
sg1852
Nsg10
Nsg42
Nsg17
g18
sg2509
g2510
sg20
I01
sg2493
Nsg23
Nsg75
g121
(g122
(I0
tp4131
g124
tp4132
Rp4133
(I1
(I2
tp4134
g59
I00
S'\x00\x00\x00\x00\x00\x00\x00\x00\x00\x00\x00\x00\x00\x00\x00\x00'
p4135
tp4136
bsg76
g121
(g122
(I0
tp4137
g124
tp4138
Rp4139
(I1
(I2
tp4140
g59
I00
S'\x00\x00\x00\x00\x00\x00\x00\x00\x00\x00\x00\x00\x00\x00\xf0?'
p4141
tp4142
bsg24
Nsg25
Nsg11
Nsg2502
g3505
sg28
I00
sg2511
Nsg29
I00
sg30
(dp4143
sg2508
Nsg32
I00
sg2555
I00
sg1704
Nsg2512
Nsg2496
F1.0
sg2546
g2547
sg2497
Nsg1822
g2583
sg2513
g0
(g2514
g2
Ntp4144
Rp4145
(dp4146
g2513
g2587
sg2518
Nsg2519
Nsg115
g0
(g45
g2
Ntp4147
Rp4148
(dp4149
g49
I1
sg50
Nsg51
g7
sg52
(dp4150
sbsg2530
I00
sg2531
g2532
sg2533
Nsg1701
g2534
sg99
g2535
sg2536
g0
(g1925
g2
Ntp4151
Rp4152
(dp4153
g1929
I00
sg1930
Nsg1942
g121
(g122
(I0
tp4154
g124
tp4155
Rp4156
(I1
(I0
I2
tp4157
g59
I00
g2599
tp4158
bsg1949
I00
sg1950
F0.1111111111111111
sg1951
I1
sg1952
I00
sbsbsg33
Nsg2498
g2499
sg92
I01
sg2500
g2501
sg96
Nsg2561
F0.0
sg86
I01
sg2548
g121
(g122
(I0
tp4159
g124
tp4160
Rp4161
(I1
(I2
I2
tp4162
g59
I00
S'\x00\x00\x00\x00\x00\x00\x00\x00\x00\x00\x00\x00\x00\x00\x00\x00\x00\x00\x00\x00\x00\x00\xf0?\x00\x00\x00\x00\x00\x00\x00\x00'
p4163
tp4164
bsg101
g2607
sg103
g0
(g104
g105
((lp4165
(lp4166
tp4167
tp4168
Rp4169
sg111
I0
sg2556
g2557
sg2494
I0
sg2559
Nsg2507
I5
sg112
I01
sg114
F1.0
sg2560
g2510
sg2505
I00
sg115
g1461
sg2562
Nsg2506
Nsg2504
I00
sg43
Nsg1703
Nsg2563
g3533
sg88
g831
sg87
F0.8
sg34
Nsg2536
g0
(g1925
g2
Ntp4170
Rp4171
(dp4172
g1929
I00
sg1930
Nsg1942
g4161
sg1949
I00
sg1950
F0.1111111111111111
sg1951
I180
sg1952
I00
sbsbsg114
Nsg33
Nsg2617
g0
(g2487
g2
Ntp4173
Rp4174
(dp4175
g6
g7
sg2491
g2492
sg1852
Nsg20
I01
sg2493
Nsg2494
I0
sg75
Nsg76
Nsg24
Nsg11
Nsg29
I00
sg30
(dp4176
sg32
I00
sg1704
Nsg2496
F0.8
sg2497
Nsg2498
g2499
sg2500
g2501
sg96
Nsg86
I01
sg2502
g3541
sg111
I0
sg112
I01
sg2504
I01
sg2505
I01
sg115
g1461
sg2506
Nsg1989
F2.01
sg1822
g3381
sg2507
I5
sg9
g4
sg2508
Nsg10
Nsg42
Nsg17
g18
sg2509
g2510
sg23
Nsg25
Nsg28
I00
sg2511
Nsg34
Nsg2512
Nsg2513
g0
(g2514
g2
Ntp4177
Rp4178
(dp4179
g2513
I1
sg2518
Nsg2519
F1.0
sg115
g0
(g163
g2
Ntp4180
Rp4181
(dp4182
g49
I2
sg50
Nsg120
g121
(g122
(I0
tp4183
g124
tp4184
Rp4185
(I1
(I3
I3
tp4186
g59
I00
S'\x00\x00\x00\x00\x00\x00\xf0?\x00\x00\x00\x00\x00\x00\x00\x00\x00\x00\x00\x00\x00\x00\x00\x00\x00\x00\x00\x00\x00\x00\x00\x00\x00\x00\x00\x00\x00\x00\xf0?\x00\x00\x00\x00\x00\x00\x00\x00\x00\x00\x00\x00\x00\x00\x00\x00\x00\x00\x00\x00\x00\x00\x00\x00\x00\x00\x00\x00\x00\x00\xf0?'
p4187
tp4188
bsg51
g7
sg52
(dp4189
sbsg2530
I00
sg2531
g2532
sg2533
Nsg1701
g2534
sg99
g2535
sg2536
g3475
sbsg2546
g2547
sg88
Nsg33
Nsg92
I01
sg2548
Nsg101
g3555
sg103
g0
(g104
g105
((lp4190
(lp4191
tp4192
tp4193
Rp4194
sg2555
I00
sg2556
g2557
sg2558
g2510
sg2559
Nsg114
Nsg2560
g2510
sg2561
F0.0
sg8
I01
sg2562
Nsg43
Nsg1703
Nsg2563
g3816
sg87
F0.5
sg2536
Nsbsg115
Nsg2643
F8.0
sg2644
g3562
sg43
Nsg1822
g3381
sg34
Nsbag0
(g3413
g2
Ntp4195
Rp4196
(dp4197
g6
g7
sg40
F0.8
sg9
g4
sg2433
I01
sg8
I01
sg10
Nsg111
I0
sg42
Nsg2434
F3.5
sg2435
g3381
sg2436
I00
sg1801
F0.0
sg17
g18
sg2437
g3417
sg2383
g0
(g1785
g2
Ntp4198
Rp4199
(dp4200
g6
g7
sg8
I01
sg9
g4
sg10
Nsg1789
g0
(g1790
g2
Ntp4201
Rp4202
(dp4203
g1794
g3424
sg1797
Nsg1798
g1799
sg1800
g1799
sg1801
F8.0
sg1802
I400
sg1803
g1799
sbsg42
Nsg17
g18
sg1804
Nsg20
I01
sg23
Nsg75
I0
sg76
I0
sg24
Nsg25
Nsg11
Nsg28
I00
sg29
I00
sg30
(dp4204
sg1806
Nsg32
I00
sg1704
Nsg88
Nsg1703
Nsg1807
Nsg33
Nsg96
Nsg86
I01
sg1808
g3426
sg1810
V
p4205
sg1812
Nsg103
g0
(g104
g105
((lp4206
(lp4207
tp4208
tp4209
Rp4210
sg111
I0
sg1818
Nsg112
I01
sg114
Nsg1819
F1.2
sg115
g1502
sg1820
I00
sg1821
I00
sg43
Nsg1822
g3381
sg1824
g3433
sg34
Nsbsg20
I01
sg23
Nsg2455
I00
sg24
Nsg25
Nsg11
Nsg2456
I00
sg28
I00
sg29
I00
sg30
(dp4211
sg2458
(I0
I1
tp4212
sg32
I00
sg2460
F2.01
sg1704
g1763
sg2461
I01
sg88
Nsg1703
Nsg2462
g4199
sg2463
g0
(g1785
g2
Ntp4213
Rp4214
(dp4215
g6
g7
sg8
I01
sg9
g4
sg10
Nsg1789
g0
(g1790
g2
Ntp4216
Rp4217
(dp4218
g1794
g3442
sg1797
Nsg1798
g1799
sg1800
g1799
sg1801
F8.0
sg1802
I400
sg1803
g1799
sbsg42
Nsg17
g18
sg1804
Nsg20
I01
sg23
Nsg75
I0
sg76
I1
sg24
Nsg25
Nsg11
Nsg28
I00
sg29
I00
sg30
(dp4219
sg1806
Nsg32
I00
sg1704
Nsg88
Nsg1703
Nsg1807
Nsg33
Nsg96
Nsg86
I01
sg1808
g3426
sg1810
V
p4220
sg1812
Nsg103
g0
(g104
g105
((lp4221
(lp4222
tp4223
tp4224
Rp4225
sg111
I0
sg1818
Nsg112
I01
sg114
Nsg1819
F1.2
sg115
g1493
sg1820
I00
sg1821
I00
sg43
Nsg1822
g3381
sg1824
g3450
sg34
Nsbsg96
Nsg2479
I0
sg86
I01
sg103
g0
(g104
g105
((lp4226
(lp4227
tp4228
tp4229
Rp4230
sg2485
F3.5
sg2486
g0
(g2487
g2
Ntp4231
Rp4232
(dp4233
g6
g7
sg2491
g2492
sg1852
Nsg20
I01
sg2493
Nsg2494
I0
sg75
Nsg76
Nsg24
Nsg11
Nsg29
I00
sg30
(dp4234
sg32
I00
sg1704
Nsg2496
F0.8
sg2497
Nsg2498
g2499
sg2500
g2501
sg96
Nsg86
I01
sg2502
g3460
sg111
I0
sg112
I01
sg2504
I01
sg2505
I01
sg115
g1461
sg2506
Nsg1989
F2.01
sg1822
g3381
sg2507
I5
sg9
g4
sg2508
Nsg10
Nsg42
Nsg17
g18
sg2509
g2510
sg23
Nsg25
Nsg28
I00
sg2511
Nsg34
Nsg2512
Nsg2513
g0
(g2514
g2
Ntp4235
Rp4236
(dp4237
g2513
I0
sg2518
Nsg2519
F1.0
sg115
g0
(g163
g2
Ntp4238
Rp4239
(dp4240
g49
I2
sg50
Nsg120
g121
(g122
(I0
tp4241
g124
tp4242
Rp4243
(I1
(I3
I3
tp4244
g59
I00
S'\x00\x00\x00\x00\x00\x00\xf0\xbf\x00\x00\x00\x00\x00\x00\x00\x00\x00\x00\x00\x00\x00\x00\x00\x00\x00\x00\x00\x00\x00\x00\x00\x00\x00\x00\x00\x00\x00\x00\xf0?\x00\x00\x00\x00\x00\x00\x00\x00\x00\x00\x00\x00\x00\x00\x00\x00\x00\x00\x00\x00\x00\x00\x00\x00\x00\x00\x00\x00\x00\x00\xf0?'
p4245
tp4246
bsg51
g7
sg52
(dp4247
sbsg2530
I00
sg2531
g2532
sg2533
Nsg1701
g2534
sg99
g2535
sg2536
g3475
sbsg2546
g2547
sg88
Nsg33
Nsg92
I01
sg2548
Nsg101
g3483
sg103
g0
(g104
g105
((lp4248
(lp4249
tp4250
tp4251
Rp4252
sg2555
I00
sg2556
g2557
sg2558
g2510
sg2559
Nsg114
Nsg2560
g2510
sg2561
F0.0
sg8
I01
sg2562
Nsg43
Nsg1703
Nsg2563
(I0
tp4253
sg87
F0.5
sg2536
Nsbsg112
I00
sg2565
g0
(g2487
g2
Ntp4254
Rp4255
(dp4256
g6
g7
sg8
I01
sg2558
g2510
sg9
g4
sg2491
g2492
sg1852
Nsg10
Nsg42
Nsg17
g18
sg2509
g2510
sg20
I01
sg2493
Nsg23
Nsg75
g121
(g122
(I0
tp4257
g124
tp4258
Rp4259
(I1
(I2
tp4260
g59
I00
S'\x00\x00\x00\x00\x00\x00\x00\x00\x00\x00\x00\x00\x00\x00\x00\x00'
p4261
tp4262
bsg76
g121
(g122
(I0
tp4263
g124
tp4264
Rp4265
(I1
(I2
tp4266
g59
I00
S'\x00\x00\x00\x00\x00\x00\x00\x00\x00\x00\x00\x00\x00\x00\xf0?'
p4267
tp4268
bsg24
Nsg25
Nsg11
Nsg2502
g3505
sg28
I00
sg2511
Nsg29
I00
sg30
(dp4269
sg2508
Nsg32
I00
sg2555
I00
sg1704
Nsg2512
Nsg2496
F1.0
sg2546
g2547
sg2497
Nsg1822
g2583
sg2513
g0
(g2514
g2
Ntp4270
Rp4271
(dp4272
g2513
g2587
sg2518
Nsg2519
Nsg115
g0
(g45
g2
Ntp4273
Rp4274
(dp4275
g49
I1
sg50
Nsg51
g7
sg52
(dp4276
sbsg2530
I00
sg2531
g2532
sg2533
Nsg1701
g2534
sg99
g2535
sg2536
g0
(g1925
g2
Ntp4277
Rp4278
(dp4279
g1929
I00
sg1930
Nsg1942
g121
(g122
(I0
tp4280
g124
tp4281
Rp4282
(I1
(I0
I2
tp4283
g59
I00
g2599
tp4284
bsg1949
I00
sg1950
F0.1111111111111111
sg1951
I1
sg1952
I00
sbsbsg33
Nsg2498
g2499
sg92
I01
sg2500
g2501
sg96
Nsg2561
F0.0
sg86
I01
sg2548
g121
(g122
(I0
tp4285
g124
tp4286
Rp4287
(I1
(I2
I2
tp4288
g59
I00
S'\x00\x00\x00\x00\x00\x00\x00\x00\x00\x00\x00\x00\x00\x00\x00\x00\x00\x00\x00\x00\x00\x00\xf0?\x00\x00\x00\x00\x00\x00\x00\x00'
p4289
tp4290
bsg101
g2607
sg103
g0
(g104
g105
((lp4291
(lp4292
tp4293
tp4294
Rp4295
sg111
I0
sg2556
g2557
sg2494
I0
sg2559
Nsg2507
I5
sg112
I01
sg114
F1.0
sg2560
g2510
sg2505
I00
sg115
g1461
sg2562
Nsg2506
Nsg2504
I00
sg43
Nsg1703
Nsg2563
g3533
sg88
g831
sg87
F0.8
sg34
Nsg2536
g0
(g1925
g2
Ntp4296
Rp4297
(dp4298
g1929
I00
sg1930
Nsg1942
g4287
sg1949
I00
sg1950
F0.1111111111111111
sg1951
I180
sg1952
I00
sbsbsg114
Nsg33
Nsg2617
g0
(g2487
g2
Ntp4299
Rp4300
(dp4301
g6
g7
sg2491
g2492
sg1852
Nsg20
I01
sg2493
Nsg2494
I0
sg75
Nsg76
Nsg24
Nsg11
Nsg29
I00
sg30
(dp4302
sg32
I00
sg1704
Nsg2496
F0.8
sg2497
Nsg2498
g2499
sg2500
g2501
sg96
Nsg86
I01
sg2502
g3541
sg111
I0
sg112
I01
sg2504
I01
sg2505
I01
sg115
g1461
sg2506
Nsg1989
F2.01
sg1822
g3381
sg2507
I5
sg9
g4
sg2508
Nsg10
Nsg42
Nsg17
g18
sg2509
g2510
sg23
Nsg25
Nsg28
I00
sg2511
Nsg34
Nsg2512
Nsg2513
g0
(g2514
g2
Ntp4303
Rp4304
(dp4305
g2513
I1
sg2518
Nsg2519
F1.0
sg115
g0
(g163
g2
Ntp4306
Rp4307
(dp4308
g49
I2
sg50
Nsg120
g121
(g122
(I0
tp4309
g124
tp4310
Rp4311
(I1
(I3
I3
tp4312
g59
I00
S'\x00\x00\x00\x00\x00\x00\xf0?\x00\x00\x00\x00\x00\x00\x00\x00\x00\x00\x00\x00\x00\x00\x00\x00\x00\x00\x00\x00\x00\x00\x00\x00\x00\x00\x00\x00\x00\x00\xf0?\x00\x00\x00\x00\x00\x00\x00\x00\x00\x00\x00\x00\x00\x00\x00\x00\x00\x00\x00\x00\x00\x00\x00\x00\x00\x00\x00\x00\x00\x00\xf0?'
p4313
tp4314
bsg51
g7
sg52
(dp4315
sbsg2530
I00
sg2531
g2532
sg2533
Nsg1701
g2534
sg99
g2535
sg2536
g3475
sbsg2546
g2547
sg88
Nsg33
Nsg92
I01
sg2548
Nsg101
g3555
sg103
g0
(g104
g105
((lp4316
(lp4317
tp4318
tp4319
Rp4320
sg2555
I00
sg2556
g2557
sg2558
g2510
sg2559
Nsg114
Nsg2560
g2510
sg2561
F0.0
sg8
I01
sg2562
Nsg43
Nsg1703
Nsg2563
g3816
sg87
F0.5
sg2536
Nsbsg115
Nsg2643
F8.0
sg2644
g3562
sg43
Nsg1822
g3381
sg34
Nsbasg3026
I00
sg1711
g0
(g1712
g2
Ntp4321
Rp4322
I01
bsg96
Nsg86
I01
sg3029
I01
sg103
g0
(g104
g105
((lp4323
(lp4324
tp4325
tp4326
Rp4327
sg111
I0
sg3035
I7
sg3036
Nsg112
I00
sg114
Nsg3037
Vleft
p4328
sg115
Nsg3039
Vleft
p4329
sg43
Nsg1703
Nsg2507
I15
sg3041
(lp4330
g0
(g3413
g2
Ntp4331
Rp4332
(dp4333
g6
g7
sg40
F0.6
sg9
g4
sg2433
I01
sg8
I01
sg10
Nsg111
I0
sg42
Nsg2434
F3.4
sg2435
g3381
sg2436
I00
sg1801
F0.0
sg17
g18
sg2437
g3417
sg2383
g0
(g1785
g2
Ntp4334
Rp4335
(dp4336
g6
g7
sg8
I01
sg9
g4
sg10
Nsg1789
g0
(g1790
g2
Ntp4337
Rp4338
(dp4339
g1794
(lp4340
g1796
asg1797
Nsg1798
g1799
sg1800
g1799
sg1801
F8.0
sg1802
I400
sg1803
g1799
sbsg42
Nsg17
g18
sg1804
Nsg20
I01
sg23
Nsg75
I0
sg76
I0
sg24
Nsg25
Nsg11
Nsg28
I00
sg29
I00
sg30
(dp4341
sg1806
Nsg32
I00
sg1704
Nsg88
Nsg1703
Nsg1807
Nsg33
Nsg96
Nsg86
I01
sg1808
g3426
sg1810
V
p4342
sg1812
Nsg103
g0
(g104
g105
((lp4343
(lp4344
tp4345
tp4346
Rp4347
sg111
I0
sg1818
Nsg112
I01
sg114
Nsg1819
F1.2
sg115
g1484
sg1820
I00
sg1821
I00
sg43
Nsg1822
g3381
sg1824
g3433
sg34
Nsbsg20
I01
sg23
Nsg2455
I00
sg24
Nsg25
Nsg11
Nsg2456
I00
sg28
I00
sg29
I00
sg30
(dp4348
sg2458
(I0
I1
tp4349
sg32
I00
sg2460
I2
sg1704
g1763
sg2461
I01
sg88
g1391
sg1703
Nsg2462
g4335
sg2463
g0
(g1785
g2
Ntp4350
Rp4351
(dp4352
g6
g7
sg8
I01
sg9
g4
sg10
Nsg1789
g0
(g1790
g2
Ntp4353
Rp4354
(dp4355
g1794
(lp4356
g1796
asg1797
Nsg1798
g1799
sg1800
g1799
sg1801
F8.0
sg1802
I400
sg1803
g1799
sbsg42
Nsg17
g18
sg1804
Nsg20
I01
sg23
Nsg75
I0
sg76
I1
sg24
Nsg25
Nsg11
Nsg28
I00
sg29
I00
sg30
(dp4357
sg1806
Nsg32
I00
sg1704
Nsg88
Nsg1703
Nsg1807
Nsg33
Nsg96
Nsg86
I01
sg1808
g3426
sg1810
V
p4358
sg1812
Nsg103
g0
(g104
g105
((lp4359
(lp4360
tp4361
tp4362
Rp4363
sg111
I0
sg1818
Nsg112
I01
sg114
Nsg1819
F1.2
sg115
g1511
sg1820
I00
sg1821
I00
sg43
Nsg1822
g3381
sg1824
g3450
sg34
Nsbsg96
Nsg2479
I0
sg86
I01
sg103
g0
(g104
g105
((lp4364
(lp4365
tp4366
tp4367
Rp4368
sg2485
F3.4
sg2486
g0
(g2487
g2
Ntp4369
Rp4370
(dp4371
g6
g7
sg2491
g2492
sg1852
Nsg20
I01
sg2493
Nsg2494
I0
sg75
Nsg76
Nsg24
Nsg11
Nsg29
I00
sg30
(dp4372
sg32
I00
sg1704
Nsg2496
F0.6
sg2497
Nsg2498
g2499
sg2500
g2501
sg96
Nsg86
I01
sg2502
g3460
sg111
I0
sg112
I01
sg2504
I01
sg2505
I01
sg115
g1461
sg2506
Nsg1989
I2
sg1822
g3381
sg2507
I5
sg9
g4
sg2508
Nsg10
Nsg42
Nsg17
g18
sg2509
g2510
sg23
Nsg25
Nsg28
I00
sg2511
Nsg34
Nsg2512
Nsg2513
g0
(g2514
g2
Ntp4373
Rp4374
(dp4375
g2513
I0
sg2518
Nsg2519
F1.0
sg115
g0
(g163
g2
Ntp4376
Rp4377
(dp4378
g49
I2
sg50
Nsg120
g121
(g122
(I0
tp4379
g124
tp4380
Rp4381
(I1
(I3
I3
tp4382
g59
I00
S'\x00\x00\x00\x00\x00\x00\xf0\xbf\x00\x00\x00\x00\x00\x00\x00\x00\x00\x00\x00\x00\x00\x00\x00\x00\x00\x00\x00\x00\x00\x00\x00\x00\x00\x00\x00\x00\x00\x00\xf0?\x00\x00\x00\x00\x00\x00\x00\x00\x00\x00\x00\x00\x00\x00\x00\x00\x00\x00\x00\x00\x00\x00\x00\x00\x00\x00\x00\x00\x00\x00\xf0?'
p4383
tp4384
bsg51
g7
sg52
(dp4385
sbsg2530
I00
sg2531
g2532
sg2533
Nsg1701
g2534
sg99
g2535
sg2536
g3475
sbsg2546
g2547
sg88
Nsg33
Nsg92
I01
sg2548
Nsg101
g3483
sg103
g0
(g104
g105
((lp4386
(lp4387
tp4388
tp4389
Rp4390
sg2555
I00
sg2556
g2557
sg2558
g2510
sg2559
Nsg114
Nsg2560
g2510
sg2561
F0.0
sg8
I01
sg2562
Nsg43
Nsg1703
Nsg2563
(I0
tp4391
sg87
F0.5
sg2536
Nsbsg112
I00
sg2565
g0
(g2487
g2
Ntp4392
Rp4393
(dp4394
g6
g7
sg8
I01
sg2558
g2510
sg9
g4
sg2491
g2492
sg1852
Nsg10
Nsg42
Nsg17
g18
sg2509
g2510
sg20
I01
sg2493
Nsg23
Nsg75
g121
(g122
(I0
tp4395
g124
tp4396
Rp4397
(I1
(I2
tp4398
g59
I00
S'\x00\x00\x00\x00\x00\x00\x00\x00\x00\x00\x00\x00\x00\x00\x00\x00'
p4399
tp4400
bsg76
g121
(g122
(I0
tp4401
g124
tp4402
Rp4403
(I1
(I2
tp4404
g59
I00
S'\x00\x00\x00\x00\x00\x00\x00\x00\x00\x00\x00\x00\x00\x00\xf0?'
p4405
tp4406
bsg24
Nsg25
Nsg11
Nsg2502
g3505
sg28
I00
sg2511
Nsg29
I00
sg30
(dp4407
sg2508
Nsg32
I00
sg2555
I00
sg1704
Nsg2512
Nsg2496
F1.0
sg2546
g2547
sg2497
Nsg1822
g2583
sg2513
g0
(g2514
g2
Ntp4408
Rp4409
(dp4410
g2513
g2587
sg2518
Nsg2519
Nsg115
g0
(g45
g2
Ntp4411
Rp4412
(dp4413
g49
I1
sg50
Nsg51
g7
sg52
(dp4414
sbsg2530
I00
sg2531
g2532
sg2533
Nsg1701
g2534
sg99
g2535
sg2536
g0
(g1925
g2
Ntp4415
Rp4416
(dp4417
g1929
I00
sg1930
Nsg1942
g121
(g122
(I0
tp4418
g124
tp4419
Rp4420
(I1
(I0
I2
tp4421
g59
I00
g2599
tp4422
bsg1949
I00
sg1950
F0.1111111111111111
sg1951
I1
sg1952
I00
sbsbsg33
Nsg2498
g2499
sg92
I01
sg2500
g2501
sg96
Nsg2561
F0.0
sg86
I01
sg2548
g121
(g122
(I0
tp4423
g124
tp4424
Rp4425
(I1
(I2
I2
tp4426
g59
I00
S'\x00\x00\x00\x00\x00\x00\x00\x00\x00\x00\x00\x00\x00\x00\x00\x00\x00\x00\x00\x00\x00\x00\xf0?\x00\x00\x00\x00\x00\x00\x00\x00'
p4427
tp4428
bsg101
g2607
sg103
g0
(g104
g105
((lp4429
(lp4430
tp4431
tp4432
Rp4433
sg111
I0
sg2556
g2557
sg2494
I0
sg2559
Nsg2507
I5
sg112
I01
sg114
F1.0
sg2560
g2510
sg2505
I00
sg115
g1461
sg2562
Nsg2506
Nsg2504
I00
sg43
Nsg1703
Nsg2563
g3533
sg88
g1619
sg87
F0.8
sg34
Nsg2536
g0
(g1925
g2
Ntp4434
Rp4435
(dp4436
g1929
I00
sg1930
Nsg1942
g4425
sg1949
I00
sg1950
F0.1111111111111111
sg1951
I180
sg1952
I00
sbsbsg114
Nsg33
Nsg2617
g0
(g2487
g2
Ntp4437
Rp4438
(dp4439
g6
g7
sg2491
g2492
sg1852
Nsg20
I01
sg2493
Nsg2494
I0
sg75
Nsg76
Nsg24
Nsg11
Nsg29
I00
sg30
(dp4440
sg32
I00
sg1704
Nsg2496
F0.6
sg2497
Nsg2498
g2499
sg2500
g2501
sg96
Nsg86
I01
sg2502
g3541
sg111
I0
sg112
I01
sg2504
I01
sg2505
I01
sg115
g1461
sg2506
Nsg1989
I2
sg1822
g3381
sg2507
I5
sg9
g4
sg2508
Nsg10
Nsg42
Nsg17
g18
sg2509
g2510
sg23
Nsg25
Nsg28
I00
sg2511
Nsg34
Nsg2512
Nsg2513
g0
(g2514
g2
Ntp4441
Rp4442
(dp4443
g2513
I1
sg2518
Nsg2519
F1.0
sg115
g0
(g163
g2
Ntp4444
Rp4445
(dp4446
g49
I2
sg50
Nsg120
g121
(g122
(I0
tp4447
g124
tp4448
Rp4449
(I1
(I3
I3
tp4450
g59
I00
S'\x00\x00\x00\x00\x00\x00\xf0?\x00\x00\x00\x00\x00\x00\x00\x00\x00\x00\x00\x00\x00\x00\x00\x00\x00\x00\x00\x00\x00\x00\x00\x00\x00\x00\x00\x00\x00\x00\xf0?\x00\x00\x00\x00\x00\x00\x00\x00\x00\x00\x00\x00\x00\x00\x00\x00\x00\x00\x00\x00\x00\x00\x00\x00\x00\x00\x00\x00\x00\x00\xf0?'
p4451
tp4452
bsg51
g7
sg52
(dp4453
sbsg2530
I00
sg2531
g2532
sg2533
Nsg1701
g2534
sg99
g2535
sg2536
g3475
sbsg2546
g2547
sg88
Nsg33
Nsg92
I01
sg2548
Nsg101
g3555
sg103
g0
(g104
g105
((lp4454
(lp4455
tp4456
tp4457
Rp4458
sg2555
I00
sg2556
g2557
sg2558
g2510
sg2559
Nsg114
Nsg2560
g2510
sg2561
F0.0
sg8
I01
sg2562
Nsg43
Nsg1703
Nsg2563
(I0
tp4459
sg87
F0.5
sg2536
Nsbsg115
Nsg2643
F8.0
sg2644
g3562
sg43
Nsg1822
g3381
sg34
Nsbag0
(g3413
g2
Ntp4460
Rp4461
(dp4462
g6
g7
sg40
F0.6
sg9
g4
sg2433
I01
sg8
I01
sg10
Nsg111
I0
sg42
Nsg2434
F3.4
sg2435
g3381
sg2436
I00
sg1801
F0.0
sg17
g18
sg2437
g3417
sg2383
g0
(g1785
g2
Ntp4463
Rp4464
(dp4465
g6
g7
sg8
I01
sg9
g4
sg10
Nsg1789
g0
(g1790
g2
Ntp4466
Rp4467
(dp4468
g1794
(lp4469
g1796
asg1797
Nsg1798
g1799
sg1800
g1799
sg1801
F8.0
sg1802
I400
sg1803
g1799
sbsg42
Nsg17
g18
sg1804
Nsg20
I01
sg23
Nsg75
I0
sg76
I0
sg24
Nsg25
Nsg11
Nsg28
I00
sg29
I00
sg30
(dp4470
sg1806
Nsg32
I00
sg1704
Nsg88
Nsg1703
Nsg1807
Nsg33
Nsg96
Nsg86
I01
sg1808
g3426
sg1810
V
p4471
sg1812
Nsg103
g0
(g104
g105
((lp4472
(lp4473
tp4474
tp4475
Rp4476
sg111
I0
sg1818
Nsg112
I01
sg114
Nsg1819
F1.2
sg115
g1466
sg1820
I00
sg1821
I00
sg43
Nsg1822
g3381
sg1824
g3433
sg34
Nsbsg20
I01
sg23
Nsg2455
I00
sg24
Nsg25
Nsg11
Nsg2456
I00
sg28
I00
sg29
I00
sg30
(dp4477
sg2458
(I0
I1
tp4478
sg32
I00
sg2460
I2
sg1704
g1763
sg2461
I01
sg88
g291
sg1703
Nsg2462
g4464
sg2463
g0
(g1785
g2
Ntp4479
Rp4480
(dp4481
g6
g7
sg8
I01
sg9
g4
sg10
Nsg1789
g0
(g1790
g2
Ntp4482
Rp4483
(dp4484
g1794
(lp4485
g1796
asg1797
Nsg1798
g1799
sg1800
g1799
sg1801
F8.0
sg1802
I400
sg1803
g1799
sbsg42
Nsg17
g18
sg1804
Nsg20
I01
sg23
Nsg75
I0
sg76
I1
sg24
Nsg25
Nsg11
Nsg28
I00
sg29
I00
sg30
(dp4486
sg1806
Nsg32
I00
sg1704
Nsg88
Nsg1703
Nsg1807
Nsg33
Nsg96
Nsg86
I01
sg1808
g3426
sg1810
V
p4487
sg1812
Nsg103
g0
(g104
g105
((lp4488
(lp4489
tp4490
tp4491
Rp4492
sg111
I0
sg1818
Nsg112
I01
sg114
Nsg1819
F1.2
sg115
g1475
sg1820
I00
sg1821
I00
sg43
Nsg1822
g3381
sg1824
g3450
sg34
Nsbsg96
Nsg2479
I0
sg86
I01
sg103
g0
(g104
g105
((lp4493
(lp4494
tp4495
tp4496
Rp4497
sg2485
F3.4
sg2486
g0
(g2487
g2
Ntp4498
Rp4499
(dp4500
g6
g7
sg2491
g2492
sg1852
Nsg20
I01
sg2493
Nsg2494
I0
sg75
Nsg76
Nsg24
Nsg11
Nsg29
I00
sg30
(dp4501
sg32
I00
sg1704
Nsg2496
F0.6
sg2497
Nsg2498
g2499
sg2500
g2501
sg96
Nsg86
I01
sg2502
g3460
sg111
I0
sg112
I01
sg2504
I01
sg2505
I01
sg115
g1461
sg2506
Nsg1989
I2
sg1822
g3381
sg2507
I5
sg9
g4
sg2508
Nsg10
Nsg42
Nsg17
g18
sg2509
g2510
sg23
Nsg25
Nsg28
I00
sg2511
Nsg34
Nsg2512
Nsg2513
g0
(g2514
g2
Ntp4502
Rp4503
(dp4504
g2513
I0
sg2518
Nsg2519
F1.0
sg115
g0
(g163
g2
Ntp4505
Rp4506
(dp4507
g49
I2
sg50
Nsg120
g121
(g122
(I0
tp4508
g124
tp4509
Rp4510
(I1
(I3
I3
tp4511
g59
I00
S'\x00\x00\x00\x00\x00\x00\xf0\xbf\x00\x00\x00\x00\x00\x00\x00\x00\x00\x00\x00\x00\x00\x00\x00\x00\x00\x00\x00\x00\x00\x00\x00\x00\x00\x00\x00\x00\x00\x00\xf0?\x00\x00\x00\x00\x00\x00\x00\x00\x00\x00\x00\x00\x00\x00\x00\x00\x00\x00\x00\x00\x00\x00\x00\x00\x00\x00\x00\x00\x00\x00\xf0?'
p4512
tp4513
bsg51
g7
sg52
(dp4514
sbsg2530
I00
sg2531
g2532
sg2533
Nsg1701
g2534
sg99
g2535
sg2536
g3475
sbsg2546
g2547
sg88
Nsg33
Nsg92
I01
sg2548
Nsg101
g3483
sg103
g0
(g104
g105
((lp4515
(lp4516
tp4517
tp4518
Rp4519
sg2555
I00
sg2556
g2557
sg2558
g2510
sg2559
Nsg114
Nsg2560
g2510
sg2561
F0.0
sg8
I01
sg2562
Nsg43
Nsg1703
Nsg2563
(I0
tp4520
sg87
F0.5
sg2536
Nsbsg112
I00
sg2565
g0
(g2487
g2
Ntp4521
Rp4522
(dp4523
g6
g7
sg8
I01
sg2558
g2510
sg9
g4
sg2491
g2492
sg1852
Nsg10
Nsg42
Nsg17
g18
sg2509
g2510
sg20
I01
sg2493
Nsg23
Nsg75
g121
(g122
(I0
tp4524
g124
tp4525
Rp4526
(I1
(I2
tp4527
g59
I00
S'\x00\x00\x00\x00\x00\x00\x00\x00\x00\x00\x00\x00\x00\x00\x00\x00'
p4528
tp4529
bsg76
g121
(g122
(I0
tp4530
g124
tp4531
Rp4532
(I1
(I2
tp4533
g59
I00
S'\x00\x00\x00\x00\x00\x00\x00\x00\x00\x00\x00\x00\x00\x00\xf0?'
p4534
tp4535
bsg24
Nsg25
Nsg11
Nsg2502
g3505
sg28
I00
sg2511
Nsg29
I00
sg30
(dp4536
sg2508
Nsg32
I00
sg2555
I00
sg1704
Nsg2512
Nsg2496
F1.0
sg2546
g2547
sg2497
Nsg1822
g2583
sg2513
g0
(g2514
g2
Ntp4537
Rp4538
(dp4539
g2513
g2587
sg2518
Nsg2519
Nsg115
g0
(g45
g2
Ntp4540
Rp4541
(dp4542
g49
I1
sg50
Nsg51
g7
sg52
(dp4543
sbsg2530
I00
sg2531
g2532
sg2533
Nsg1701
g2534
sg99
g2535
sg2536
g0
(g1925
g2
Ntp4544
Rp4545
(dp4546
g1929
I00
sg1930
Nsg1942
g121
(g122
(I0
tp4547
g124
tp4548
Rp4549
(I1
(I0
I2
tp4550
g59
I00
g2599
tp4551
bsg1949
I00
sg1950
F0.1111111111111111
sg1951
I1
sg1952
I00
sbsbsg33
Nsg2498
g2499
sg92
I01
sg2500
g2501
sg96
Nsg2561
F0.0
sg86
I01
sg2548
g121
(g122
(I0
tp4552
g124
tp4553
Rp4554
(I1
(I2
I2
tp4555
g59
I00
S'\x00\x00\x00\x00\x00\x00\x00\x00\x00\x00\x00\x00\x00\x00\x00\x00\x00\x00\x00\x00\x00\x00\xf0?\x00\x00\x00\x00\x00\x00\x00\x00'
p4556
tp4557
bsg101
g2607
sg103
g0
(g104
g105
((lp4558
(lp4559
tp4560
tp4561
Rp4562
sg111
I0
sg2556
g2557
sg2494
I0
sg2559
Nsg2507
I5
sg112
I01
sg114
F1.0
sg2560
g2510
sg2505
I00
sg115
g1461
sg2562
Nsg2506
Nsg2504
I00
sg43
Nsg1703
Nsg2563
g3533
sg88
g510
sg87
F0.8
sg34
Nsg2536
g0
(g1925
g2
Ntp4563
Rp4564
(dp4565
g1929
I00
sg1930
Nsg1942
g4554
sg1949
I00
sg1950
F0.1111111111111111
sg1951
I180
sg1952
I00
sbsbsg114
Nsg33
Nsg2617
g0
(g2487
g2
Ntp4566
Rp4567
(dp4568
g6
g7
sg2491
g2492
sg1852
Nsg20
I01
sg2493
Nsg2494
I0
sg75
Nsg76
Nsg24
Nsg11
Nsg29
I00
sg30
(dp4569
sg32
I00
sg1704
Nsg2496
F0.6
sg2497
Nsg2498
g2499
sg2500
g2501
sg96
Nsg86
I01
sg2502
g3541
sg111
I0
sg112
I01
sg2504
I01
sg2505
I01
sg115
g1461
sg2506
Nsg1989
I2
sg1822
g3381
sg2507
I5
sg9
g4
sg2508
Nsg10
Nsg42
Nsg17
g18
sg2509
g2510
sg23
Nsg25
Nsg28
I00
sg2511
Nsg34
Nsg2512
Nsg2513
g0
(g2514
g2
Ntp4570
Rp4571
(dp4572
g2513
I1
sg2518
Nsg2519
F1.0
sg115
g0
(g163
g2
Ntp4573
Rp4574
(dp4575
g49
I2
sg50
Nsg120
g121
(g122
(I0
tp4576
g124
tp4577
Rp4578
(I1
(I3
I3
tp4579
g59
I00
S'\x00\x00\x00\x00\x00\x00\xf0?\x00\x00\x00\x00\x00\x00\x00\x00\x00\x00\x00\x00\x00\x00\x00\x00\x00\x00\x00\x00\x00\x00\x00\x00\x00\x00\x00\x00\x00\x00\xf0?\x00\x00\x00\x00\x00\x00\x00\x00\x00\x00\x00\x00\x00\x00\x00\x00\x00\x00\x00\x00\x00\x00\x00\x00\x00\x00\x00\x00\x00\x00\xf0?'
p4580
tp4581
bsg51
g7
sg52
(dp4582
sbsg2530
I00
sg2531
g2532
sg2533
Nsg1701
g2534
sg99
g2535
sg2536
g3475
sbsg2546
g2547
sg88
Nsg33
Nsg92
I01
sg2548
Nsg101
g3555
sg103
g0
(g104
g105
((lp4583
(lp4584
tp4585
tp4586
Rp4587
sg2555
I00
sg2556
g2557
sg2558
g2510
sg2559
Nsg114
Nsg2560
g2510
sg2561
F0.0
sg8
I01
sg2562
Nsg43
Nsg1703
Nsg2563
(I0
tp4588
sg87
F0.5
sg2536
Nsbsg115
Nsg2643
F8.0
sg2644
g3562
sg43
Nsg1822
g3381
sg34
Nsbasg34
Nsg3301
(dp4589
g2418
I01
sg2420
I00
sg2421
I01
sg2422
I00
ssg3303
I01
sbsS'_axisbelow'
p4590
I00
sg8
I01
sS'lines'
p4591
(lp4592
sS'_ycid'
p4593
I1
sS'spines'
p4594
ccollections
OrderedDict
p4595
((lp4596
(lp4597
Vleft
p4598
ag0
(cmatplotlib.spines
Spine
p4599
g2
Ntp4600
Rp4601
(dp4602
g6
g7
sg2364
I00
sg41
I01
sg9
g4
sS'_bounds'
p4603
Nsg8
I01
sg10
Nsg42
Nsg17
g18
sg43
Nsg20
I01
sg2341
g3347
sg44
g0
(g45
g2
Ntp4604
Rp4605
(dp4606
g49
I1
sg50
Nsg51
g7
sg52
(dp4607
sbsg54
(F0.0
F0.0
F0.0
F1.0
tp4608
sg23
Nsg24
Nsg77
V0.
p4609
sg11
Nsg28
I00
sg29
I00
sg30
(dp4610
sg1699
(NNtp4611
sg2290
(Voutward
p4612
F0.0
tp4613
sg32
I00
sg85
Nsg86
I01
sg87
F1.0
sS'_patch_type'
p4614
Vline
p4615
sg33
Nsg90
g4608
sg91
Nsg92
I01
sg93
Nsg94
Vnone
p4616
sg96
Nsg97
g2269
sg99
g100
sS'_patch_transform'
p4617
g0
(g45
g2
Ntp4618
Rp4619
(dp4620
g49
I1
sg50
Nsg51
g7
sg52
(dp4621
sbsg101
g102
sg103
g0
(g104
g105
((lp4622
(lp4623
tp4624
tp4625
Rp4626
sg111
I0
sS'_spine_transform'
p4627
(Videntity
p4628
g0
(g45
g2
Ntp4629
Rp4630
(dp4631
g49
I1
sg50
Nsg51
g7
sg52
(dp4632
sbtp4633
sg112
I01
sg114
NsS'spine_type'
p4634
g4598
sg115
g1461
sg88
Nsg1989
F2.5
sg1701
Vprojecting
p4635
sg1703
Nsg25
Nsg1704
g1763
sg34
Nsg2536
g0
(g1925
g2
Ntp4636
Rp4637
(dp4638
g1929
I00
sg1930
Nsg1942
g121
(g122
(I0
tp4639
g124
tp4640
Rp4641
(I1
(I2
I2
tp4642
g59
I00
S'\x00\x00\x00\x00\x00\x00\x00\x00\x00\x00\x00\x00\x00\x00*@\x00\x00\x00\x00\x00\x00\x00\x00\x00\x00\x00\x00\x00\x00*@'
p4643
tp4644
bsg1949
I00
sg1950
F0.1111111111111111
sg1951
I1
sg1952
I00
sbsbaa(lp4645
Vright
p4646
ag0
(g4599
g2
Ntp4647
Rp4648
(dp4649
g6
g7
sg2364
I00
sg41
I01
sg9
g4
sg4603
Nsg8
I00
sg10
Nsg42
Nsg17
g18
sg43
Nsg20
I01
sg2341
g3347
sg44
g0
(g45
g2
Ntp4650
Rp4651
(dp4652
g49
I1
sg50
Nsg51
g7
sg52
(dp4653
sbsg54
g4608
sg23
Nsg24
Nsg77
g4609
sg11
Nsg28
I00
sg29
I00
sg30
(dp4654
sg1699
(NNtp4655
sg2290
g4613
sg32
I00
sg85
Nsg86
I01
sg87
F1.0
sg4614
g4615
sg33
Nsg90
g4608
sg91
Nsg92
I01
sg93
Nsg94
g4616
sg96
Nsg97
g2269
sg99
g100
sg4617
g0
(g45
g2
Ntp4656
Rp4657
(dp4658
g49
I1
sg50
Nsg51
g7
sg52
(dp4659
sbsg101
g102
sg103
g0
(g104
g105
((lp4660
(lp4661
tp4662
tp4663
Rp4664
sg111
I0
sg4627
(g4628
g0
(g45
g2
Ntp4665
Rp4666
(dp4667
g49
I1
sg50
Nsg51
g7
sg52
(dp4668
sbtp4669
sg112
I01
sg114
Nsg4634
g4646
sg115
g1461
sg88
Nsg1989
F2.5
sg1701
g4635
sg1703
Nsg25
Nsg1704
g1763
sg34
Nsg2536
g0
(g1925
g2
Ntp4670
Rp4671
(dp4672
g1929
I00
sg1930
Nsg1942
g121
(g122
(I0
tp4673
g124
tp4674
Rp4675
(I1
(I2
I2
tp4676
g59
I00
S'\x00\x00\x00\x00\x00\x00\xf0?\x00\x00\x00\x00\x00\x00*@\x00\x00\x00\x00\x00\x00\xf0?\x00\x00\x00\x00\x00\x00*@'
p4677
tp4678
bsg1949
I00
sg1950
F0.1111111111111111
sg1951
I1
sg1952
I00
sbsbaa(lp4679
Vbottom
p4680
ag0
(g4599
g2
Ntp4681
Rp4682
(dp4683
g6
g7
sg2364
I00
sg41
I01
sg9
g4
sg4603
Nsg8
I01
sg10
Nsg42
Nsg17
g18
sg43
Nsg20
I01
sg2341
g2322
sg44
g0
(g45
g2
Ntp4684
Rp4685
(dp4686
g49
I1
sg50
Nsg51
g7
sg52
(dp4687
sbsg54
g4608
sg23
Nsg24
Nsg77
g4609
sg11
Nsg28
I00
sg29
I00
sg30
(dp4688
sg1699
(NNtp4689
sg2290
g4613
sg32
I00
sg85
Nsg86
I01
sg87
F1.0
sg4614
g4615
sg33
Nsg90
g4608
sg91
Nsg92
I01
sg93
Nsg94
g4616
sg96
Nsg97
g2269
sg99
g100
sg4617
g0
(g45
g2
Ntp4690
Rp4691
(dp4692
g49
I1
sg50
Nsg51
g7
sg52
(dp4693
sbsg101
g102
sg103
g0
(g104
g105
((lp4694
(lp4695
tp4696
tp4697
Rp4698
sg111
I0
sg4627
(g4628
g0
(g45
g2
Ntp4699
Rp4700
(dp4701
g49
I1
sg50
Nsg51
g7
sg52
(dp4702
sbtp4703
sg112
I01
sg114
Nsg4634
g4680
sg115
g190
sg88
Nsg1989
F2.5
sg1701
g4635
sg1703
Nsg25
Nsg1704
g1763
sg34
Nsg2536
g0
(g1925
g2
Ntp4704
Rp4705
(dp4706
g1929
I00
sg1930
Nsg1942
g121
(g122
(I0
tp4707
g124
tp4708
Rp4709
(I1
(I2
I2
tp4710
g59
I00
S'\x00\x00\x00\x00\x00\x00*@\x00\x00\x00\x00\x00\x00\x00\x00\x00\x00\x00\x00\x00\x00*@\x00\x00\x00\x00\x00\x00\x00\x00'
p4711
tp4712
bsg1949
I00
sg1950
F0.1111111111111111
sg1951
I1
sg1952
I00
sbsbaa(lp4713
Vtop
p4714
ag0
(g4599
g2
Ntp4715
Rp4716
(dp4717
g6
g7
sg2364
I00
sg41
I01
sg9
g4
sg4603
Nsg8
I00
sg10
Nsg42
Nsg17
g18
sg43
Nsg20
I01
sg2341
g2322
sg44
g0
(g45
g2
Ntp4718
Rp4719
(dp4720
g49
I1
sg50
Nsg51
g7
sg52
(dp4721
sbsg54
g4608
sg23
Nsg24
Nsg77
g4609
sg11
Nsg28
I00
sg29
I00
sg30
(dp4722
sg1699
(NNtp4723
sg2290
g4613
sg32
I00
sg85
Nsg86
I01
sg87
F1.0
sg4614
g4615
sg33
Nsg90
g4608
sg91
Nsg92
I01
sg93
Nsg94
g4616
sg96
Nsg97
g2269
sg99
g100
sg4617
g0
(g45
g2
Ntp4724
Rp4725
(dp4726
g49
I1
sg50
Nsg51
g7
sg52
(dp4727
sbsg101
g102
sg103
g0
(g104
g105
((lp4728
(lp4729
tp4730
tp4731
Rp4732
sg111
I0
sg4627
(g4628
g0
(g45
g2
Ntp4733
Rp4734
(dp4735
g49
I1
sg50
Nsg51
g7
sg52
(dp4736
sbtp4737
sg112
I01
sg114
Nsg4634
g4714
sg115
g190
sg88
Nsg1989
F2.5
sg1701
g4635
sg1703
Nsg25
Nsg1704
g1763
sg34
Nsg2536
g0
(g1925
g2
Ntp4738
Rp4739
(dp4740
g1929
I00
sg1930
Nsg1942
g121
(g122
(I0
tp4741
g124
tp4742
Rp4743
(I1
(I2
I2
tp4744
g59
I00
S'\x00\x00\x00\x00\x00\x00*@\x00\x00\x00\x00\x00\x00\xf0?\x00\x00\x00\x00\x00\x00*@\x00\x00\x00\x00\x00\x00\xf0?'
p4745
tp4746
bsg1949
I00
sg1950
F0.1111111111111111
sg1951
I1
sg1952
I00
sbsbaatp4747
Rp4748
sS'_anchor'
p4749
VC
p4750
sg43
Nsg1703
NsS'_use_sticky_edges'
p4751
I01
sbtp4752
tp4753
asS'_ind'
p4754
I1
sS'_pos'
p4755
I0
sbsg115
Nsg4591
(lp4756
sg2261
g38
sS'subplotpars'
p4757
g0
(cmatplotlib.figure
SubplotParams
p4758
g2
Ntp4759
Rp4760
(dp4761
g1747
F0.9
sg1749
F0.125
sg1750
F0.88
sg1751
F0.2
sS'validate'
p4762
I01
sg1753
F0.2
sg1755
F0.125
sbsg43
Nsg1703
NsS'bbox_inches'
p4763
g138
sS'transFigure'
p4764
g118
sS'_dpi'
p4765
F72.0
sb.