ccopy_reg
_reconstructor
p0
(cmatplotlib.figure
Figure
p1
c__builtin__
object
p2
Ntp3
Rp4
(dp5
S'_label'
p6
V
p7
sS'_visible'
p8
I01
sS'figure'
p9
NsS'stale_callback'
p10
NsS'_rasterized'
p11
NsS'texts'
p12
(lp13
sS'_hold'
p14
I01
sS'artists'
p15
(lp16
sS'_path_effects'
p17
(lp18
sS'frameon'
p19
I01
sS'_clipon'
p20
I01
sV__mpl_version__
p21
S'2.0.2'
p22
sS'_clippath'
p23
NsS'_sketch'
p24
NsS'_contains'
p25
NsS'_tight_parameters'
p26
(dp27
sS'_mouseover'
p28
I00
sS'_animated'
p29
I00
sS'_propobservers'
p30
(dp31
sS'eventson'
p32
I00
sS'_picker'
p33
NsS'_remove_method'
p34
NsS'figurePatch'
p35
g0
(cmatplotlib.patches
Rectangle
p36
g2
Ntp37
Rp38
(dp39
g6
g7
sS'_width'
p40
F1.0
sS'_fill'
p41
I01
sg9
g4
sg8
I01
sg10
NsS'_agg_filter'
p42
Nsg17
g18
sS'_gid'
p43
Nsg20
I01
sS'_combined_transform'
p44
g0
(cmatplotlib.transforms
IdentityTransform
p45
g2
Ntp46
Rp47
(dp48
S'_invalid'
p49
I1
sS'_inverted'
p50
NsS'_shorthand_name'
p51
g7
sS'_parents'
p52
(dp53
sbsS'_edgecolor'
p54
(cnumpy.core.multiarray
scalar
p55
(cnumpy
dtype
p56
(S'f8'
p57
I0
I1
tp58
Rp59
(I3
S'<'
p60
NNNI-1
I-1
I0
tp61
bS'\x00\x00\x00\x00\x00\x00\xf0?'
p62
tp63
Rp64
g55
(g59
S'\x00\x00\x00\x00\x00\x00\xf0?'
p65
tp66
Rp67
g55
(g59
S'\x00\x00\x00\x00\x00\x00\xf0?'
p68
tp69
Rp70
g55
(g59
S'\x00\x00\x00\x00\x00\x00\x00\x00'
p71
tp72
Rp73
tp74
sg23
NsS'_y'
p75
F0.0
sS'_x'
p76
F0.0
sg24
NsS'_original_edgecolor'
p77
(I1
I1
I1
I0
tp78
sg11
Nsg28
I00
sg29
I00
sg30
(dp79
sS'_rect_transform'
p80
g0
(g45
g2
Ntp81
Rp82
(dp83
g49
I1
sg50
Nsg51
g7
sg52
(dp84
sbsg32
I00
sS'_hatch'
p85
NsS'_stale'
p86
I01
sS'_linewidth'
p87
F0.0
sS'clipbox'
p88
NsS'_height'
p89
F1.0
sg33
NsS'_hatch_color'
p90
g74
sS'_dashes'
p91
NsS'_antialiased'
p92
I00
sS'_dashoffset'
p93
NsS'_original_facecolor'
p94
Vwhite
p95
sS'_snap'
p96
NsS'_facecolor'
p97
(F1.0
F1.0
F1.0
F1.0
tp98
sS'_joinstyle'
p99
Vmiter
p100
sS'_linestyle'
p101
Vsolid
p102
sS'_sticky_edges'
p103
g0
(cmatplotlib.artist
_XYPair
p104
c__builtin__
tuple
p105
((lp106
(lp107
tp108
tp109
Rp110
sS'_oid'
p111
I0
sS'_transformSet'
p112
I01
sS'_angle'
p113
F0.0
sS'_alpha'
p114
NsS'_transform'
p115
g0
(cmatplotlib.transforms
BboxTransformTo
p116
g2
Ntp117
Rp118
(dp119
g49
I2
sS'_mtx'
p120
Nsg50
NsS'_boxout'
p121
g0
(cmatplotlib.transforms
TransformedBbox
p122
g2
Ntp123
Rp124
(dp125
g49
I2
sS'_bbox'
p126
g0
(cmatplotlib.transforms
Bbox
p127
g2
Ntp128
Rp129
(dp130
g49
I2
sS'_minpos'
p131
cnumpy.core.multiarray
_reconstruct
p132
(cnumpy
ndarray
p133
(I0
tp134
S'b'
p135
tp136
Rp137
(I1
(I2
tp138
g59
I00
S'\x00\x00\x00\x00\x00\x00\xf0\x7f\x00\x00\x00\x00\x00\x00\xf0\x7f'
p139
tp140
bsg52
(dp141
I140137015906384
g124
ssS'_points_orig'
p142
g132
(g133
(I0
tp143
g135
tp144
Rp145
(I1
(I2
I2
tp146
g59
I00
S'\x00\x00\x00\x00\x00\x00\x00\x00\x00\x00\x00\x00\x00\x00\x00\x00\x00\x00\x00\x00\x00\x00\x18@\x00\x00\x00\x00\x00\x00\x10@'
p147
tp148
bsS'_points'
p149
g132
(g133
(I0
tp150
g135
tp151
Rp152
(I1
(I2
I2
tp153
g59
I00
S'\x00\x00\x00\x00\x00\x00\x00\x00\x00\x00\x00\x00\x00\x00\x00\x00\x00\x00\x00\x00\x00\x00\xf8?\x00\x00\x00\x00\x00\x00\xf8?'
p154
tp155
bsS'_ignore'
p156
I01
sg51
g7
sbsg115
g0
(cmatplotlib.transforms
Affine2D
p157
g2
Ntp158
Rp159
(dp160
g49
I2
sg50
Nsg120
g132
(g133
(I0
tp161
g135
tp162
Rp163
(I1
(I3
I3
tp164
g59
I00
S'\x00\x00\x00\x00\x00\x00R@\x00\x00\x00\x00\x00\x00\x00\x00\x00\x00\x00\x00\x00\x00\x00\x00\x00\x00\x00\x00\x00\x00\x00\x00\x00\x00\x00\x00\x00\x00R@\x00\x00\x00\x00\x00\x00\x00\x00\x00\x00\x00\x00\x00\x00\x00\x00\x00\x00\x00\x00\x00\x00\x00\x00\x00\x00\x00\x00\x00\x00\xf0?'
p165
tp166
bsg51
g7
sg52
(dp167
I140137016161424
g0
(cmatplotlib.transforms
ScaledTranslation
p168
g2
Ntp169
Rp170
(dp171
g49
I1
sg120
NsS'_scale_trans'
p172
g159
sg50
NsS'_t'
p173
(F-0.04722222222222222
I0
tp174
sg51
g7
sg52
(dp175
I140137016160528
g0
(cmatplotlib.transforms
CompositeGenericTransform
p176
g2
Ntp177
Rp178
(dp179
g49
I2
sS'input_dims'
p180
I2
sS'_a'
p181
g0
(cmatplotlib.transforms
BlendedGenericTransform
p182
g2
Ntp183
Rp184
(dp185
g49
I2
sg75
g0
(g176
g2
Ntp186
Rp187
(dp188
g49
I2
sg180
I2
sg181
g0
(cmatplotlib.transforms
TransformWrapper
p189
g2
Ntp190
Rp191
(dp192
Voutput_dims
p193
I2
sVparents
p194
(dp195
I140137015910224
g0
(g122
g2
Ntp196
Rp197
(dp198
g49
I2
sg126
g0
(g127
g2
Ntp199
Rp200
(dp201
g49
I2
sg131
g132
(g133
(I0
tp202
g135
tp203
Rp204
(I1
(I2
tp205
g59
I00
S'\x00\x00\x00\x00\x00\x00\xf0\x7f\x00\x00\x00\x00\x00\x00\xf0\x7f'
p206
tp207
bsg52
(dp208
I140137015910224
g197
ssg142
g132
(g133
(I0
tp209
g135
tp210
Rp211
(I1
(I2
I2
tp212
g59
I00
S'\x00\x00\x00\x00\x00\x00\x00\x00\x00\x00\x00\x00\x00\x00\x00\x00\x00\x00\x00\x00\x00\x00\xf0?\x00\x00\x00\x00\x00\x00\xf0?'
p213
tp214
bsg149
g132
(g133
(I0
tp215
g135
tp216
Rp217
(I1
(I2
I2
tp218
g59
I00
S'\x00\x00\x00\x00\x00\x00\x00\x00\x00\x00\x00\x00\x00\x00\x00\x00!\xdf\xcdE\xdc\xdc\x19@333333\t@'
p219
tp220
bsg156
I01
sg51
g7
sbsg115
g191
sg149
g132
(g133
(I0
tp221
g135
tp222
Rp223
(I1
(I2
I2
tp224
g59
I00
S'\x00\x00\x00\x00\x00\x00\x00\x00\x00\x00\x00\x00\x00\x00\x00\x00\x00\x00\x00\x00\x00\x00\xf0?\x00\x00\x00\x00\x00\x00\xf0?'
p225
tp226
bsg52
(dp227
I140137015907856
g0
(cmatplotlib.transforms
BboxTransformFrom
p228
g2
Ntp229
Rp230
(dp231
g49
I2
sS'_boxin'
p232
g197
sg120
g132
(g133
(I0
tp233
g135
tp234
Rp235
(I1
(I3
I3
tp236
g59
I00
S'\x00\x00\x00\x00\x00\x00\xf0?\x00\x00\x00\x00\x00\x00\x00\x00\x00\x00\x00\x00\x00\x00\x00\x80\x00\x00\x00\x00\x00\x00\x00\x00\x00\x00\x00\x00\x00\x00\xf0?\x00\x00\x00\x00\x00\x00\x00\x80\x00\x00\x00\x00\x00\x00\x00\x00\x00\x00\x00\x00\x00\x00\x00\x00\x00\x00\x00\x00\x00\x00\xf0?'
p237
tp238
bsg50
Nsg51
g7
sg52
(dp239
I140137015908752
g0
(g176
g2
Ntp240
Rp241
(dp242
g49
I2
sg180
I2
sg181
g230
sS'output_dims'
p243
I2
sS'_b'
p244
g0
(g116
g2
Ntp245
Rp246
(dp247
g49
I2
sg120
Nsg50
Nsg121
g0
(g122
g2
Ntp248
Rp249
(dp250
g49
I2
sg126
g0
(g127
g2
Ntp251
Rp252
(dp253
g49
I0
sg131
g132
(g133
(I0
tp254
g135
tp255
Rp256
(I1
(I2
tp257
g59
I00
S'\x00\x00\x00\x00\x00\x00\xf0\x7f\x00\x00\x00\x00\x00\x00\xf0\x7f'
p258
tp259
bsg52
(dp260
I140137015906576
g249
ssg142
g132
(g133
(I0
tp261
g135
tp262
Rp263
(I1
(I2
I2
tp264
g59
I00
S'\x00\x00\x00\x00\x00\x00\xc0?\x00\x00\x00\x00\x00\x00\xc0?\xcd\xcc\xcc\xcc\xcc\xcc\xec?)\\\x8f\xc2\xf5(\xec?'
p265
tp266
bsg149
g132
(g133
(I0
tp267
g135
tp268
Rp269
(I1
(I2
I2
tp270
g59
I00
S'\x00\x00\x00\x00\x00\x00\xc0?\x00\x00\x00\x00\x00\x00\xc0?\xcd\xcc\xcc\xcc\xcc\xcc\xec?)\\\x8f\xc2\xf5(\xec?'
p271
tp272
bsg156
I01
sg51
g7
sbsg115
g118
sg149
Nsg52
(dp273
I140137015908240
g246
ssg51
g7
sbsg52
(dp274
I140137016271696
g0
(g176
g2
Ntp275
Rp276
(dp277
g49
I2
sg180
I2
sg181
g0
(g176
g2
Ntp278
Rp279
(dp280
g49
I1
sg180
I2
sg181
g0
(g116
g2
Ntp281
Rp282
(dp283
g49
I1
sg120
Nsg50
Nsg121
g0
(g127
g2
Ntp284
Rp285
(dp286
g49
I1
sg131
g132
(g133
(I0
tp287
g135
tp288
Rp289
(I1
(I2
tp290
g59
I00
S'\x00\x00\x00\x00\x00\x00\xf0\x7f\x00\x00\x00\x00\x00\x00\xf0\x7f'
p291
tp292
bsg52
(dp293
I140137016273168
g282
ssg142
g132
(g133
(I0
tp294
g135
tp295
Rp296
(I1
(I2
I2
tp297
g59
I00
S'\x00\x00\x00\x00\x00\x00\x00\x00\x00\x00\x00\x00\x00\x00\x00\x00\x00\x00\x00\x00\x00\x00\xf0?\x00\x00\x00\x00\x00\x00\xf0?'
p298
tp299
bsg149
g132
(g133
(I0
tp300
g135
tp301
Rp302
(I1
(I2
I2
tp303
g59
I00
S'\x00\x00\x00\x00\x00\x00\x00\x00\x00\x00\x00\x00\x00\x00\x00\x00\x00\x00\x00\x00\x00\x00\xf0?\x00\x00\x00\x00\x00\x00\xf0?'
p304
tp305
bsg156
I01
sg51
g7
sbsg52
(dp306
I140137016274768
g279
ssg51
g7
sbsg243
I2
sg244
g0
(g157
g2
Ntp307
Rp308
(dp309
g49
I2
sg50
Nsg120
g132
(g133
(I0
tp310
g135
tp311
Rp312
(I1
(I3
I3
tp313
g59
I00
S'\x00\x00\x00\x00\x00\x00\xf0?\x00\x00\x00\x00\x00\x00\x00\x00\x00\x00\x00\x00\x00\x00\x00\x00\x00\x00\x00\x00\x00\x00\x00\x00\x00\x00\x00\x00\x00\x00\xf0?\x00\x00\x00\x00\x00\x00\x00\x00\x00\x00\x00\x00\x00\x00\x00\x00\x00\x00\x00\x00\x00\x00\x00\x00\x00\x00\x00\x00\x00\x00\xf0?'
p314
tp315
bsg51
g7
sg52
(dp316
I140137016274768
g279
ssbsg52
(dp317
I140137016271696
g276
ssg51
g7
sbsg243
I2
sg244
g246
sg52
(dp318
I140137016274256
g0
(g122
g2
Ntp319
Rp320
(dp321
g49
I2
sg126
g0
(g127
g2
Ntp322
Rp323
(dp324
g49
I1
sg131
g132
(g133
(I0
tp325
g135
tp326
Rp327
(I1
(I2
tp328
g59
I00
S'\x00\x00\x00\x00\x00\x00\xf0\x7f\x00\x00\x00\x00\x00\x00\xf0\x7f'
p329
tp330
bsg52
(dp331
I140137016274256
g320
ssg142
g132
(g133
(I0
tp332
g135
tp333
Rp334
(I1
(I2
I2
tp335
g59
I00
S'\x00\x00\x00\x00\x00\x00\x00\x00\x00\x00\x00\x00\x00\x00\x00\x00\x00\x00\x00\x00\x00\x00\xf0?\x00\x00\x00\x00\x00\x00\xf0?'
p336
tp337
bsg149
g132
(g133
(I0
tp338
g135
tp339
Rp340
(I1
(I2
I2
tp341
g59
I00
S'\x00\x00\x00\x00\x00\x00\x00\x00\x00\x00\x00\x00\x00\x00\x00\x00\x00\x00\x00\x00\x00\x00\xf0?\x00\x00\x00\x00\x00\x00\xf0?'
p342
tp343
bsg156
I01
sg51
g7
sbsg115
g276
sg149
Nsg52
(dp344
sg51
g7
sbssg51
g7
sbsI140137015907408
g184
sI140137017269392
g0
(g176
g2
Ntp345
Rp346
(dp347
g49
I2
sg180
I2
sg181
g0
(g176
g2
Ntp348
Rp349
(dp350
g49
I1
sg180
I2
sg181
g0
(g116
g2
Ntp351
Rp352
(dp353
g49
I1
sg120
Nsg50
Nsg121
g0
(g127
g2
Ntp354
Rp355
(dp356
g49
I1
sg131
g132
(g133
(I0
tp357
g135
tp358
Rp359
(I1
(I2
tp360
g59
I00
S'\x00\x00\x00\x00\x00\x00\xf0\x7f\x00\x00\x00\x00\x00\x00\xf0\x7f'
p361
tp362
bsg52
(dp363
I140137017267024
g352
ssg142
g132
(g133
(I0
tp364
g135
tp365
Rp366
(I1
(I2
I2
tp367
g59
I00
S'\x00\x00\x00\x00\x00\x00\x00\x00\x00\x00\x00\x00\x00\x00\x00\x00\x00\x00\x00\x00\x00\x00\xf0?\x00\x00\x00\x00\x00\x00\xf0?'
p368
tp369
bsg149
g132
(g133
(I0
tp370
g135
tp371
Rp372
(I1
(I2
I2
tp373
g59
I00
S'\x00\x00\x00\x00\x00\x00\x00\x00\x00\x00\x00\x00\x00\x00\x00\x00\x00\x00\x00\x00\x00\x00\xf0?\x00\x00\x00\x00\x00\x00\xf0?'
p374
tp375
bsg156
I01
sg51
g7
sbsg52
(dp376
I140137017268752
g349
ssg51
g7
sbsg243
I2
sg244
g0
(g157
g2
Ntp377
Rp378
(dp379
g49
I2
sg50
Nsg120
g132
(g133
(I0
tp380
g135
tp381
Rp382
(I1
(I3
I3
tp383
g59
I00
S'\x00\x00\x00\x00\x00\x00\xf0?\x00\x00\x00\x00\x00\x00\x00\x00\x00\x00\x00\x00\x00\x00\x00\x00\x00\x00\x00\x00\x00\x00\x00\x00\x00\x00\x00\x00\x00\x00\xf0?\x00\x00\x00\x00\x00\x00\x00\x00\x00\x00\x00\x00\x00\x00\x00\x00\x00\x00\x00\x00\x00\x00\x00\x00\x00\x00\x00\x00\x00\x00\xf0?'
p384
tp385
bsg51
g7
sg52
(dp386
I140137017268752
g349
ssbsg52
(dp387
I140137017269392
g346
ssg51
g7
sbsg243
I2
sg244
g246
sg52
(dp388
I140137017269200
g0
(g122
g2
Ntp389
Rp390
(dp391
g49
I2
sg126
g0
(g127
g2
Ntp392
Rp393
(dp394
g49
I1
sg131
g132
(g133
(I0
tp395
g135
tp396
Rp397
(I1
(I2
tp398
g59
I00
S'\x00\x00\x00\x00\x00\x00\xf0\x7f\x00\x00\x00\x00\x00\x00\xf0\x7f'
p399
tp400
bsg52
(dp401
I140137017269200
g390
ssg142
g132
(g133
(I0
tp402
g135
tp403
Rp404
(I1
(I2
I2
tp405
g59
I00
S'\x00\x00\x00\x00\x00\x00\x00\x00\x00\x00\x00\x00\x00\x00\x00\x00\x00\x00\x00\x00\x00\x00\xf0?\x00\x00\x00\x00\x00\x00\xf0?'
p406
tp407
bsg149
g132
(g133
(I0
tp408
g135
tp409
Rp410
(I1
(I2
I2
tp411
g59
I00
S'\x00\x00\x00\x00\x00\x00\x00\x00\x00\x00\x00\x00\x00\x00\x00\x00\x00\x00\x00\x00\x00\x00\xf0?\x00\x00\x00\x00\x00\x00\xf0?'
p412
tp413
bsg156
I01
sg51
g7
sbsg115
g346
sg149
Nsg52
(dp414
sg51
g7
sbssg51
g7
sbsI140137015908752
g241
sI140137011692944
g0
(g176
g2
Ntp415
Rp416
(dp417
g49
I2
sg180
I2
sg181
g0
(g176
g2
Ntp418
Rp419
(dp420
g49
I1
sg180
I2
sg181
g0
(g116
g2
Ntp421
Rp422
(dp423
g49
I1
sg120
Nsg50
Nsg121
g0
(g127
g2
Ntp424
Rp425
(dp426
g49
I1
sg131
g132
(g133
(I0
tp427
g135
tp428
Rp429
(I1
(I2
tp430
g59
I00
S'\x00\x00\x00\x00\x00\x00\xf0\x7f\x00\x00\x00\x00\x00\x00\xf0\x7f'
p431
tp432
bsg52
(dp433
I140137011692880
g422
ssg142
g132
(g133
(I0
tp434
g135
tp435
Rp436
(I1
(I2
I2
tp437
g59
I00
S'\x00\x00\x00\x00\x00\x00\x00\x00\x00\x00\x00\x00\x00\x00\x00\x00\x00\x00\x00\x00\x00\x00\xf0?\x00\x00\x00\x00\x00\x00\xf0?'
p438
tp439
bsg149
g132
(g133
(I0
tp440
g135
tp441
Rp442
(I1
(I2
I2
tp443
g59
I00
S'\x00\x00\x00\x00\x00\x00\x00\x00\x00\x00\x00\x00\x00\x00\x00\x00\x00\x00\x00\x00\x00\x00\xf0?\x00\x00\x00\x00\x00\x00\xf0?'
p444
tp445
bsg156
I01
sg51
g7
sbsg52
(dp446
I140137011692432
g419
ssg51
g7
sbsg243
I2
sg244
g0
(g157
g2
Ntp447
Rp448
(dp449
g49
I2
sg50
Nsg120
g132
(g133
(I0
tp450
g135
tp451
Rp452
(I1
(I3
I3
tp453
g59
I00
S'\x00\x00\x00\x00\x00\x00\xf0?\x00\x00\x00\x00\x00\x00\x00\x00\x00\x00\x00\x00\x00\x00\x00\x00\x00\x00\x00\x00\x00\x00\x00\x00\x00\x00\x00\x00\x00\x00\xf0?\x00\x00\x00\x00\x00\x00\x00\x00\x00\x00\x00\x00\x00\x00\x00\x00\x00\x00\x00\x00\x00\x00\x00\x00\x00\x00\x00\x00\x00\x00\xf0?'
p454
tp455
bsg51
g7
sg52
(dp456
I140137011692432
g419
ssbsg52
(dp457
I140137011692944
g416
ssg51
g7
sbsg243
I2
sg244
g246
sg52
(dp458
I140137011695376
g0
(g122
g2
Ntp459
Rp460
(dp461
g49
I2
sg126
g0
(g127
g2
Ntp462
Rp463
(dp464
g49
I1
sg131
g132
(g133
(I0
tp465
g135
tp466
Rp467
(I1
(I2
tp468
g59
I00
S'\x00\x00\x00\x00\x00\x00\xf0\x7f\x00\x00\x00\x00\x00\x00\xf0\x7f'
p469
tp470
bsg52
(dp471
I140137011695376
g460
ssg142
g132
(g133
(I0
tp472
g135
tp473
Rp474
(I1
(I2
I2
tp475
g59
I00
S'\x00\x00\x00\x00\x00\x00\x00\x00\x00\x00\x00\x00\x00\x00\x00\x00\x00\x00\x00\x00\x00\x00\xf0?\x00\x00\x00\x00\x00\x00\xf0?'
p476
tp477
bsg149
g132
(g133
(I0
tp478
g135
tp479
Rp480
(I1
(I2
I2
tp481
g59
I00
S'\x00\x00\x00\x00\x00\x00\x00\x00\x00\x00\x00\x00\x00\x00\x00\x00\x00\x00\x00\x00\x00\x00\xf0?\x00\x00\x00\x00\x00\x00\xf0?'
p482
tp483
bsg156
I01
sg51
g7
sbsg115
g416
sg149
Nsg52
(dp484
sg51
g7
sbssg51
g7
sbsI140137011693008
g0
(g176
g2
Ntp485
Rp486
(dp487
g49
I2
sg180
I2
sg181
g0
(g176
g2
Ntp488
Rp489
(dp490
g49
I1
sg180
I2
sg181
g0
(g116
g2
Ntp491
Rp492
(dp493
g49
I1
sg120
Nsg50
Nsg121
g0
(g127
g2
Ntp494
Rp495
(dp496
g49
I1
sg131
g132
(g133
(I0
tp497
g135
tp498
Rp499
(I1
(I2
tp500
g59
I00
S'\x00\x00\x00\x00\x00\x00\xf0\x7f\x00\x00\x00\x00\x00\x00\xf0\x7f'
p501
tp502
bsg52
(dp503
I140137011695184
g492
ssg142
g132
(g133
(I0
tp504
g135
tp505
Rp506
(I1
(I2
I2
tp507
g59
I00
S'\x00\x00\x00\x00\x00\x00\x00\x00\x00\x00\x00\x00\x00\x00\x00\x00\x00\x00\x00\x00\x00\x00\xf0?\x00\x00\x00\x00\x00\x00\xf0?'
p508
tp509
bsg149
g132
(g133
(I0
tp510
g135
tp511
Rp512
(I1
(I2
I2
tp513
g59
I00
S'\x00\x00\x00\x00\x00\x00\x00\x00\x00\x00\x00\x00\x00\x00\x00\x00\x00\x00\x00\x00\x00\x00\xf0?\x00\x00\x00\x00\x00\x00\xf0?'
p514
tp515
bsg156
I01
sg51
g7
sbsg52
(dp516
I140137011695120
g489
ssg51
g7
sbsg243
I2
sg244
g0
(g157
g2
Ntp517
Rp518
(dp519
g49
I2
sg50
Nsg120
g132
(g133
(I0
tp520
g135
tp521
Rp522
(I1
(I3
I3
tp523
g59
I00
S'\x00\x00\x00\x00\x00\x00\xf0?\x00\x00\x00\x00\x00\x00\x00\x00\x00\x00\x00\x00\x00\x00\x00\x00\x00\x00\x00\x00\x00\x00\x00\x00\x00\x00\x00\x00\x00\x00\xf0?\x00\x00\x00\x00\x00\x00\x00\x00\x00\x00\x00\x00\x00\x00\x00\x00\x00\x00\x00\x00\x00\x00\x00\x00\x00\x00\x00\x00\x00\x00\xf0?'
p524
tp525
bsg51
g7
sg52
(dp526
I140137011695120
g489
ssbsg52
(dp527
I140137011693008
g486
ssg51
g7
sbsg243
I2
sg244
g246
sg52
(dp528
I140137011695248
g0
(g122
g2
Ntp529
Rp530
(dp531
g49
I2
sg126
g0
(g127
g2
Ntp532
Rp533
(dp534
g49
I1
sg131
g132
(g133
(I0
tp535
g135
tp536
Rp537
(I1
(I2
tp538
g59
I00
S'\x00\x00\x00\x00\x00\x00\xf0\x7f\x00\x00\x00\x00\x00\x00\xf0\x7f'
p539
tp540
bsg52
(dp541
I140137011695248
g530
ssg142
g132
(g133
(I0
tp542
g135
tp543
Rp544
(I1
(I2
I2
tp545
g59
I00
S'\x00\x00\x00\x00\x00\x00\x00\x00\x00\x00\x00\x00\x00\x00\x00\x00\x00\x00\x00\x00\x00\x00\xf0?\x00\x00\x00\x00\x00\x00\xf0?'
p546
tp547
bsg149
g132
(g133
(I0
tp548
g135
tp549
Rp550
(I1
(I2
I2
tp551
g59
I00
S'\x00\x00\x00\x00\x00\x00\x00\x00\x00\x00\x00\x00\x00\x00\x00\x00\x00\x00\x00\x00\x00\x00\xf0?\x00\x00\x00\x00\x00\x00\xf0?'
p552
tp553
bsg156
I01
sg51
g7
sbsg115
g486
sg149
Nsg52
(dp554
sg51
g7
sbssg51
g7
sbsI140137017520208
g0
(g176
g2
Ntp555
Rp556
(dp557
g49
I2
sg180
I2
sg181
g0
(g176
g2
Ntp558
Rp559
(dp560
g49
I1
sg180
I2
sg181
g0
(g116
g2
Ntp561
Rp562
(dp563
g49
I1
sg120
Nsg50
Nsg121
g0
(g127
g2
Ntp564
Rp565
(dp566
g49
I1
sg131
g132
(g133
(I0
tp567
g135
tp568
Rp569
(I1
(I2
tp570
g59
I00
S'\x00\x00\x00\x00\x00\x00\xf0\x7f\x00\x00\x00\x00\x00\x00\xf0\x7f'
p571
tp572
bsg52
(dp573
I140137017524048
g562
ssg142
g132
(g133
(I0
tp574
g135
tp575
Rp576
(I1
(I2
I2
tp577
g59
I00
S'\x00\x00\x00\x00\x00\x00\x00\x00\x00\x00\x00\x00\x00\x00\x00\x00\x00\x00\x00\x00\x00\x00\xf0?\x00\x00\x00\x00\x00\x00\xf0?'
p578
tp579
bsg149
g132
(g133
(I0
tp580
g135
tp581
Rp582
(I1
(I2
I2
tp583
g59
I00
S'\x00\x00\x00\x00\x00\x00\x00\x00\x00\x00\x00\x00\x00\x00\x00\x00\x00\x00\x00\x00\x00\x00\xf0?\x00\x00\x00\x00\x00\x00\xf0?'
p584
tp585
bsg156
I01
sg51
g7
sbsg52
(dp586
I140137017521296
g559
ssg51
g7
sbsg243
I2
sg244
g0
(g157
g2
Ntp587
Rp588
(dp589
g49
I2
sg50
Nsg120
g132
(g133
(I0
tp590
g135
tp591
Rp592
(I1
(I3
I3
tp593
g59
I00
S'\x00\x00\x00\x00\x00\x00\xf0?\x00\x00\x00\x00\x00\x00\x00\x00\x00\x00\x00\x00\x00\x00\x00\x00\x00\x00\x00\x00\x00\x00\x00\x00\x00\x00\x00\x00\x00\x00\xf0?\x00\x00\x00\x00\x00\x00\x00\x00\x00\x00\x00\x00\x00\x00\x00\x00\x00\x00\x00\x00\x00\x00\x00\x00\x00\x00\x00\x00\x00\x00\xf0?'
p594
tp595
bsg51
g7
sg52
(dp596
I140137017521296
g559
ssbsg52
(dp597
I140137017520208
g556
ssg51
g7
sbsg243
I2
sg244
g246
sg52
(dp598
I140137017523856
g0
(g122
g2
Ntp599
Rp600
(dp601
g49
I2
sg126
g0
(g127
g2
Ntp602
Rp603
(dp604
g49
I1
sg131
g132
(g133
(I0
tp605
g135
tp606
Rp607
(I1
(I2
tp608
g59
I00
S'\x00\x00\x00\x00\x00\x00\xf0\x7f\x00\x00\x00\x00\x00\x00\xf0\x7f'
p609
tp610
bsg52
(dp611
I140137017523856
g600
ssg142
g132
(g133
(I0
tp612
g135
tp613
Rp614
(I1
(I2
I2
tp615
g59
I00
S'\x00\x00\x00\x00\x00\x00\x00\x00\x00\x00\x00\x00\x00\x00\x00\x00\x00\x00\x00\x00\x00\x00\xf0?\x00\x00\x00\x00\x00\x00\xf0?'
p616
tp617
bsg149
g132
(g133
(I0
tp618
g135
tp619
Rp620
(I1
(I2
I2
tp621
g59
I00
S'\x00\x00\x00\x00\x00\x00\x00\x00\x00\x00\x00\x00\x00\x00\x00\x00\x00\x00\x00\x00\x00\x00\xf0?\x00\x00\x00\x00\x00\x00\xf0?'
p622
tp623
bsg156
I01
sg51
g7
sbsg115
g556
sg149
Nsg52
(dp624
sg51
g7
sbssg51
g7
sbsI140137017523472
g0
(g176
g2
Ntp625
Rp626
(dp627
g49
I2
sg180
I2
sg181
g0
(g176
g2
Ntp628
Rp629
(dp630
g49
I1
sg180
I2
sg181
g0
(g116
g2
Ntp631
Rp632
(dp633
g49
I1
sg120
Nsg50
Nsg121
g0
(g127
g2
Ntp634
Rp635
(dp636
g49
I1
sg131
g132
(g133
(I0
tp637
g135
tp638
Rp639
(I1
(I2
tp640
g59
I00
S'\x00\x00\x00\x00\x00\x00\xf0\x7f\x00\x00\x00\x00\x00\x00\xf0\x7f'
p641
tp642
bsg52
(dp643
I140137017522704
g632
ssg142
g132
(g133
(I0
tp644
g135
tp645
Rp646
(I1
(I2
I2
tp647
g59
I00
S'\x00\x00\x00\x00\x00\x00\x00\x00\x00\x00\x00\x00\x00\x00\x00\x00\x00\x00\x00\x00\x00\x00\xf0?\x00\x00\x00\x00\x00\x00\xf0?'
p648
tp649
bsg149
g132
(g133
(I0
tp650
g135
tp651
Rp652
(I1
(I2
I2
tp653
g59
I00
S'\x00\x00\x00\x00\x00\x00\x00\x00\x00\x00\x00\x00\x00\x00\x00\x00\x00\x00\x00\x00\x00\x00\xf0?\x00\x00\x00\x00\x00\x00\xf0?'
p654
tp655
bsg156
I01
sg51
g7
sbsg52
(dp656
I140137017521040
g629
ssg51
g7
sbsg243
I2
sg244
g0
(g157
g2
Ntp657
Rp658
(dp659
g49
I2
sg50
Nsg120
g132
(g133
(I0
tp660
g135
tp661
Rp662
(I1
(I3
I3
tp663
g59
I00
S'\x00\x00\x00\x00\x00\x00\xf0?\x00\x00\x00\x00\x00\x00\x00\x00\x00\x00\x00\x00\x00\x00\x00\x00\x00\x00\x00\x00\x00\x00\x00\x00\x00\x00\x00\x00\x00\x00\xf0?\x00\x00\x00\x00\x00\x00\x00\x00\x00\x00\x00\x00\x00\x00\x00\x00\x00\x00\x00\x00\x00\x00\x00\x00\x00\x00\x00\x00\x00\x00\xf0?'
p664
tp665
bsg51
g7
sg52
(dp666
I140137017521040
g629
ssbsg52
(dp667
I140137017523472
g626
ssg51
g7
sbsg243
I2
sg244
g246
sg52
(dp668
I140137017523600
g0
(g122
g2
Ntp669
Rp670
(dp671
g49
I2
sg126
g0
(g127
g2
Ntp672
Rp673
(dp674
g49
I1
sg131
g132
(g133
(I0
tp675
g135
tp676
Rp677
(I1
(I2
tp678
g59
I00
S'\x00\x00\x00\x00\x00\x00\xf0\x7f\x00\x00\x00\x00\x00\x00\xf0\x7f'
p679
tp680
bsg52
(dp681
I140137017523600
g670
ssg142
g132
(g133
(I0
tp682
g135
tp683
Rp684
(I1
(I2
I2
tp685
g59
I00
S'\x00\x00\x00\x00\x00\x00\x00\x00\x00\x00\x00\x00\x00\x00\x00\x00\x00\x00\x00\x00\x00\x00\xf0?\x00\x00\x00\x00\x00\x00\xf0?'
p686
tp687
bsg149
g132
(g133
(I0
tp688
g135
tp689
Rp690
(I1
(I2
I2
tp691
g59
I00
S'\x00\x00\x00\x00\x00\x00\x00\x00\x00\x00\x00\x00\x00\x00\x00\x00\x00\x00\x00\x00\x00\x00\xf0?\x00\x00\x00\x00\x00\x00\xf0?'
p692
tp693
bsg156
I01
sg51
g7
sbsg115
g626
sg149
Nsg52
(dp694
sg51
g7
sbssg51
g7
sbsI140137011693136
g0
(g176
g2
Ntp695
Rp696
(dp697
g49
I2
sg180
I2
sg181
g0
(g176
g2
Ntp698
Rp699
(dp700
g49
I1
sg180
I2
sg181
g0
(g116
g2
Ntp701
Rp702
(dp703
g49
I1
sg120
Nsg50
Nsg121
g0
(g127
g2
Ntp704
Rp705
(dp706
g49
I1
sg131
g132
(g133
(I0
tp707
g135
tp708
Rp709
(I1
(I2
tp710
g59
I00
S'\x00\x00\x00\x00\x00\x00\xf0\x7f\x00\x00\x00\x00\x00\x00\xf0\x7f'
p711
tp712
bsg52
(dp713
I140137011693328
g702
ssg142
g132
(g133
(I0
tp714
g135
tp715
Rp716
(I1
(I2
I2
tp717
g59
I00
S'\x00\x00\x00\x00\x00\x00\x00\x00\x00\x00\x00\x00\x00\x00\x00\x00\x00\x00\x00\x00\x00\x00\xf0?\x00\x00\x00\x00\x00\x00\xf0?'
p718
tp719
bsg149
g132
(g133
(I0
tp720
g135
tp721
Rp722
(I1
(I2
I2
tp723
g59
I00
S'\x00\x00\x00\x00\x00\x00\x00\x00\x00\x00\x00\x00\x00\x00\x00\x00\x00\x00\x00\x00\x00\x00\xf0?\x00\x00\x00\x00\x00\x00\xf0?'
p724
tp725
bsg156
I01
sg51
g7
sbsg52
(dp726
I140137011694864
g699
ssg51
g7
sbsg243
I2
sg244
g0
(g157
g2
Ntp727
Rp728
(dp729
g49
I2
sg50
Nsg120
g132
(g133
(I0
tp730
g135
tp731
Rp732
(I1
(I3
I3
tp733
g59
I00
S'\x00\x00\x00\x00\x00\x00\xf0?\x00\x00\x00\x00\x00\x00\x00\x00\x00\x00\x00\x00\x00\x00\x00\x00\x00\x00\x00\x00\x00\x00\x00\x00\x00\x00\x00\x00\x00\x00\xf0?\x00\x00\x00\x00\x00\x00\x00\x00\x00\x00\x00\x00\x00\x00\x00\x00\x00\x00\x00\x00\x00\x00\x00\x00\x00\x00\x00\x00\x00\x00\xf0?'
p734
tp735
bsg51
g7
sg52
(dp736
I140137011694864
g699
ssbsg52
(dp737
I140137011693136
g696
ssg51
g7
sbsg243
I2
sg244
g246
sg52
(dp738
I140137011692048
g0
(g122
g2
Ntp739
Rp740
(dp741
g49
I2
sg126
g0
(g127
g2
Ntp742
Rp743
(dp744
g49
I1
sg131
g132
(g133
(I0
tp745
g135
tp746
Rp747
(I1
(I2
tp748
g59
I00
S'\x00\x00\x00\x00\x00\x00\xf0\x7f\x00\x00\x00\x00\x00\x00\xf0\x7f'
p749
tp750
bsg52
(dp751
I140137011692048
g740
ssg142
g132
(g133
(I0
tp752
g135
tp753
Rp754
(I1
(I2
I2
tp755
g59
I00
S'\x00\x00\x00\x00\x00\x00\x00\x00\x00\x00\x00\x00\x00\x00\x00\x00\x00\x00\x00\x00\x00\x00\xf0?\x00\x00\x00\x00\x00\x00\xf0?'
p756
tp757
bsg149
g132
(g133
(I0
tp758
g135
tp759
Rp760
(I1
(I2
I2
tp761
g59
I00
S'\x00\x00\x00\x00\x00\x00\x00\x00\x00\x00\x00\x00\x00\x00\x00\x00\x00\x00\x00\x00\x00\x00\xf0?\x00\x00\x00\x00\x00\x00\xf0?'
p762
tp763
bsg156
I01
sg51
g7
sbsg115
g696
sg149
Nsg52
(dp764
sg51
g7
sbssg51
g7
sbsI140137017521936
g0
(g176
g2
Ntp765
Rp766
(dp767
g49
I2
sg180
I2
sg181
g0
(g176
g2
Ntp768
Rp769
(dp770
g49
I1
sg180
I2
sg181
g0
(g116
g2
Ntp771
Rp772
(dp773
g49
I1
sg120
Nsg50
Nsg121
g0
(g127
g2
Ntp774
Rp775
(dp776
g49
I1
sg131
g132
(g133
(I0
tp777
g135
tp778
Rp779
(I1
(I2
tp780
g59
I00
S'\x00\x00\x00\x00\x00\x00\xf0\x7f\x00\x00\x00\x00\x00\x00\xf0\x7f'
p781
tp782
bsg52
(dp783
I140137017522000
g772
ssg142
g132
(g133
(I0
tp784
g135
tp785
Rp786
(I1
(I2
I2
tp787
g59
I00
S'\x00\x00\x00\x00\x00\x00\x00\x00\x00\x00\x00\x00\x00\x00\x00\x00\x00\x00\x00\x00\x00\x00\xf0?\x00\x00\x00\x00\x00\x00\xf0?'
p788
tp789
bsg149
g132
(g133
(I0
tp790
g135
tp791
Rp792
(I1
(I2
I2
tp793
g59
I00
S'\x00\x00\x00\x00\x00\x00\x00\x00\x00\x00\x00\x00\x00\x00\x00\x00\x00\x00\x00\x00\x00\x00\xf0?\x00\x00\x00\x00\x00\x00\xf0?'
p794
tp795
bsg156
I01
sg51
g7
sbsg52
(dp796
I140137017522640
g769
ssg51
g7
sbsg243
I2
sg244
g0
(g157
g2
Ntp797
Rp798
(dp799
g49
I2
sg50
Nsg120
g132
(g133
(I0
tp800
g135
tp801
Rp802
(I1
(I3
I3
tp803
g59
I00
S'\x00\x00\x00\x00\x00\x00\xf0?\x00\x00\x00\x00\x00\x00\x00\x00\x00\x00\x00\x00\x00\x00\x00\x00\x00\x00\x00\x00\x00\x00\x00\x00\x00\x00\x00\x00\x00\x00\xf0?\x00\x00\x00\x00\x00\x00\x00\x00\x00\x00\x00\x00\x00\x00\x00\x00\x00\x00\x00\x00\x00\x00\x00\x00\x00\x00\x00\x00\x00\x00\xf0?'
p804
tp805
bsg51
g7
sg52
(dp806
I140137017522640
g769
ssbsg52
(dp807
I140137017521936
g766
ssg51
g7
sbsg243
I2
sg244
g246
sg52
(dp808
I140137017523344
g0
(g122
g2
Ntp809
Rp810
(dp811
g49
I2
sg126
g0
(g127
g2
Ntp812
Rp813
(dp814
g49
I1
sg131
g132
(g133
(I0
tp815
g135
tp816
Rp817
(I1
(I2
tp818
g59
I00
S'\x00\x00\x00\x00\x00\x00\xf0\x7f\x00\x00\x00\x00\x00\x00\xf0\x7f'
p819
tp820
bsg52
(dp821
I140137017523344
g810
ssg142
g132
(g133
(I0
tp822
g135
tp823
Rp824
(I1
(I2
I2
tp825
g59
I00
S'\x00\x00\x00\x00\x00\x00\x00\x00\x00\x00\x00\x00\x00\x00\x00\x00\x00\x00\x00\x00\x00\x00\xf0?\x00\x00\x00\x00\x00\x00\xf0?'
p826
tp827
bsg149
g132
(g133
(I0
tp828
g135
tp829
Rp830
(I1
(I2
I2
tp831
g59
I00
S'\x00\x00\x00\x00\x00\x00\x00\x00\x00\x00\x00\x00\x00\x00\x00\x00\x00\x00\x00\x00\x00\x00\xf0?\x00\x00\x00\x00\x00\x00\xf0?'
p832
tp833
bsg156
I01
sg51
g7
sbsg115
g766
sg149
Nsg52
(dp834
sg51
g7
sbssg51
g7
sbsI140137010972496
g0
(g176
g2
Ntp835
Rp836
(dp837
g49
I2
sg180
I2
sg181
g246
sg243
I2
sg244
g0
(g168
g2
Ntp838
Rp839
(dp840
g49
I1
sg120
Nsg172
g159
sg50
Nsg173
(F0.0
F0.08333333333333333
tp841
sg51
g7
sg52
(dp842
I140137010972496
g836
sI140137010974608
g0
(g176
g2
Ntp843
Rp844
(dp845
g49
I2
sg180
I2
sg181
g246
sg243
I2
sg244
g839
sg52
(dp846
sg51
g7
sbsI140137010971088
g0
(g176
g2
Ntp847
Rp848
(dp849
g49
I2
sg180
I2
sg181
g246
sg243
I2
sg244
g839
sg52
(dp850
sg51
g7
sbssbsg52
(dp851
sg51
g7
sbsI140137017522128
g0
(g176
g2
Ntp852
Rp853
(dp854
g49
I2
sg180
I2
sg181
g0
(g176
g2
Ntp855
Rp856
(dp857
g49
I1
sg180
I2
sg181
g0
(g116
g2
Ntp858
Rp859
(dp860
g49
I1
sg120
Nsg50
Nsg121
g0
(g127
g2
Ntp861
Rp862
(dp863
g49
I1
sg131
g132
(g133
(I0
tp864
g135
tp865
Rp866
(I1
(I2
tp867
g59
I00
S'\x00\x00\x00\x00\x00\x00\xf0\x7f\x00\x00\x00\x00\x00\x00\xf0\x7f'
p868
tp869
bsg52
(dp870
I140137017520528
g859
ssg142
g132
(g133
(I0
tp871
g135
tp872
Rp873
(I1
(I2
I2
tp874
g59
I00
S'\x00\x00\x00\x00\x00\x00\x00\x00\x00\x00\x00\x00\x00\x00\x00\x00\x00\x00\x00\x00\x00\x00\xf0?\x00\x00\x00\x00\x00\x00\xf0?'
p875
tp876
bsg149
g132
(g133
(I0
tp877
g135
tp878
Rp879
(I1
(I2
I2
tp880
g59
I00
S'\x00\x00\x00\x00\x00\x00\x00\x00\x00\x00\x00\x00\x00\x00\x00\x00\x00\x00\x00\x00\x00\x00\xf0?\x00\x00\x00\x00\x00\x00\xf0?'
p881
tp882
bsg156
I01
sg51
g7
sbsg52
(dp883
I140137017520400
g856
ssg51
g7
sbsg243
I2
sg244
g0
(g157
g2
Ntp884
Rp885
(dp886
g49
I2
sg50
Nsg120
g132
(g133
(I0
tp887
g135
tp888
Rp889
(I1
(I3
I3
tp890
g59
I00
S'\x00\x00\x00\x00\x00\x00\xf0?\x00\x00\x00\x00\x00\x00\x00\x00\x00\x00\x00\x00\x00\x00\x00\x00\x00\x00\x00\x00\x00\x00\x00\x00\x00\x00\x00\x00\x00\x00\xf0?\x00\x00\x00\x00\x00\x00\x00\x00\x00\x00\x00\x00\x00\x00\x00\x00\x00\x00\x00\x00\x00\x00\x00\x00\x00\x00\x00\x00\x00\x00\xf0?'
p891
tp892
bsg51
g7
sg52
(dp893
I140137017520400
g856
ssbsg52
(dp894
I140137017522128
g853
ssg51
g7
sbsg243
I2
sg244
g246
sg52
(dp895
I140137017523664
g0
(g122
g2
Ntp896
Rp897
(dp898
g49
I2
sg126
g0
(g127
g2
Ntp899
Rp900
(dp901
g49
I1
sg131
g132
(g133
(I0
tp902
g135
tp903
Rp904
(I1
(I2
tp905
g59
I00
S'\x00\x00\x00\x00\x00\x00\xf0\x7f\x00\x00\x00\x00\x00\x00\xf0\x7f'
p906
tp907
bsg52
(dp908
I140137017523664
g897
ssg142
g132
(g133
(I0
tp909
g135
tp910
Rp911
(I1
(I2
I2
tp912
g59
I00
S'\x00\x00\x00\x00\x00\x00\x00\x00\x00\x00\x00\x00\x00\x00\x00\x00\x00\x00\x00\x00\x00\x00\xf0?\x00\x00\x00\x00\x00\x00\xf0?'
p913
tp914
bsg149
g132
(g133
(I0
tp915
g135
tp916
Rp917
(I1
(I2
I2
tp918
g59
I00
S'\x00\x00\x00\x00\x00\x00\x00\x00\x00\x00\x00\x00\x00\x00\x00\x00\x00\x00\x00\x00\x00\x00\xf0?\x00\x00\x00\x00\x00\x00\xf0?'
p919
tp920
bsg156
I01
sg51
g7
sbsg115
g853
sg149
Nsg52
(dp921
sg51
g7
sbssg51
g7
sbsI140137018071504
g0
(g176
g2
Ntp922
Rp923
(dp924
g49
I2
sg180
I2
sg181
g0
(g176
g2
Ntp925
Rp926
(dp927
g49
I1
sg180
I2
sg181
g0
(g116
g2
Ntp928
Rp929
(dp930
g49
I1
sg120
Nsg50
Nsg121
g0
(g127
g2
Ntp931
Rp932
(dp933
g49
I1
sg131
g132
(g133
(I0
tp934
g135
tp935
Rp936
(I1
(I2
tp937
g59
I00
S'\x00\x00\x00\x00\x00\x00\xf0\x7f\x00\x00\x00\x00\x00\x00\xf0\x7f'
p938
tp939
bsg52
(dp940
I140137018069968
g929
ssg142
g132
(g133
(I0
tp941
g135
tp942
Rp943
(I1
(I2
I2
tp944
g59
I00
S'\x00\x00\x00\x00\x00\x00\x00\x00\x00\x00\x00\x00\x00\x00\x00\x00\x00\x00\x00\x00\x00\x00\xf0?\x00\x00\x00\x00\x00\x00\xf0?'
p945
tp946
bsg149
g132
(g133
(I0
tp947
g135
tp948
Rp949
(I1
(I2
I2
tp950
g59
I00
S'\x00\x00\x00\x00\x00\x00\x00\x00\x00\x00\x00\x00\x00\x00\x00\x00\x00\x00\x00\x00\x00\x00\xf0?\x00\x00\x00\x00\x00\x00\xf0?'
p951
tp952
bsg156
I01
sg51
g7
sbsg52
(dp953
I140137018070096
g926
ssg51
g7
sbsg243
I2
sg244
g0
(g157
g2
Ntp954
Rp955
(dp956
g49
I2
sg50
Nsg120
g132
(g133
(I0
tp957
g135
tp958
Rp959
(I1
(I3
I3
tp960
g59
I00
S'\x00\x00\x00\x00\x00\x00\xf0?\x00\x00\x00\x00\x00\x00\x00\x00\x00\x00\x00\x00\x00\x00\x00\x00\x00\x00\x00\x00\x00\x00\x00\x00\x00\x00\x00\x00\x00\x00\xf0?\x00\x00\x00\x00\x00\x00\x00\x00\x00\x00\x00\x00\x00\x00\x00\x00\x00\x00\x00\x00\x00\x00\x00\x00\x00\x00\x00\x00\x00\x00\xf0?'
p961
tp962
bsg51
g7
sg52
(dp963
I140137018070096
g926
ssbsg52
(dp964
I140137018071504
g923
ssg51
g7
sbsg243
I2
sg244
g246
sg52
(dp965
I140137018071632
g0
(g122
g2
Ntp966
Rp967
(dp968
g49
I2
sg126
g0
(g127
g2
Ntp969
Rp970
(dp971
g49
I1
sg131
g132
(g133
(I0
tp972
g135
tp973
Rp974
(I1
(I2
tp975
g59
I00
S'\x00\x00\x00\x00\x00\x00\xf0\x7f\x00\x00\x00\x00\x00\x00\xf0\x7f'
p976
tp977
bsg52
(dp978
I140137018071632
g967
ssg142
g132
(g133
(I0
tp979
g135
tp980
Rp981
(I1
(I2
I2
tp982
g59
I00
S'\x00\x00\x00\x00\x00\x00\x00\x00\x00\x00\x00\x00\x00\x00\x00\x00\x00\x00\x00\x00\x00\x00\xf0?\x00\x00\x00\x00\x00\x00\xf0?'
p983
tp984
bsg149
g132
(g133
(I0
tp985
g135
tp986
Rp987
(I1
(I2
I2
tp988
g59
I00
S'\x00\x00\x00\x00\x00\x00\x00\x00\x00\x00\x00\x00\x00\x00\x00\x00\x00\x00\x00\x00\x00\x00\xf0?\x00\x00\x00\x00\x00\x00\xf0?'
p989
tp990
bsg156
I01
sg51
g7
sbsg115
g923
sg149
Nsg52
(dp991
sg51
g7
sbssg51
g7
sbsI140137017297488
g0
(g176
g2
Ntp992
Rp993
(dp994
g49
I2
sg180
I2
sg181
g0
(g176
g2
Ntp995
Rp996
(dp997
g49
I1
sg180
I2
sg181
g0
(g116
g2
Ntp998
Rp999
(dp1000
g49
I1
sg120
Nsg50
Nsg121
g0
(g127
g2
Ntp1001
Rp1002
(dp1003
g49
I1
sg131
g132
(g133
(I0
tp1004
g135
tp1005
Rp1006
(I1
(I2
tp1007
g59
I00
S'\x00\x00\x00\x00\x00\x00\xf0\x7f\x00\x00\x00\x00\x00\x00\xf0\x7f'
p1008
tp1009
bsg52
(dp1010
I140137592113680
g999
ssg142
g132
(g133
(I0
tp1011
g135
tp1012
Rp1013
(I1
(I2
I2
tp1014
g59
I00
S'\x00\x00\x00\x00\x00\x00\x00\x00\x00\x00\x00\x00\x00\x00\x00\x00\x00\x00\x00\x00\x00\x00\xf0?\x00\x00\x00\x00\x00\x00\xf0?'
p1015
tp1016
bsg149
g132
(g133
(I0
tp1017
g135
tp1018
Rp1019
(I1
(I2
I2
tp1020
g59
I00
S'\x00\x00\x00\x00\x00\x00\x00\x00\x00\x00\x00\x00\x00\x00\x00\x00\x00\x00\x00\x00\x00\x00\xf0?\x00\x00\x00\x00\x00\x00\xf0?'
p1021
tp1022
bsg156
I01
sg51
g7
sbsg52
(dp1023
I140137599562320
g996
ssg51
g7
sbsg243
I2
sg244
g0
(g157
g2
Ntp1024
Rp1025
(dp1026
g49
I2
sg50
Nsg120
g132
(g133
(I0
tp1027
g135
tp1028
Rp1029
(I1
(I3
I3
tp1030
g59
I00
S'\x00\x00\x00\x00\x00\x00\xf0?\x00\x00\x00\x00\x00\x00\x00\x00\x00\x00\x00\x00\x00\x00\x00\x00\x00\x00\x00\x00\x00\x00\x00\x00\x00\x00\x00\x00\x00\x00\xf0?\x00\x00\x00\x00\x00\x00\x00\x00\x00\x00\x00\x00\x00\x00\x00\x00\x00\x00\x00\x00\x00\x00\x00\x00\x00\x00\x00\x00\x00\x00\xf0?'
p1031
tp1032
bsg51
g7
sg52
(dp1033
I140137599562320
g996
ssbsg52
(dp1034
I140137017297488
g993
ssg51
g7
sbsg243
I2
sg244
g246
sg52
(dp1035
I140137017296656
g0
(g122
g2
Ntp1036
Rp1037
(dp1038
g49
I2
sg126
g0
(g127
g2
Ntp1039
Rp1040
(dp1041
g49
I1
sg131
g132
(g133
(I0
tp1042
g135
tp1043
Rp1044
(I1
(I2
tp1045
g59
I00
S'\x00\x00\x00\x00\x00\x00\xf0\x7f\x00\x00\x00\x00\x00\x00\xf0\x7f'
p1046
tp1047
bsg52
(dp1048
I140137017296656
g1037
ssg142
g132
(g133
(I0
tp1049
g135
tp1050
Rp1051
(I1
(I2
I2
tp1052
g59
I00
S'\x00\x00\x00\x00\x00\x00\x00\x00\x00\x00\x00\x00\x00\x00\x00\x00\x00\x00\x00\x00\x00\x00\xf0?\x00\x00\x00\x00\x00\x00\xf0?'
p1053
tp1054
bsg149
g132
(g133
(I0
tp1055
g135
tp1056
Rp1057
(I1
(I2
I2
tp1058
g59
I00
S'\x00\x00\x00\x00\x00\x00\x00\x00\x00\x00\x00\x00\x00\x00\x00\x00\x00\x00\x00\x00\x00\x00\xf0?\x00\x00\x00\x00\x00\x00\xf0?'
p1059
tp1060
bsg156
I01
sg51
g7
sbsg115
g993
sg149
Nsg52
(dp1061
sg51
g7
sbssg51
g7
sbsI140137016273552
g0
(g176
g2
Ntp1062
Rp1063
(dp1064
g49
I2
sg180
I2
sg181
g0
(g176
g2
Ntp1065
Rp1066
(dp1067
g49
I1
sg180
I2
sg181
g0
(g116
g2
Ntp1068
Rp1069
(dp1070
g49
I1
sg120
Nsg50
Nsg121
g0
(g127
g2
Ntp1071
Rp1072
(dp1073
g49
I1
sg131
g132
(g133
(I0
tp1074
g135
tp1075
Rp1076
(I1
(I2
tp1077
g59
I00
S'\x00\x00\x00\x00\x00\x00\xf0\x7f\x00\x00\x00\x00\x00\x00\xf0\x7f'
p1078
tp1079
bsg52
(dp1080
I140137016271248
g1069
ssg142
g132
(g133
(I0
tp1081
g135
tp1082
Rp1083
(I1
(I2
I2
tp1084
g59
I00
S'\x00\x00\x00\x00\x00\x00\x00\x00\x00\x00\x00\x00\x00\x00\x00\x00\x00\x00\x00\x00\x00\x00\xf0?\x00\x00\x00\x00\x00\x00\xf0?'
p1085
tp1086
bsg149
g132
(g133
(I0
tp1087
g135
tp1088
Rp1089
(I1
(I2
I2
tp1090
g59
I00
S'\x00\x00\x00\x00\x00\x00\x00\x00\x00\x00\x00\x00\x00\x00\x00\x00\x00\x00\x00\x00\x00\x00\xf0?\x00\x00\x00\x00\x00\x00\xf0?'
p1091
tp1092
bsg156
I01
sg51
g7
sbsg52
(dp1093
I140137016273808
g1066
ssg51
g7
sbsg243
I2
sg244
g0
(g157
g2
Ntp1094
Rp1095
(dp1096
g49
I2
sg50
Nsg120
g132
(g133
(I0
tp1097
g135
tp1098
Rp1099
(I1
(I3
I3
tp1100
g59
I00
S'\x00\x00\x00\x00\x00\x00\xf0?\x00\x00\x00\x00\x00\x00\x00\x00\x00\x00\x00\x00\x00\x00\x00\x00\x00\x00\x00\x00\x00\x00\x00\x00\x00\x00\x00\x00\x00\x00\xf0?\x00\x00\x00\x00\x00\x00\x00\x00\x00\x00\x00\x00\x00\x00\x00\x00\x00\x00\x00\x00\x00\x00\x00\x00\x00\x00\x00\x00\x00\x00\xf0?'
p1101
tp1102
bsg51
g7
sg52
(dp1103
I140137016273808
g1066
ssbsg52
(dp1104
I140137016273552
g1063
ssg51
g7
sbsg243
I2
sg244
g246
sg52
(dp1105
I140137016271440
g0
(g122
g2
Ntp1106
Rp1107
(dp1108
g49
I2
sg126
g0
(g127
g2
Ntp1109
Rp1110
(dp1111
g49
I1
sg131
g132
(g133
(I0
tp1112
g135
tp1113
Rp1114
(I1
(I2
tp1115
g59
I00
S'\x00\x00\x00\x00\x00\x00\xf0\x7f\x00\x00\x00\x00\x00\x00\xf0\x7f'
p1116
tp1117
bsg52
(dp1118
I140137016271440
g1107
ssg142
g132
(g133
(I0
tp1119
g135
tp1120
Rp1121
(I1
(I2
I2
tp1122
g59
I00
S'\x00\x00\x00\x00\x00\x00\x00\x00\x00\x00\x00\x00\x00\x00\x00\x00\x00\x00\x00\x00\x00\x00\xf0?\x00\x00\x00\x00\x00\x00\xf0?'
p1123
tp1124
bsg149
g132
(g133
(I0
tp1125
g135
tp1126
Rp1127
(I1
(I2
I2
tp1128
g59
I00
S'\x00\x00\x00\x00\x00\x00\x00\x00\x00\x00\x00\x00\x00\x00\x00\x00\x00\x00\x00\x00\x00\x00\xf0?\x00\x00\x00\x00\x00\x00\xf0?'
p1129
tp1130
bsg156
I01
sg51
g7
sbsg115
g1063
sg149
Nsg52
(dp1131
sg51
g7
sbssg51
g7
sbsI140137017268944
g0
(g176
g2
Ntp1132
Rp1133
(dp1134
g49
I2
sg180
I2
sg181
g0
(g176
g2
Ntp1135
Rp1136
(dp1137
g49
I1
sg180
I2
sg181
g0
(g116
g2
Ntp1138
Rp1139
(dp1140
g49
I1
sg120
Nsg50
Nsg121
g0
(g127
g2
Ntp1141
Rp1142
(dp1143
g49
I1
sg131
g132
(g133
(I0
tp1144
g135
tp1145
Rp1146
(I1
(I2
tp1147
g59
I00
S'\x00\x00\x00\x00\x00\x00\xf0\x7f\x00\x00\x00\x00\x00\x00\xf0\x7f'
p1148
tp1149
bsg52
(dp1150
I140137017267280
g1139
ssg142
g132
(g133
(I0
tp1151
g135
tp1152
Rp1153
(I1
(I2
I2
tp1154
g59
I00
S'\x00\x00\x00\x00\x00\x00\x00\x00\x00\x00\x00\x00\x00\x00\x00\x00\x00\x00\x00\x00\x00\x00\xf0?\x00\x00\x00\x00\x00\x00\xf0?'
p1155
tp1156
bsg149
g132
(g133
(I0
tp1157
g135
tp1158
Rp1159
(I1
(I2
I2
tp1160
g59
I00
S'\x00\x00\x00\x00\x00\x00\x00\x00\x00\x00\x00\x00\x00\x00\x00\x00\x00\x00\x00\x00\x00\x00\xf0?\x00\x00\x00\x00\x00\x00\xf0?'
p1161
tp1162
bsg156
I01
sg51
g7
sbsg52
(dp1163
I140137017266896
g1136
ssg51
g7
sbsg243
I2
sg244
g0
(g157
g2
Ntp1164
Rp1165
(dp1166
g49
I2
sg50
Nsg120
g132
(g133
(I0
tp1167
g135
tp1168
Rp1169
(I1
(I3
I3
tp1170
g59
I00
S'\x00\x00\x00\x00\x00\x00\xf0?\x00\x00\x00\x00\x00\x00\x00\x00\x00\x00\x00\x00\x00\x00\x00\x00\x00\x00\x00\x00\x00\x00\x00\x00\x00\x00\x00\x00\x00\x00\xf0?\x00\x00\x00\x00\x00\x00\x00\x00\x00\x00\x00\x00\x00\x00\x00\x00\x00\x00\x00\x00\x00\x00\x00\x00\x00\x00\x00\x00\x00\x00\xf0?'
p1171
tp1172
bsg51
g7
sg52
(dp1173
I140137017266896
g1136
ssbsg52
(dp1174
I140137017268944
g1133
ssg51
g7
sbsg243
I2
sg244
g246
sg52
(dp1175
I140137017269008
g0
(g122
g2
Ntp1176
Rp1177
(dp1178
g49
I2
sg126
g0
(g127
g2
Ntp1179
Rp1180
(dp1181
g49
I1
sg131
g132
(g133
(I0
tp1182
g135
tp1183
Rp1184
(I1
(I2
tp1185
g59
I00
S'\x00\x00\x00\x00\x00\x00\xf0\x7f\x00\x00\x00\x00\x00\x00\xf0\x7f'
p1186
tp1187
bsg52
(dp1188
I140137017269008
g1177
ssg142
g132
(g133
(I0
tp1189
g135
tp1190
Rp1191
(I1
(I2
I2
tp1192
g59
I00
S'\x00\x00\x00\x00\x00\x00\x00\x00\x00\x00\x00\x00\x00\x00\x00\x00\x00\x00\x00\x00\x00\x00\xf0?\x00\x00\x00\x00\x00\x00\xf0?'
p1193
tp1194
bsg149
g132
(g133
(I0
tp1195
g135
tp1196
Rp1197
(I1
(I2
I2
tp1198
g59
I00
S'\x00\x00\x00\x00\x00\x00\x00\x00\x00\x00\x00\x00\x00\x00\x00\x00\x00\x00\x00\x00\x00\x00\xf0?\x00\x00\x00\x00\x00\x00\xf0?'
p1199
tp1200
bsg156
I01
sg51
g7
sbsg115
g1133
sg149
Nsg52
(dp1201
sg51
g7
sbssg51
g7
sbsI140137018157840
g0
(g176
g2
Ntp1202
Rp1203
(dp1204
g49
I2
sg180
I2
sg181
g0
(g176
g2
Ntp1205
Rp1206
(dp1207
g49
I1
sg180
I2
sg181
g0
(g116
g2
Ntp1208
Rp1209
(dp1210
g49
I1
sg120
Nsg50
Nsg121
g0
(g127
g2
Ntp1211
Rp1212
(dp1213
g49
I1
sg131
g132
(g133
(I0
tp1214
g135
tp1215
Rp1216
(I1
(I2
tp1217
g59
I00
S'\x00\x00\x00\x00\x00\x00\xf0\x7f\x00\x00\x00\x00\x00\x00\xf0\x7f'
p1218
tp1219
bsg52
(dp1220
I140137010974288
g1209
ssg142
g132
(g133
(I0
tp1221
g135
tp1222
Rp1223
(I1
(I2
I2
tp1224
g59
I00
S'\x00\x00\x00\x00\x00\x00\x00\x00\x00\x00\x00\x00\x00\x00\x00\x00\x00\x00\x00\x00\x00\x00\xf0?\x00\x00\x00\x00\x00\x00\xf0?'
p1225
tp1226
bsg149
g132
(g133
(I0
tp1227
g135
tp1228
Rp1229
(I1
(I2
I2
tp1230
g59
I00
S'\x00\x00\x00\x00\x00\x00\x00\x00\x00\x00\x00\x00\x00\x00\x00\x00\x00\x00\x00\x00\x00\x00\xf0?\x00\x00\x00\x00\x00\x00\xf0?'
p1231
tp1232
bsg156
I01
sg51
g7
sbsg52
(dp1233
I140137010972880
g1206
ssg51
g7
sbsg243
I2
sg244
g0
(g157
g2
Ntp1234
Rp1235
(dp1236
g49
I2
sg50
Nsg120
g132
(g133
(I0
tp1237
g135
tp1238
Rp1239
(I1
(I3
I3
tp1240
g59
I00
S'\x00\x00\x00\x00\x00\x00\xf0?\x00\x00\x00\x00\x00\x00\x00\x00\x00\x00\x00\x00\x00\x00\x00\x00\x00\x00\x00\x00\x00\x00\x00\x00\x00\x00\x00\x00\x00\x00\xf0?\x00\x00\x00\x00\x00\x00\x00\x00\x00\x00\x00\x00\x00\x00\x00\x00\x00\x00\x00\x00\x00\x00\x00\x00\x00\x00\x00\x00\x00\x00\xf0?'
p1241
tp1242
bsg51
g7
sg52
(dp1243
I140137010972880
g1206
ssbsg52
(dp1244
I140137018157840
g1203
ssg51
g7
sbsg243
I2
sg244
g246
sg52
(dp1245
I140137018155984
g0
(g122
g2
Ntp1246
Rp1247
(dp1248
g49
I2
sg126
g0
(g127
g2
Ntp1249
Rp1250
(dp1251
g49
I1
sg131
g132
(g133
(I0
tp1252
g135
tp1253
Rp1254
(I1
(I2
tp1255
g59
I00
S'\x00\x00\x00\x00\x00\x00\xf0\x7f\x00\x00\x00\x00\x00\x00\xf0\x7f'
p1256
tp1257
bsg52
(dp1258
I140137018155984
g1247
ssg142
g132
(g133
(I0
tp1259
g135
tp1260
Rp1261
(I1
(I2
I2
tp1262
g59
I00
S'\x00\x00\x00\x00\x00\x00\x00\x00\x00\x00\x00\x00\x00\x00\x00\x00\x00\x00\x00\x00\x00\x00\xf0?\x00\x00\x00\x00\x00\x00\xf0?'
p1263
tp1264
bsg149
g132
(g133
(I0
tp1265
g135
tp1266
Rp1267
(I1
(I2
I2
tp1268
g59
I00
S'\x00\x00\x00\x00\x00\x00\x00\x00\x00\x00\x00\x00\x00\x00\x00\x00\x00\x00\x00\x00\x00\x00\xf0?\x00\x00\x00\x00\x00\x00\xf0?'
p1269
tp1270
bsg156
I01
sg51
g7
sbsg115
g1203
sg149
Nsg52
(dp1271
sg51
g7
sbssg51
g7
sbsI140137011693072
g0
(g176
g2
Ntp1272
Rp1273
(dp1274
g49
I2
sg180
I2
sg181
g0
(g176
g2
Ntp1275
Rp1276
(dp1277
g49
I1
sg180
I2
sg181
g0
(g116
g2
Ntp1278
Rp1279
(dp1280
g49
I1
sg120
Nsg50
Nsg121
g0
(g127
g2
Ntp1281
Rp1282
(dp1283
g49
I1
sg131
g132
(g133
(I0
tp1284
g135
tp1285
Rp1286
(I1
(I2
tp1287
g59
I00
S'\x00\x00\x00\x00\x00\x00\xf0\x7f\x00\x00\x00\x00\x00\x00\xf0\x7f'
p1288
tp1289
bsg52
(dp1290
I140137011694992
g1279
ssg142
g132
(g133
(I0
tp1291
g135
tp1292
Rp1293
(I1
(I2
I2
tp1294
g59
I00
S'\x00\x00\x00\x00\x00\x00\x00\x00\x00\x00\x00\x00\x00\x00\x00\x00\x00\x00\x00\x00\x00\x00\xf0?\x00\x00\x00\x00\x00\x00\xf0?'
p1295
tp1296
bsg149
g132
(g133
(I0
tp1297
g135
tp1298
Rp1299
(I1
(I2
I2
tp1300
g59
I00
S'\x00\x00\x00\x00\x00\x00\x00\x00\x00\x00\x00\x00\x00\x00\x00\x00\x00\x00\x00\x00\x00\x00\xf0?\x00\x00\x00\x00\x00\x00\xf0?'
p1301
tp1302
bsg156
I01
sg51
g7
sbsg52
(dp1303
I140137011694224
g1276
ssg51
g7
sbsg243
I2
sg244
g0
(g157
g2
Ntp1304
Rp1305
(dp1306
g49
I2
sg50
Nsg120
g132
(g133
(I0
tp1307
g135
tp1308
Rp1309
(I1
(I3
I3
tp1310
g59
I00
S'\x00\x00\x00\x00\x00\x00\xf0?\x00\x00\x00\x00\x00\x00\x00\x00\x00\x00\x00\x00\x00\x00\x00\x00\x00\x00\x00\x00\x00\x00\x00\x00\x00\x00\x00\x00\x00\x00\xf0?\x00\x00\x00\x00\x00\x00\x00\x00\x00\x00\x00\x00\x00\x00\x00\x00\x00\x00\x00\x00\x00\x00\x00\x00\x00\x00\x00\x00\x00\x00\xf0?'
p1311
tp1312
bsg51
g7
sg52
(dp1313
I140137011694224
g1276
ssbsg52
(dp1314
I140137011693072
g1273
ssg51
g7
sbsg243
I2
sg244
g246
sg52
(dp1315
I140137011694416
g0
(g122
g2
Ntp1316
Rp1317
(dp1318
g49
I2
sg126
g0
(g127
g2
Ntp1319
Rp1320
(dp1321
g49
I1
sg131
g132
(g133
(I0
tp1322
g135
tp1323
Rp1324
(I1
(I2
tp1325
g59
I00
S'\x00\x00\x00\x00\x00\x00\xf0\x7f\x00\x00\x00\x00\x00\x00\xf0\x7f'
p1326
tp1327
bsg52
(dp1328
I140137011694416
g1317
ssg142
g132
(g133
(I0
tp1329
g135
tp1330
Rp1331
(I1
(I2
I2
tp1332
g59
I00
S'\x00\x00\x00\x00\x00\x00\x00\x00\x00\x00\x00\x00\x00\x00\x00\x00\x00\x00\x00\x00\x00\x00\xf0?\x00\x00\x00\x00\x00\x00\xf0?'
p1333
tp1334
bsg149
g132
(g133
(I0
tp1335
g135
tp1336
Rp1337
(I1
(I2
I2
tp1338
g59
I00
S'\x00\x00\x00\x00\x00\x00\x00\x00\x00\x00\x00\x00\x00\x00\x00\x00\x00\x00\x00\x00\x00\x00\xf0?\x00\x00\x00\x00\x00\x00\xf0?'
p1339
tp1340
bsg156
I01
sg51
g7
sbsg115
g1273
sg149
Nsg52
(dp1341
sg51
g7
sbssg51
g7
sbsI140137011694544
g0
(g176
g2
Ntp1342
Rp1343
(dp1344
g49
I2
sg180
I2
sg181
g0
(g176
g2
Ntp1345
Rp1346
(dp1347
g49
I1
sg180
I2
sg181
g0
(g116
g2
Ntp1348
Rp1349
(dp1350
g49
I1
sg120
Nsg50
Nsg121
g0
(g127
g2
Ntp1351
Rp1352
(dp1353
g49
I1
sg131
g132
(g133
(I0
tp1354
g135
tp1355
Rp1356
(I1
(I2
tp1357
g59
I00
S'\x00\x00\x00\x00\x00\x00\xf0\x7f\x00\x00\x00\x00\x00\x00\xf0\x7f'
p1358
tp1359
bsg52
(dp1360
I140137011692496
g1349
ssg142
g132
(g133
(I0
tp1361
g135
tp1362
Rp1363
(I1
(I2
I2
tp1364
g59
I00
S'\x00\x00\x00\x00\x00\x00\x00\x00\x00\x00\x00\x00\x00\x00\x00\x00\x00\x00\x00\x00\x00\x00\xf0?\x00\x00\x00\x00\x00\x00\xf0?'
p1365
tp1366
bsg149
g132
(g133
(I0
tp1367
g135
tp1368
Rp1369
(I1
(I2
I2
tp1370
g59
I00
S'\x00\x00\x00\x00\x00\x00\x00\x00\x00\x00\x00\x00\x00\x00\x00\x00\x00\x00\x00\x00\x00\x00\xf0?\x00\x00\x00\x00\x00\x00\xf0?'
p1371
tp1372
bsg156
I01
sg51
g7
sbsg52
(dp1373
I140137011695056
g1346
ssg51
g7
sbsg243
I2
sg244
g0
(g157
g2
Ntp1374
Rp1375
(dp1376
g49
I2
sg50
Nsg120
g132
(g133
(I0
tp1377
g135
tp1378
Rp1379
(I1
(I3
I3
tp1380
g59
I00
S'\x00\x00\x00\x00\x00\x00\xf0?\x00\x00\x00\x00\x00\x00\x00\x00\x00\x00\x00\x00\x00\x00\x00\x00\x00\x00\x00\x00\x00\x00\x00\x00\x00\x00\x00\x00\x00\x00\xf0?\x00\x00\x00\x00\x00\x00\x00\x00\x00\x00\x00\x00\x00\x00\x00\x00\x00\x00\x00\x00\x00\x00\x00\x00\x00\x00\x00\x00\x00\x00\xf0?'
p1381
tp1382
bsg51
g7
sg52
(dp1383
I140137011695056
g1346
ssbsg52
(dp1384
I140137011694544
g1343
ssg51
g7
sbsg243
I2
sg244
g246
sg52
(dp1385
I140137011692240
g0
(g122
g2
Ntp1386
Rp1387
(dp1388
g49
I2
sg126
g0
(g127
g2
Ntp1389
Rp1390
(dp1391
g49
I1
sg131
g132
(g133
(I0
tp1392
g135
tp1393
Rp1394
(I1
(I2
tp1395
g59
I00
S'\x00\x00\x00\x00\x00\x00\xf0\x7f\x00\x00\x00\x00\x00\x00\xf0\x7f'
p1396
tp1397
bsg52
(dp1398
I140137011692240
g1387
ssg142
g132
(g133
(I0
tp1399
g135
tp1400
Rp1401
(I1
(I2
I2
tp1402
g59
I00
S'\x00\x00\x00\x00\x00\x00\x00\x00\x00\x00\x00\x00\x00\x00\x00\x00\x00\x00\x00\x00\x00\x00\xf0?\x00\x00\x00\x00\x00\x00\xf0?'
p1403
tp1404
bsg149
g132
(g133
(I0
tp1405
g135
tp1406
Rp1407
(I1
(I2
I2
tp1408
g59
I00
S'\x00\x00\x00\x00\x00\x00\x00\x00\x00\x00\x00\x00\x00\x00\x00\x00\x00\x00\x00\x00\x00\x00\xf0?\x00\x00\x00\x00\x00\x00\xf0?'
p1409
tp1410
bsg156
I01
sg51
g7
sbsg115
g1343
sg149
Nsg52
(dp1411
sg51
g7
sbssg51
g7
sbsI140137011695568
g0
(g176
g2
Ntp1412
Rp1413
(dp1414
g49
I2
sg180
I2
sg181
g0
(g176
g2
Ntp1415
Rp1416
(dp1417
g49
I1
sg180
I2
sg181
g0
(g116
g2
Ntp1418
Rp1419
(dp1420
g49
I1
sg120
Nsg50
Nsg121
g0
(g127
g2
Ntp1421
Rp1422
(dp1423
g49
I1
sg131
g132
(g133
(I0
tp1424
g135
tp1425
Rp1426
(I1
(I2
tp1427
g59
I00
S'\x00\x00\x00\x00\x00\x00\xf0\x7f\x00\x00\x00\x00\x00\x00\xf0\x7f'
p1428
tp1429
bsg52
(dp1430
I140137011695312
g1419
ssg142
g132
(g133
(I0
tp1431
g135
tp1432
Rp1433
(I1
(I2
I2
tp1434
g59
I00
S'\x00\x00\x00\x00\x00\x00\x00\x00\x00\x00\x00\x00\x00\x00\x00\x00\x00\x00\x00\x00\x00\x00\xf0?\x00\x00\x00\x00\x00\x00\xf0?'
p1435
tp1436
bsg149
g132
(g133
(I0
tp1437
g135
tp1438
Rp1439
(I1
(I2
I2
tp1440
g59
I00
S'\x00\x00\x00\x00\x00\x00\x00\x00\x00\x00\x00\x00\x00\x00\x00\x00\x00\x00\x00\x00\x00\x00\xf0?\x00\x00\x00\x00\x00\x00\xf0?'
p1441
tp1442
bsg156
I01
sg51
g7
sbsg52
(dp1443
I140137011691600
g1416
ssg51
g7
sbsg243
I2
sg244
g0
(g157
g2
Ntp1444
Rp1445
(dp1446
g49
I2
sg50
Nsg120
g132
(g133
(I0
tp1447
g135
tp1448
Rp1449
(I1
(I3
I3
tp1450
g59
I00
S'\x00\x00\x00\x00\x00\x00\xf0?\x00\x00\x00\x00\x00\x00\x00\x00\x00\x00\x00\x00\x00\x00\x00\x00\x00\x00\x00\x00\x00\x00\x00\x00\x00\x00\x00\x00\x00\x00\xf0?\x00\x00\x00\x00\x00\x00\x00\x00\x00\x00\x00\x00\x00\x00\x00\x00\x00\x00\x00\x00\x00\x00\x00\x00\x00\x00\x00\x00\x00\x00\xf0?'
p1451
tp1452
bsg51
g7
sg52
(dp1453
I140137011691600
g1416
ssbsg52
(dp1454
I140137011695568
g1413
ssg51
g7
sbsg243
I2
sg244
g246
sg52
(dp1455
I140137011692624
g0
(g122
g2
Ntp1456
Rp1457
(dp1458
g49
I2
sg126
g0
(g127
g2
Ntp1459
Rp1460
(dp1461
g49
I1
sg131
g132
(g133
(I0
tp1462
g135
tp1463
Rp1464
(I1
(I2
tp1465
g59
I00
S'\x00\x00\x00\x00\x00\x00\xf0\x7f\x00\x00\x00\x00\x00\x00\xf0\x7f'
p1466
tp1467
bsg52
(dp1468
I140137011692624
g1457
ssg142
g132
(g133
(I0
tp1469
g135
tp1470
Rp1471
(I1
(I2
I2
tp1472
g59
I00
S'\x00\x00\x00\x00\x00\x00\x00\x00\x00\x00\x00\x00\x00\x00\x00\x00\x00\x00\x00\x00\x00\x00\xf0?\x00\x00\x00\x00\x00\x00\xf0?'
p1473
tp1474
bsg149
g132
(g133
(I0
tp1475
g135
tp1476
Rp1477
(I1
(I2
I2
tp1478
g59
I00
S'\x00\x00\x00\x00\x00\x00\x00\x00\x00\x00\x00\x00\x00\x00\x00\x00\x00\x00\x00\x00\x00\x00\xf0?\x00\x00\x00\x00\x00\x00\xf0?'
p1479
tp1480
bsg156
I01
sg51
g7
sbsg115
g1413
sg149
Nsg52
(dp1481
sg51
g7
sbssg51
g7
sbsI140137017643472
g0
(cmatplotlib.transforms
BlendedAffine2D
p1482
g2
Ntp1483
Rp1484
(dp1485
g49
I2
sg120
Nsg75
g0
(g45
g2
Ntp1486
Rp1487
(dp1488
g49
I1
sg50
Nsg51
g7
sg52
(dp1489
I140137017643472
g1484
ssbsg76
g246
sg50
Nsg51
g7
sg52
(dp1490
sbsI140137015909520
g0
(g182
g2
Ntp1491
Rp1492
(dp1493
g49
I2
sg75
g246
sg76
g187
sS'_affine'
p1494
Nsg52
(dp1495
I140137016163984
g0
(g176
g2
Ntp1496
Rp1497
(dp1498
g49
I2
sg180
I2
sg181
g1492
sg243
I2
sg244
g0
(g168
g2
Ntp1499
Rp1500
(dp1501
g49
I1
sg120
Nsg172
g159
sg50
Nsg173
(I0
F-0.04722222222222222
tp1502
sg51
g7
sg52
(dp1503
I140137016163984
g1497
ssbsg52
(dp1504
sg51
g7
sbsI140137017645136
g0
(g176
g2
Ntp1505
Rp1506
(dp1507
g49
I2
sg180
I2
sg181
g1492
sg243
I2
sg244
g0
(g168
g2
Ntp1508
Rp1509
(dp1510
g49
I1
sg120
Nsg172
g159
sg50
Nsg173
(I0
F-0.04722222222222222
tp1511
sg51
g7
sg52
(dp1512
I140137017645136
g1506
ssbsg52
(dp1513
sg51
g7
sbsI140137016162512
g0
(g176
g2
Ntp1514
Rp1515
(dp1516
g49
I2
sg180
I2
sg181
g1492
sg243
I2
sg244
g0
(g168
g2
Ntp1517
Rp1518
(dp1519
g49
I1
sg120
Nsg172
g159
sg50
Nsg173
(I0
F0.04722222222222222
tp1520
sg51
g7
sg52
(dp1521
I140137016162512
g1515
ssbsg52
(dp1522
sg51
g7
sbsI140137588742736
g0
(g176
g2
Ntp1523
Rp1524
(dp1525
g49
I2
sg180
I2
sg181
g1492
sg243
I2
sg244
g0
(g168
g2
Ntp1526
Rp1527
(dp1528
g49
I1
sg120
Nsg172
g159
sg50
Nsg173
(I0
F-0.04861111111111111
tp1529
sg51
g7
sg52
(dp1530
I140137588742736
g1524
ssbsg52
(dp1531
sg51
g7
sbsI140137588743632
g0
(g176
g2
Ntp1532
Rp1533
(dp1534
g49
I2
sg180
I2
sg181
g1492
sg243
I2
sg244
g0
(g168
g2
Ntp1535
Rp1536
(dp1537
g49
I1
sg120
Nsg172
g159
sg50
Nsg173
(I0
F0.04861111111111111
tp1538
sg51
g7
sg52
(dp1539
I140137588743632
g1533
ssbsg52
(dp1540
sg51
g7
sbsI140137598042704
g0
(g176
g2
Ntp1541
Rp1542
(dp1543
g49
I2
sg180
I2
sg181
g1492
sg243
I2
sg244
g0
(g168
g2
Ntp1544
Rp1545
(dp1546
g49
I1
sg120
Nsg172
g159
sg50
Nsg173
(I0
F0.04722222222222222
tp1547
sg51
g7
sg52
(dp1548
I140137598042704
g1542
ssbsg52
(dp1549
sg51
g7
sbssg51
g7
sbsI140137011567888
g0
(g176
g2
Ntp1550
Rp1551
(dp1552
g49
I2
sg180
I2
sg181
g0
(g176
g2
Ntp1553
Rp1554
(dp1555
g49
I1
sg180
I2
sg181
g0
(g116
g2
Ntp1556
Rp1557
(dp1558
g49
I1
sg120
Nsg50
Nsg121
g0
(g127
g2
Ntp1559
Rp1560
(dp1561
g49
I1
sg131
g132
(g133
(I0
tp1562
g135
tp1563
Rp1564
(I1
(I2
tp1565
g59
I00
S'\x00\x00\x00\x00\x00\x00\xf0\x7f\x00\x00\x00\x00\x00\x00\xf0\x7f'
p1566
tp1567
bsg52
(dp1568
I140137011565520
g1557
ssg142
g132
(g133
(I0
tp1569
g135
tp1570
Rp1571
(I1
(I2
I2
tp1572
g59
I00
S'\x00\x00\x00\x00\x00\x00\x00\x00\x00\x00\x00\x00\x00\x00\x00\x00\x00\x00\x00\x00\x00\x00\xf0?\x00\x00\x00\x00\x00\x00\xf0?'
p1573
tp1574
bsg149
g132
(g133
(I0
tp1575
g135
tp1576
Rp1577
(I1
(I2
I2
tp1578
g59
I00
S'\x00\x00\x00\x00\x00\x00\x00\x00\x00\x00\x00\x00\x00\x00\x00\x00\x00\x00\x00\x00\x00\x00\xf0?\x00\x00\x00\x00\x00\x00\xf0?'
p1579
tp1580
bsg156
I01
sg51
g7
sbsg52
(dp1581
I140137011566288
g1554
ssg51
g7
sbsg243
I2
sg244
g0
(g157
g2
Ntp1582
Rp1583
(dp1584
g49
I2
sg50
Nsg120
g132
(g133
(I0
tp1585
g135
tp1586
Rp1587
(I1
(I3
I3
tp1588
g59
I00
S'\x00\x00\x00\x00\x00\x00\xf0?\x00\x00\x00\x00\x00\x00\x00\x00\x00\x00\x00\x00\x00\x00\x00\x00\x00\x00\x00\x00\x00\x00\x00\x00\x00\x00\x00\x00\x00\x00\xf0?\x00\x00\x00\x00\x00\x00\x00\x00\x00\x00\x00\x00\x00\x00\x00\x00\x00\x00\x00\x00\x00\x00\x00\x00\x00\x00\x00\x00\x00\x00\xf0?'
p1589
tp1590
bsg51
g7
sg52
(dp1591
I140137011566288
g1554
ssbsg52
(dp1592
I140137011567888
g1551
ssg51
g7
sbsg243
I2
sg244
g246
sg52
(dp1593
I140137011694608
g0
(g122
g2
Ntp1594
Rp1595
(dp1596
g49
I2
sg126
g0
(g127
g2
Ntp1597
Rp1598
(dp1599
g49
I1
sg131
g132
(g133
(I0
tp1600
g135
tp1601
Rp1602
(I1
(I2
tp1603
g59
I00
S'\x00\x00\x00\x00\x00\x00\xf0\x7f\x00\x00\x00\x00\x00\x00\xf0\x7f'
p1604
tp1605
bsg52
(dp1606
I140137011694608
g1595
ssg142
g132
(g133
(I0
tp1607
g135
tp1608
Rp1609
(I1
(I2
I2
tp1610
g59
I00
S'\x00\x00\x00\x00\x00\x00\x00\x00\x00\x00\x00\x00\x00\x00\x00\x00\x00\x00\x00\x00\x00\x00\xf0?\x00\x00\x00\x00\x00\x00\xf0?'
p1611
tp1612
bsg149
g132
(g133
(I0
tp1613
g135
tp1614
Rp1615
(I1
(I2
I2
tp1616
g59
I00
S'\x00\x00\x00\x00\x00\x00\x00\x00\x00\x00\x00\x00\x00\x00\x00\x00\x00\x00\x00\x00\x00\x00\xf0?\x00\x00\x00\x00\x00\x00\xf0?'
p1617
tp1618
bsg156
I01
sg51
g7
sbsg115
g1551
sg149
Nsg52
(dp1619
sg51
g7
sbssg51
g7
sbsI140137018070864
g0
(g176
g2
Ntp1620
Rp1621
(dp1622
g49
I2
sg180
I2
sg181
g0
(g176
g2
Ntp1623
Rp1624
(dp1625
g49
I1
sg180
I2
sg181
g0
(g116
g2
Ntp1626
Rp1627
(dp1628
g49
I1
sg120
Nsg50
Nsg121
g0
(g127
g2
Ntp1629
Rp1630
(dp1631
g49
I1
sg131
g132
(g133
(I0
tp1632
g135
tp1633
Rp1634
(I1
(I2
tp1635
g59
I00
S'\x00\x00\x00\x00\x00\x00\xf0\x7f\x00\x00\x00\x00\x00\x00\xf0\x7f'
p1636
tp1637
bsg52
(dp1638
I140137018071568
g1627
ssg142
g132
(g133
(I0
tp1639
g135
tp1640
Rp1641
(I1
(I2
I2
tp1642
g59
I00
S'\x00\x00\x00\x00\x00\x00\x00\x00\x00\x00\x00\x00\x00\x00\x00\x00\x00\x00\x00\x00\x00\x00\xf0?\x00\x00\x00\x00\x00\x00\xf0?'
p1643
tp1644
bsg149
g132
(g133
(I0
tp1645
g135
tp1646
Rp1647
(I1
(I2
I2
tp1648
g59
I00
S'\x00\x00\x00\x00\x00\x00\x00\x00\x00\x00\x00\x00\x00\x00\x00\x00\x00\x00\x00\x00\x00\x00\xf0?\x00\x00\x00\x00\x00\x00\xf0?'
p1649
tp1650
bsg156
I01
sg51
g7
sbsg52
(dp1651
I140137018070224
g1624
ssg51
g7
sbsg243
I2
sg244
g0
(g157
g2
Ntp1652
Rp1653
(dp1654
g49
I2
sg50
Nsg120
g132
(g133
(I0
tp1655
g135
tp1656
Rp1657
(I1
(I3
I3
tp1658
g59
I00
S'\x00\x00\x00\x00\x00\x00\xf0?\x00\x00\x00\x00\x00\x00\x00\x00\x00\x00\x00\x00\x00\x00\x00\x00\x00\x00\x00\x00\x00\x00\x00\x00\x00\x00\x00\x00\x00\x00\xf0?\x00\x00\x00\x00\x00\x00\x00\x00\x00\x00\x00\x00\x00\x00\x00\x00\x00\x00\x00\x00\x00\x00\x00\x00\x00\x00\x00\x00\x00\x00\xf0?'
p1659
tp1660
bsg51
g7
sg52
(dp1661
I140137018070224
g1624
ssbsg52
(dp1662
I140137018070864
g1621
ssg51
g7
sbsg243
I2
sg244
g246
sg52
(dp1663
I140137018073040
g0
(g122
g2
Ntp1664
Rp1665
(dp1666
g49
I2
sg126
g0
(g127
g2
Ntp1667
Rp1668
(dp1669
g49
I1
sg131
g132
(g133
(I0
tp1670
g135
tp1671
Rp1672
(I1
(I2
tp1673
g59
I00
S'\x00\x00\x00\x00\x00\x00\xf0\x7f\x00\x00\x00\x00\x00\x00\xf0\x7f'
p1674
tp1675
bsg52
(dp1676
I140137018073040
g1665
ssg142
g132
(g133
(I0
tp1677
g135
tp1678
Rp1679
(I1
(I2
I2
tp1680
g59
I00
S'\x00\x00\x00\x00\x00\x00\x00\x00\x00\x00\x00\x00\x00\x00\x00\x00\x00\x00\x00\x00\x00\x00\xf0?\x00\x00\x00\x00\x00\x00\xf0?'
p1681
tp1682
bsg149
g132
(g133
(I0
tp1683
g135
tp1684
Rp1685
(I1
(I2
I2
tp1686
g59
I00
S'\x00\x00\x00\x00\x00\x00\x00\x00\x00\x00\x00\x00\x00\x00\x00\x00\x00\x00\x00\x00\x00\x00\xf0?\x00\x00\x00\x00\x00\x00\xf0?'
p1687
tp1688
bsg156
I01
sg51
g7
sbsg115
g1621
sg149
Nsg52
(dp1689
sg51
g7
sbssg51
g7
sbsI140137011695504
g0
(g176
g2
Ntp1690
Rp1691
(dp1692
g49
I2
sg180
I2
sg181
g0
(g176
g2
Ntp1693
Rp1694
(dp1695
g49
I1
sg180
I2
sg181
g0
(g116
g2
Ntp1696
Rp1697
(dp1698
g49
I1
sg120
Nsg50
Nsg121
g0
(g127
g2
Ntp1699
Rp1700
(dp1701
g49
I1
sg131
g132
(g133
(I0
tp1702
g135
tp1703
Rp1704
(I1
(I2
tp1705
g59
I00
S'\x00\x00\x00\x00\x00\x00\xf0\x7f\x00\x00\x00\x00\x00\x00\xf0\x7f'
p1706
tp1707
bsg52
(dp1708
I140137011693520
g1697
ssg142
g132
(g133
(I0
tp1709
g135
tp1710
Rp1711
(I1
(I2
I2
tp1712
g59
I00
S'\x00\x00\x00\x00\x00\x00\x00\x00\x00\x00\x00\x00\x00\x00\x00\x00\x00\x00\x00\x00\x00\x00\xf0?\x00\x00\x00\x00\x00\x00\xf0?'
p1713
tp1714
bsg149
g132
(g133
(I0
tp1715
g135
tp1716
Rp1717
(I1
(I2
I2
tp1718
g59
I00
S'\x00\x00\x00\x00\x00\x00\x00\x00\x00\x00\x00\x00\x00\x00\x00\x00\x00\x00\x00\x00\x00\x00\xf0?\x00\x00\x00\x00\x00\x00\xf0?'
p1719
tp1720
bsg156
I01
sg51
g7
sbsg52
(dp1721
I140137011692816
g1694
ssg51
g7
sbsg243
I2
sg244
g0
(g157
g2
Ntp1722
Rp1723
(dp1724
g49
I2
sg50
Nsg120
g132
(g133
(I0
tp1725
g135
tp1726
Rp1727
(I1
(I3
I3
tp1728
g59
I00
S'\x00\x00\x00\x00\x00\x00\xf0?\x00\x00\x00\x00\x00\x00\x00\x00\x00\x00\x00\x00\x00\x00\x00\x00\x00\x00\x00\x00\x00\x00\x00\x00\x00\x00\x00\x00\x00\x00\xf0?\x00\x00\x00\x00\x00\x00\x00\x00\x00\x00\x00\x00\x00\x00\x00\x00\x00\x00\x00\x00\x00\x00\x00\x00\x00\x00\x00\x00\x00\x00\xf0?'
p1729
tp1730
bsg51
g7
sg52
(dp1731
I140137011692816
g1694
ssbsg52
(dp1732
I140137011695504
g1691
ssg51
g7
sbsg243
I2
sg244
g246
sg52
(dp1733
I140137011693648
g0
(g122
g2
Ntp1734
Rp1735
(dp1736
g49
I2
sg126
g0
(g127
g2
Ntp1737
Rp1738
(dp1739
g49
I1
sg131
g132
(g133
(I0
tp1740
g135
tp1741
Rp1742
(I1
(I2
tp1743
g59
I00
S'\x00\x00\x00\x00\x00\x00\xf0\x7f\x00\x00\x00\x00\x00\x00\xf0\x7f'
p1744
tp1745
bsg52
(dp1746
I140137011693648
g1735
ssg142
g132
(g133
(I0
tp1747
g135
tp1748
Rp1749
(I1
(I2
I2
tp1750
g59
I00
S'\x00\x00\x00\x00\x00\x00\x00\x00\x00\x00\x00\x00\x00\x00\x00\x00\x00\x00\x00\x00\x00\x00\xf0?\x00\x00\x00\x00\x00\x00\xf0?'
p1751
tp1752
bsg149
g132
(g133
(I0
tp1753
g135
tp1754
Rp1755
(I1
(I2
I2
tp1756
g59
I00
S'\x00\x00\x00\x00\x00\x00\x00\x00\x00\x00\x00\x00\x00\x00\x00\x00\x00\x00\x00\x00\x00\x00\xf0?\x00\x00\x00\x00\x00\x00\xf0?'
p1757
tp1758
bsg156
I01
sg51
g7
sbsg115
g1691
sg149
Nsg52
(dp1759
sg51
g7
sbssg51
g7
sbsI140137017266640
g0
(g176
g2
Ntp1760
Rp1761
(dp1762
g49
I2
sg180
I2
sg181
g0
(g176
g2
Ntp1763
Rp1764
(dp1765
g49
I1
sg180
I2
sg181
g0
(g116
g2
Ntp1766
Rp1767
(dp1768
g49
I1
sg120
Nsg50
Nsg121
g0
(g127
g2
Ntp1769
Rp1770
(dp1771
g49
I1
sg131
g132
(g133
(I0
tp1772
g135
tp1773
Rp1774
(I1
(I2
tp1775
g59
I00
S'\x00\x00\x00\x00\x00\x00\xf0\x7f\x00\x00\x00\x00\x00\x00\xf0\x7f'
p1776
tp1777
bsg52
(dp1778
I140137017269584
g1767
ssg142
g132
(g133
(I0
tp1779
g135
tp1780
Rp1781
(I1
(I2
I2
tp1782
g59
I00
S'\x00\x00\x00\x00\x00\x00\x00\x00\x00\x00\x00\x00\x00\x00\x00\x00\x00\x00\x00\x00\x00\x00\xf0?\x00\x00\x00\x00\x00\x00\xf0?'
p1783
tp1784
bsg149
g132
(g133
(I0
tp1785
g135
tp1786
Rp1787
(I1
(I2
I2
tp1788
g59
I00
S'\x00\x00\x00\x00\x00\x00\x00\x00\x00\x00\x00\x00\x00\x00\x00\x00\x00\x00\x00\x00\x00\x00\xf0?\x00\x00\x00\x00\x00\x00\xf0?'
p1789
tp1790
bsg156
I01
sg51
g7
sbsg52
(dp1791
I140137017267984
g1764
ssg51
g7
sbsg243
I2
sg244
g0
(g157
g2
Ntp1792
Rp1793
(dp1794
g49
I2
sg50
Nsg120
g132
(g133
(I0
tp1795
g135
tp1796
Rp1797
(I1
(I3
I3
tp1798
g59
I00
S'\x00\x00\x00\x00\x00\x00\xf0?\x00\x00\x00\x00\x00\x00\x00\x00\x00\x00\x00\x00\x00\x00\x00\x00\x00\x00\x00\x00\x00\x00\x00\x00\x00\x00\x00\x00\x00\x00\xf0?\x00\x00\x00\x00\x00\x00\x00\x00\x00\x00\x00\x00\x00\x00\x00\x00\x00\x00\x00\x00\x00\x00\x00\x00\x00\x00\x00\x00\x00\x00\xf0?'
p1799
tp1800
bsg51
g7
sg52
(dp1801
I140137017267984
g1764
ssbsg52
(dp1802
I140137017266640
g1761
ssg51
g7
sbsg243
I2
sg244
g246
sg52
(dp1803
I140137017268816
g0
(g122
g2
Ntp1804
Rp1805
(dp1806
g49
I2
sg126
g0
(g127
g2
Ntp1807
Rp1808
(dp1809
g49
I1
sg131
g132
(g133
(I0
tp1810
g135
tp1811
Rp1812
(I1
(I2
tp1813
g59
I00
S'\x00\x00\x00\x00\x00\x00\xf0\x7f\x00\x00\x00\x00\x00\x00\xf0\x7f'
p1814
tp1815
bsg52
(dp1816
I140137017268816
g1805
ssg142
g132
(g133
(I0
tp1817
g135
tp1818
Rp1819
(I1
(I2
I2
tp1820
g59
I00
S'\x00\x00\x00\x00\x00\x00\x00\x00\x00\x00\x00\x00\x00\x00\x00\x00\x00\x00\x00\x00\x00\x00\xf0?\x00\x00\x00\x00\x00\x00\xf0?'
p1821
tp1822
bsg149
g132
(g133
(I0
tp1823
g135
tp1824
Rp1825
(I1
(I2
I2
tp1826
g59
I00
S'\x00\x00\x00\x00\x00\x00\x00\x00\x00\x00\x00\x00\x00\x00\x00\x00\x00\x00\x00\x00\x00\x00\xf0?\x00\x00\x00\x00\x00\x00\xf0?'
p1827
tp1828
bsg156
I01
sg51
g7
sbsg115
g1761
sg149
Nsg52
(dp1829
sg51
g7
sbssg51
g7
sbsI140137598045968
g0
(g1482
g2
Ntp1830
Rp1831
(dp1832
g49
I2
sg120
Nsg75
g0
(g45
g2
Ntp1833
Rp1834
(dp1835
g49
I1
sg50
Nsg51
g7
sg52
(dp1836
I140137598045968
g1831
ssbsg76
g246
sg50
Nsg51
g7
sg52
(dp1837
sbsI140137016271824
g0
(g176
g2
Ntp1838
Rp1839
(dp1840
g49
I2
sg180
I2
sg181
g0
(g176
g2
Ntp1841
Rp1842
(dp1843
g49
I1
sg180
I2
sg181
g0
(g116
g2
Ntp1844
Rp1845
(dp1846
g49
I1
sg120
Nsg50
Nsg121
g0
(g127
g2
Ntp1847
Rp1848
(dp1849
g49
I1
sg131
g132
(g133
(I0
tp1850
g135
tp1851
Rp1852
(I1
(I2
tp1853
g59
I00
S'\x00\x00\x00\x00\x00\x00\xf0\x7f\x00\x00\x00\x00\x00\x00\xf0\x7f'
p1854
tp1855
bsg52
(dp1856
I140137016274192
g1845
ssg142
g132
(g133
(I0
tp1857
g135
tp1858
Rp1859
(I1
(I2
I2
tp1860
g59
I00
S'\x00\x00\x00\x00\x00\x00\x00\x00\x00\x00\x00\x00\x00\x00\x00\x00\x00\x00\x00\x00\x00\x00\xf0?\x00\x00\x00\x00\x00\x00\xf0?'
p1861
tp1862
bsg149
g132
(g133
(I0
tp1863
g135
tp1864
Rp1865
(I1
(I2
I2
tp1866
g59
I00
S'\x00\x00\x00\x00\x00\x00\x00\x00\x00\x00\x00\x00\x00\x00\x00\x00\x00\x00\x00\x00\x00\x00\xf0?\x00\x00\x00\x00\x00\x00\xf0?'
p1867
tp1868
bsg156
I01
sg51
g7
sbsg52
(dp1869
I140137016274320
g1842
ssg51
g7
sbsg243
I2
sg244
g0
(g157
g2
Ntp1870
Rp1871
(dp1872
g49
I2
sg50
Nsg120
g132
(g133
(I0
tp1873
g135
tp1874
Rp1875
(I1
(I3
I3
tp1876
g59
I00
S'\x00\x00\x00\x00\x00\x00\xf0?\x00\x00\x00\x00\x00\x00\x00\x00\x00\x00\x00\x00\x00\x00\x00\x00\x00\x00\x00\x00\x00\x00\x00\x00\x00\x00\x00\x00\x00\x00\xf0?\x00\x00\x00\x00\x00\x00\x00\x00\x00\x00\x00\x00\x00\x00\x00\x00\x00\x00\x00\x00\x00\x00\x00\x00\x00\x00\x00\x00\x00\x00\xf0?'
p1877
tp1878
bsg51
g7
sg52
(dp1879
I140137016274320
g1842
ssbsg52
(dp1880
I140137016271824
g1839
ssg51
g7
sbsg243
I2
sg244
g246
sg52
(dp1881
I140137016272208
g0
(g122
g2
Ntp1882
Rp1883
(dp1884
g49
I2
sg126
g0
(g127
g2
Ntp1885
Rp1886
(dp1887
g49
I1
sg131
g132
(g133
(I0
tp1888
g135
tp1889
Rp1890
(I1
(I2
tp1891
g59
I00
S'\x00\x00\x00\x00\x00\x00\xf0\x7f\x00\x00\x00\x00\x00\x00\xf0\x7f'
p1892
tp1893
bsg52
(dp1894
I140137016272208
g1883
ssg142
g132
(g133
(I0
tp1895
g135
tp1896
Rp1897
(I1
(I2
I2
tp1898
g59
I00
S'\x00\x00\x00\x00\x00\x00\x00\x00\x00\x00\x00\x00\x00\x00\x00\x00\x00\x00\x00\x00\x00\x00\xf0?\x00\x00\x00\x00\x00\x00\xf0?'
p1899
tp1900
bsg149
g132
(g133
(I0
tp1901
g135
tp1902
Rp1903
(I1
(I2
I2
tp1904
g59
I00
S'\x00\x00\x00\x00\x00\x00\x00\x00\x00\x00\x00\x00\x00\x00\x00\x00\x00\x00\x00\x00\x00\x00\xf0?\x00\x00\x00\x00\x00\x00\xf0?'
p1905
tp1906
bsg156
I01
sg51
g7
sbsg115
g1839
sg149
Nsg52
(dp1907
sg51
g7
sbssg51
g7
sbsI140137010974608
g844
sI140137017270224
g0
(g176
g2
Ntp1908
Rp1909
(dp1910
g49
I2
sg180
I2
sg181
g0
(g176
g2
Ntp1911
Rp1912
(dp1913
g49
I1
sg180
I2
sg181
g0
(g116
g2
Ntp1914
Rp1915
(dp1916
g49
I1
sg120
Nsg50
Nsg121
g0
(g127
g2
Ntp1917
Rp1918
(dp1919
g49
I1
sg131
g132
(g133
(I0
tp1920
g135
tp1921
Rp1922
(I1
(I2
tp1923
g59
I00
S'\x00\x00\x00\x00\x00\x00\xf0\x7f\x00\x00\x00\x00\x00\x00\xf0\x7f'
p1924
tp1925
bsg52
(dp1926
I140137017270160
g1915
ssg142
g132
(g133
(I0
tp1927
g135
tp1928
Rp1929
(I1
(I2
I2
tp1930
g59
I00
S'\x00\x00\x00\x00\x00\x00\x00\x00\x00\x00\x00\x00\x00\x00\x00\x00\x00\x00\x00\x00\x00\x00\xf0?\x00\x00\x00\x00\x00\x00\xf0?'
p1931
tp1932
bsg149
g132
(g133
(I0
tp1933
g135
tp1934
Rp1935
(I1
(I2
I2
tp1936
g59
I00
S'\x00\x00\x00\x00\x00\x00\x00\x00\x00\x00\x00\x00\x00\x00\x00\x00\x00\x00\x00\x00\x00\x00\xf0?\x00\x00\x00\x00\x00\x00\xf0?'
p1937
tp1938
bsg156
I01
sg51
g7
sbsg52
(dp1939
I140137017268688
g1912
ssg51
g7
sbsg243
I2
sg244
g0
(g157
g2
Ntp1940
Rp1941
(dp1942
g49
I2
sg50
Nsg120
g132
(g133
(I0
tp1943
g135
tp1944
Rp1945
(I1
(I3
I3
tp1946
g59
I00
S'\x00\x00\x00\x00\x00\x00\xf0?\x00\x00\x00\x00\x00\x00\x00\x00\x00\x00\x00\x00\x00\x00\x00\x00\x00\x00\x00\x00\x00\x00\x00\x00\x00\x00\x00\x00\x00\x00\xf0?\x00\x00\x00\x00\x00\x00\x00\x00\x00\x00\x00\x00\x00\x00\x00\x00\x00\x00\x00\x00\x00\x00\x00\x00\x00\x00\x00\x00\x00\x00\xf0?'
p1947
tp1948
bsg51
g7
sg52
(dp1949
I140137017268688
g1912
ssbsg52
(dp1950
I140137017270224
g1909
ssg51
g7
sbsg243
I2
sg244
g246
sg52
(dp1951
I140137017268496
g0
(g122
g2
Ntp1952
Rp1953
(dp1954
g49
I2
sg126
g0
(g127
g2
Ntp1955
Rp1956
(dp1957
g49
I1
sg131
g132
(g133
(I0
tp1958
g135
tp1959
Rp1960
(I1
(I2
tp1961
g59
I00
S'\x00\x00\x00\x00\x00\x00\xf0\x7f\x00\x00\x00\x00\x00\x00\xf0\x7f'
p1962
tp1963
bsg52
(dp1964
I140137017268496
g1953
ssg142
g132
(g133
(I0
tp1965
g135
tp1966
Rp1967
(I1
(I2
I2
tp1968
g59
I00
S'\x00\x00\x00\x00\x00\x00\x00\x00\x00\x00\x00\x00\x00\x00\x00\x00\x00\x00\x00\x00\x00\x00\xf0?\x00\x00\x00\x00\x00\x00\xf0?'
p1969
tp1970
bsg149
g132
(g133
(I0
tp1971
g135
tp1972
Rp1973
(I1
(I2
I2
tp1974
g59
I00
S'\x00\x00\x00\x00\x00\x00\x00\x00\x00\x00\x00\x00\x00\x00\x00\x00\x00\x00\x00\x00\x00\x00\xf0?\x00\x00\x00\x00\x00\x00\xf0?'
p1975
tp1976
bsg156
I01
sg51
g7
sbsg115
g1909
sg149
Nsg52
(dp1977
sg51
g7
sbssg51
g7
sbsI140137011179600
g0
(g176
g2
Ntp1978
Rp1979
(dp1980
g49
I2
sg180
I2
sg181
g0
(g176
g2
Ntp1981
Rp1982
(dp1983
g49
I1
sg180
I2
sg181
g0
(g116
g2
Ntp1984
Rp1985
(dp1986
g49
I1
sg120
Nsg50
Nsg121
g0
(g127
g2
Ntp1987
Rp1988
(dp1989
g49
I1
sg131
g132
(g133
(I0
tp1990
g135
tp1991
Rp1992
(I1
(I2
tp1993
g59
I00
S'\x00\x00\x00\x00\x00\x00\xf0\x7f\x00\x00\x00\x00\x00\x00\xf0\x7f'
p1994
tp1995
bsg52
(dp1996
I140137011179856
g1985
ssg142
g132
(g133
(I0
tp1997
g135
tp1998
Rp1999
(I1
(I2
I2
tp2000
g59
I00
S'\x00\x00\x00\x00\x00\x00\x00\x00\x00\x00\x00\x00\x00\x00\x00\x00\x00\x00\x00\x00\x00\x00\xf0?\x00\x00\x00\x00\x00\x00\xf0?'
p2001
tp2002
bsg149
g132
(g133
(I0
tp2003
g135
tp2004
Rp2005
(I1
(I2
I2
tp2006
g59
I00
S'\x00\x00\x00\x00\x00\x00\x00\x00\x00\x00\x00\x00\x00\x00\x00\x00\x00\x00\x00\x00\x00\x00\xf0?\x00\x00\x00\x00\x00\x00\xf0?'
p2007
tp2008
bsg156
I01
sg51
g7
sbsg52
(dp2009
I140137011181520
g1982
ssg51
g7
sbsg243
I2
sg244
g0
(g157
g2
Ntp2010
Rp2011
(dp2012
g49
I2
sg50
Nsg120
g132
(g133
(I0
tp2013
g135
tp2014
Rp2015
(I1
(I3
I3
tp2016
g59
I00
S'\x00\x00\x00\x00\x00\x00\xf0?\x00\x00\x00\x00\x00\x00\x00\x00\x00\x00\x00\x00\x00\x00\x00\x00\x00\x00\x00\x00\x00\x00\x00\x00\x00\x00\x00\x00\x00\x00\xf0?\x00\x00\x00\x00\x00\x00\x00\x00\x00\x00\x00\x00\x00\x00\x00\x00\x00\x00\x00\x00\x00\x00\x00\x00\x00\x00\x00\x00\x00\x00\xf0?'
p2017
tp2018
bsg51
g7
sg52
(dp2019
I140137011181520
g1982
ssbsg52
(dp2020
I140137011179600
g1979
ssg51
g7
sbsg243
I2
sg244
g246
sg52
(dp2021
I140137011181136
g0
(g122
g2
Ntp2022
Rp2023
(dp2024
g49
I2
sg126
g0
(g127
g2
Ntp2025
Rp2026
(dp2027
g49
I1
sg131
g132
(g133
(I0
tp2028
g135
tp2029
Rp2030
(I1
(I2
tp2031
g59
I00
S'\x00\x00\x00\x00\x00\x00\xf0\x7f\x00\x00\x00\x00\x00\x00\xf0\x7f'
p2032
tp2033
bsg52
(dp2034
I140137011181136
g2023
ssg142
g132
(g133
(I0
tp2035
g135
tp2036
Rp2037
(I1
(I2
I2
tp2038
g59
I00
S'\x00\x00\x00\x00\x00\x00\x00\x00\x00\x00\x00\x00\x00\x00\x00\x00\x00\x00\x00\x00\x00\x00\xf0?\x00\x00\x00\x00\x00\x00\xf0?'
p2039
tp2040
bsg149
g132
(g133
(I0
tp2041
g135
tp2042
Rp2043
(I1
(I2
I2
tp2044
g59
I00
S'\x00\x00\x00\x00\x00\x00\x00\x00\x00\x00\x00\x00\x00\x00\x00\x00\x00\x00\x00\x00\x00\x00\xf0?\x00\x00\x00\x00\x00\x00\xf0?'
p2045
tp2046
bsg156
I01
sg51
g7
sbsg115
g1979
sg149
Nsg52
(dp2047
sg51
g7
sbssg51
g7
sbsI140137018069264
g0
(g176
g2
Ntp2048
Rp2049
(dp2050
g49
I2
sg180
I2
sg181
g0
(g176
g2
Ntp2051
Rp2052
(dp2053
g49
I1
sg180
I2
sg181
g0
(g116
g2
Ntp2054
Rp2055
(dp2056
g49
I1
sg120
Nsg50
Nsg121
g0
(g127
g2
Ntp2057
Rp2058
(dp2059
g49
I1
sg131
g132
(g133
(I0
tp2060
g135
tp2061
Rp2062
(I1
(I2
tp2063
g59
I00
S'\x00\x00\x00\x00\x00\x00\xf0\x7f\x00\x00\x00\x00\x00\x00\xf0\x7f'
p2064
tp2065
bsg52
(dp2066
I140137018072336
g2055
ssg142
g132
(g133
(I0
tp2067
g135
tp2068
Rp2069
(I1
(I2
I2
tp2070
g59
I00
S'\x00\x00\x00\x00\x00\x00\x00\x00\x00\x00\x00\x00\x00\x00\x00\x00\x00\x00\x00\x00\x00\x00\xf0?\x00\x00\x00\x00\x00\x00\xf0?'
p2071
tp2072
bsg149
g132
(g133
(I0
tp2073
g135
tp2074
Rp2075
(I1
(I2
I2
tp2076
g59
I00
S'\x00\x00\x00\x00\x00\x00\x00\x00\x00\x00\x00\x00\x00\x00\x00\x00\x00\x00\x00\x00\x00\x00\xf0?\x00\x00\x00\x00\x00\x00\xf0?'
p2077
tp2078
bsg156
I01
sg51
g7
sbsg52
(dp2079
I140137018070160
g2052
ssg51
g7
sbsg243
I2
sg244
g0
(g157
g2
Ntp2080
Rp2081
(dp2082
g49
I2
sg50
Nsg120
g132
(g133
(I0
tp2083
g135
tp2084
Rp2085
(I1
(I3
I3
tp2086
g59
I00
S'\x00\x00\x00\x00\x00\x00\xf0?\x00\x00\x00\x00\x00\x00\x00\x00\x00\x00\x00\x00\x00\x00\x00\x00\x00\x00\x00\x00\x00\x00\x00\x00\x00\x00\x00\x00\x00\x00\xf0?\x00\x00\x00\x00\x00\x00\x00\x00\x00\x00\x00\x00\x00\x00\x00\x00\x00\x00\x00\x00\x00\x00\x00\x00\x00\x00\x00\x00\x00\x00\xf0?'
p2087
tp2088
bsg51
g7
sg52
(dp2089
I140137018070160
g2052
ssbsg52
(dp2090
I140137018069264
g2049
ssg51
g7
sbsg243
I2
sg244
g246
sg52
(dp2091
I140137018071952
g0
(g122
g2
Ntp2092
Rp2093
(dp2094
g49
I2
sg126
g0
(g127
g2
Ntp2095
Rp2096
(dp2097
g49
I1
sg131
g132
(g133
(I0
tp2098
g135
tp2099
Rp2100
(I1
(I2
tp2101
g59
I00
S'\x00\x00\x00\x00\x00\x00\xf0\x7f\x00\x00\x00\x00\x00\x00\xf0\x7f'
p2102
tp2103
bsg52
(dp2104
I140137018071952
g2093
ssg142
g132
(g133
(I0
tp2105
g135
tp2106
Rp2107
(I1
(I2
I2
tp2108
g59
I00
S'\x00\x00\x00\x00\x00\x00\x00\x00\x00\x00\x00\x00\x00\x00\x00\x00\x00\x00\x00\x00\x00\x00\xf0?\x00\x00\x00\x00\x00\x00\xf0?'
p2109
tp2110
bsg149
g132
(g133
(I0
tp2111
g135
tp2112
Rp2113
(I1
(I2
I2
tp2114
g59
I00
S'\x00\x00\x00\x00\x00\x00\x00\x00\x00\x00\x00\x00\x00\x00\x00\x00\x00\x00\x00\x00\x00\x00\xf0?\x00\x00\x00\x00\x00\x00\xf0?'
p2115
tp2116
bsg156
I01
sg51
g7
sbsg115
g2049
sg149
Nsg52
(dp2117
sg51
g7
sbssg51
g7
sbsI140137595146640
g0
(g1482
g2
Ntp2118
Rp2119
(dp2120
g49
I2
sg120
Nsg75
g246
sg76
g0
(g45
g2
Ntp2121
Rp2122
(dp2123
g49
I1
sg50
Nsg51
g7
sg52
(dp2124
I140137595146640
g2119
ssbsg50
Nsg51
g7
sg52
(dp2125
sbsI140137010971088
g848
sI140137018072400
g0
(g176
g2
Ntp2126
Rp2127
(dp2128
g49
I2
sg180
I2
sg181
g0
(g176
g2
Ntp2129
Rp2130
(dp2131
g49
I1
sg180
I2
sg181
g0
(g116
g2
Ntp2132
Rp2133
(dp2134
g49
I1
sg120
Nsg50
Nsg121
g0
(g127
g2
Ntp2135
Rp2136
(dp2137
g49
I1
sg131
g132
(g133
(I0
tp2138
g135
tp2139
Rp2140
(I1
(I2
tp2141
g59
I00
S'\x00\x00\x00\x00\x00\x00\xf0\x7f\x00\x00\x00\x00\x00\x00\xf0\x7f'
p2142
tp2143
bsg52
(dp2144
I140137018071056
g2133
ssg142
g132
(g133
(I0
tp2145
g135
tp2146
Rp2147
(I1
(I2
I2
tp2148
g59
I00
S'\x00\x00\x00\x00\x00\x00\x00\x00\x00\x00\x00\x00\x00\x00\x00\x00\x00\x00\x00\x00\x00\x00\xf0?\x00\x00\x00\x00\x00\x00\xf0?'
p2149
tp2150
bsg149
g132
(g133
(I0
tp2151
g135
tp2152
Rp2153
(I1
(I2
I2
tp2154
g59
I00
S'\x00\x00\x00\x00\x00\x00\x00\x00\x00\x00\x00\x00\x00\x00\x00\x00\x00\x00\x00\x00\x00\x00\xf0?\x00\x00\x00\x00\x00\x00\xf0?'
p2155
tp2156
bsg156
I01
sg51
g7
sbsg52
(dp2157
I140137018072080
g2130
ssg51
g7
sbsg243
I2
sg244
g0
(g157
g2
Ntp2158
Rp2159
(dp2160
g49
I2
sg50
Nsg120
g132
(g133
(I0
tp2161
g135
tp2162
Rp2163
(I1
(I3
I3
tp2164
g59
I00
S'\x00\x00\x00\x00\x00\x00\xf0?\x00\x00\x00\x00\x00\x00\x00\x00\x00\x00\x00\x00\x00\x00\x00\x00\x00\x00\x00\x00\x00\x00\x00\x00\x00\x00\x00\x00\x00\x00\xf0?\x00\x00\x00\x00\x00\x00\x00\x00\x00\x00\x00\x00\x00\x00\x00\x00\x00\x00\x00\x00\x00\x00\x00\x00\x00\x00\x00\x00\x00\x00\xf0?'
p2165
tp2166
bsg51
g7
sg52
(dp2167
I140137018072080
g2130
ssbsg52
(dp2168
I140137018072400
g2127
ssg51
g7
sbsg243
I2
sg244
g246
sg52
(dp2169
I140137018072976
g0
(g122
g2
Ntp2170
Rp2171
(dp2172
g49
I2
sg126
g0
(g127
g2
Ntp2173
Rp2174
(dp2175
g49
I1
sg131
g132
(g133
(I0
tp2176
g135
tp2177
Rp2178
(I1
(I2
tp2179
g59
I00
S'\x00\x00\x00\x00\x00\x00\xf0\x7f\x00\x00\x00\x00\x00\x00\xf0\x7f'
p2180
tp2181
bsg52
(dp2182
I140137018072976
g2171
ssg142
g132
(g133
(I0
tp2183
g135
tp2184
Rp2185
(I1
(I2
I2
tp2186
g59
I00
S'\x00\x00\x00\x00\x00\x00\x00\x00\x00\x00\x00\x00\x00\x00\x00\x00\x00\x00\x00\x00\x00\x00\xf0?\x00\x00\x00\x00\x00\x00\xf0?'
p2187
tp2188
bsg149
g132
(g133
(I0
tp2189
g135
tp2190
Rp2191
(I1
(I2
I2
tp2192
g59
I00
S'\x00\x00\x00\x00\x00\x00\x00\x00\x00\x00\x00\x00\x00\x00\x00\x00\x00\x00\x00\x00\x00\x00\xf0?\x00\x00\x00\x00\x00\x00\xf0?'
p2193
tp2194
bsg156
I01
sg51
g7
sbsg115
g2127
sg149
Nsg52
(dp2195
sg51
g7
sbssg51
g7
sbsI140137017520720
g0
(g176
g2
Ntp2196
Rp2197
(dp2198
g49
I2
sg180
I2
sg181
g0
(g176
g2
Ntp2199
Rp2200
(dp2201
g49
I1
sg180
I2
sg181
g0
(g116
g2
Ntp2202
Rp2203
(dp2204
g49
I1
sg120
Nsg50
Nsg121
g0
(g127
g2
Ntp2205
Rp2206
(dp2207
g49
I1
sg131
g132
(g133
(I0
tp2208
g135
tp2209
Rp2210
(I1
(I2
tp2211
g59
I00
S'\x00\x00\x00\x00\x00\x00\xf0\x7f\x00\x00\x00\x00\x00\x00\xf0\x7f'
p2212
tp2213
bsg52
(dp2214
I140137017522192
g2203
ssg142
g132
(g133
(I0
tp2215
g135
tp2216
Rp2217
(I1
(I2
I2
tp2218
g59
I00
S'\x00\x00\x00\x00\x00\x00\x00\x00\x00\x00\x00\x00\x00\x00\x00\x00\x00\x00\x00\x00\x00\x00\xf0?\x00\x00\x00\x00\x00\x00\xf0?'
p2219
tp2220
bsg149
g132
(g133
(I0
tp2221
g135
tp2222
Rp2223
(I1
(I2
I2
tp2224
g59
I00
S'\x00\x00\x00\x00\x00\x00\x00\x00\x00\x00\x00\x00\x00\x00\x00\x00\x00\x00\x00\x00\x00\x00\xf0?\x00\x00\x00\x00\x00\x00\xf0?'
p2225
tp2226
bsg156
I01
sg51
g7
sbsg52
(dp2227
I140137017520592
g2200
ssg51
g7
sbsg243
I2
sg244
g0
(g157
g2
Ntp2228
Rp2229
(dp2230
g49
I2
sg50
Nsg120
g132
(g133
(I0
tp2231
g135
tp2232
Rp2233
(I1
(I3
I3
tp2234
g59
I00
S'\x00\x00\x00\x00\x00\x00\xf0?\x00\x00\x00\x00\x00\x00\x00\x00\x00\x00\x00\x00\x00\x00\x00\x00\x00\x00\x00\x00\x00\x00\x00\x00\x00\x00\x00\x00\x00\x00\xf0?\x00\x00\x00\x00\x00\x00\x00\x00\x00\x00\x00\x00\x00\x00\x00\x00\x00\x00\x00\x00\x00\x00\x00\x00\x00\x00\x00\x00\x00\x00\xf0?'
p2235
tp2236
bsg51
g7
sg52
(dp2237
I140137017520592
g2200
ssbsg52
(dp2238
I140137017520720
g2197
ssg51
g7
sbsg243
I2
sg244
g246
sg52
(dp2239
I140137017524112
g0
(g122
g2
Ntp2240
Rp2241
(dp2242
g49
I2
sg126
g0
(g127
g2
Ntp2243
Rp2244
(dp2245
g49
I1
sg131
g132
(g133
(I0
tp2246
g135
tp2247
Rp2248
(I1
(I2
tp2249
g59
I00
S'\x00\x00\x00\x00\x00\x00\xf0\x7f\x00\x00\x00\x00\x00\x00\xf0\x7f'
p2250
tp2251
bsg52
(dp2252
I140137017524112
g2241
ssg142
g132
(g133
(I0
tp2253
g135
tp2254
Rp2255
(I1
(I2
I2
tp2256
g59
I00
S'\x00\x00\x00\x00\x00\x00\x00\x00\x00\x00\x00\x00\x00\x00\x00\x00\x00\x00\x00\x00\x00\x00\xf0?\x00\x00\x00\x00\x00\x00\xf0?'
p2257
tp2258
bsg149
g132
(g133
(I0
tp2259
g135
tp2260
Rp2261
(I1
(I2
I2
tp2262
g59
I00
S'\x00\x00\x00\x00\x00\x00\x00\x00\x00\x00\x00\x00\x00\x00\x00\x00\x00\x00\x00\x00\x00\x00\xf0?\x00\x00\x00\x00\x00\x00\xf0?'
p2263
tp2264
bsg156
I01
sg51
g7
sbsg115
g2197
sg149
Nsg52
(dp2265
sg51
g7
sbssg51
g7
sbsI140137017647056
g0
(g1482
g2
Ntp2266
Rp2267
(dp2268
g49
I2
sg120
Nsg75
g0
(g45
g2
Ntp2269
Rp2270
(dp2271
g49
I1
sg50
Nsg51
g7
sg52
(dp2272
I140137017647056
g2267
ssbsg76
g246
sg50
Nsg51
g7
sg52
(dp2273
sbssg51
g7
sbsg52
(dp2274
I140137015906896
g187
ssg51
g7
sbssbssg51
g7
sbsI140137015906896
g187
ssVinput_dims
p2275
I2
sVchild
p2276
g0
(g1482
g2
Ntp2277
Rp2278
(dp2279
g49
I0
sg120
g132
(g133
(I0
tp2280
g135
tp2281
Rp2282
(I1
(I3
I3
tp2283
g59
I00
S'\x00\x00\x00\x00\x00\x00\xf0?\x00\x00\x00\x00\x00\x00\x00\x00\x00\x00\x00\x00\x00\x00\x00\x00\x00\x00\x00\x00\x00\x00\x00\x00\x00\x00\x00\x00\x00\x00\xf0?\x00\x00\x00\x00\x00\x00\x00\x00\x00\x00\x00\x00\x00\x00\x00\x00\x00\x00\x00\x00\x00\x00\x00\x00\x00\x00\x00\x00\x00\x00\xf0?'
p2284
tp2285
bsg75
g0
(g45
g2
Ntp2286
Rp2287
(dp2288
g49
I1
sg50
Nsg51
g7
sg52
(dp2289
I140137010971280
g2278
ssbsg76
g0
(g45
g2
Ntp2290
Rp2291
(dp2292
g49
I1
sg50
Nsg51
g7
sg52
(dp2293
I140137010971280
g2278
ssbsg50
Nsg51
g7
sg52
(dp2294
I140137015907216
g191
ssbsbsg243
I2
sg244
g241
sg52
(dp2295
I140137015907408
g184
sI140137015909520
g1492
ssg51
g7
sbsg76
g246
sg1494
Nsg52
(dp2296
I140137588741904
g0
(g176
g2
Ntp2297
Rp2298
(dp2299
g49
I2
sg180
I2
sg181
g184
sg243
I2
sg244
g0
(g168
g2
Ntp2300
Rp2301
(dp2302
g49
I1
sg120
Nsg172
g159
sg50
Nsg173
(F0.04861111111111111
I0
tp2303
sg51
g7
sg52
(dp2304
I140137588741904
g2298
ssbsg52
(dp2305
sg51
g7
sbsI140137016163600
g0
(g176
g2
Ntp2306
Rp2307
(dp2308
g49
I2
sg180
I2
sg181
g184
sg243
I2
sg244
g0
(g168
g2
Ntp2309
Rp2310
(dp2311
g49
I1
sg120
Nsg172
g159
sg50
Nsg173
(F0.04861111111111111
I0
tp2312
sg51
g7
sg52
(dp2313
I140137016163600
g2307
ssbsg52
(dp2314
sg51
g7
sbsI140137011564752
g0
(g176
g2
Ntp2315
Rp2316
(dp2317
g49
I2
sg180
I2
sg181
g184
sg243
I2
sg244
g0
(g168
g2
Ntp2318
Rp2319
(dp2320
g49
I1
sg120
Nsg172
g159
sg50
Nsg173
(F0.04722222222222222
I0
tp2321
sg51
g7
sg52
(dp2322
I140137011564752
g2316
ssbsg52
(dp2323
sg51
g7
sbsI140137016160528
g178
sI140137011567440
g0
(g176
g2
Ntp2324
Rp2325
(dp2326
g49
I2
sg180
I2
sg181
g184
sg243
I2
sg244
g0
(g168
g2
Ntp2327
Rp2328
(dp2329
g49
I1
sg120
Nsg172
g159
sg50
Nsg173
(F-0.04722222222222222
I0
tp2330
sg51
g7
sg52
(dp2331
I140137011567440
g2325
ssbsg52
(dp2332
sg51
g7
sbsI140137588742544
g0
(g176
g2
Ntp2333
Rp2334
(dp2335
g49
I2
sg180
I2
sg181
g184
sg243
I2
sg244
g0
(g168
g2
Ntp2336
Rp2337
(dp2338
g49
I1
sg120
Nsg172
g159
sg50
Nsg173
(F-0.04861111111111111
I0
tp2339
sg51
g7
sg52
(dp2340
I140137588742544
g2334
ssbsg52
(dp2341
sg51
g7
sbsI140137599373840
g0
(g176
g2
Ntp2342
Rp2343
(dp2344
g49
I2
sg180
I2
sg181
g184
sg243
I2
sg244
g0
(g168
g2
Ntp2345
Rp2346
(dp2347
g49
I1
sg120
Nsg172
g159
sg50
Nsg173
(F-0.04861111111111111
I0
tp2348
sg51
g7
sg52
(dp2349
I140137599373840
g2343
ssbsg52
(dp2350
sg51
g7
sbsI140137016161296
g0
(g176
g2
Ntp2351
Rp2352
(dp2353
g49
I2
sg180
I2
sg181
g184
sg243
I2
sg244
g0
(g168
g2
Ntp2354
Rp2355
(dp2356
g49
I1
sg120
Nsg172
g159
sg50
Nsg173
(F0.04722222222222222
I0
tp2357
sg51
g7
sg52
(dp2358
I140137016161296
g2352
ssbsg52
(dp2359
sg51
g7
sbssg51
g7
sbsg243
I2
sg244
g170
sg52
(dp2360
sg51
g7
sbssbsI140137598044048
g1545
sI140137011568080
g1527
sI140137015906384
g124
sI140137588740496
g2337
sI140137016161744
g1518
sI140137010972560
g839
sI140137588743568
g1536
sI140137011566032
g2319
sI140137599374928
g2310
sI140137011565264
g2328
sI140137017646736
g1509
sI140137016163920
g2355
sI140137588741840
g2301
sI140137016160912
g1500
sI140137010918032
g2346
ssbsg149
Nsg52
(dp2361
I140137015906960
g118
ssg51
g7
sbsg52
(dp2362
I140137015906576
g249
ssg51
g7
sbsS'_us_dashes'
p2363
(NNtp2364
sS'_capstyle'
p2365
Vbutt
p2366
sS'_url'
p2367
Nsg25
NsS'_axes'
p2368
Nsg34
Nsbsg42
Nsg88
NsV_restore_to_pylab
p2369
I01
sS'images'
p2370
(lp2371
sS'_suptitle'
p2372
NsS'dpi_scale_trans'
p2373
g159
sS'number'
p2374
I1
sS'callbacks'
p2375
g0
(cmatplotlib.cbook
CallbackRegistry
p2376
g2
Ntp2377
Rp2378
I01
bsg96
NsS'_tight'
p2379
I00
sg86
I01
sS'bbox'
p2380
g124
sg103
g0
(g104
g105
((lp2381
(lp2382
tp2383
tp2384
Rp2385
sg111
I0
sS'patches'
p2386
(lp2387
sS'legends'
p2388
(lp2389
sS'suppressComposite'
p2390
Nsg112
I00
sg114
NsS'_axstack'
p2391
g0
(cmatplotlib.figure
AxesStack
p2392
g2
Ntp2393
Rp2394
(dp2395
S'_default'
p2396
NsS'_elements'
p2397
(lp2398
(((g0
(cmatplotlib.gridspec
SubplotSpec
p2399
g2
Ntp2400
Rp2401
(dp2402
S'num1'
p2403
I0
sS'num2'
p2404
I0
sS'_gridspec'
p2405
g0
(cmatplotlib.gridspec
GridSpec
p2406
g2
Ntp2407
Rp2408
(dp2409
S'_nrows'
p2410
I1
sS'right'
p2411
NsS'_col_width_ratios'
p2412
NsS'bottom'
p2413
NsS'top'
p2414
NsS'wspace'
p2415
NsS'_ncols'
p2416
I1
sS'hspace'
p2417
NsS'_row_height_ratios'
p2418
NsS'left'
p2419
Nsbsbtp2420
(ttp2421
(I1
g0
(cmatplotlib.axes._subplots
_PicklableSubplotClassConstructor
p2422
g2
Ntp2423
Rp2424
(cmatplotlib.axes._axes
Axes
p2425
tp2426
Rp2427
(dp2428
S'transLimits'
p2429
g230
sS'_get_patches_for_fill'
p2430
g0
(cmatplotlib.axes._base
_process_plot_var_args
p2431
g2
Ntp2432
Rp2433
(dp2434
Vaxes
p2435
g2427
sVcommand
p2436
Vfill
p2437
sbsS'_xcid'
p2438
I1
sg6
V
p2439
sS'legend_'
p2440
Nsg12
(lp2441
sS'_frameon'
p2442
I01
sS'_autoscaleYon'
p2443
I01
sg14
I01
sg15
(lp2444
sg20
I01
sS'tables'
p2445
(lp2446
sg2386
(lp2447
g0
(g36
g2
Ntp2448
Rp2449
(dp2450
g6
V_nolegend_
p2451
sg40
F0.36303195599800064
sg41
I01
sg9
g4
sg8
I01
sg10
Nsg42
Nsg17
g18
sg43
Nsg20
I01
sg44
g0
(g45
g2
Ntp2452
Rp2453
(dp2454
g49
I1
sg50
Nsg51
g7
sg52
(dp2455
sbsg54
(F0.0
F0.0
F0.0
F0.0
tp2456
sg23
Nsg75
F0.0
sg76
F2.6538484855828592
sg24
Nsg77
Nsg11
Nsg28
I00
sg29
I00
sg30
(dp2457
sg80
g0
(g176
g2
Ntp2458
Rp2459
(dp2460
g49
I1
sg180
I2
sg181
g0
(g116
g2
Ntp2461
Rp2462
(dp2463
g49
I1
sg120
Nsg50
Nsg121
g0
(g127
g2
Ntp2464
Rp2465
(dp2466
g49
I1
sg131
g132
(g133
(I0
tp2467
g135
tp2468
Rp2469
(I1
(I2
tp2470
g59
I00
S'\x00\x00\x00\x00\x00\x00\xf0\x7f\x00\x00\x00\x00\x00\x00\xf0\x7f'
p2471
tp2472
bsg52
(dp2473
I140137017522896
g2462
ssg142
g132
(g133
(I0
tp2474
g135
tp2475
Rp2476
(I1
(I2
I2
tp2477
g59
I00
S'\xa8\xf00\xea\x14;\x05@\x00\x00\x00\x00\x00\x00\x00\x001A\x846\x92"\x08@\x00\x00\x00\x00\x00\x00\x00@'
p2478
tp2479
bsg149
g132
(g133
(I0
tp2480
g135
tp2481
Rp2482
(I1
(I2
I2
tp2483
g59
I00
S'\xa8\xf00\xea\x14;\x05@\x00\x00\x00\x00\x00\x00\x00\x001A\x846\x92"\x08@\x00\x00\x00\x00\x00\x00\x00@'
p2484
tp2485
bsg156
I01
sg51
g7
sbsg52
(dp2486
I140137017523216
g2459
ssg51
g7
sbsg243
I2
sg244
g0
(g157
g2
Ntp2487
Rp2488
(dp2489
g49
I0
sg50
Nsg120
g132
(g133
(I0
tp2490
g135
tp2491
Rp2492
(I1
(I3
I3
tp2493
g59
I00
S'\x00\x00\x00\x00\x00\x00\xf0?\x00\x00\x00\x00\x00\x00\x00\x00\x00\x00\x00\x00\x00\x00\x00\x00\x00\x00\x00\x00\x00\x00\x00\x00\x00\x00\x00\x00\x00\x00\xf0?\x00\x00\x00\x00\x00\x00\x00\x00\x00\x00\x00\x00\x00\x00\x00\x00\x00\x00\x00\x00\x00\x00\x00\x00\x00\x00\x00\x00\x00\x00\xf0?'
p2494
tp2495
bsg51
g7
sg52
(dp2496
I140137017523216
g2459
ssbsg52
(dp2497
sg51
g7
sbsg32
I00
sg85
Nsg86
I01
sg87
F1.0
sg88
g810
sg89
F2.0
sg33
Nsg90
(g55
(g59
S'\x00\x00\x00\x00\x00\x00\x00\x00'
p2498
tp2499
Rp2500
g55
(g59
S'\x00\x00\x00\x00\x00\x00\x00\x00'
p2501
tp2502
Rp2503
g55
(g59
S'\x00\x00\x00\x00\x00\x00\x00\x00'
p2504
tp2505
Rp2506
I1
tp2507
sg91
Nsg92
I01
sg93
Nsg94
g132
(g133
(I0
tp2508
g135
tp2509
Rp2510
(I1
(I4
tp2511
g59
I00
S'\x00\x00\x00\x00\x00\x00\x00\x00\x00\x00\x00\x00\x00\x00\x00\x00\x00\x00\x00\x00\x00\x00\x00\x00\x00\x00\x00\x00\x00\x00\xf0?'
p2512
tp2513
bsg96
Nsg97
(g55
(g59
S'\x00\x00\x00\x00\x00\x00\x00\x00'
p2514
tp2515
Rp2516
g55
(g59
S'\x00\x00\x00\x00\x00\x00\x00\x00'
p2517
tp2518
Rp2519
g55
(g59
S'\x00\x00\x00\x00\x00\x00\x00\x00'
p2520
tp2521
Rp2522
g55
(g59
S'\x00\x00\x00\x00\x00\x00\xf0?'
p2523
tp2524
Rp2525
tp2526
sg99
g100
sg101
g102
sg103
g0
(g104
g105
((lp2527
(lp2528
g55
(g59
S'\x00\x00\x00\x00\x00\x00\x00\x00'
p2529
tp2530
Rp2531
atp2532
tp2533
Rp2534
sg111
I0
sg112
I01
sg113
F0.0
sg114
Nsg115
g187
sg2363
(NNtp2535
sg2365
g2366
sg2367
Nsg25
Nsg2368
g2427
sg34
Nsbag0
(g36
g2
Ntp2536
Rp2537
(dp2538
g6
V_nolegend_
p2539
sg40
F0.3630319559980002
sg41
I01
sg9
g4
sg8
I01
sg10
Nsg42
Nsg17
g18
sg43
Nsg20
I01
sg44
g0
(g45
g2
Ntp2540
Rp2541
(dp2542
g49
I1
sg50
Nsg51
g7
sg52
(dp2543
sbsg54
g2456
sg23
Nsg75
F0.0
sg76
F3.0168804415808594
sg24
Nsg77
Nsg11
Nsg28
I00
sg29
I00
sg30
(dp2544
sg80
g0
(g176
g2
Ntp2545
Rp2546
(dp2547
g49
I1
sg180
I2
sg181
g0
(g116
g2
Ntp2548
Rp2549
(dp2550
g49
I1
sg120
Nsg50
Nsg121
g0
(g127
g2
Ntp2551
Rp2552
(dp2553
g49
I1
sg131
g132
(g133
(I0
tp2554
g135
tp2555
Rp2556
(I1
(I2
tp2557
g59
I00
S'\x00\x00\x00\x00\x00\x00\xf0\x7f\x00\x00\x00\x00\x00\x00\xf0\x7f'
p2558
tp2559
bsg52
(dp2560
I140137017523984
g2549
ssg142
g132
(g133
(I0
tp2561
g135
tp2562
Rp2563
(I1
(I2
I2
tp2564
g59
I00
S'0A\x846\x92"\x08@\x00\x00\x00\x00\x00\x00\x00\x00\xb8\x91\xd7\x82\x0f\n\x0b@\x00\x00\x00\x00\x00\x00\x00@'
p2565
tp2566
bsg149
g132
(g133
(I0
tp2567
g135
tp2568
Rp2569
(I1
(I2
I2
tp2570
g59
I00
S'0A\x846\x92"\x08@\x00\x00\x00\x00\x00\x00\x00\x00\xb8\x91\xd7\x82\x0f\n\x0b@\x00\x00\x00\x00\x00\x00\x00@'
p2571
tp2572
bsg156
I01
sg51
g7
sbsg52
(dp2573
I140137017521104
g2546
ssg51
g7
sbsg243
I2
sg244
g0
(g157
g2
Ntp2574
Rp2575
(dp2576
g49
I0
sg50
Nsg120
g132
(g133
(I0
tp2577
g135
tp2578
Rp2579
(I1
(I3
I3
tp2580
g59
I00
S'\x00\x00\x00\x00\x00\x00\xf0?\x00\x00\x00\x00\x00\x00\x00\x00\x00\x00\x00\x00\x00\x00\x00\x00\x00\x00\x00\x00\x00\x00\x00\x00\x00\x00\x00\x00\x00\x00\xf0?\x00\x00\x00\x00\x00\x00\x00\x00\x00\x00\x00\x00\x00\x00\x00\x00\x00\x00\x00\x00\x00\x00\x00\x00\x00\x00\x00\x00\x00\x00\xf0?'
p2581
tp2582
bsg51
g7
sg52
(dp2583
I140137017521104
g2546
ssbsg52
(dp2584
sg51
g7
sbsg32
I00
sg85
Nsg86
I01
sg87
F1.0
sg88
g670
sg89
F2.0
sg33
Nsg90
g2507
sg91
Nsg92
I01
sg93
Nsg94
g2510
sg96
Nsg97
(g55
(g59
S'\x00\x00\x00\x00\x00\x00\x00\x00'
p2585
tp2586
Rp2587
g55
(g59
S'\x00\x00\x00\x00\x00\x00\x00\x00'
p2588
tp2589
Rp2590
g55
(g59
S'\x00\x00\x00\x00\x00\x00\x00\x00'
p2591
tp2592
Rp2593
g55
(g59
S'\x00\x00\x00\x00\x00\x00\xf0?'
p2594
tp2595
Rp2596
tp2597
sg99
g100
sg101
g102
sg103
g0
(g104
g105
((lp2598
(lp2599
g55
(g59
S'\x00\x00\x00\x00\x00\x00\x00\x00'
p2600
tp2601
Rp2602
atp2603
tp2604
Rp2605
sg111
I0
sg112
I01
sg113
F0.0
sg114
Nsg115
g187
sg2363
(NNtp2606
sg2365
g2366
sg2367
Nsg25
Nsg2368
g2427
sg34
Nsbag0
(g36
g2
Ntp2607
Rp2608
(dp2609
g6
V_nolegend_
p2610
sg40
F0.36303195599800064
sg41
I01
sg9
g4
sg8
I01
sg10
Nsg42
Nsg17
g18
sg43
Nsg20
I01
sg44
g0
(g45
g2
Ntp2611
Rp2612
(dp2613
g49
I1
sg50
Nsg51
g7
sg52
(dp2614
sbsg54
g2456
sg23
Nsg75
F0.0
sg76
F3.3799123975788596
sg24
Nsg77
Nsg11
Nsg28
I00
sg29
I00
sg30
(dp2615
sg80
g0
(g176
g2
Ntp2616
Rp2617
(dp2618
g49
I1
sg180
I2
sg181
g0
(g116
g2
Ntp2619
Rp2620
(dp2621
g49
I1
sg120
Nsg50
Nsg121
g0
(g127
g2
Ntp2622
Rp2623
(dp2624
g49
I1
sg131
g132
(g133
(I0
tp2625
g135
tp2626
Rp2627
(I1
(I2
tp2628
g59
I00
S'\x00\x00\x00\x00\x00\x00\xf0\x7f\x00\x00\x00\x00\x00\x00\xf0\x7f'
p2629
tp2630
bsg52
(dp2631
I140137017523728
g2620
ssg142
g132
(g133
(I0
tp2632
g135
tp2633
Rp2634
(I1
(I2
I2
tp2635
g59
I00
S'\xb8\x91\xd7\x82\x0f\n\x0b@\x00\x00\x00\x00\x00\x00\x00\x00A\xe2*\xcf\x8c\xf1\r@\x00\x00\x00\x00\x00\x00\x08@'
p2636
tp2637
bsg149
g132
(g133
(I0
tp2638
g135
tp2639
Rp2640
(I1
(I2
I2
tp2641
g59
I00
S'\xb8\x91\xd7\x82\x0f\n\x0b@\x00\x00\x00\x00\x00\x00\x00\x00A\xe2*\xcf\x8c\xf1\r@\x00\x00\x00\x00\x00\x00\x08@'
p2642
tp2643
bsg156
I01
sg51
g7
sbsg52
(dp2644
I140137017520848
g2617
ssg51
g7
sbsg243
I2
sg244
g0
(g157
g2
Ntp2645
Rp2646
(dp2647
g49
I0
sg50
Nsg120
g132
(g133
(I0
tp2648
g135
tp2649
Rp2650
(I1
(I3
I3
tp2651
g59
I00
S'\x00\x00\x00\x00\x00\x00\xf0?\x00\x00\x00\x00\x00\x00\x00\x00\x00\x00\x00\x00\x00\x00\x00\x00\x00\x00\x00\x00\x00\x00\x00\x00\x00\x00\x00\x00\x00\x00\xf0?\x00\x00\x00\x00\x00\x00\x00\x00\x00\x00\x00\x00\x00\x00\x00\x00\x00\x00\x00\x00\x00\x00\x00\x00\x00\x00\x00\x00\x00\x00\xf0?'
p2652
tp2653
bsg51
g7
sg52
(dp2654
I140137017520848
g2617
ssbsg52
(dp2655
sg51
g7
sbsg32
I00
sg85
Nsg86
I01
sg87
F1.0
sg88
g897
sg89
F3.0
sg33
Nsg90
g2507
sg91
Nsg92
I01
sg93
Nsg94
g2510
sg96
Nsg97
(g55
(g59
S'\x00\x00\x00\x00\x00\x00\x00\x00'
p2656
tp2657
Rp2658
g55
(g59
S'\x00\x00\x00\x00\x00\x00\x00\x00'
p2659
tp2660
Rp2661
g55
(g59
S'\x00\x00\x00\x00\x00\x00\x00\x00'
p2662
tp2663
Rp2664
g55
(g59
S'\x00\x00\x00\x00\x00\x00\xf0?'
p2665
tp2666
Rp2667
tp2668
sg99
g100
sg101
g102
sg103
g0
(g104
g105
((lp2669
(lp2670
g55
(g59
S'\x00\x00\x00\x00\x00\x00\x00\x00'
p2671
tp2672
Rp2673
atp2674
tp2675
Rp2676
sg111
I0
sg112
I01
sg113
F0.0
sg114
Nsg115
g187
sg2363
(NNtp2677
sg2365
g2366
sg2367
Nsg25
Nsg2368
g2427
sg34
Nsbag0
(g36
g2
Ntp2678
Rp2679
(dp2680
g6
V_nolegend_
p2681
sg40
F0.36303195599800064
sg41
I01
sg9
g4
sg8
I01
sg10
Nsg42
Nsg17
g18
sg43
Nsg20
I01
sg44
g0
(g45
g2
Ntp2682
Rp2683
(dp2684
g49
I1
sg50
Nsg51
g7
sg52
(dp2685
sbsg54
g2456
sg23
Nsg75
F0.0
sg76
F3.7429443535768607
sg24
Nsg77
Nsg11
Nsg28
I00
sg29
I00
sg30
(dp2686
sg80
g0
(g176
g2
Ntp2687
Rp2688
(dp2689
g49
I1
sg180
I2
sg181
g0
(g116
g2
Ntp2690
Rp2691
(dp2692
g49
I1
sg120
Nsg50
Nsg121
g0
(g127
g2
Ntp2693
Rp2694
(dp2695
g49
I1
sg131
g132
(g133
(I0
tp2696
g135
tp2697
Rp2698
(I1
(I2
tp2699
g59
I00
S'\x00\x00\x00\x00\x00\x00\xf0\x7f\x00\x00\x00\x00\x00\x00\xf0\x7f'
p2700
tp2701
bsg52
(dp2702
I140137017521872
g2691
ssg142
g132
(g133
(I0
tp2703
g135
tp2704
Rp2705
(I1
(I2
I2
tp2706
g59
I00
S'B\xe2*\xcf\x8c\xf1\r@\x00\x00\x00\x00\x00\x00\x00\x00f\x19\xbf\r\x85l\x10@\x00\x00\x00\x00\x00\x00\xf0?'
p2707
tp2708
bsg149
g132
(g133
(I0
tp2709
g135
tp2710
Rp2711
(I1
(I2
I2
tp2712
g59
I00
S'B\xe2*\xcf\x8c\xf1\r@\x00\x00\x00\x00\x00\x00\x00\x00f\x19\xbf\r\x85l\x10@\x00\x00\x00\x00\x00\x00\xf0?'
p2713
tp2714
bsg156
I01
sg51
g7
sbsg52
(dp2715
I140137017522320
g2688
ssg51
g7
sbsg243
I2
sg244
g0
(g157
g2
Ntp2716
Rp2717
(dp2718
g49
I0
sg50
Nsg120
g132
(g133
(I0
tp2719
g135
tp2720
Rp2721
(I1
(I3
I3
tp2722
g59
I00
S'\x00\x00\x00\x00\x00\x00\xf0?\x00\x00\x00\x00\x00\x00\x00\x00\x00\x00\x00\x00\x00\x00\x00\x00\x00\x00\x00\x00\x00\x00\x00\x00\x00\x00\x00\x00\x00\x00\xf0?\x00\x00\x00\x00\x00\x00\x00\x00\x00\x00\x00\x00\x00\x00\x00\x00\x00\x00\x00\x00\x00\x00\x00\x00\x00\x00\x00\x00\x00\x00\xf0?'
p2723
tp2724
bsg51
g7
sg52
(dp2725
I140137017522320
g2688
ssbsg52
(dp2726
sg51
g7
sbsg32
I00
sg85
Nsg86
I01
sg87
F1.0
sg88
g2241
sg89
F1.0
sg33
Nsg90
g2507
sg91
Nsg92
I01
sg93
Nsg94
g2510
sg96
Nsg97
(g55
(g59
S'\x00\x00\x00\x00\x00\x00\x00\x00'
p2727
tp2728
Rp2729
g55
(g59
S'\x00\x00\x00\x00\x00\x00\x00\x00'
p2730
tp2731
Rp2732
g55
(g59
S'\x00\x00\x00\x00\x00\x00\x00\x00'
p2733
tp2734
Rp2735
g55
(g59
S'\x00\x00\x00\x00\x00\x00\xf0?'
p2736
tp2737
Rp2738
tp2739
sg99
g100
sg101
g102
sg103
g0
(g104
g105
((lp2740
(lp2741
g55
(g59
S'\x00\x00\x00\x00\x00\x00\x00\x00'
p2742
tp2743
Rp2744
atp2745
tp2746
Rp2747
sg111
I0
sg112
I01
sg113
F0.0
sg114
Nsg115
g187
sg2363
(NNtp2748
sg2365
g2366
sg2367
Nsg25
Nsg2368
g2427
sg34
Nsbag0
(g36
g2
Ntp2749
Rp2750
(dp2751
g6
V_nolegend_
p2752
sg40
F0.3630319559980011
sg41
I01
sg9
g4
sg8
I01
sg10
Nsg42
Nsg17
g18
sg43
Nsg20
I01
sg44
g0
(g45
g2
Ntp2753
Rp2754
(dp2755
g49
I1
sg50
Nsg51
g7
sg52
(dp2756
sbsg54
g2456
sg23
Nsg75
F0.0
sg76
F4.105976309574862
sg24
Nsg77
Nsg11
Nsg28
I00
sg29
I00
sg30
(dp2757
sg80
g0
(g176
g2
Ntp2758
Rp2759
(dp2760
g49
I1
sg180
I2
sg181
g0
(g116
g2
Ntp2761
Rp2762
(dp2763
g49
I1
sg120
Nsg50
Nsg121
g0
(g127
g2
Ntp2764
Rp2765
(dp2766
g49
I1
sg131
g132
(g133
(I0
tp2767
g135
tp2768
Rp2769
(I1
(I2
tp2770
g59
I00
S'\x00\x00\x00\x00\x00\x00\xf0\x7f\x00\x00\x00\x00\x00\x00\xf0\x7f'
p2771
tp2772
bsg52
(dp2773
I140137018071248
g2762
ssg142
g132
(g133
(I0
tp2774
g135
tp2775
Rp2776
(I1
(I2
I2
tp2777
g59
I00
S'f\x19\xbf\r\x85l\x10@\x00\x00\x00\x00\x00\x00\x00\x00\xab\xc1\xe8\xb3C\xe0\x11@\x00\x00\x00\x00\x00\x00\x00@'
p2778
tp2779
bsg149
g132
(g133
(I0
tp2780
g135
tp2781
Rp2782
(I1
(I2
I2
tp2783
g59
I00
S'f\x19\xbf\r\x85l\x10@\x00\x00\x00\x00\x00\x00\x00\x00\xab\xc1\xe8\xb3C\xe0\x11@\x00\x00\x00\x00\x00\x00\x00@'
p2784
tp2785
bsg156
I01
sg51
g7
sbsg52
(dp2786
I140137017522384
g2759
ssg51
g7
sbsg243
I2
sg244
g0
(g157
g2
Ntp2787
Rp2788
(dp2789
g49
I0
sg50
Nsg120
g132
(g133
(I0
tp2790
g135
tp2791
Rp2792
(I1
(I3
I3
tp2793
g59
I00
S'\x00\x00\x00\x00\x00\x00\xf0?\x00\x00\x00\x00\x00\x00\x00\x00\x00\x00\x00\x00\x00\x00\x00\x00\x00\x00\x00\x00\x00\x00\x00\x00\x00\x00\x00\x00\x00\x00\xf0?\x00\x00\x00\x00\x00\x00\x00\x00\x00\x00\x00\x00\x00\x00\x00\x00\x00\x00\x00\x00\x00\x00\x00\x00\x00\x00\x00\x00\x00\x00\xf0?'
p2794
tp2795
bsg51
g7
sg52
(dp2796
I140137017522384
g2759
ssbsg52
(dp2797
sg51
g7
sbsg32
I00
sg85
Nsg86
I01
sg87
F1.0
sg88
g600
sg89
F2.0
sg33
Nsg90
g2507
sg91
Nsg92
I01
sg93
Nsg94
g2510
sg96
Nsg97
(g55
(g59
S'\x00\x00\x00\x00\x00\x00\x00\x00'
p2798
tp2799
Rp2800
g55
(g59
S'\x00\x00\x00\x00\x00\x00\x00\x00'
p2801
tp2802
Rp2803
g55
(g59
S'\x00\x00\x00\x00\x00\x00\x00\x00'
p2804
tp2805
Rp2806
g55
(g59
S'\x00\x00\x00\x00\x00\x00\xf0?'
p2807
tp2808
Rp2809
tp2810
sg99
g100
sg101
g102
sg103
g0
(g104
g105
((lp2811
(lp2812
g55
(g59
S'\x00\x00\x00\x00\x00\x00\x00\x00'
p2813
tp2814
Rp2815
atp2816
tp2817
Rp2818
sg111
I0
sg112
I01
sg113
F0.0
sg114
Nsg115
g187
sg2363
(NNtp2819
sg2365
g2366
sg2367
Nsg25
Nsg2368
g2427
sg34
Nsbag0
(g36
g2
Ntp2820
Rp2821
(dp2822
g6
V_nolegend_
p2823
sg40
F0.3630319559980002
sg41
I01
sg9
g4
sg8
I01
sg10
Nsg42
Nsg17
g18
sg43
Nsg20
I01
sg44
g0
(g45
g2
Ntp2824
Rp2825
(dp2826
g49
I1
sg50
Nsg51
g7
sg52
(dp2827
sbsg54
g2456
sg23
Nsg75
F0.0
sg76
F4.469008265572862
sg24
Nsg77
Nsg11
Nsg28
I00
sg29
I00
sg30
(dp2828
sg80
g0
(g176
g2
Ntp2829
Rp2830
(dp2831
g49
I1
sg180
I2
sg181
g0
(g116
g2
Ntp2832
Rp2833
(dp2834
g49
I1
sg120
Nsg50
Nsg121
g0
(g127
g2
Ntp2835
Rp2836
(dp2837
g49
I1
sg131
g132
(g133
(I0
tp2838
g135
tp2839
Rp2840
(I1
(I2
tp2841
g59
I00
S'\x00\x00\x00\x00\x00\x00\xf0\x7f\x00\x00\x00\x00\x00\x00\xf0\x7f'
p2842
tp2843
bsg52
(dp2844
I140137018072272
g2833
ssg142
g132
(g133
(I0
tp2845
g135
tp2846
Rp2847
(I1
(I2
I2
tp2848
g59
I00
S'\xaa\xc1\xe8\xb3C\xe0\x11@\x00\x00\x00\x00\x00\x00\x00\x00\xeei\x12Z\x02T\x13@\x00\x00\x00\x00\x00\x00\x00@'
p2849
tp2850
bsg149
g132
(g133
(I0
tp2851
g135
tp2852
Rp2853
(I1
(I2
I2
tp2854
g59
I00
S'\xaa\xc1\xe8\xb3C\xe0\x11@\x00\x00\x00\x00\x00\x00\x00\x00\xeei\x12Z\x02T\x13@\x00\x00\x00\x00\x00\x00\x00@'
p2855
tp2856
bsg156
I01
sg51
g7
sbsg52
(dp2857
I140137018070928
g2830
ssg51
g7
sbsg243
I2
sg244
g0
(g157
g2
Ntp2858
Rp2859
(dp2860
g49
I0
sg50
Nsg120
g132
(g133
(I0
tp2861
g135
tp2862
Rp2863
(I1
(I3
I3
tp2864
g59
I00
S'\x00\x00\x00\x00\x00\x00\xf0?\x00\x00\x00\x00\x00\x00\x00\x00\x00\x00\x00\x00\x00\x00\x00\x00\x00\x00\x00\x00\x00\x00\x00\x00\x00\x00\x00\x00\x00\x00\xf0?\x00\x00\x00\x00\x00\x00\x00\x00\x00\x00\x00\x00\x00\x00\x00\x00\x00\x00\x00\x00\x00\x00\x00\x00\x00\x00\x00\x00\x00\x00\xf0?'
p2865
tp2866
bsg51
g7
sg52
(dp2867
I140137018070928
g2830
ssbsg52
(dp2868
sg51
g7
sbsg32
I00
sg85
Nsg86
I01
sg87
F1.0
sg88
g967
sg89
F2.0
sg33
Nsg90
g2507
sg91
Nsg92
I01
sg93
Nsg94
g2510
sg96
Nsg97
(g55
(g59
S'\x00\x00\x00\x00\x00\x00\x00\x00'
p2869
tp2870
Rp2871
g55
(g59
S'\x00\x00\x00\x00\x00\x00\x00\x00'
p2872
tp2873
Rp2874
g55
(g59
S'\x00\x00\x00\x00\x00\x00\x00\x00'
p2875
tp2876
Rp2877
g55
(g59
S'\x00\x00\x00\x00\x00\x00\xf0?'
p2878
tp2879
Rp2880
tp2881
sg99
g100
sg101
g102
sg103
g0
(g104
g105
((lp2882
(lp2883
g55
(g59
S'\x00\x00\x00\x00\x00\x00\x00\x00'
p2884
tp2885
Rp2886
atp2887
tp2888
Rp2889
sg111
I0
sg112
I01
sg113
F0.0
sg114
Nsg115
g187
sg2363
(NNtp2890
sg2365
g2366
sg2367
Nsg25
Nsg2368
g2427
sg34
Nsbag0
(g36
g2
Ntp2891
Rp2892
(dp2893
g6
V_nolegend_
p2894
sg40
F0.3630319559980002
sg41
I01
sg9
g4
sg8
I01
sg10
Nsg42
Nsg17
g18
sg43
Nsg20
I01
sg44
g0
(g45
g2
Ntp2895
Rp2896
(dp2897
g49
I1
sg50
Nsg51
g7
sg52
(dp2898
sbsg54
g2456
sg23
Nsg75
F0.0
sg76
F4.832040221570862
sg24
Nsg77
Nsg11
Nsg28
I00
sg29
I00
sg30
(dp2899
sg80
g0
(g176
g2
Ntp2900
Rp2901
(dp2902
g49
I1
sg180
I2
sg181
g0
(g116
g2
Ntp2903
Rp2904
(dp2905
g49
I1
sg120
Nsg50
Nsg121
g0
(g127
g2
Ntp2906
Rp2907
(dp2908
g49
I1
sg131
g132
(g133
(I0
tp2909
g135
tp2910
Rp2911
(I1
(I2
tp2912
g59
I00
S'\x00\x00\x00\x00\x00\x00\xf0\x7f\x00\x00\x00\x00\x00\x00\xf0\x7f'
p2913
tp2914
bsg52
(dp2915
I140137018072912
g2904
ssg142
g132
(g133
(I0
tp2916
g135
tp2917
Rp2918
(I1
(I2
I2
tp2919
g59
I00
S'\xeei\x12Z\x02T\x13@\x00\x00\x00\x00\x00\x00\x00\x002\x12<\x00\xc1\xc7\x14@\x00\x00\x00\x00\x00\x00\x00\x00'
p2920
tp2921
bsg149
g132
(g133
(I0
tp2922
g135
tp2923
Rp2924
(I1
(I2
I2
tp2925
g59
I00
S'\xeei\x12Z\x02T\x13@\x00\x00\x00\x00\x00\x00\x00\x002\x12<\x00\xc1\xc7\x14@\x00\x00\x00\x00\x00\x00\x00\x00'
p2926
tp2927
bsg156
I01
sg51
g7
sbsg52
(dp2928
I140137018072144
g2901
ssg51
g7
sbsg243
I2
sg244
g0
(g157
g2
Ntp2929
Rp2930
(dp2931
g49
I0
sg50
Nsg120
g132
(g133
(I0
tp2932
g135
tp2933
Rp2934
(I1
(I3
I3
tp2935
g59
I00
S'\x00\x00\x00\x00\x00\x00\xf0?\x00\x00\x00\x00\x00\x00\x00\x00\x00\x00\x00\x00\x00\x00\x00\x00\x00\x00\x00\x00\x00\x00\x00\x00\x00\x00\x00\x00\x00\x00\xf0?\x00\x00\x00\x00\x00\x00\x00\x00\x00\x00\x00\x00\x00\x00\x00\x00\x00\x00\x00\x00\x00\x00\x00\x00\x00\x00\x00\x00\x00\x00\xf0?'
p2936
tp2937
bsg51
g7
sg52
(dp2938
I140137018072144
g2901
ssbsg52
(dp2939
sg51
g7
sbsg32
I00
sg85
Nsg86
I01
sg87
F1.0
sg88
g2171
sg89
F0.0
sg33
Nsg90
g2507
sg91
Nsg92
I01
sg93
Nsg94
g2510
sg96
Nsg97
(g55
(g59
S'\x00\x00\x00\x00\x00\x00\x00\x00'
p2940
tp2941
Rp2942
g55
(g59
S'\x00\x00\x00\x00\x00\x00\x00\x00'
p2943
tp2944
Rp2945
g55
(g59
S'\x00\x00\x00\x00\x00\x00\x00\x00'
p2946
tp2947
Rp2948
g55
(g59
S'\x00\x00\x00\x00\x00\x00\xf0?'
p2949
tp2950
Rp2951
tp2952
sg99
g100
sg101
g102
sg103
g0
(g104
g105
((lp2953
(lp2954
g55
(g59
S'\x00\x00\x00\x00\x00\x00\x00\x00'
p2955
tp2956
Rp2957
atp2958
tp2959
Rp2960
sg111
I0
sg112
I01
sg113
F0.0
sg114
Nsg115
g187
sg2363
(NNtp2961
sg2365
g2366
sg2367
Nsg25
Nsg2368
g2427
sg34
Nsbag0
(g36
g2
Ntp2962
Rp2963
(dp2964
g6
V_nolegend_
p2965
sg40
F0.3630319559980002
sg41
I01
sg9
g4
sg8
I01
sg10
Nsg42
Nsg17
g18
sg43
Nsg20
I01
sg44
g0
(g45
g2
Ntp2966
Rp2967
(dp2968
g49
I1
sg50
Nsg51
g7
sg52
(dp2969
sbsg54
g2456
sg23
Nsg75
F0.0
sg76
F5.195072177568862
sg24
Nsg77
Nsg11
Nsg28
I00
sg29
I00
sg30
(dp2970
sg80
g0
(g176
g2
Ntp2971
Rp2972
(dp2973
g49
I1
sg180
I2
sg181
g0
(g116
g2
Ntp2974
Rp2975
(dp2976
g49
I1
sg120
Nsg50
Nsg121
g0
(g127
g2
Ntp2977
Rp2978
(dp2979
g49
I1
sg131
g132
(g133
(I0
tp2980
g135
tp2981
Rp2982
(I1
(I2
tp2983
g59
I00
S'\x00\x00\x00\x00\x00\x00\xf0\x7f\x00\x00\x00\x00\x00\x00\xf0\x7f'
p2984
tp2985
bsg52
(dp2986
I140137018071184
g2975
ssg142
g132
(g133
(I0
tp2987
g135
tp2988
Rp2989
(I1
(I2
I2
tp2990
g59
I00
S'2\x12<\x00\xc1\xc7\x14@\x00\x00\x00\x00\x00\x00\x00\x00v\xbae\xa6\x7f;\x16@\x00\x00\x00\x00\x00\x00\x00\x00'
p2991
tp2992
bsg149
g132
(g133
(I0
tp2993
g135
tp2994
Rp2995
(I1
(I2
I2
tp2996
g59
I00
S'2\x12<\x00\xc1\xc7\x14@\x00\x00\x00\x00\x00\x00\x00\x00v\xbae\xa6\x7f;\x16@\x00\x00\x00\x00\x00\x00\x00\x00'
p2997
tp2998
bsg156
I01
sg51
g7
sbsg52
(dp2999
I140137018072528
g2972
ssg51
g7
sbsg243
I2
sg244
g0
(g157
g2
Ntp3000
Rp3001
(dp3002
g49
I0
sg50
Nsg120
g132
(g133
(I0
tp3003
g135
tp3004
Rp3005
(I1
(I3
I3
tp3006
g59
I00
S'\x00\x00\x00\x00\x00\x00\xf0?\x00\x00\x00\x00\x00\x00\x00\x00\x00\x00\x00\x00\x00\x00\x00\x00\x00\x00\x00\x00\x00\x00\x00\x00\x00\x00\x00\x00\x00\x00\xf0?\x00\x00\x00\x00\x00\x00\x00\x00\x00\x00\x00\x00\x00\x00\x00\x00\x00\x00\x00\x00\x00\x00\x00\x00\x00\x00\x00\x00\x00\x00\xf0?'
p3007
tp3008
bsg51
g7
sg52
(dp3009
I140137018072528
g2972
ssbsg52
(dp3010
sg51
g7
sbsg32
I00
sg85
Nsg86
I01
sg87
F1.0
sg88
g1665
sg89
F0.0
sg33
Nsg90
g2507
sg91
Nsg92
I01
sg93
Nsg94
g2510
sg96
Nsg97
(g55
(g59
S'\x00\x00\x00\x00\x00\x00\x00\x00'
p3011
tp3012
Rp3013
g55
(g59
S'\x00\x00\x00\x00\x00\x00\x00\x00'
p3014
tp3015
Rp3016
g55
(g59
S'\x00\x00\x00\x00\x00\x00\x00\x00'
p3017
tp3018
Rp3019
g55
(g59
S'\x00\x00\x00\x00\x00\x00\xf0?'
p3020
tp3021
Rp3022
tp3023
sg99
g100
sg101
g102
sg103
g0
(g104
g105
((lp3024
(lp3025
g55
(g59
S'\x00\x00\x00\x00\x00\x00\x00\x00'
p3026
tp3027
Rp3028
atp3029
tp3030
Rp3031
sg111
I0
sg112
I01
sg113
F0.0
sg114
Nsg115
g187
sg2363
(NNtp3032
sg2365
g2366
sg2367
Nsg25
Nsg2368
g2427
sg34
Nsbag0
(g36
g2
Ntp3033
Rp3034
(dp3035
g6
V_nolegend_
p3036
sg40
F0.3630319559980011
sg41
I01
sg9
g4
sg8
I01
sg10
Nsg42
Nsg17
g18
sg43
Nsg20
I01
sg44
g0
(g45
g2
Ntp3037
Rp3038
(dp3039
g49
I1
sg50
Nsg51
g7
sg52
(dp3040
sbsg54
g2456
sg23
Nsg75
F0.0
sg76
F5.558104133566863
sg24
Nsg77
Nsg11
Nsg28
I00
sg29
I00
sg30
(dp3041
sg80
g0
(g176
g2
Ntp3042
Rp3043
(dp3044
g49
I1
sg180
I2
sg181
g0
(g116
g2
Ntp3045
Rp3046
(dp3047
g49
I1
sg120
Nsg50
Nsg121
g0
(g127
g2
Ntp3048
Rp3049
(dp3050
g49
I1
sg131
g132
(g133
(I0
tp3051
g135
tp3052
Rp3053
(I1
(I2
tp3054
g59
I00
S'\x00\x00\x00\x00\x00\x00\xf0\x7f\x00\x00\x00\x00\x00\x00\xf0\x7f'
p3055
tp3056
bsg52
(dp3057
I140137018069456
g3046
ssg142
g132
(g133
(I0
tp3058
g135
tp3059
Rp3060
(I1
(I2
I2
tp3061
g59
I00
S'v\xbae\xa6\x7f;\x16@\x00\x00\x00\x00\x00\x00\x00\x00\xbbb\x8fL>\xaf\x17@\x00\x00\x00\x00\x00\x00\x00\x00'
p3062
tp3063
bsg149
g132
(g133
(I0
tp3064
g135
tp3065
Rp3066
(I1
(I2
I2
tp3067
g59
I00
S'v\xbae\xa6\x7f;\x16@\x00\x00\x00\x00\x00\x00\x00\x00\xbbb\x8fL>\xaf\x17@\x00\x00\x00\x00\x00\x00\x00\x00'
p3068
tp3069
bsg156
I01
sg51
g7
sbsg52
(dp3070
I140137018071376
g3043
ssg51
g7
sbsg243
I2
sg244
g0
(g157
g2
Ntp3071
Rp3072
(dp3073
g49
I0
sg50
Nsg120
g132
(g133
(I0
tp3074
g135
tp3075
Rp3076
(I1
(I3
I3
tp3077
g59
I00
S'\x00\x00\x00\x00\x00\x00\xf0?\x00\x00\x00\x00\x00\x00\x00\x00\x00\x00\x00\x00\x00\x00\x00\x00\x00\x00\x00\x00\x00\x00\x00\x00\x00\x00\x00\x00\x00\x00\xf0?\x00\x00\x00\x00\x00\x00\x00\x00\x00\x00\x00\x00\x00\x00\x00\x00\x00\x00\x00\x00\x00\x00\x00\x00\x00\x00\x00\x00\x00\x00\xf0?'
p3078
tp3079
bsg51
g7
sg52
(dp3080
I140137018071376
g3043
ssbsg52
(dp3081
sg51
g7
sbsg32
I00
sg85
Nsg86
I01
sg87
F1.0
sg88
g2093
sg89
F0.0
sg33
Nsg90
g2507
sg91
Nsg92
I01
sg93
Nsg94
g2510
sg96
Nsg97
(g55
(g59
S'\x00\x00\x00\x00\x00\x00\x00\x00'
p3082
tp3083
Rp3084
g55
(g59
S'\x00\x00\x00\x00\x00\x00\x00\x00'
p3085
tp3086
Rp3087
g55
(g59
S'\x00\x00\x00\x00\x00\x00\x00\x00'
p3088
tp3089
Rp3090
g55
(g59
S'\x00\x00\x00\x00\x00\x00\xf0?'
p3091
tp3092
Rp3093
tp3094
sg99
g100
sg101
g102
sg103
g0
(g104
g105
((lp3095
(lp3096
g55
(g59
S'\x00\x00\x00\x00\x00\x00\x00\x00'
p3097
tp3098
Rp3099
atp3100
tp3101
Rp3102
sg111
I0
sg112
I01
sg113
F0.0
sg114
Nsg115
g187
sg2363
(NNtp3103
sg2365
g2366
sg2367
Nsg25
Nsg2368
g2427
sg34
Nsbag0
(g36
g2
Ntp3104
Rp3105
(dp3106
g6
V_nolegend_
p3107
sg40
F0.3630319559980002
sg41
I01
sg9
g4
sg8
I01
sg10
Nsg42
Nsg17
g18
sg43
Nsg20
I01
sg44
g0
(g45
g2
Ntp3108
Rp3109
(dp3110
g49
I1
sg50
Nsg51
g7
sg52
(dp3111
sbsg54
g2456
sg23
Nsg75
F0.0
sg76
F5.921136089564864
sg24
Nsg77
Nsg11
Nsg28
I00
sg29
I00
sg30
(dp3112
sg80
g0
(g176
g2
Ntp3113
Rp3114
(dp3115
g49
I1
sg180
I2
sg181
g0
(g116
g2
Ntp3116
Rp3117
(dp3118
g49
I1
sg120
Nsg50
Nsg121
g0
(g127
g2
Ntp3119
Rp3120
(dp3121
g49
I1
sg131
g132
(g133
(I0
tp3122
g135
tp3123
Rp3124
(I1
(I2
tp3125
g59
I00
S'\x00\x00\x00\x00\x00\x00\xf0\x7f\x00\x00\x00\x00\x00\x00\xf0\x7f'
p3126
tp3127
bsg52
(dp3128
I140137011181584
g3117
ssg142
g132
(g133
(I0
tp3129
g135
tp3130
Rp3131
(I1
(I2
I2
tp3132
g59
I00
S'\xbbb\x8fL>\xaf\x17@\x00\x00\x00\x00\x00\x00\x00\x00\xff\n\xb9\xf2\xfc"\x19@\x00\x00\x00\x00\x00\x00\xf0?'
p3133
tp3134
bsg149
g132
(g133
(I0
tp3135
g135
tp3136
Rp3137
(I1
(I2
I2
tp3138
g59
I00
S'\xbbb\x8fL>\xaf\x17@\x00\x00\x00\x00\x00\x00\x00\x00\xff\n\xb9\xf2\xfc"\x19@\x00\x00\x00\x00\x00\x00\xf0?'
p3139
tp3140
bsg156
I01
sg51
g7
sbsg52
(dp3141
I140137018072720
g3114
ssg51
g7
sbsg243
I2
sg244
g0
(g157
g2
Ntp3142
Rp3143
(dp3144
g49
I0
sg50
Nsg120
g132
(g133
(I0
tp3145
g135
tp3146
Rp3147
(I1
(I3
I3
tp3148
g59
I00
S'\x00\x00\x00\x00\x00\x00\xf0?\x00\x00\x00\x00\x00\x00\x00\x00\x00\x00\x00\x00\x00\x00\x00\x00\x00\x00\x00\x00\x00\x00\x00\x00\x00\x00\x00\x00\x00\x00\xf0?\x00\x00\x00\x00\x00\x00\x00\x00\x00\x00\x00\x00\x00\x00\x00\x00\x00\x00\x00\x00\x00\x00\x00\x00\x00\x00\x00\x00\x00\x00\xf0?'
p3149
tp3150
bsg51
g7
sg52
(dp3151
I140137018072720
g3114
ssbsg52
(dp3152
sg51
g7
sbsg32
I00
sg85
Nsg86
I01
sg87
F1.0
sg88
g2023
sg89
F1.0
sg33
Nsg90
g2507
sg91
Nsg92
I01
sg93
Nsg94
g2510
sg96
Nsg97
(g55
(g59
S'\x00\x00\x00\x00\x00\x00\x00\x00'
p3153
tp3154
Rp3155
g55
(g59
S'\x00\x00\x00\x00\x00\x00\x00\x00'
p3156
tp3157
Rp3158
g55
(g59
S'\x00\x00\x00\x00\x00\x00\x00\x00'
p3159
tp3160
Rp3161
g55
(g59
S'\x00\x00\x00\x00\x00\x00\xf0?'
p3162
tp3163
Rp3164
tp3165
sg99
g100
sg101
g102
sg103
g0
(g104
g105
((lp3166
(lp3167
g55
(g59
S'\x00\x00\x00\x00\x00\x00\x00\x00'
p3168
tp3169
Rp3170
atp3171
tp3172
Rp3173
sg111
I0
sg112
I01
sg113
F0.0
sg114
Nsg115
g187
sg2363
(NNtp3174
sg2365
g2366
sg2367
Nsg25
Nsg2368
g2427
sg34
NsbasS'title'
p3175
g0
(cmatplotlib.text
Text
p3176
g2
Ntp3177
Rp3178
(dp3179
g6
g7
sg8
I01
sg9
g4
sg10
NsS'_fontproperties'
p3180
g0
(cmatplotlib.font_manager
FontProperties
p3181
g2
Ntp3182
Rp3183
(dp3184
S'_family'
p3185
(lp3186
Vsans-serif
p3187
asS'_file'
p3188
NsS'_variant'
p3189
Vnormal
p3190
sS'_slant'
p3191
g3190
sS'_size'
p3192
F9.6
sS'_weight'
p3193
I400
sS'_stretch'
p3194
g3190
sbsg42
Nsg17
g18
sS'_multialignment'
p3195
Nsg20
I01
sg23
Nsg75
F1.0
sg76
F0.5
sg24
Nsg25
Nsg11
Nsg28
I00
sg29
I00
sg30
(dp3196
sS'_renderer'
p3197
Nsg32
I00
sg2368
g2427
sg88
Nsg2367
NsS'_rotation_mode'
p3198
Nsg33
Nsg96
Nsg86
I01
sS'_verticalalignment'
p3199
Vbaseline
p3200
sS'_text'
p3201
V
p3202
sS'_bbox_patch'
p3203
Nsg103
g0
(g104
g105
((lp3204
(lp3205
tp3206
tp3207
Rp3208
sg111
I0
sS'_rotation'
p3209
Nsg112
I01
sg114
NsS'_linespacing'
p3210
F1.2
sg115
g836
sS'_usetex'
p3211
I01
sS'_wrap'
p3212
I00
sg43
NsS'_color'
p3213
V0.
p3214
sS'_horizontalalignment'
p3215
Vcenter
p3216
sg34
NsbsS'_current_image'
p3217
NsS'mouseover_set'
p3218
c__builtin__
set
p3219
((lp3220
tp3221
Rp3222
sg11
NsS'_cursorProps'
p3223
(I1
g2507
tp3224
sS'numRows'
p3225
I1
sS'collections'
p3226
(lp3227
sg2368
g2427
sg30
(dp3228
sg32
I00
sS'containers'
p3229
(lp3230
g0
(cmatplotlib.container
BarContainer
p3231
g105
(g2449
g2537
g2608
g2679
g2750
g2821
g2892
g2963
g3034
g3105
tp3232
tp3233
Rp3234
(dp3235
g6
V_container0
p3236
sg2386
(lp3237
g2449
ag2537
ag2608
ag2679
ag2750
ag2821
ag2892
ag2963
ag3034
ag3105
asg30
(dp3238
sg34
Nsg32
I00
sS'errorbar'
p3239
Nsg111
I0
sbasg29
I00
sg88
NsS'_get_lines'
p3240
g0
(g2431
g2
Ntp3241
Rp3242
(dp3243
g2435
g2427
sg2436
Vplot
p3244
sbsS'_aspect'
p3245
Vauto
p3246
sS'fmt_xdata'
p3247
Nsg2375
g0
(g2376
g2
Ntp3248
Rp3249
I01
bsg96
Nsg97
Vwhite
p3250
sg86
I01
sg2380
g249
sS'ignore_existing_data_limits'
p3251
I00
sg24
Nsg111
I0
sg112
I00
sS'_left_title'
p3252
g0
(g3176
g2
Ntp3253
Rp3254
(dp3255
g6
g7
sg8
I01
sg9
g4
sg10
Nsg3180
g0
(g3181
g2
Ntp3256
Rp3257
(dp3258
g3185
g3186
sg3188
Nsg3189
g3190
sg3191
g3190
sg3192
F9.6
sg3193
I400
sg3194
g3190
sbsg42
Nsg17
g18
sg3195
Nsg20
I01
sg23
Nsg75
F1.0
sg76
F0.0
sg24
Nsg25
Nsg11
Nsg28
I00
sg29
I00
sg30
(dp3259
sg3197
Nsg32
I00
sg2368
g2427
sg88
Nsg2367
Nsg3198
Nsg33
Nsg96
Nsg86
I01
sg3199
Vbaseline
p3260
sg3201
V
p3261
sg3203
Nsg103
g0
(g104
g105
((lp3262
(lp3263
tp3264
tp3265
Rp3266
sg111
I0
sg3209
Nsg112
I01
sg114
Nsg3210
F1.2
sg115
g844
sg3211
I01
sg3212
I00
sg43
Nsg3213
g3214
sg3215
Vleft
p3267
sg34
NsbsS'_right_title'
p3268
g0
(g3176
g2
Ntp3269
Rp3270
(dp3271
g6
g7
sg8
I01
sg9
g4
sg10
Nsg3180
g0
(g3181
g2
Ntp3272
Rp3273
(dp3274
g3185
g3186
sg3188
Nsg3189
g3190
sg3191
g3190
sg3192
F9.6
sg3193
I400
sg3194
g3190
sbsg42
Nsg17
g18
sg3195
Nsg20
I01
sg23
Nsg75
F1.0
sg76
F1.0
sg24
Nsg25
Nsg11
Nsg28
I00
sg29
I00
sg30
(dp3275
sg3197
Nsg32
I00
sg2368
g2427
sg88
Nsg2367
Nsg3198
Nsg33
Nsg96
Nsg86
I01
sg3199
g3260
sg3201
V
p3276
sg3203
Nsg103
g0
(g104
g105
((lp3277
(lp3278
tp3279
tp3280
Rp3281
sg111
I0
sg3209
Nsg112
I01
sg114
Nsg3210
F1.2
sg115
g848
sg3211
I01
sg3212
I00
sg43
Nsg3213
g3214
sg3215
Vright
p3282
sg34
NsbsS'transScale'
p3283
g191
sg115
NsS'axison'
p3284
I01
sS'patch'
p3285
g0
(g36
g2
Ntp3286
Rp3287
(dp3288
g6
g7
sg40
F1.0
sg41
I01
sg9
g4
sg8
I01
sg10
Nsg42
Nsg17
g18
sg43
Nsg20
I01
sg44
g0
(g45
g2
Ntp3289
Rp3290
(dp3291
g49
I1
sg50
Nsg51
g7
sg52
(dp3292
sbsg54
g2456
sg23
Nsg75
F0.0
sg76
F0.0
sg24
Nsg77
VNone
p3293
sg11
Nsg28
I00
sg29
I00
sg30
(dp3294
sg80
g1982
sg32
I00
sg85
Nsg86
I01
sg87
F0.0
sg88
Nsg89
F1.0
sg33
Nsg90
g2456
sg91
Nsg92
I01
sg93
Nsg94
g3250
sg96
Nsg97
g98
sg99
g100
sg101
g102
sg103
g0
(g104
g105
((lp3295
(lp3296
tp3297
tp3298
Rp3299
sg111
I0
sg112
I01
sg113
F0.0
sg114
Nsg115
g246
sg2363
(NNtp3300
sg2365
g2366
sg2367
Nsg25
Nsg2368
Nsg34
NsbsS'viewLim'
p3301
g200
sg17
g18
sS'_subplotspec'
p3302
g2401
sS'_adjustable'
p3303
Vbox
p3304
sg9
g4
sS'titleOffsetTrans'
p3305
g839
sS'_yaxis_transform'
p3306
g184
sS'_gridOn'
p3307
I00
sg10
NsS'colNum'
p3308
I0
sg42
Nsg2370
(lp3309
sS'_autoscaleXon'
p3310
I00
sS'_xmargin'
p3311
F0.05
sS'rowNum'
p3312
I0
sS'_position'
p3313
g252
sS'_rasterization_zorder'
p3314
NsS'_cachedRenderer'
p3315
NsS'_navigate'
p3316
I01
sg23
NsS'_originalPosition'
p3317
g0
(g127
g2
Ntp3318
Rp3319
(dp3320
g49
I1
sg131
g132
(g133
(I0
tp3321
g135
tp3322
Rp3323
(I1
(I2
tp3324
g59
I00
S'\x00\x00\x00\x00\x00\x00\xf0\x7f\x00\x00\x00\x00\x00\x00\xf0\x7f'
p3325
tp3326
bsg52
(dp3327
sg142
g132
(g133
(I0
tp3328
g135
tp3329
Rp3330
(I1
(I2
I2
tp3331
g59
I00
S'\x00\x00\x00\x00\x00\x00\xc0?\x00\x00\x00\x00\x00\x00\xc0?\xcd\xcc\xcc\xcc\xcc\xcc\xec?)\\\x8f\xc2\xf5(\xec?'
p3332
tp3333
bsg149
g132
(g133
(I0
tp3334
g135
tp3335
Rp3336
(I1
(I2
I2
tp3337
g59
I00
S'\x00\x00\x00\x00\x00\x00\xc0?\x00\x00\x00\x00\x00\x00\xc0?\xcd\xcc\xcc\xcc\xcc\xcc\xec?)\\\x8f\xc2\xf5(\xec?'
p3338
tp3339
bsg156
I01
sg51
g7
sbsg25
NsS'_xaxis_transform'
p3340
g1492
sg28
I00
sS'figbox'
p3341
g252
sS'xaxis'
p3342
g0
(cmatplotlib.axis
XAxis
p3343
g2
Ntp3344
Rp3345
(dp3346
g6
g7
sS'major'
p3347
g0
(cmatplotlib.axis
Ticker
p3348
g2
Ntp3349
Rp3350
(dp3351
S'locator'
p3352
g0
(cmatplotlib.ticker
FixedLocator
p3353
g2
Ntp3354
Rp3355
(dp3356
S'locs'
p3357
g132
(g133
(I0
tp3358
g135
tp3359
Rp3360
(I1
(I4
tp3361
g56
(S'i8'
p3362
I0
I1
tp3363
Rp3364
(I3
S'<'
p3365
NNNI-1
I-1
I0
tp3366
bI00
S'\x00\x00\x00\x00\x00\x00\x00\x00\x02\x00\x00\x00\x00\x00\x00\x00\x04\x00\x00\x00\x00\x00\x00\x00\x06\x00\x00\x00\x00\x00\x00\x00'
p3367
tp3368
bsS'axis'
p3369
g3345
sS'nbins'
p3370
NsbsS'formatter'
p3371
g0
(cmatplotlib.ticker
ScalarFormatter
p3372
g2
Ntp3373
Rp3374
(dp3375
S'_powerlimits'
p3376
(lp3377
I-7
aI7
asS'orderOfMagnitude'
p3378
I0
sS'_useOffset'
p3379
I01
sS'_useLocale'
p3380
I00
sS'format'
p3381
g7
sS'_useMathText'
p3382
I00
sS'_offset_threshold'
p3383
I4
sS'offset'
p3384
I0
sg3211
I01
sS'_scientific'
p3385
I01
sg3369
g3345
sbsbsS'isDefault_label'
p3386
I00
sS'_scale'
p3387
g0
(cmatplotlib.scale
LinearScale
p3388
g2
Ntp3389
Rp3390
sg9
g4
sg8
I01
sS'_gridOnMinor'
p3391
I00
sg10
Nsg42
NsS'_smart_bounds'
p3392
I00
sg17
g18
sg20
I01
sg23
NsS'offsetText'
p3393
g0
(g3176
g2
Ntp3394
Rp3395
(dp3396
g6
g7
sg8
I01
sg9
g4
sg10
Nsg3180
g0
(g3181
g2
Ntp3397
Rp3398
(dp3399
g3185
(lp3400
g3187
asg3188
Nsg3189
g3190
sg3191
g3190
sg3192
F8.0
sg3193
I400
sg3194
g3190
sbsg42
Nsg17
g18
sg3195
Nsg20
I01
sg23
Nsg75
I0
sg76
I1
sg24
Nsg25
Nsg11
Nsg28
I00
sg29
I00
sg30
(dp3401
sg3197
Nsg32
I00
sg2368
Nsg88
Nsg2367
Nsg3198
Nsg33
Nsg96
Nsg86
I01
sg3199
Vtop
p3402
sg3201
V
p3403
sg3203
Nsg103
g0
(g104
g105
((lp3404
(lp3405
tp3406
tp3407
Rp3408
sg111
I0
sg3209
Nsg112
I01
sg114
Nsg3210
F1.2
sg115
g1484
sg3211
I01
sg3212
I00
sg43
Nsg3213
V0.
p3409
sg3215
Vright
p3410
sg34
Nsbsg24
Nsg25
Nsg11
NsS'label'
p3411
g0
(g3176
g2
Ntp3412
Rp3413
(dp3414
g6
g7
sg8
I01
sg9
g4
sg10
Nsg3180
g0
(g3181
g2
Ntp3415
Rp3416
(dp3417
g3185
(lp3418
g3187
asg3188
Nsg3189
g3190
sg3191
g3190
sg3192
F10.0
sg3193
I400
sg3194
g3190
sbsg42
Nsg17
g18
sg3195
Nsg20
I01
sg23
Nsg75
I0
sg76
F0.5
sg24
Nsg25
Nsg11
Nsg28
I00
sg29
I00
sg30
(dp3419
sg3197
Nsg32
I00
sg2368
Nsg88
Nsg2367
Nsg3198
Nsg33
Nsg96
Nsg86
I01
sg3199
Vtop
p3420
sg3201
VI/E Ratio
p3421
sg3203
Nsg103
g0
(g104
g105
((lp3422
(lp3423
tp3424
tp3425
Rp3426
sg111
I0
sg3209
Nsg112
I01
sg114
Nsg3210
F1.2
sg115
g2267
sg3211
I01
sg3212
I00
sg43
Nsg3213
V0.
p3427
sg3215
Vcenter
p3428
sg34
Nsbsg28
I00
sS'isDefault_majfmt'
p3429
I01
sg29
I00
sg30
(dp3430
sS'units'
p3431
Nsg32
I00
sS'minor'
p3432
g0
(g3348
g2
Ntp3433
Rp3434
(dp3435
g3352
g0
(cmatplotlib.ticker
NullLocator
p3436
g2
Ntp3437
Rp3438
(dp3439
g3369
g3345
sbsg3371
g0
(cmatplotlib.ticker
NullFormatter
p3440
g2
Ntp3441
Rp3442
(dp3443
g3369
g3345
sbsbsg2368
g2427
sS'_major_tick_kw'
p3444
(dp3445
Vlabel1On
p3446
I01
sVgridOn
p3447
I00
sVlabel2On
p3448
I00
sVtick1On
p3449
I01
sVtick2On
p3450
I00
ssS'isDefault_minloc'
p3451
I01
sg88
g1247
sg33
NsS'_gridOnMajor'
p3452
I00
sS'_lastNumMinorTicks'
p3453
I1
sS'labelpad'
p3454
F4.0
sS'majorTicks'
p3455
(lp3456
g0
(cmatplotlib.axis
XTick
p3457
g2
Ntp3458
Rp3459
(dp3460
g6
g7
sg40
F0.8
sg9
g4
sS'tick1On'
p3461
I01
sg8
I01
sg10
Nsg111
I0
sg42
NsS'_pad'
p3462
F3.5
sS'_labelcolor'
p3463
g3409
sS'gridOn'
p3464
I00
sg3192
F0.0
sg17
g18
sS'_tickdir'
p3465
Vout
p3466
sg3411
g0
(g3176
g2
Ntp3467
Rp3468
(dp3469
g6
g7
sg8
I01
sg9
g4
sg10
Nsg3180
g0
(g3181
g2
Ntp3470
Rp3471
(dp3472
g3185
(lp3473
g3187
asg3188
Nsg3189
g3190
sg3191
g3190
sg3192
F8.0
sg3193
I400
sg3194
g3190
sbsg42
Nsg17
g18
sg3195
Nsg20
I01
sg23
Nsg75
I0
sg76
I0
sg24
Nsg25
Nsg11
Nsg28
I00
sg29
I00
sg30
(dp3474
sg3197
Nsg32
I00
sg2368
Nsg88
Nsg2367
Nsg3198
Nsg33
Nsg96
Nsg86
I01
sg3199
Vtop
p3475
sg3201
V
p3476
sg3203
Nsg103
g0
(g104
g105
((lp3477
(lp3478
tp3479
tp3480
Rp3481
sg111
I0
sg3209
Nsg112
I01
sg114
Nsg3210
F1.2
sg115
g1524
sg3211
I01
sg3212
I00
sg43
Nsg3213
g3409
sg3215
Vcenter
p3482
sg34
Nsbsg20
I01
sg23
NsS'label2On'
p3483
I00
sg24
Nsg25
Nsg11
NsS'tick2On'
p3484
I00
sg28
I00
sg29
I00
sg30
(dp3485
sS'_tickmarkers'
p3486
(I3
I2
tp3487
sg32
I00
sS'_zorder'
p3488
F2.01
sg2368
g2427
sS'label1On'
p3489
I01
sg88
g1317
sg2367
NsS'label1'
p3490
g3468
sS'label2'
p3491
g0
(g3176
g2
Ntp3492
Rp3493
(dp3494
g6
g7
sg8
I01
sg9
g4
sg10
Nsg3180
g0
(g3181
g2
Ntp3495
Rp3496
(dp3497
g3185
(lp3498
g3187
asg3188
Nsg3189
g3190
sg3191
g3190
sg3192
F8.0
sg3193
I400
sg3194
g3190
sbsg42
Nsg17
g18
sg3195
Nsg20
I01
sg23
Nsg75
I1
sg76
I0
sg24
Nsg25
Nsg11
Nsg28
I00
sg29
I00
sg30
(dp3499
sg3197
Nsg32
I00
sg2368
Nsg88
Nsg2367
Nsg3198
Nsg33
Nsg96
Nsg86
I01
sg3199
Vbottom
p3500
sg3201
V
p3501
sg3203
Nsg103
g0
(g104
g105
((lp3502
(lp3503
tp3504
tp3505
Rp3506
sg111
I0
sg3209
Nsg112
I01
sg114
Nsg3210
F1.2
sg115
g1533
sg3211
I01
sg3212
I00
sg43
Nsg3213
g3409
sg3215
g3482
sg34
Nsbsg96
NsS'_loc'
p3507
I0
sg86
I01
sg103
g0
(g104
g105
((lp3508
(lp3509
tp3510
tp3511
Rp3512
sS'_base_pad'
p3513
F3.5
sS'tick1line'
p3514
g0
(cmatplotlib.lines
Line2D
p3515
g2
Ntp3516
Rp3517
(dp3518
g6
g7
sS'_dashcapstyle'
p3519
Vbutt
p3520
sS'_linestyles'
p3521
Nsg20
I01
sS'_x_filled'
p3522
NsS'ind_offset'
p3523
I0
sg75
Nsg76
Nsg24
Nsg11
Nsg29
I00
sg30
(dp3524
sg32
I00
sg2368
NsS'_markeredgewidth'
p3525
F0.8
sS'_dashSeq'
p3526
NsS'_markerfacecoloralt'
p3527
Vnone
p3528
sS'_markeredgecolor'
p3529
Vauto
p3530
sg96
Nsg86
I01
sS'_xorig'
p3531
(I0
tp3532
sg111
I0
sg112
I01
sS'_invalidy'
p3533
I01
sS'_invalidx'
p3534
I01
sg115
g1492
sS'_us_dashSeq'
p3535
NsS'zorder'
p3536
F2.01
sg3213
g3409
sS'pickradius'
p3537
I5
sg9
g4
sS'verticalOffset'
p3538
Nsg10
Nsg42
Nsg17
g18
sS'_solidjoinstyle'
p3539
Vround
p3540
sg23
Nsg25
Nsg28
I00
sS'_markevery'
p3541
Nsg34
NsS'_transformed_path'
p3542
NsS'_marker'
p3543
g0
(cmatplotlib.markers
MarkerStyle
p3544
g2
Ntp3545
Rp3546
(dp3547
g3543
I3
sS'_alt_path'
p3548
NsS'_snap_threshold'
p3549
F1.0
sg115
g0
(g157
g2
Ntp3550
Rp3551
(dp3552
g49
I2
sg50
Nsg120
g132
(g133
(I0
tp3553
g135
tp3554
Rp3555
(I1
(I3
I3
tp3556
g59
I00
S'\x00\x00\x00\x00\x00\x00\xf0?\x00\x00\x00\x00\x00\x00\x00\x00\x00\x00\x00\x00\x00\x00\x00\x00\x00\x00\x00\x00\x00\x00\x00\x00\x00\x00\x00\x00\x00\x00\xf0\xbf\x00\x00\x00\x00\x00\x00\x00\x00\x00\x00\x00\x00\x00\x00\x00\x00\x00\x00\x00\x00\x00\x00\x00\x00\x00\x00\x00\x00\x00\x00\xf0?'
p3557
tp3558
bsg51
g7
sg52
(dp3559
sbsS'_filled'
p3560
I00
sS'_fillstyle'
p3561
Vfull
p3562
sS'_alt_transform'
p3563
Nsg2365
Vbutt
p3564
sg99
Vround
p3565
sS'_path'
p3566
g0
(cmatplotlib.path
Path
p3567
g2
Ntp3568
Rp3569
(dp3570
S'_should_simplify'
p3571
I00
sS'_codes'
p3572
NsS'_vertices'
p3573
g132
(g133
(I0
tp3574
g135
tp3575
Rp3576
(I1
(I2
I2
tp3577
g59
I00
S'\x00\x00\x00\x00\x00\x00\x00\x80\x00\x00\x00\x00\x00\x00\x00\x00\x00\x00\x00\x00\x00\x00\x00\x80\x00\x00\x00\x00\x00\x00\xf0?'
p3578
tp3579
bsS'_readonly'
p3580
I00
sS'_simplify_threshold'
p3581
F0.1111111111111111
sS'_interpolation_steps'
p3582
I1
sS'_has_nonfinite'
p3583
I00
sbsbsS'_markerfacecolor'
p3584
Vauto
p3585
sg88
Nsg33
Nsg92
I01
sS'_xy'
p3586
Nsg101
VNone
p3587
sg103
g0
(g104
g105
((lp3588
(lp3589
tp3590
tp3591
Rp3592
sS'_subslice'
p3593
I00
sS'_drawstyle'
p3594
Vdefault
p3595
sS'_solidcapstyle'
p3596
g3540
sS'_us_dashOffset'
p3597
Nsg114
NsS'_dashjoinstyle'
p3598
g3540
sS'_markersize'
p3599
F0.0
sg8
I01
sS'_dashOffset'
p3600
Nsg43
Nsg2367
NsS'_yorig'
p3601
(I0
tp3602
sg87
F0.5
sg3566
Nsbsg112
I00
sS'gridline'
p3603
g0
(g3515
g2
Ntp3604
Rp3605
(dp3606
g6
g7
sg8
I01
sg3596
g3540
sg9
g4
sg3519
g3520
sg3521
Nsg10
Nsg42
Nsg17
g18
sg3539
g3540
sg20
I01
sg3522
Nsg23
Nsg75
g132
(g133
(I0
tp3607
g135
tp3608
Rp3609
(I1
(I2
tp3610
g59
I00
S'\x00\x00\x00\x00\x00\x00\x00\x00\x00\x00\x00\x00\x00\x00\xf0?'
p3611
tp3612
bsg76
g132
(g133
(I0
tp3613
g135
tp3614
Rp3615
(I1
(I2
tp3616
g59
I00
S'\x00\x00\x00\x00\x00\x00\x00\x00\x00\x00\x00\x00\x00\x00\x00\x00'
p3617
tp3618
bsg24
Nsg25
Nsg11
Nsg3531
(F0.0
F0.0
tp3619
sg28
I00
sg3541
Nsg29
I00
sg30
(dp3620
sg3538
Nsg32
I00
sg3593
I00
sg2368
Nsg3542
Nsg3525
F1.0
sg3584
g3585
sg3526
Nsg3213
V.8
p3621
sg3543
g0
(g3544
g2
Ntp3622
Rp3623
(dp3624
g3543
VNone
p3625
sg3548
Nsg3549
Nsg115
g0
(g45
g2
Ntp3626
Rp3627
(dp3628
g49
I1
sg50
Nsg51
g7
sg52
(dp3629
sbsg3560
I00
sg3561
g3562
sg3563
Nsg2365
g3564
sg99
g3565
sg3566
g0
(g3567
g2
Ntp3630
Rp3631
(dp3632
g3571
I00
sg3572
Nsg3573
g132
(g133
(I0
tp3633
g135
tp3634
Rp3635
(I1
(I0
I2
tp3636
g59
I00
S''
p3637
tp3638
bsg3580
I00
sg3581
F0.1111111111111111
sg3582
I1
sg3583
I00
sbsbsg33
Nsg3527
g3528
sg92
I01
sg3529
g3530
sg96
Nsg3599
F0.0
sg86
I01
sg3586
g132
(g133
(I0
tp3639
g135
tp3640
Rp3641
(I1
(I2
I2
tp3642
g59
I00
S'\x00\x00\x00\x00\x00\x00\x00\x00\x00\x00\x00\x00\x00\x00\x00\x00\x00\x00\x00\x00\x00\x00\x00\x00\x00\x00\x00\x00\x00\x00\xf0?'
p3643
tp3644
bsg101
V-
p3645
sg103
g0
(g104
g105
((lp3646
(lp3647
tp3648
tp3649
Rp3650
sg111
I0
sg3594
g3595
sg3523
I0
sg3597
Nsg3537
I5
sg112
I01
sg114
F1.0
sg3598
g3540
sg3534
I00
sg115
g1492
sg3600
Nsg3535
Nsg3533
I00
sg43
Nsg2367
Nsg3601
(I0
F1.0
tp3651
sg88
g1387
sg87
F0.8
sg34
Nsg3566
g0
(g3567
g2
Ntp3652
Rp3653
(dp3654
g3571
I00
sg3572
Nsg3573
g3641
sg3580
I00
sg3581
F0.1111111111111111
sg3582
I180
sg3583
I00
sbsbsg114
Nsg33
NsS'tick2line'
p3655
g0
(g3515
g2
Ntp3656
Rp3657
(dp3658
g6
g7
sg3519
g3520
sg3521
Nsg20
I01
sg3522
Nsg3523
I0
sg75
Nsg76
Nsg24
Nsg11
Nsg29
I00
sg30
(dp3659
sg32
I00
sg2368
Nsg3525
F0.8
sg3526
Nsg3527
g3528
sg3529
g3530
sg96
Nsg86
I01
sg3531
(I0
tp3660
sg111
I0
sg112
I01
sg3533
I01
sg3534
I01
sg115
g1492
sg3535
Nsg3536
F2.01
sg3213
g3409
sg3537
I5
sg9
g4
sg3538
Nsg10
Nsg42
Nsg17
g18
sg3539
g3540
sg23
Nsg25
Nsg28
I00
sg3541
Nsg34
Nsg3542
Nsg3543
g0
(g3544
g2
Ntp3661
Rp3662
(dp3663
g3543
I2
sg3548
Nsg3549
F1.0
sg115
g0
(g157
g2
Ntp3664
Rp3665
(dp3666
g49
I2
sg50
Nsg120
g132
(g133
(I0
tp3667
g135
tp3668
Rp3669
(I1
(I3
I3
tp3670
g59
I00
S'\x00\x00\x00\x00\x00\x00\xf0?\x00\x00\x00\x00\x00\x00\x00\x00\x00\x00\x00\x00\x00\x00\x00\x00\x00\x00\x00\x00\x00\x00\x00\x00\x00\x00\x00\x00\x00\x00\xf0?\x00\x00\x00\x00\x00\x00\x00\x00\x00\x00\x00\x00\x00\x00\x00\x00\x00\x00\x00\x00\x00\x00\x00\x00\x00\x00\x00\x00\x00\x00\xf0?'
p3671
tp3672
bsg51
g7
sg52
(dp3673
sbsg3560
I00
sg3561
g3562
sg3563
Nsg2365
g3564
sg99
g3565
sg3566
g3569
sbsg3584
g3585
sg88
Nsg33
Nsg92
I01
sg3586
Nsg101
VNone
p3674
sg103
g0
(g104
g105
((lp3675
(lp3676
tp3677
tp3678
Rp3679
sg3593
I00
sg3594
g3595
sg3596
g3540
sg3597
Nsg114
Nsg3598
g3540
sg3599
F0.0
sg8
I01
sg3600
Nsg43
Nsg2367
Nsg3601
(I1
tp3680
sg87
F0.5
sg3566
Nsbsg115
NsS'_labelsize'
p3681
F8.0
sS'_name'
p3682
Vxtick
p3683
sg43
Nsg3213
g3409
sg34
Nsbag0
(g3457
g2
Ntp3684
Rp3685
(dp3686
g6
g7
sg40
F0.8
sg9
g4
sg3461
I01
sg8
I01
sg10
Nsg111
I0
sg42
Nsg3462
F3.5
sg3463
g3409
sg3464
I00
sg3192
F0.0
sg17
g18
sg3465
g3466
sg3411
g0
(g3176
g2
Ntp3687
Rp3688
(dp3689
g6
g7
sg8
I01
sg9
g4
sg10
Nsg3180
g0
(g3181
g2
Ntp3690
Rp3691
(dp3692
g3185
g3473
sg3188
Nsg3189
g3190
sg3191
g3190
sg3192
F8.0
sg3193
I400
sg3194
g3190
sbsg42
Nsg17
g18
sg3195
Nsg20
I01
sg23
Nsg75
I0
sg76
I0
sg24
Nsg25
Nsg11
Nsg28
I00
sg29
I00
sg30
(dp3693
sg3197
Nsg32
I00
sg2368
Nsg88
Nsg2367
Nsg3198
Nsg33
Nsg96
Nsg86
I01
sg3199
g3475
sg3201
V
p3694
sg3203
Nsg103
g0
(g104
g105
((lp3695
(lp3696
tp3697
tp3698
Rp3699
sg111
I0
sg3209
Nsg112
I01
sg114
Nsg3210
F1.2
sg115
g1524
sg3211
I01
sg3212
I00
sg43
Nsg3213
g3409
sg3215
g3482
sg34
Nsbsg20
I01
sg23
Nsg3483
I00
sg24
Nsg25
Nsg11
Nsg3484
I00
sg28
I00
sg29
I00
sg30
(dp3700
sg3486
(I3
I2
tp3701
sg32
I00
sg3488
F2.01
sg2368
g2427
sg3489
I01
sg88
g530
sg2367
Nsg3490
g3688
sg3491
g0
(g3176
g2
Ntp3702
Rp3703
(dp3704
g6
g7
sg8
I01
sg9
g4
sg10
Nsg3180
g0
(g3181
g2
Ntp3705
Rp3706
(dp3707
g3185
g3498
sg3188
Nsg3189
g3190
sg3191
g3190
sg3192
F8.0
sg3193
I400
sg3194
g3190
sbsg42
Nsg17
g18
sg3195
Nsg20
I01
sg23
Nsg75
I1
sg76
I0
sg24
Nsg25
Nsg11
Nsg28
I00
sg29
I00
sg30
(dp3708
sg3197
Nsg32
I00
sg2368
Nsg88
Nsg2367
Nsg3198
Nsg33
Nsg96
Nsg86
I01
sg3199
g3500
sg3201
V
p3709
sg3203
Nsg103
g0
(g104
g105
((lp3710
(lp3711
tp3712
tp3713
Rp3714
sg111
I0
sg3209
Nsg112
I01
sg114
Nsg3210
F1.2
sg115
g1533
sg3211
I01
sg3212
I00
sg43
Nsg3213
g3409
sg3215
g3482
sg34
Nsbsg96
Nsg3507
I0
sg86
I01
sg103
g0
(g104
g105
((lp3715
(lp3716
tp3717
tp3718
Rp3719
sg3513
F3.5
sg3514
g0
(g3515
g2
Ntp3720
Rp3721
(dp3722
g6
g7
sg3519
g3520
sg3521
Nsg20
I01
sg3522
Nsg3523
I0
sg75
Nsg76
Nsg24
Nsg11
Nsg29
I00
sg30
(dp3723
sg32
I00
sg2368
Nsg3525
F0.8
sg3526
Nsg3527
g3528
sg3529
g3530
sg96
Nsg86
I01
sg3531
(I0
tp3724
sg111
I0
sg112
I01
sg3533
I01
sg3534
I01
sg115
g1492
sg3535
Nsg3536
F2.01
sg3213
g3409
sg3537
I5
sg9
g4
sg3538
Nsg10
Nsg42
Nsg17
g18
sg3539
g3540
sg23
Nsg25
Nsg28
I00
sg3541
Nsg34
Nsg3542
Nsg3543
g0
(g3544
g2
Ntp3725
Rp3726
(dp3727
g3543
I3
sg3548
Nsg3549
F1.0
sg115
g0
(g157
g2
Ntp3728
Rp3729
(dp3730
g49
I2
sg50
Nsg120
g132
(g133
(I0
tp3731
g135
tp3732
Rp3733
(I1
(I3
I3
tp3734
g59
I00
S'\x00\x00\x00\x00\x00\x00\xf0?\x00\x00\x00\x00\x00\x00\x00\x00\x00\x00\x00\x00\x00\x00\x00\x00\x00\x00\x00\x00\x00\x00\x00\x00\x00\x00\x00\x00\x00\x00\xf0\xbf\x00\x00\x00\x00\x00\x00\x00\x00\x00\x00\x00\x00\x00\x00\x00\x00\x00\x00\x00\x00\x00\x00\x00\x00\x00\x00\x00\x00\x00\x00\xf0?'
p3735
tp3736
bsg51
g7
sg52
(dp3737
sbsg3560
I00
sg3561
g3562
sg3563
Nsg2365
g3564
sg99
g3565
sg3566
g3569
sbsg3584
g3585
sg88
Nsg33
Nsg92
I01
sg3586
Nsg101
g3587
sg103
g0
(g104
g105
((lp3738
(lp3739
tp3740
tp3741
Rp3742
sg3593
I00
sg3594
g3595
sg3596
g3540
sg3597
Nsg114
Nsg3598
g3540
sg3599
F0.0
sg8
I01
sg3600
Nsg43
Nsg2367
Nsg3601
g3602
sg87
F0.5
sg3566
Nsbsg112
I00
sg3603
g0
(g3515
g2
Ntp3743
Rp3744
(dp3745
g6
g7
sg8
I01
sg3596
g3540
sg9
g4
sg3519
g3520
sg3521
Nsg10
Nsg42
Nsg17
g18
sg3539
g3540
sg20
I01
sg3522
Nsg23
Nsg75
g132
(g133
(I0
tp3746
g135
tp3747
Rp3748
(I1
(I2
tp3749
g59
I00
S'\x00\x00\x00\x00\x00\x00\x00\x00\x00\x00\x00\x00\x00\x00\xf0?'
p3750
tp3751
bsg76
g132
(g133
(I0
tp3752
g135
tp3753
Rp3754
(I1
(I2
tp3755
g59
I00
S'\x00\x00\x00\x00\x00\x00\x00\x00\x00\x00\x00\x00\x00\x00\x00\x00'
p3756
tp3757
bsg24
Nsg25
Nsg11
Nsg3531
g3619
sg28
I00
sg3541
Nsg29
I00
sg30
(dp3758
sg3538
Nsg32
I00
sg3593
I00
sg2368
Nsg3542
Nsg3525
F1.0
sg3584
g3585
sg3526
Nsg3213
g3621
sg3543
g0
(g3544
g2
Ntp3759
Rp3760
(dp3761
g3543
g3625
sg3548
Nsg3549
Nsg115
g0
(g45
g2
Ntp3762
Rp3763
(dp3764
g49
I1
sg50
Nsg51
g7
sg52
(dp3765
sbsg3560
I00
sg3561
g3562
sg3563
Nsg2365
g3564
sg99
g3565
sg3566
g0
(g3567
g2
Ntp3766
Rp3767
(dp3768
g3571
I00
sg3572
Nsg3573
g132
(g133
(I0
tp3769
g135
tp3770
Rp3771
(I1
(I0
I2
tp3772
g59
I00
g3637
tp3773
bsg3580
I00
sg3581
F0.1111111111111111
sg3582
I1
sg3583
I00
sbsbsg33
Nsg3527
g3528
sg92
I01
sg3529
g3530
sg96
Nsg3599
F0.0
sg86
I01
sg3586
g132
(g133
(I0
tp3774
g135
tp3775
Rp3776
(I1
(I2
I2
tp3777
g59
I00
S'\x00\x00\x00\x00\x00\x00\x00\x00\x00\x00\x00\x00\x00\x00\x00\x00\x00\x00\x00\x00\x00\x00\x00\x00\x00\x00\x00\x00\x00\x00\xf0?'
p3778
tp3779
bsg101
g3645
sg103
g0
(g104
g105
((lp3780
(lp3781
tp3782
tp3783
Rp3784
sg111
I0
sg3594
g3595
sg3523
I0
sg3597
Nsg3537
I5
sg112
I01
sg114
F1.0
sg3598
g3540
sg3534
I00
sg115
g1492
sg3600
Nsg3535
Nsg3533
I00
sg43
Nsg2367
Nsg3601
g3651
sg88
g1387
sg87
F0.8
sg34
Nsg3566
g0
(g3567
g2
Ntp3785
Rp3786
(dp3787
g3571
I00
sg3572
Nsg3573
g3776
sg3580
I00
sg3581
F0.1111111111111111
sg3582
I180
sg3583
I00
sbsbsg114
Nsg33
Nsg3655
g0
(g3515
g2
Ntp3788
Rp3789
(dp3790
g6
g7
sg3519
g3520
sg3521
Nsg20
I01
sg3522
Nsg3523
I0
sg75
Nsg76
Nsg24
Nsg11
Nsg29
I00
sg30
(dp3791
sg32
I00
sg2368
Nsg3525
F0.8
sg3526
Nsg3527
g3528
sg3529
g3530
sg96
Nsg86
I01
sg3531
(I0
tp3792
sg111
I0
sg112
I01
sg3533
I01
sg3534
I01
sg115
g1492
sg3535
Nsg3536
F2.01
sg3213
g3409
sg3537
I5
sg9
g4
sg3538
Nsg10
Nsg42
Nsg17
g18
sg3539
g3540
sg23
Nsg25
Nsg28
I00
sg3541
Nsg34
Nsg3542
Nsg3543
g0
(g3544
g2
Ntp3793
Rp3794
(dp3795
g3543
I2
sg3548
Nsg3549
F1.0
sg115
g0
(g157
g2
Ntp3796
Rp3797
(dp3798
g49
I2
sg50
Nsg120
g132
(g133
(I0
tp3799
g135
tp3800
Rp3801
(I1
(I3
I3
tp3802
g59
I00
S'\x00\x00\x00\x00\x00\x00\xf0?\x00\x00\x00\x00\x00\x00\x00\x00\x00\x00\x00\x00\x00\x00\x00\x00\x00\x00\x00\x00\x00\x00\x00\x00\x00\x00\x00\x00\x00\x00\xf0?\x00\x00\x00\x00\x00\x00\x00\x00\x00\x00\x00\x00\x00\x00\x00\x00\x00\x00\x00\x00\x00\x00\x00\x00\x00\x00\x00\x00\x00\x00\xf0?'
p3803
tp3804
bsg51
g7
sg52
(dp3805
sbsg3560
I00
sg3561
g3562
sg3563
Nsg2365
g3564
sg99
g3565
sg3566
g3569
sbsg3584
g3585
sg88
Nsg33
Nsg92
I01
sg3586
Nsg101
g3674
sg103
g0
(g104
g105
((lp3806
(lp3807
tp3808
tp3809
Rp3810
sg3593
I00
sg3594
g3595
sg3596
g3540
sg3597
Nsg114
Nsg3598
g3540
sg3599
F0.0
sg8
I01
sg3600
Nsg43
Nsg2367
Nsg3601
g3680
sg87
F0.5
sg3566
Nsbsg115
Nsg3681
F8.0
sg3682
g3683
sg43
Nsg3213
g3409
sg34
Nsbag0
(g3457
g2
Ntp3811
Rp3812
(dp3813
g6
g7
sg40
F0.8
sg9
g4
sg3461
I01
sg8
I01
sg10
Nsg111
I0
sg42
Nsg3462
F3.5
sg3463
g3409
sg3464
I00
sg3192
F0.0
sg17
g18
sg3465
g3466
sg3411
g0
(g3176
g2
Ntp3814
Rp3815
(dp3816
g6
g7
sg8
I01
sg9
g4
sg10
Nsg3180
g0
(g3181
g2
Ntp3817
Rp3818
(dp3819
g3185
g3473
sg3188
Nsg3189
g3190
sg3191
g3190
sg3192
F8.0
sg3193
I400
sg3194
g3190
sbsg42
Nsg17
g18
sg3195
Nsg20
I01
sg23
Nsg75
I0
sg76
I0
sg24
Nsg25
Nsg11
Nsg28
I00
sg29
I00
sg30
(dp3820
sg3197
Nsg32
I00
sg2368
Nsg88
Nsg2367
Nsg3198
Nsg33
Nsg96
Nsg86
I01
sg3199
g3475
sg3201
V
p3821
sg3203
Nsg103
g0
(g104
g105
((lp3822
(lp3823
tp3824
tp3825
Rp3826
sg111
I0
sg3209
Nsg112
I01
sg114
Nsg3210
F1.2
sg115
g1524
sg3211
I01
sg3212
I00
sg43
Nsg3213
g3409
sg3215
g3482
sg34
Nsbsg20
I01
sg23
Nsg3483
I00
sg24
Nsg25
Nsg11
Nsg3484
I00
sg28
I00
sg29
I00
sg30
(dp3827
sg3486
(I3
I2
tp3828
sg32
I00
sg3488
F2.01
sg2368
g2427
sg3489
I01
sg88
Nsg2367
Nsg3490
g3815
sg3491
g0
(g3176
g2
Ntp3829
Rp3830
(dp3831
g6
g7
sg8
I01
sg9
g4
sg10
Nsg3180
g0
(g3181
g2
Ntp3832
Rp3833
(dp3834
g3185
g3498
sg3188
Nsg3189
g3190
sg3191
g3190
sg3192
F8.0
sg3193
I400
sg3194
g3190
sbsg42
Nsg17
g18
sg3195
Nsg20
I01
sg23
Nsg75
I1
sg76
I0
sg24
Nsg25
Nsg11
Nsg28
I00
sg29
I00
sg30
(dp3835
sg3197
Nsg32
I00
sg2368
Nsg88
Nsg2367
Nsg3198
Nsg33
Nsg96
Nsg86
I01
sg3199
g3500
sg3201
V
p3836
sg3203
Nsg103
g0
(g104
g105
((lp3837
(lp3838
tp3839
tp3840
Rp3841
sg111
I0
sg3209
Nsg112
I01
sg114
Nsg3210
F1.2
sg115
g1533
sg3211
I01
sg3212
I00
sg43
Nsg3213
g3409
sg3215
g3482
sg34
Nsbsg96
Nsg3507
I0
sg86
I01
sg103
g0
(g104
g105
((lp3842
(lp3843
tp3844
tp3845
Rp3846
sg3513
F3.5
sg3514
g0
(g3515
g2
Ntp3847
Rp3848
(dp3849
g6
g7
sg3519
g3520
sg3521
Nsg20
I01
sg3522
Nsg3523
I0
sg75
Nsg76
Nsg24
Nsg11
Nsg29
I00
sg30
(dp3850
sg32
I00
sg2368
Nsg3525
F0.8
sg3526
Nsg3527
g3528
sg3529
g3530
sg96
Nsg86
I01
sg3531
(I0
tp3851
sg111
I0
sg112
I01
sg3533
I01
sg3534
I01
sg115
g1492
sg3535
Nsg3536
F2.01
sg3213
g3409
sg3537
I5
sg9
g4
sg3538
Nsg10
Nsg42
Nsg17
g18
sg3539
g3540
sg23
Nsg25
Nsg28
I00
sg3541
Nsg34
Nsg3542
Nsg3543
g0
(g3544
g2
Ntp3852
Rp3853
(dp3854
g3543
I3
sg3548
Nsg3549
F1.0
sg115
g0
(g157
g2
Ntp3855
Rp3856
(dp3857
g49
I2
sg50
Nsg120
g132
(g133
(I0
tp3858
g135
tp3859
Rp3860
(I1
(I3
I3
tp3861
g59
I00
S'\x00\x00\x00\x00\x00\x00\xf0?\x00\x00\x00\x00\x00\x00\x00\x00\x00\x00\x00\x00\x00\x00\x00\x00\x00\x00\x00\x00\x00\x00\x00\x00\x00\x00\x00\x00\x00\x00\xf0\xbf\x00\x00\x00\x00\x00\x00\x00\x00\x00\x00\x00\x00\x00\x00\x00\x00\x00\x00\x00\x00\x00\x00\x00\x00\x00\x00\x00\x00\x00\x00\xf0?'
p3862
tp3863
bsg51
g7
sg52
(dp3864
sbsg3560
I00
sg3561
g3562
sg3563
Nsg2365
g3564
sg99
g3565
sg3566
g3569
sbsg3584
g3585
sg88
Nsg33
Nsg92
I01
sg3586
Nsg101
g3587
sg103
g0
(g104
g105
((lp3865
(lp3866
tp3867
tp3868
Rp3869
sg3593
I00
sg3594
g3595
sg3596
g3540
sg3597
Nsg114
Nsg3598
g3540
sg3599
F0.0
sg8
I01
sg3600
Nsg43
Nsg2367
Nsg3601
g3602
sg87
F0.5
sg3566
Nsbsg112
I00
sg3603
g0
(g3515
g2
Ntp3870
Rp3871
(dp3872
g6
g7
sg8
I01
sg3596
g3540
sg9
g4
sg3519
g3520
sg3521
Nsg10
Nsg42
Nsg17
g18
sg3539
g3540
sg20
I01
sg3522
Nsg23
Nsg75
g132
(g133
(I0
tp3873
g135
tp3874
Rp3875
(I1
(I2
tp3876
g59
I00
S'\x00\x00\x00\x00\x00\x00\x00\x00\x00\x00\x00\x00\x00\x00\xf0?'
p3877
tp3878
bsg76
g132
(g133
(I0
tp3879
g135
tp3880
Rp3881
(I1
(I2
tp3882
g59
I00
S'\x00\x00\x00\x00\x00\x00\x00\x00\x00\x00\x00\x00\x00\x00\x00\x00'
p3883
tp3884
bsg24
Nsg25
Nsg11
Nsg3531
g3619
sg28
I00
sg3541
Nsg29
I00
sg30
(dp3885
sg3538
Nsg32
I00
sg3593
I00
sg2368
Nsg3542
Nsg3525
F1.0
sg3584
g3585
sg3526
Nsg3213
g3621
sg3543
g0
(g3544
g2
Ntp3886
Rp3887
(dp3888
g3543
g3625
sg3548
Nsg3549
Nsg115
g0
(g45
g2
Ntp3889
Rp3890
(dp3891
g49
I1
sg50
Nsg51
g7
sg52
(dp3892
sbsg3560
I00
sg3561
g3562
sg3563
Nsg2365
g3564
sg99
g3565
sg3566
g0
(g3567
g2
Ntp3893
Rp3894
(dp3895
g3571
I00
sg3572
Nsg3573
g132
(g133
(I0
tp3896
g135
tp3897
Rp3898
(I1
(I0
I2
tp3899
g59
I00
g3637
tp3900
bsg3580
I00
sg3581
F0.1111111111111111
sg3582
I1
sg3583
I00
sbsbsg33
Nsg3527
g3528
sg92
I01
sg3529
g3530
sg96
Nsg3599
F0.0
sg86
I01
sg3586
g132
(g133
(I0
tp3901
g135
tp3902
Rp3903
(I1
(I2
I2
tp3904
g59
I00
S'\x00\x00\x00\x00\x00\x00\x00\x00\x00\x00\x00\x00\x00\x00\x00\x00\x00\x00\x00\x00\x00\x00\x00\x00\x00\x00\x00\x00\x00\x00\xf0?'
p3905
tp3906
bsg101
g3645
sg103
g0
(g104
g105
((lp3907
(lp3908
tp3909
tp3910
Rp3911
sg111
I0
sg3594
g3595
sg3523
I0
sg3597
Nsg3537
I5
sg112
I01
sg114
F1.0
sg3598
g3540
sg3534
I00
sg115
g1492
sg3600
Nsg3535
Nsg3533
I00
sg43
Nsg2367
Nsg3601
g3651
sg88
g1387
sg87
F0.8
sg34
Nsg3566
g0
(g3567
g2
Ntp3912
Rp3913
(dp3914
g3571
I00
sg3572
Nsg3573
g3903
sg3580
I00
sg3581
F0.1111111111111111
sg3582
I180
sg3583
I00
sbsbsg114
Nsg33
Nsg3655
g0
(g3515
g2
Ntp3915
Rp3916
(dp3917
g6
g7
sg3519
g3520
sg3521
Nsg20
I01
sg3522
Nsg3523
I0
sg75
Nsg76
Nsg24
Nsg11
Nsg29
I00
sg30
(dp3918
sg32
I00
sg2368
Nsg3525
F0.8
sg3526
Nsg3527
g3528
sg3529
g3530
sg96
Nsg86
I01
sg3531
(I0
tp3919
sg111
I0
sg112
I01
sg3533
I01
sg3534
I01
sg115
g1492
sg3535
Nsg3536
F2.01
sg3213
g3409
sg3537
I5
sg9
g4
sg3538
Nsg10
Nsg42
Nsg17
g18
sg3539
g3540
sg23
Nsg25
Nsg28
I00
sg3541
Nsg34
Nsg3542
Nsg3543
g0
(g3544
g2
Ntp3920
Rp3921
(dp3922
g3543
I2
sg3548
Nsg3549
F1.0
sg115
g0
(g157
g2
Ntp3923
Rp3924
(dp3925
g49
I2
sg50
Nsg120
g132
(g133
(I0
tp3926
g135
tp3927
Rp3928
(I1
(I3
I3
tp3929
g59
I00
S'\x00\x00\x00\x00\x00\x00\xf0?\x00\x00\x00\x00\x00\x00\x00\x00\x00\x00\x00\x00\x00\x00\x00\x00\x00\x00\x00\x00\x00\x00\x00\x00\x00\x00\x00\x00\x00\x00\xf0?\x00\x00\x00\x00\x00\x00\x00\x00\x00\x00\x00\x00\x00\x00\x00\x00\x00\x00\x00\x00\x00\x00\x00\x00\x00\x00\x00\x00\x00\x00\xf0?'
p3930
tp3931
bsg51
g7
sg52
(dp3932
sbsg3560
I00
sg3561
g3562
sg3563
Nsg2365
g3564
sg99
g3565
sg3566
g3569
sbsg3584
g3585
sg88
Nsg33
Nsg92
I01
sg3586
Nsg101
g3674
sg103
g0
(g104
g105
((lp3933
(lp3934
tp3935
tp3936
Rp3937
sg3593
I00
sg3594
g3595
sg3596
g3540
sg3597
Nsg114
Nsg3598
g3540
sg3599
F0.0
sg8
I01
sg3600
Nsg43
Nsg2367
Nsg3601
g3680
sg87
F0.5
sg3566
Nsbsg115
Nsg3681
F8.0
sg3682
g3683
sg43
Nsg3213
g3409
sg34
Nsbag0
(g3457
g2
Ntp3938
Rp3939
(dp3940
g6
g7
sg40
F0.8
sg9
g4
sg3461
I01
sg8
I01
sg10
Nsg111
I0
sg42
Nsg3462
F3.5
sg3463
g3409
sg3464
I00
sg3192
F0.0
sg17
g18
sg3465
g3466
sg3411
g0
(g3176
g2
Ntp3941
Rp3942
(dp3943
g6
g7
sg8
I01
sg9
g4
sg10
Nsg3180
g0
(g3181
g2
Ntp3944
Rp3945
(dp3946
g3185
g3473
sg3188
Nsg3189
g3190
sg3191
g3190
sg3192
F8.0
sg3193
I400
sg3194
g3190
sbsg42
Nsg17
g18
sg3195
Nsg20
I01
sg23
Nsg75
I0
sg76
I0
sg24
Nsg25
Nsg11
Nsg28
I00
sg29
I00
sg30
(dp3947
sg3197
Nsg32
I00
sg2368
Nsg88
Nsg2367
Nsg3198
Nsg33
Nsg96
Nsg86
I01
sg3199
g3475
sg3201
V
p3948
sg3203
Nsg103
g0
(g104
g105
((lp3949
(lp3950
tp3951
tp3952
Rp3953
sg111
I0
sg3209
Nsg112
I01
sg114
Nsg3210
F1.2
sg115
g1524
sg3211
I01
sg3212
I00
sg43
Nsg3213
g3409
sg3215
g3482
sg34
Nsbsg20
I01
sg23
Nsg3483
I00
sg24
Nsg25
Nsg11
Nsg3484
I00
sg28
I00
sg29
I00
sg30
(dp3954
sg3486
(I3
I2
tp3955
sg32
I00
sg3488
F2.01
sg2368
g2427
sg3489
I01
sg88
Nsg2367
Nsg3490
g3942
sg3491
g0
(g3176
g2
Ntp3956
Rp3957
(dp3958
g6
g7
sg8
I01
sg9
g4
sg10
Nsg3180
g0
(g3181
g2
Ntp3959
Rp3960
(dp3961
g3185
g3498
sg3188
Nsg3189
g3190
sg3191
g3190
sg3192
F8.0
sg3193
I400
sg3194
g3190
sbsg42
Nsg17
g18
sg3195
Nsg20
I01
sg23
Nsg75
I1
sg76
I0
sg24
Nsg25
Nsg11
Nsg28
I00
sg29
I00
sg30
(dp3962
sg3197
Nsg32
I00
sg2368
Nsg88
Nsg2367
Nsg3198
Nsg33
Nsg96
Nsg86
I01
sg3199
g3500
sg3201
V
p3963
sg3203
Nsg103
g0
(g104
g105
((lp3964
(lp3965
tp3966
tp3967
Rp3968
sg111
I0
sg3209
Nsg112
I01
sg114
Nsg3210
F1.2
sg115
g1533
sg3211
I01
sg3212
I00
sg43
Nsg3213
g3409
sg3215
g3482
sg34
Nsbsg96
Nsg3507
I0
sg86
I01
sg103
g0
(g104
g105
((lp3969
(lp3970
tp3971
tp3972
Rp3973
sg3513
F3.5
sg3514
g0
(g3515
g2
Ntp3974
Rp3975
(dp3976
g6
g7
sg3519
g3520
sg3521
Nsg20
I01
sg3522
Nsg3523
I0
sg75
Nsg76
Nsg24
Nsg11
Nsg29
I00
sg30
(dp3977
sg32
I00
sg2368
Nsg3525
F0.8
sg3526
Nsg3527
g3528
sg3529
g3530
sg96
Nsg86
I01
sg3531
(I0
tp3978
sg111
I0
sg112
I01
sg3533
I01
sg3534
I01
sg115
g1492
sg3535
Nsg3536
F2.01
sg3213
g3409
sg3537
I5
sg9
g4
sg3538
Nsg10
Nsg42
Nsg17
g18
sg3539
g3540
sg23
Nsg25
Nsg28
I00
sg3541
Nsg34
Nsg3542
Nsg3543
g0
(g3544
g2
Ntp3979
Rp3980
(dp3981
g3543
I3
sg3548
Nsg3549
F1.0
sg115
g0
(g157
g2
Ntp3982
Rp3983
(dp3984
g49
I2
sg50
Nsg120
g132
(g133
(I0
tp3985
g135
tp3986
Rp3987
(I1
(I3
I3
tp3988
g59
I00
S'\x00\x00\x00\x00\x00\x00\xf0?\x00\x00\x00\x00\x00\x00\x00\x00\x00\x00\x00\x00\x00\x00\x00\x00\x00\x00\x00\x00\x00\x00\x00\x00\x00\x00\x00\x00\x00\x00\xf0\xbf\x00\x00\x00\x00\x00\x00\x00\x00\x00\x00\x00\x00\x00\x00\x00\x00\x00\x00\x00\x00\x00\x00\x00\x00\x00\x00\x00\x00\x00\x00\xf0?'
p3989
tp3990
bsg51
g7
sg52
(dp3991
sbsg3560
I00
sg3561
g3562
sg3563
Nsg2365
g3564
sg99
g3565
sg3566
g3569
sbsg3584
g3585
sg88
Nsg33
Nsg92
I01
sg3586
Nsg101
g3587
sg103
g0
(g104
g105
((lp3992
(lp3993
tp3994
tp3995
Rp3996
sg3593
I00
sg3594
g3595
sg3596
g3540
sg3597
Nsg114
Nsg3598
g3540
sg3599
F0.0
sg8
I01
sg3600
Nsg43
Nsg2367
Nsg3601
g3602
sg87
F0.5
sg3566
Nsbsg112
I00
sg3603
g0
(g3515
g2
Ntp3997
Rp3998
(dp3999
g6
g7
sg8
I01
sg3596
g3540
sg9
g4
sg3519
g3520
sg3521
Nsg10
Nsg42
Nsg17
g18
sg3539
g3540
sg20
I01
sg3522
Nsg23
Nsg75
g132
(g133
(I0
tp4000
g135
tp4001
Rp4002
(I1
(I2
tp4003
g59
I00
S'\x00\x00\x00\x00\x00\x00\x00\x00\x00\x00\x00\x00\x00\x00\xf0?'
p4004
tp4005
bsg76
g132
(g133
(I0
tp4006
g135
tp4007
Rp4008
(I1
(I2
tp4009
g59
I00
S'\x00\x00\x00\x00\x00\x00\x00\x00\x00\x00\x00\x00\x00\x00\x00\x00'
p4010
tp4011
bsg24
Nsg25
Nsg11
Nsg3531
g3619
sg28
I00
sg3541
Nsg29
I00
sg30
(dp4012
sg3538
Nsg32
I00
sg3593
I00
sg2368
Nsg3542
Nsg3525
F1.0
sg3584
g3585
sg3526
Nsg3213
g3621
sg3543
g0
(g3544
g2
Ntp4013
Rp4014
(dp4015
g3543
g3625
sg3548
Nsg3549
Nsg115
g0
(g45
g2
Ntp4016
Rp4017
(dp4018
g49
I1
sg50
Nsg51
g7
sg52
(dp4019
sbsg3560
I00
sg3561
g3562
sg3563
Nsg2365
g3564
sg99
g3565
sg3566
g0
(g3567
g2
Ntp4020
Rp4021
(dp4022
g3571
I00
sg3572
Nsg3573
g132
(g133
(I0
tp4023
g135
tp4024
Rp4025
(I1
(I0
I2
tp4026
g59
I00
g3637
tp4027
bsg3580
I00
sg3581
F0.1111111111111111
sg3582
I1
sg3583
I00
sbsbsg33
Nsg3527
g3528
sg92
I01
sg3529
g3530
sg96
Nsg3599
F0.0
sg86
I01
sg3586
g132
(g133
(I0
tp4028
g135
tp4029
Rp4030
(I1
(I2
I2
tp4031
g59
I00
S'\x00\x00\x00\x00\x00\x00\x00\x00\x00\x00\x00\x00\x00\x00\x00\x00\x00\x00\x00\x00\x00\x00\x00\x00\x00\x00\x00\x00\x00\x00\xf0?'
p4032
tp4033
bsg101
g3645
sg103
g0
(g104
g105
((lp4034
(lp4035
tp4036
tp4037
Rp4038
sg111
I0
sg3594
g3595
sg3523
I0
sg3597
Nsg3537
I5
sg112
I01
sg114
F1.0
sg3598
g3540
sg3534
I00
sg115
g1492
sg3600
Nsg3535
Nsg3533
I00
sg43
Nsg2367
Nsg3601
g3651
sg88
g1387
sg87
F0.8
sg34
Nsg3566
g0
(g3567
g2
Ntp4039
Rp4040
(dp4041
g3571
I00
sg3572
Nsg3573
g4030
sg3580
I00
sg3581
F0.1111111111111111
sg3582
I180
sg3583
I00
sbsbsg114
Nsg33
Nsg3655
g0
(g3515
g2
Ntp4042
Rp4043
(dp4044
g6
g7
sg3519
g3520
sg3521
Nsg20
I01
sg3522
Nsg3523
I0
sg75
Nsg76
Nsg24
Nsg11
Nsg29
I00
sg30
(dp4045
sg32
I00
sg2368
Nsg3525
F0.8
sg3526
Nsg3527
g3528
sg3529
g3530
sg96
Nsg86
I01
sg3531
g3919
sg111
I0
sg112
I01
sg3533
I01
sg3534
I01
sg115
g1492
sg3535
Nsg3536
F2.01
sg3213
g3409
sg3537
I5
sg9
g4
sg3538
Nsg10
Nsg42
Nsg17
g18
sg3539
g3540
sg23
Nsg25
Nsg28
I00
sg3541
Nsg34
Nsg3542
Nsg3543
g0
(g3544
g2
Ntp4046
Rp4047
(dp4048
g3543
I2
sg3548
Nsg3549
F1.0
sg115
g0
(g157
g2
Ntp4049
Rp4050
(dp4051
g49
I2
sg50
Nsg120
g132
(g133
(I0
tp4052
g135
tp4053
Rp4054
(I1
(I3
I3
tp4055
g59
I00
S'\x00\x00\x00\x00\x00\x00\xf0?\x00\x00\x00\x00\x00\x00\x00\x00\x00\x00\x00\x00\x00\x00\x00\x00\x00\x00\x00\x00\x00\x00\x00\x00\x00\x00\x00\x00\x00\x00\xf0?\x00\x00\x00\x00\x00\x00\x00\x00\x00\x00\x00\x00\x00\x00\x00\x00\x00\x00\x00\x00\x00\x00\x00\x00\x00\x00\x00\x00\x00\x00\xf0?'
p4056
tp4057
bsg51
g7
sg52
(dp4058
sbsg3560
I00
sg3561
g3562
sg3563
Nsg2365
g3564
sg99
g3565
sg3566
g3569
sbsg3584
g3585
sg88
Nsg33
Nsg92
I01
sg3586
Nsg101
g3674
sg103
g0
(g104
g105
((lp4059
(lp4060
tp4061
tp4062
Rp4063
sg3593
I00
sg3594
g3595
sg3596
g3540
sg3597
Nsg114
Nsg3598
g3540
sg3599
F0.0
sg8
I01
sg3600
Nsg43
Nsg2367
Nsg3601
g3680
sg87
F0.5
sg3566
Nsbsg115
Nsg3681
F8.0
sg3682
g3683
sg43
Nsg3213
g3409
sg34
NsbasS'isDefault_majloc'
p4064
I00
sg2375
g0
(g2376
g2
Ntp4065
Rp4066
I01
bsg96
Nsg86
I01
sS'_autolabelpos'
p4067
I01
sg103
g0
(g104
g105
((lp4068
(lp4069
tp4070
tp4071
Rp4072
sg111
I0
sS'_lastNumMajorTicks'
p4073
I4
sS'converter'
p4074
Nsg112
I00
sg114
NsS'offset_text_position'
p4075
Vbottom
p4076
sg115
NsS'label_position'
p4077
Vbottom
p4078
sg43
Nsg2367
Nsg3537
I15
sS'minorTicks'
p4079
(lp4080
g0
(g3457
g2
Ntp4081
Rp4082
(dp4083
g6
g7
sg40
F0.6
sg9
g4
sg3461
I01
sg8
I01
sg10
Nsg111
I0
sg42
Nsg3462
F3.4
sg3463
g3409
sg3464
I00
sg3192
F0.0
sg17
g18
sg3465
g3466
sg3411
g0
(g3176
g2
Ntp4084
Rp4085
(dp4086
g6
g7
sg8
I01
sg9
g4
sg10
Nsg3180
g0
(g3181
g2
Ntp4087
Rp4088
(dp4089
g3185
(lp4090
g3187
asg3188
Nsg3189
g3190
sg3191
g3190
sg3192
F8.0
sg3193
I400
sg3194
g3190
sbsg42
Nsg17
g18
sg3195
Nsg20
I01
sg23
Nsg75
I0
sg76
I0
sg24
Nsg25
Nsg11
Nsg28
I00
sg29
I00
sg30
(dp4091
sg3197
Nsg32
I00
sg2368
Nsg88
Nsg2367
Nsg3198
Nsg33
Nsg96
Nsg86
I01
sg3199
g3475
sg3201
V
p4092
sg3203
Nsg103
g0
(g104
g105
((lp4093
(lp4094
tp4095
tp4096
Rp4097
sg111
I0
sg3209
Nsg112
I01
sg114
Nsg3210
F1.2
sg115
g1506
sg3211
I01
sg3212
I00
sg43
Nsg3213
g3409
sg3215
g3482
sg34
Nsbsg20
I01
sg23
Nsg3483
I00
sg24
Nsg25
Nsg11
Nsg3484
I00
sg28
I00
sg29
I00
sg30
(dp4098
sg3486
(I3
I2
tp4099
sg32
I00
sg3488
I2
sg2368
g2427
sg3489
I01
sg88
g1595
sg2367
Nsg3490
g4085
sg3491
g0
(g3176
g2
Ntp4100
Rp4101
(dp4102
g6
g7
sg8
I01
sg9
g4
sg10
Nsg3180
g0
(g3181
g2
Ntp4103
Rp4104
(dp4105
g3185
(lp4106
g3187
asg3188
Nsg3189
g3190
sg3191
g3190
sg3192
F8.0
sg3193
I400
sg3194
g3190
sbsg42
Nsg17
g18
sg3195
Nsg20
I01
sg23
Nsg75
I1
sg76
I0
sg24
Nsg25
Nsg11
Nsg28
I00
sg29
I00
sg30
(dp4107
sg3197
Nsg32
I00
sg2368
Nsg88
Nsg2367
Nsg3198
Nsg33
Nsg96
Nsg86
I01
sg3199
g3500
sg3201
V
p4108
sg3203
Nsg103
g0
(g104
g105
((lp4109
(lp4110
tp4111
tp4112
Rp4113
sg111
I0
sg3209
Nsg112
I01
sg114
Nsg3210
F1.2
sg115
g1542
sg3211
I01
sg3212
I00
sg43
Nsg3213
g3409
sg3215
g3482
sg34
Nsbsg96
Nsg3507
I0
sg86
I01
sg103
g0
(g104
g105
((lp4114
(lp4115
tp4116
tp4117
Rp4118
sg3513
F3.4
sg3514
g0
(g3515
g2
Ntp4119
Rp4120
(dp4121
g6
g7
sg3519
g3520
sg3521
Nsg20
I01
sg3522
Nsg3523
I0
sg75
Nsg76
Nsg24
Nsg11
Nsg29
I00
sg30
(dp4122
sg32
I00
sg2368
Nsg3525
F0.6
sg3526
Nsg3527
g3528
sg3529
g3530
sg96
Nsg86
I01
sg3531
(I0
tp4123
sg111
I0
sg112
I01
sg3533
I01
sg3534
I01
sg115
g1492
sg3535
Nsg3536
I2
sg3213
g3409
sg3537
I5
sg9
g4
sg3538
Nsg10
Nsg42
Nsg17
g18
sg3539
g3540
sg23
Nsg25
Nsg28
I00
sg3541
Nsg34
Nsg3542
Nsg3543
g0
(g3544
g2
Ntp4124
Rp4125
(dp4126
g3543
I3
sg3548
Nsg3549
F1.0
sg115
g0
(g157
g2
Ntp4127
Rp4128
(dp4129
g49
I2
sg50
Nsg120
g132
(g133
(I0
tp4130
g135
tp4131
Rp4132
(I1
(I3
I3
tp4133
g59
I00
S'\x00\x00\x00\x00\x00\x00\xf0?\x00\x00\x00\x00\x00\x00\x00\x00\x00\x00\x00\x00\x00\x00\x00\x00\x00\x00\x00\x00\x00\x00\x00\x00\x00\x00\x00\x00\x00\x00\xf0\xbf\x00\x00\x00\x00\x00\x00\x00\x00\x00\x00\x00\x00\x00\x00\x00\x00\x00\x00\x00\x00\x00\x00\x00\x00\x00\x00\x00\x00\x00\x00\xf0?'
p4134
tp4135
bsg51
g7
sg52
(dp4136
sbsg3560
I00
sg3561
g3562
sg3563
Nsg2365
g3564
sg99
g3565
sg3566
g3569
sbsg3584
g3585
sg88
Nsg33
Nsg92
I01
sg3586
Nsg101
g3587
sg103
g0
(g104
g105
((lp4137
(lp4138
tp4139
tp4140
Rp4141
sg3593
I00
sg3594
g3595
sg3596
g3540
sg3597
Nsg114
Nsg3598
g3540
sg3599
F0.0
sg8
I01
sg3600
Nsg43
Nsg2367
Nsg3601
g3602
sg87
F0.5
sg3566
Nsbsg112
I00
sg3603
g0
(g3515
g2
Ntp4142
Rp4143
(dp4144
g6
g7
sg8
I01
sg3596
g3540
sg9
g4
sg3519
g3520
sg3521
Nsg10
Nsg42
Nsg17
g18
sg3539
g3540
sg20
I01
sg3522
Nsg23
Nsg75
g132
(g133
(I0
tp4145
g135
tp4146
Rp4147
(I1
(I2
tp4148
g59
I00
S'\x00\x00\x00\x00\x00\x00\x00\x00\x00\x00\x00\x00\x00\x00\xf0?'
p4149
tp4150
bsg76
g132
(g133
(I0
tp4151
g135
tp4152
Rp4153
(I1
(I2
tp4154
g59
I00
S'\x00\x00\x00\x00\x00\x00\x00\x00\x00\x00\x00\x00\x00\x00\x00\x00'
p4155
tp4156
bsg24
Nsg25
Nsg11
Nsg3531
g3619
sg28
I00
sg3541
Nsg29
I00
sg30
(dp4157
sg3538
Nsg32
I00
sg3593
I00
sg2368
Nsg3542
Nsg3525
F1.0
sg3584
g3585
sg3526
Nsg3213
g3621
sg3543
g0
(g3544
g2
Ntp4158
Rp4159
(dp4160
g3543
g3625
sg3548
Nsg3549
Nsg115
g0
(g45
g2
Ntp4161
Rp4162
(dp4163
g49
I1
sg50
Nsg51
g7
sg52
(dp4164
sbsg3560
I00
sg3561
g3562
sg3563
Nsg2365
g3564
sg99
g3565
sg3566
g0
(g3567
g2
Ntp4165
Rp4166
(dp4167
g3571
I00
sg3572
Nsg3573
g132
(g133
(I0
tp4168
g135
tp4169
Rp4170
(I1
(I0
I2
tp4171
g59
I00
g3637
tp4172
bsg3580
I00
sg3581
F0.1111111111111111
sg3582
I1
sg3583
I00
sbsbsg33
Nsg3527
g3528
sg92
I01
sg3529
g3530
sg96
Nsg3599
F0.0
sg86
I01
sg3586
g132
(g133
(I0
tp4173
g135
tp4174
Rp4175
(I1
(I2
I2
tp4176
g59
I00
S'\x00\x00\x00\x00\x00\x00\x00\x00\x00\x00\x00\x00\x00\x00\x00\x00\x00\x00\x00\x00\x00\x00\x00\x00\x00\x00\x00\x00\x00\x00\xf0?'
p4177
tp4178
bsg101
g3645
sg103
g0
(g104
g105
((lp4179
(lp4180
tp4181
tp4182
Rp4183
sg111
I0
sg3594
g3595
sg3523
I0
sg3597
Nsg3537
I5
sg112
I01
sg114
F1.0
sg3598
g3540
sg3534
I00
sg115
g1492
sg3600
Nsg3535
Nsg3533
I00
sg43
Nsg2367
Nsg3601
g3651
sg88
g740
sg87
F0.8
sg34
Nsg3566
g0
(g3567
g2
Ntp4184
Rp4185
(dp4186
g3571
I00
sg3572
Nsg3573
g4175
sg3580
I00
sg3581
F0.1111111111111111
sg3582
I180
sg3583
I00
sbsbsg114
Nsg33
Nsg3655
g0
(g3515
g2
Ntp4187
Rp4188
(dp4189
g6
g7
sg3519
g3520
sg3521
Nsg20
I01
sg3522
Nsg3523
I0
sg75
Nsg76
Nsg24
Nsg11
Nsg29
I00
sg30
(dp4190
sg32
I00
sg2368
Nsg3525
F0.6
sg3526
Nsg3527
g3528
sg3529
g3530
sg96
Nsg86
I01
sg3531
(I0
tp4191
sg111
I0
sg112
I01
sg3533
I01
sg3534
I01
sg115
g1492
sg3535
Nsg3536
I2
sg3213
g3409
sg3537
I5
sg9
g4
sg3538
Nsg10
Nsg42
Nsg17
g18
sg3539
g3540
sg23
Nsg25
Nsg28
I00
sg3541
Nsg34
Nsg3542
Nsg3543
g0
(g3544
g2
Ntp4192
Rp4193
(dp4194
g3543
I2
sg3548
Nsg3549
F1.0
sg115
g0
(g157
g2
Ntp4195
Rp4196
(dp4197
g49
I2
sg50
Nsg120
g132
(g133
(I0
tp4198
g135
tp4199
Rp4200
(I1
(I3
I3
tp4201
g59
I00
S'\x00\x00\x00\x00\x00\x00\xf0?\x00\x00\x00\x00\x00\x00\x00\x00\x00\x00\x00\x00\x00\x00\x00\x00\x00\x00\x00\x00\x00\x00\x00\x00\x00\x00\x00\x00\x00\x00\xf0?\x00\x00\x00\x00\x00\x00\x00\x00\x00\x00\x00\x00\x00\x00\x00\x00\x00\x00\x00\x00\x00\x00\x00\x00\x00\x00\x00\x00\x00\x00\xf0?'
p4202
tp4203
bsg51
g7
sg52
(dp4204
sbsg3560
I00
sg3561
g3562
sg3563
Nsg2365
g3564
sg99
g3565
sg3566
g3569
sbsg3584
g3585
sg88
Nsg33
Nsg92
I01
sg3586
Nsg101
g3674
sg103
g0
(g104
g105
((lp4205
(lp4206
tp4207
tp4208
Rp4209
sg3593
I00
sg3594
g3595
sg3596
g3540
sg3597
Nsg114
Nsg3598
g3540
sg3599
F0.0
sg8
I01
sg3600
Nsg43
Nsg2367
Nsg3601
g3680
sg87
F0.5
sg3566
Nsbsg115
Nsg3681
F8.0
sg3682
g3683
sg43
Nsg3213
g3409
sg34
Nsbag0
(g3457
g2
Ntp4210
Rp4211
(dp4212
g6
g7
sg40
F0.6
sg9
g4
sg3461
I01
sg8
I01
sg10
Nsg111
I0
sg42
Nsg3462
F3.4
sg3463
g3409
sg3464
I00
sg3192
F0.0
sg17
g18
sg3465
g3466
sg3411
g0
(g3176
g2
Ntp4213
Rp4214
(dp4215
g6
g7
sg8
I01
sg9
g4
sg10
Nsg3180
g0
(g3181
g2
Ntp4216
Rp4217
(dp4218
g3185
(lp4219
g3187
asg3188
Nsg3189
g3190
sg3191
g3190
sg3192
F8.0
sg3193
I400
sg3194
g3190
sbsg42
Nsg17
g18
sg3195
Nsg20
I01
sg23
Nsg75
I0
sg76
I0
sg24
Nsg25
Nsg11
Nsg28
I00
sg29
I00
sg30
(dp4220
sg3197
Nsg32
I00
sg2368
Nsg88
Nsg2367
Nsg3198
Nsg33
Nsg96
Nsg86
I01
sg3199
g3475
sg3201
V
p4221
sg3203
Nsg103
g0
(g104
g105
((lp4222
(lp4223
tp4224
tp4225
Rp4226
sg111
I0
sg3209
Nsg112
I01
sg114
Nsg3210
F1.2
sg115
g1497
sg3211
I01
sg3212
I00
sg43
Nsg3213
g3409
sg3215
g3482
sg34
Nsbsg20
I01
sg23
Nsg3483
I00
sg24
Nsg25
Nsg11
Nsg3484
I00
sg28
I00
sg29
I00
sg30
(dp4227
sg3486
(I3
I2
tp4228
sg32
I00
sg3488
I2
sg2368
g2427
sg3489
I01
sg88
g1457
sg2367
Nsg3490
g4214
sg3491
g0
(g3176
g2
Ntp4229
Rp4230
(dp4231
g6
g7
sg8
I01
sg9
g4
sg10
Nsg3180
g0
(g3181
g2
Ntp4232
Rp4233
(dp4234
g3185
(lp4235
g3187
asg3188
Nsg3189
g3190
sg3191
g3190
sg3192
F8.0
sg3193
I400
sg3194
g3190
sbsg42
Nsg17
g18
sg3195
Nsg20
I01
sg23
Nsg75
I1
sg76
I0
sg24
Nsg25
Nsg11
Nsg28
I00
sg29
I00
sg30
(dp4236
sg3197
Nsg32
I00
sg2368
Nsg88
Nsg2367
Nsg3198
Nsg33
Nsg96
Nsg86
I01
sg3199
g3500
sg3201
V
p4237
sg3203
Nsg103
g0
(g104
g105
((lp4238
(lp4239
tp4240
tp4241
Rp4242
sg111
I0
sg3209
Nsg112
I01
sg114
Nsg3210
F1.2
sg115
g1515
sg3211
I01
sg3212
I00
sg43
Nsg3213
g3409
sg3215
g3482
sg34
Nsbsg96
Nsg3507
I0
sg86
I01
sg103
g0
(g104
g105
((lp4243
(lp4244
tp4245
tp4246
Rp4247
sg3513
F3.4
sg3514
g0
(g3515
g2
Ntp4248
Rp4249
(dp4250
g6
g7
sg3519
g3520
sg3521
Nsg20
I01
sg3522
Nsg3523
I0
sg75
Nsg76
Nsg24
Nsg11
Nsg29
I00
sg30
(dp4251
sg32
I00
sg2368
Nsg3525
F0.6
sg3526
Nsg3527
g3528
sg3529
g3530
sg96
Nsg86
I01
sg3531
(I0
tp4252
sg111
I0
sg112
I01
sg3533
I01
sg3534
I01
sg115
g1492
sg3535
Nsg3536
I2
sg3213
g3409
sg3537
I5
sg9
g4
sg3538
Nsg10
Nsg42
Nsg17
g18
sg3539
g3540
sg23
Nsg25
Nsg28
I00
sg3541
Nsg34
Nsg3542
Nsg3543
g0
(g3544
g2
Ntp4253
Rp4254
(dp4255
g3543
I3
sg3548
Nsg3549
F1.0
sg115
g0
(g157
g2
Ntp4256
Rp4257
(dp4258
g49
I2
sg50
Nsg120
g132
(g133
(I0
tp4259
g135
tp4260
Rp4261
(I1
(I3
I3
tp4262
g59
I00
S'\x00\x00\x00\x00\x00\x00\xf0?\x00\x00\x00\x00\x00\x00\x00\x00\x00\x00\x00\x00\x00\x00\x00\x00\x00\x00\x00\x00\x00\x00\x00\x00\x00\x00\x00\x00\x00\x00\xf0\xbf\x00\x00\x00\x00\x00\x00\x00\x00\x00\x00\x00\x00\x00\x00\x00\x00\x00\x00\x00\x00\x00\x00\x00\x00\x00\x00\x00\x00\x00\x00\xf0?'
p4263
tp4264
bsg51
g7
sg52
(dp4265
sbsg3560
I00
sg3561
g3562
sg3563
Nsg2365
g3564
sg99
g3565
sg3566
g3569
sbsg3584
g3585
sg88
Nsg33
Nsg92
I01
sg3586
Nsg101
g3587
sg103
g0
(g104
g105
((lp4266
(lp4267
tp4268
tp4269
Rp4270
sg3593
I00
sg3594
g3595
sg3596
g3540
sg3597
Nsg114
Nsg3598
g3540
sg3599
F0.0
sg8
I01
sg3600
Nsg43
Nsg2367
Nsg3601
g3602
sg87
F0.5
sg3566
Nsbsg112
I00
sg3603
g0
(g3515
g2
Ntp4271
Rp4272
(dp4273
g6
g7
sg8
I01
sg3596
g3540
sg9
g4
sg3519
g3520
sg3521
Nsg10
Nsg42
Nsg17
g18
sg3539
g3540
sg20
I01
sg3522
Nsg23
Nsg75
g132
(g133
(I0
tp4274
g135
tp4275
Rp4276
(I1
(I2
tp4277
g59
I00
S'\x00\x00\x00\x00\x00\x00\x00\x00\x00\x00\x00\x00\x00\x00\xf0?'
p4278
tp4279
bsg76
g132
(g133
(I0
tp4280
g135
tp4281
Rp4282
(I1
(I2
tp4283
g59
I00
S'\x00\x00\x00\x00\x00\x00\x00\x00\x00\x00\x00\x00\x00\x00\x00\x00'
p4284
tp4285
bsg24
Nsg25
Nsg11
Nsg3531
g3619
sg28
I00
sg3541
Nsg29
I00
sg30
(dp4286
sg3538
Nsg32
I00
sg3593
I00
sg2368
Nsg3542
Nsg3525
F1.0
sg3584
g3585
sg3526
Nsg3213
g3621
sg3543
g0
(g3544
g2
Ntp4287
Rp4288
(dp4289
g3543
g3625
sg3548
Nsg3549
Nsg115
g0
(g45
g2
Ntp4290
Rp4291
(dp4292
g49
I1
sg50
Nsg51
g7
sg52
(dp4293
sbsg3560
I00
sg3561
g3562
sg3563
Nsg2365
g3564
sg99
g3565
sg3566
g0
(g3567
g2
Ntp4294
Rp4295
(dp4296
g3571
I00
sg3572
Nsg3573
g132
(g133
(I0
tp4297
g135
tp4298
Rp4299
(I1
(I0
I2
tp4300
g59
I00
g3637
tp4301
bsg3580
I00
sg3581
F0.1111111111111111
sg3582
I1
sg3583
I00
sbsbsg33
Nsg3527
g3528
sg92
I01
sg3529
g3530
sg96
Nsg3599
F0.0
sg86
I01
sg3586
g132
(g133
(I0
tp4302
g135
tp4303
Rp4304
(I1
(I2
I2
tp4305
g59
I00
S'\x00\x00\x00\x00\x00\x00\x00\x00\x00\x00\x00\x00\x00\x00\x00\x00\x00\x00\x00\x00\x00\x00\x00\x00\x00\x00\x00\x00\x00\x00\xf0?'
p4306
tp4307
bsg101
g3645
sg103
g0
(g104
g105
((lp4308
(lp4309
tp4310
tp4311
Rp4312
sg111
I0
sg3594
g3595
sg3523
I0
sg3597
Nsg3537
I5
sg112
I01
sg114
F1.0
sg3598
g3540
sg3534
I00
sg115
g1492
sg3600
Nsg3535
Nsg3533
I00
sg43
Nsg2367
Nsg3601
g3651
sg88
g460
sg87
F0.8
sg34
Nsg3566
g0
(g3567
g2
Ntp4313
Rp4314
(dp4315
g3571
I00
sg3572
Nsg3573
g4304
sg3580
I00
sg3581
F0.1111111111111111
sg3582
I180
sg3583
I00
sbsbsg114
Nsg33
Nsg3655
g0
(g3515
g2
Ntp4316
Rp4317
(dp4318
g6
g7
sg3519
g3520
sg3521
Nsg20
I01
sg3522
Nsg3523
I0
sg75
Nsg76
Nsg24
Nsg11
Nsg29
I00
sg30
(dp4319
sg32
I00
sg2368
Nsg3525
F0.6
sg3526
Nsg3527
g3528
sg3529
g3530
sg96
Nsg86
I01
sg3531
(I0
tp4320
sg111
I0
sg112
I01
sg3533
I01
sg3534
I01
sg115
g1492
sg3535
Nsg3536
I2
sg3213
g3409
sg3537
I5
sg9
g4
sg3538
Nsg10
Nsg42
Nsg17
g18
sg3539
g3540
sg23
Nsg25
Nsg28
I00
sg3541
Nsg34
Nsg3542
Nsg3543
g0
(g3544
g2
Ntp4321
Rp4322
(dp4323
g3543
I2
sg3548
Nsg3549
F1.0
sg115
g0
(g157
g2
Ntp4324
Rp4325
(dp4326
g49
I2
sg50
Nsg120
g132
(g133
(I0
tp4327
g135
tp4328
Rp4329
(I1
(I3
I3
tp4330
g59
I00
S'\x00\x00\x00\x00\x00\x00\xf0?\x00\x00\x00\x00\x00\x00\x00\x00\x00\x00\x00\x00\x00\x00\x00\x00\x00\x00\x00\x00\x00\x00\x00\x00\x00\x00\x00\x00\x00\x00\xf0?\x00\x00\x00\x00\x00\x00\x00\x00\x00\x00\x00\x00\x00\x00\x00\x00\x00\x00\x00\x00\x00\x00\x00\x00\x00\x00\x00\x00\x00\x00\xf0?'
p4331
tp4332
bsg51
g7
sg52
(dp4333
sbsg3560
I00
sg3561
g3562
sg3563
Nsg2365
g3564
sg99
g3565
sg3566
g3569
sbsg3584
g3585
sg88
Nsg33
Nsg92
I01
sg3586
Nsg101
g3674
sg103
g0
(g104
g105
((lp4334
(lp4335
tp4336
tp4337
Rp4338
sg3593
I00
sg3594
g3595
sg3596
g3540
sg3597
Nsg114
Nsg3598
g3540
sg3599
F0.0
sg8
I01
sg3600
Nsg43
Nsg2367
Nsg3601
g3680
sg87
F0.5
sg3566
Nsbsg115
Nsg3681
F8.0
sg3682
g3683
sg43
Nsg3213
g3409
sg34
Nsbasg34
NsS'_minor_tick_kw'
p4339
(dp4340
g3446
I01
sg3448
I00
sg3449
I01
sg3450
I00
ssS'isDefault_minfmt'
p4341
I01
sbsS'_navigate_mode'
p4342
Nsg34
NsS'transAxes'
p4343
g246
sS'_connected'
p4344
(dp4345
sS'fmt_ydata'
p4346
NsS'dataLim'
p4347
g0
(g127
g2
Ntp4348
Rp4349
(dp4350
g49
I0
sg131
g132
(g133
(I0
tp4351
g135
tp4352
Rp4353
(I1
(I2
tp4354
g59
I00
S'\xa8\xf00\xea\x14;\x05@\x00\x00\x00\x00\x00\x00\xf0?'
p4355
tp4356
bsg52
(dp4357
sg142
g132
(g133
(I0
tp4358
g135
tp4359
Rp4360
(I1
(I2
I2
tp4361
g59
I00
S'\x00\x00\x00\x00\x00\x00\xf0\x7f\x00\x00\x00\x00\x00\x00\xf0\x7f\x00\x00\x00\x00\x00\x00\xf0\xff\x00\x00\x00\x00\x00\x00\xf0\xff'
p4362
tp4363
bsg149
g132
(g133
(I0
tp4364
g135
tp4365
Rp4366
(I1
(I2
I2
tp4367
g59
I00
S'\xa8\xf00\xea\x14;\x05@\x00\x00\x00\x00\x00\x00\x00\x00\xff\n\xb9\xf2\xfc"\x19@\x00\x00\x00\x00\x00\x00\x08@'
p4368
tp4369
bsg156
I01
sg51
g7
sbsS'transData'
p4370
g187
sg33
NsS'_sharey'
p4371
NsS'_sharex'
p4372
NsS'axesPatch'
p4373
g3287
sS'_ymargin'
p4374
F0.05
sS'_axes_locator'
p4375
Nsg103
g0
(g104
g105
((lp4376
(lp4377
tp4378
tp4379
Rp4380
sS'numCols'
p4381
I1
sg114
Nsg2379
NsS'yaxis'
p4382
g0
(cmatplotlib.axis
YAxis
p4383
g2
Ntp4384
Rp4385
(dp4386
g6
g7
sg3347
g0
(g3348
g2
Ntp4387
Rp4388
(dp4389
g3352
g0
(cmatplotlib.ticker
AutoLocator
p4390
g2
Ntp4391
Rp4392
(dp4393
S'_min_n_ticks'
p4394
I2
sS'_symmetric'
p4395
I00
sS'_nbins'
p4396
Vauto
p4397
sS'_steps'
p4398
g132
(g133
(I0
tp4399
g135
tp4400
Rp4401
(I1
(I5
tp4402
g59
I00
S'\x00\x00\x00\x00\x00\x00\xf0?\x00\x00\x00\x00\x00\x00\x00@\x00\x00\x00\x00\x00\x00\x04@\x00\x00\x00\x00\x00\x00\x14@\x00\x00\x00\x00\x00\x00$@'
p4403
tp4404
bsS'_prune'
p4405
NsS'_extended_steps'
p4406
g132
(g133
(I0
tp4407
g135
tp4408
Rp4409
(I1
(I10
tp4410
g59
I00
S'\x9a\x99\x99\x99\x99\x99\xb9?\x9a\x99\x99\x99\x99\x99\xc9?\x00\x00\x00\x00\x00\x00\xd0?\x00\x00\x00\x00\x00\x00\xe0?\x00\x00\x00\x00\x00\x00\xf0?\x00\x00\x00\x00\x00\x00\x00@\x00\x00\x00\x00\x00\x00\x04@\x00\x00\x00\x00\x00\x00\x14@\x00\x00\x00\x00\x00\x00$@\x00\x00\x00\x00\x00\x004@'
p4411
tp4412
bsS'_integer'
p4413
I00
sg3369
g4385
sbsg3371
g0
(g3372
g2
Ntp4414
Rp4415
(dp4416
g3376
g3377
sg3378
I0
sg3379
I01
sg3380
I00
sg3381
g7
sg3382
I00
sg3383
I4
sg3384
I0
sg3211
I01
sg3385
I01
sg3369
g4385
sbsbsg3386
I00
sg3387
g0
(g3388
g2
Ntp4417
Rp4418
sg9
g4
sg8
I01
sg3391
I00
sg10
Nsg42
Nsg3392
I00
sg17
g18
sg20
I01
sg23
Nsg3393
g0
(g3176
g2
Ntp4419
Rp4420
(dp4421
g6
g7
sg8
I01
sg9
g4
sg10
Nsg3180
g0
(g3181
g2
Ntp4422
Rp4423
(dp4424
g3185
(lp4425
g3187
asg3188
Nsg3189
g3190
sg3191
g3190
sg3192
F8.0
sg3193
I400
sg3194
g3190
sbsg42
Nsg17
g18
sg3195
Nsg20
I01
sg23
Nsg75
F0.5
sg76
I0
sg24
Nsg25
Nsg11
Nsg28
I00
sg29
I00
sg30
(dp4426
sg3197
Nsg32
I00
sg2368
Nsg88
Nsg2367
Nsg3198
Nsg33
Nsg96
Nsg86
I01
sg3199
Vbaseline
p4427
sg3201
V
p4428
sg3203
Nsg103
g0
(g104
g105
((lp4429
(lp4430
tp4431
tp4432
Rp4433
sg111
I0
sg3209
Nsg112
I01
sg114
Nsg3210
F1.2
sg115
g1831
sg3211
I01
sg3212
I00
sg43
Nsg3213
V0.
p4434
sg3215
Vleft
p4435
sg34
Nsbsg24
Nsg25
Nsg11
Nsg3411
g0
(g3176
g2
Ntp4436
Rp4437
(dp4438
g6
g7
sg8
I01
sg9
g4
sg10
Nsg3180
g0
(g3181
g2
Ntp4439
Rp4440
(dp4441
g3185
(lp4442
g3187
asg3188
Nsg3189
g3190
sg3191
g3190
sg3192
F10.0
sg3193
I400
sg3194
g3190
sbsg42
Nsg17
g18
sg3195
Nsg20
I01
sg23
Nsg75
F0.5
sg76
I0
sg24
Nsg25
Nsg11
Nsg28
I00
sg29
I00
sg30
(dp4443
sg3197
Nsg32
I00
sg2368
Nsg88
Nsg2367
Nsg3198
Vanchor
p4444
sg33
Nsg96
Nsg86
I01
sg3199
Vbottom
p4445
sg3201
V# neurons
p4446
sg3203
Nsg103
g0
(g104
g105
((lp4447
(lp4448
tp4449
tp4450
Rp4451
sg111
I0
sg3209
Vvertical
p4452
sg112
I01
sg114
Nsg3210
F1.2
sg115
g2119
sg3211
I01
sg3212
I00
sg43
Nsg3213
g3427
sg3215
Vcenter
p4453
sg34
Nsbsg28
I00
sg3429
I01
sg29
I00
sg30
(dp4454
sg3431
Nsg32
I00
sg3432
g0
(g3348
g2
Ntp4455
Rp4456
(dp4457
g3352
g0
(g3436
g2
Ntp4458
Rp4459
(dp4460
g3369
g4385
sbsg3371
g0
(g3440
g2
Ntp4461
Rp4462
(dp4463
g3369
g4385
sbsbsg2368
g2427
sg3444
(dp4464
g3446
I01
sg3447
I00
sg3448
I00
sg3449
I01
sg3450
I00
ssg3451
I01
sg88
g1735
sg33
Nsg3452
I00
sg3453
I1
sg3454
F4.0
sg3455
(lp4465
g0
(cmatplotlib.axis
YTick
p4466
g2
Ntp4467
Rp4468
(dp4469
g6
g7
sg40
F0.8
sg9
g4
sg3461
I01
sg8
I01
sg10
Nsg111
I0
sg42
Nsg3462
F3.5
sg3463
g4434
sg3464
I00
sg3192
F0.0
sg17
g18
sg3465
Vout
p4470
sg3411
g0
(g3176
g2
Ntp4471
Rp4472
(dp4473
g6
g7
sg8
I01
sg9
g4
sg10
Nsg3180
g0
(g3181
g2
Ntp4474
Rp4475
(dp4476
g3185
(lp4477
g3187
asg3188
Nsg3189
g3190
sg3191
g3190
sg3192
F8.0
sg3193
I400
sg3194
g3190
sbsg42
Nsg17
g18
sg3195
Nsg20
I01
sg23
Nsg75
I0
sg76
I0
sg24
Nsg25
Nsg11
Nsg28
I00
sg29
I00
sg30
(dp4478
sg3197
Nsg32
I00
sg2368
Nsg88
Nsg2367
Nsg3198
Nsg33
Nsg96
Nsg86
I01
sg3199
Vcenter_baseline
p4479
sg3201
V
p4480
sg3203
Nsg103
g0
(g104
g105
((lp4481
(lp4482
tp4483
tp4484
Rp4485
sg111
I0
sg3209
Nsg112
I01
sg114
Nsg3210
F1.2
sg115
g2334
sg3211
I01
sg3212
I00
sg43
Nsg3213
g4434
sg3215
Vright
p4486
sg34
Nsbsg20
I01
sg23
Nsg3483
I00
sg24
Nsg25
Nsg11
Nsg3484
I00
sg28
I00
sg29
I00
sg30
(dp4487
sg3486
(I0
I1
tp4488
sg32
I00
sg3488
F2.01
sg2368
g2427
sg3489
I01
sg88
g1883
sg2367
Nsg3490
g4472
sg3491
g0
(g3176
g2
Ntp4489
Rp4490
(dp4491
g6
g7
sg8
I01
sg9
g4
sg10
Nsg3180
g0
(g3181
g2
Ntp4492
Rp4493
(dp4494
g3185
(lp4495
g3187
asg3188
Nsg3189
g3190
sg3191
g3190
sg3192
F8.0
sg3193
I400
sg3194
g3190
sbsg42
Nsg17
g18
sg3195
Nsg20
I01
sg23
Nsg75
I0
sg76
I1
sg24
Nsg25
Nsg11
Nsg28
I00
sg29
I00
sg30
(dp4496
sg3197
Nsg32
I00
sg2368
Nsg88
Nsg2367
Nsg3198
Nsg33
Nsg96
Nsg86
I01
sg3199
g4479
sg3201
V
p4497
sg3203
Nsg103
g0
(g104
g105
((lp4498
(lp4499
tp4500
tp4501
Rp4502
sg111
I0
sg3209
Nsg112
I01
sg114
Nsg3210
F1.2
sg115
g2298
sg3211
I01
sg3212
I00
sg43
Nsg3213
g4434
sg3215
Vleft
p4503
sg34
Nsbsg96
Nsg3507
I0
sg86
I01
sg103
g0
(g104
g105
((lp4504
(lp4505
tp4506
tp4507
Rp4508
sg3513
F3.5
sg3514
g0
(g3515
g2
Ntp4509
Rp4510
(dp4511
g6
g7
sg3519
g3520
sg3521
Nsg20
I01
sg3522
Nsg3523
I0
sg75
Nsg76
Nsg24
Nsg11
Nsg29
I00
sg30
(dp4512
sg32
I00
sg2368
Nsg3525
F0.8
sg3526
Nsg3527
g3528
sg3529
g3530
sg96
Nsg86
I01
sg3531
(I0
tp4513
sg111
I0
sg112
I01
sg3533
I01
sg3534
I01
sg115
g184
sg3535
Nsg3536
F2.01
sg3213
g4434
sg3537
I5
sg9
g4
sg3538
Nsg10
Nsg42
Nsg17
g18
sg3539
g3540
sg23
Nsg25
Nsg28
I00
sg3541
Nsg34
Nsg3542
Nsg3543
g0
(g3544
g2
Ntp4514
Rp4515
(dp4516
g3543
I0
sg3548
Nsg3549
F1.0
sg115
g0
(g157
g2
Ntp4517
Rp4518
(dp4519
g49
I2
sg50
Nsg120
g132
(g133
(I0
tp4520
g135
tp4521
Rp4522
(I1
(I3
I3
tp4523
g59
I00
S'\x00\x00\x00\x00\x00\x00\xf0\xbf\x00\x00\x00\x00\x00\x00\x00\x00\x00\x00\x00\x00\x00\x00\x00\x00\x00\x00\x00\x00\x00\x00\x00\x00\x00\x00\x00\x00\x00\x00\xf0?\x00\x00\x00\x00\x00\x00\x00\x00\x00\x00\x00\x00\x00\x00\x00\x00\x00\x00\x00\x00\x00\x00\x00\x00\x00\x00\x00\x00\x00\x00\xf0?'
p4524
tp4525
bsg51
g7
sg52
(dp4526
sbsg3560
I00
sg3561
g3562
sg3563
Nsg2365
g3564
sg99
g3565
sg3566
g0
(g3567
g2
Ntp4527
Rp4528
(dp4529
g3571
I00
sg3572
Nsg3573
g132
(g133
(I0
tp4530
g135
tp4531
Rp4532
(I1
(I2
I2
tp4533
g59
I00
S'\x00\x00\x00\x00\x00\x00\x00\x00\x00\x00\x00\x00\x00\x00\x00\x00\x00\x00\x00\x00\x00\x00\xf0?\x00\x00\x00\x00\x00\x00\x00\x00'
p4534
tp4535
bsg3580
I00
sg3581
F0.1111111111111111
sg3582
I1
sg3583
I00
sbsbsg3584
g3585
sg88
Nsg33
Nsg92
I01
sg3586
Nsg101
VNone
p4536
sg103
g0
(g104
g105
((lp4537
(lp4538
tp4539
tp4540
Rp4541
sg3593
I00
sg3594
g3595
sg3596
g3540
sg3597
Nsg114
Nsg3598
g3540
sg3599
F0.0
sg8
I01
sg3600
Nsg43
Nsg2367
Nsg3601
(I0
tp4542
sg87
F0.5
sg3566
Nsbsg112
I00
sg3603
g0
(g3515
g2
Ntp4543
Rp4544
(dp4545
g6
g7
sg8
I01
sg3596
g3540
sg9
g4
sg3519
g3520
sg3521
Nsg10
Nsg42
Nsg17
g18
sg3539
g3540
sg20
I01
sg3522
Nsg23
Nsg75
g132
(g133
(I0
tp4546
g135
tp4547
Rp4548
(I1
(I2
tp4549
g59
I00
S'\x00\x00\x00\x00\x00\x00\x00\x00\x00\x00\x00\x00\x00\x00\x00\x00'
p4550
tp4551
bsg76
g132
(g133
(I0
tp4552
g135
tp4553
Rp4554
(I1
(I2
tp4555
g59
I00
S'\x00\x00\x00\x00\x00\x00\x00\x00\x00\x00\x00\x00\x00\x00\xf0?'
p4556
tp4557
bsg24
Nsg25
Nsg11
Nsg3531
(I0
I1
tp4558
sg28
I00
sg3541
Nsg29
I00
sg30
(dp4559
sg3538
Nsg32
I00
sg3593
I00
sg2368
Nsg3542
Nsg3525
F1.0
sg3584
g3585
sg3526
Nsg3213
g3621
sg3543
g0
(g3544
g2
Ntp4560
Rp4561
(dp4562
g3543
g3625
sg3548
Nsg3549
Nsg115
g0
(g45
g2
Ntp4563
Rp4564
(dp4565
g49
I1
sg50
Nsg51
g7
sg52
(dp4566
sbsg3560
I00
sg3561
g3562
sg3563
Nsg2365
g3564
sg99
g3565
sg3566
g0
(g3567
g2
Ntp4567
Rp4568
(dp4569
g3571
I00
sg3572
Nsg3573
g132
(g133
(I0
tp4570
g135
tp4571
Rp4572
(I1
(I0
I2
tp4573
g59
I00
g3637
tp4574
bsg3580
I00
sg3581
F0.1111111111111111
sg3582
I1
sg3583
I00
sbsbsg33
Nsg3527
g3528
sg92
I01
sg3529
g3530
sg96
Nsg3599
F0.0
sg86
I01
sg3586
g132
(g133
(I0
tp4575
g135
tp4576
Rp4577
(I1
(I2
I2
tp4578
g59
I00
S'\x00\x00\x00\x00\x00\x00\x00\x00\x00\x00\x00\x00\x00\x00\x00\x00\x00\x00\x00\x00\x00\x00\xf0?\x00\x00\x00\x00\x00\x00\x00\x00'
p4579
tp4580
bsg101
g3645
sg103
g0
(g104
g105
((lp4581
(lp4582
tp4583
tp4584
Rp4585
sg111
I0
sg3594
g3595
sg3523
I0
sg3597
Nsg3537
I5
sg112
I01
sg114
F1.0
sg3598
g3540
sg3534
I00
sg115
g184
sg3600
Nsg3535
Nsg3533
I00
sg43
Nsg2367
Nsg3601
(I0
I0
tp4586
sg88
g1107
sg87
F0.8
sg34
Nsg3566
g0
(g3567
g2
Ntp4587
Rp4588
(dp4589
g3571
I00
sg3572
Nsg3573
g4577
sg3580
I00
sg3581
F0.1111111111111111
sg3582
I180
sg3583
I00
sbsbsg114
Nsg33
Nsg3655
g0
(g3515
g2
Ntp4590
Rp4591
(dp4592
g6
g7
sg3519
g3520
sg3521
Nsg20
I01
sg3522
Nsg3523
I0
sg75
Nsg76
Nsg24
Nsg11
Nsg29
I00
sg30
(dp4593
sg32
I00
sg2368
Nsg3525
F0.8
sg3526
Nsg3527
g3528
sg3529
g3530
sg96
Nsg86
I01
sg3531
(I1
tp4594
sg111
I0
sg112
I01
sg3533
I01
sg3534
I01
sg115
g184
sg3535
Nsg3536
F2.01
sg3213
g4434
sg3537
I5
sg9
g4
sg3538
Nsg10
Nsg42
Nsg17
g18
sg3539
g3540
sg23
Nsg25
Nsg28
I00
sg3541
Nsg34
Nsg3542
Nsg3543
g0
(g3544
g2
Ntp4595
Rp4596
(dp4597
g3543
I1
sg3548
Nsg3549
F1.0
sg115
g0
(g157
g2
Ntp4598
Rp4599
(dp4600
g49
I2
sg50
Nsg120
g132
(g133
(I0
tp4601
g135
tp4602
Rp4603
(I1
(I3
I3
tp4604
g59
I00
S'\x00\x00\x00\x00\x00\x00\xf0?\x00\x00\x00\x00\x00\x00\x00\x00\x00\x00\x00\x00\x00\x00\x00\x00\x00\x00\x00\x00\x00\x00\x00\x00\x00\x00\x00\x00\x00\x00\xf0?\x00\x00\x00\x00\x00\x00\x00\x00\x00\x00\x00\x00\x00\x00\x00\x00\x00\x00\x00\x00\x00\x00\x00\x00\x00\x00\x00\x00\x00\x00\xf0?'
p4605
tp4606
bsg51
g7
sg52
(dp4607
sbsg3560
I00
sg3561
g3562
sg3563
Nsg2365
g3564
sg99
g3565
sg3566
g4528
sbsg3584
g3585
sg88
Nsg33
Nsg92
I01
sg3586
Nsg101
VNone
p4608
sg103
g0
(g104
g105
((lp4609
(lp4610
tp4611
tp4612
Rp4613
sg3593
I00
sg3594
g3595
sg3596
g3540
sg3597
Nsg114
Nsg3598
g3540
sg3599
F0.0
sg8
I01
sg3600
Nsg43
Nsg2367
Nsg3601
(I0
tp4614
sg87
F0.5
sg3566
Nsbsg115
Nsg3681
F8.0
sg3682
Vytick
p4615
sg43
Nsg3213
g4434
sg34
Nsbag0
(g4466
g2
Ntp4616
Rp4617
(dp4618
g6
g7
sg40
F0.8
sg9
g4
sg3461
I01
sg8
I01
sg10
Nsg111
I0
sg42
Nsg3462
F3.5
sg3463
g4434
sg3464
I00
sg3192
F0.0
sg17
g18
sg3465
g4470
sg3411
g0
(g3176
g2
Ntp4619
Rp4620
(dp4621
g6
g7
sg8
I01
sg9
g4
sg10
Nsg3180
g0
(g3181
g2
Ntp4622
Rp4623
(dp4624
g3185
(lp4625
g3187
asg3188
Nsg3189
g3190
sg3191
g3190
sg3192
F8.0
sg3193
I400
sg3194
g3190
sbsg42
Nsg17
g18
sg3195
Nsg20
I01
sg23
Nsg75
I0
sg76
I0
sg24
Nsg25
Nsg11
Nsg28
I00
sg29
I00
sg30
(dp4626
sg3197
Nsg32
I00
sg2368
Nsg88
Nsg2367
Nsg3198
Nsg33
Nsg96
Nsg86
I01
sg3199
g4479
sg3201
V
p4627
sg3203
Nsg103
g0
(g104
g105
((lp4628
(lp4629
tp4630
tp4631
Rp4632
sg111
I0
sg3209
Nsg112
I01
sg114
Nsg3210
F1.2
sg115
g2343
sg3211
I01
sg3212
I00
sg43
Nsg3213
g4434
sg3215
g4486
sg34
Nsbsg20
I01
sg23
Nsg3483
I00
sg24
Nsg25
Nsg11
Nsg3484
I00
sg28
I00
sg29
I00
sg30
(dp4633
sg3486
(I0
I1
tp4634
sg32
I00
sg3488
F2.01
sg2368
g2427
sg3489
I01
sg88
g320
sg2367
Nsg3490
g4620
sg3491
g0
(g3176
g2
Ntp4635
Rp4636
(dp4637
g6
g7
sg8
I01
sg9
g4
sg10
Nsg3180
g0
(g3181
g2
Ntp4638
Rp4639
(dp4640
g3185
(lp4641
g3187
asg3188
Nsg3189
g3190
sg3191
g3190
sg3192
F8.0
sg3193
I400
sg3194
g3190
sbsg42
Nsg17
g18
sg3195
Nsg20
I01
sg23
Nsg75
I0
sg76
I1
sg24
Nsg25
Nsg11
Nsg28
I00
sg29
I00
sg30
(dp4642
sg3197
Nsg32
I00
sg2368
Nsg88
Nsg2367
Nsg3198
Nsg33
Nsg96
Nsg86
I01
sg3199
g4479
sg3201
V
p4643
sg3203
Nsg103
g0
(g104
g105
((lp4644
(lp4645
tp4646
tp4647
Rp4648
sg111
I0
sg3209
Nsg112
I01
sg114
Nsg3210
F1.2
sg115
g2307
sg3211
I01
sg3212
I00
sg43
Nsg3213
g4434
sg3215
g4503
sg34
Nsbsg96
Nsg3507
I0
sg86
I01
sg103
g0
(g104
g105
((lp4649
(lp4650
tp4651
tp4652
Rp4653
sg3513
F3.5
sg3514
g0
(g3515
g2
Ntp4654
Rp4655
(dp4656
g6
g7
sg3519
g3520
sg3521
Nsg20
I01
sg3522
Nsg3523
I0
sg75
Nsg76
Nsg24
Nsg11
Nsg29
I00
sg30
(dp4657
sg32
I00
sg2368
Nsg3525
F0.8
sg3526
Nsg3527
g3528
sg3529
g3530
sg96
Nsg86
I01
sg3531
g4513
sg111
I0
sg112
I01
sg3533
I01
sg3534
I01
sg115
g184
sg3535
Nsg3536
F2.01
sg3213
g4434
sg3537
I5
sg9
g4
sg3538
Nsg10
Nsg42
Nsg17
g18
sg3539
g3540
sg23
Nsg25
Nsg28
I00
sg3541
Nsg34
Nsg3542
Nsg3543
g0
(g3544
g2
Ntp4658
Rp4659
(dp4660
g3543
I0
sg3548
Nsg3549
F1.0
sg115
g0
(g157
g2
Ntp4661
Rp4662
(dp4663
g49
I2
sg50
Nsg120
g132
(g133
(I0
tp4664
g135
tp4665
Rp4666
(I1
(I3
I3
tp4667
g59
I00
S'\x00\x00\x00\x00\x00\x00\xf0\xbf\x00\x00\x00\x00\x00\x00\x00\x00\x00\x00\x00\x00\x00\x00\x00\x00\x00\x00\x00\x00\x00\x00\x00\x00\x00\x00\x00\x00\x00\x00\xf0?\x00\x00\x00\x00\x00\x00\x00\x00\x00\x00\x00\x00\x00\x00\x00\x00\x00\x00\x00\x00\x00\x00\x00\x00\x00\x00\x00\x00\x00\x00\xf0?'
p4668
tp4669
bsg51
g7
sg52
(dp4670
sbsg3560
I00
sg3561
g3562
sg3563
Nsg2365
g3564
sg99
g3565
sg3566
g4528
sbsg3584
g3585
sg88
Nsg33
Nsg92
I01
sg3586
Nsg101
g4536
sg103
g0
(g104
g105
((lp4671
(lp4672
tp4673
tp4674
Rp4675
sg3593
I00
sg3594
g3595
sg3596
g3540
sg3597
Nsg114
Nsg3598
g3540
sg3599
F0.0
sg8
I01
sg3600
Nsg43
Nsg2367
Nsg3601
(I0
tp4676
sg87
F0.5
sg3566
Nsbsg112
I00
sg3603
g0
(g3515
g2
Ntp4677
Rp4678
(dp4679
g6
g7
sg8
I01
sg3596
g3540
sg9
g4
sg3519
g3520
sg3521
Nsg10
Nsg42
Nsg17
g18
sg3539
g3540
sg20
I01
sg3522
Nsg23
Nsg75
g132
(g133
(I0
tp4680
g135
tp4681
Rp4682
(I1
(I2
tp4683
g59
I00
S'\x00\x00\x00\x00\x00\x00\x00\x00\x00\x00\x00\x00\x00\x00\x00\x00'
p4684
tp4685
bsg76
g132
(g133
(I0
tp4686
g135
tp4687
Rp4688
(I1
(I2
tp4689
g59
I00
S'\x00\x00\x00\x00\x00\x00\x00\x00\x00\x00\x00\x00\x00\x00\xf0?'
p4690
tp4691
bsg24
Nsg25
Nsg11
Nsg3531
g4558
sg28
I00
sg3541
Nsg29
I00
sg30
(dp4692
sg3538
Nsg32
I00
sg3593
I00
sg2368
Nsg3542
Nsg3525
F1.0
sg3584
g3585
sg3526
Nsg3213
g3621
sg3543
g0
(g3544
g2
Ntp4693
Rp4694
(dp4695
g3543
g3625
sg3548
Nsg3549
Nsg115
g0
(g45
g2
Ntp4696
Rp4697
(dp4698
g49
I1
sg50
Nsg51
g7
sg52
(dp4699
sbsg3560
I00
sg3561
g3562
sg3563
Nsg2365
g3564
sg99
g3565
sg3566
g0
(g3567
g2
Ntp4700
Rp4701
(dp4702
g3571
I00
sg3572
Nsg3573
g132
(g133
(I0
tp4703
g135
tp4704
Rp4705
(I1
(I0
I2
tp4706
g59
I00
g3637
tp4707
bsg3580
I00
sg3581
F0.1111111111111111
sg3582
I1
sg3583
I00
sbsbsg33
Nsg3527
g3528
sg92
I01
sg3529
g3530
sg96
Nsg3599
F0.0
sg86
I01
sg3586
g132
(g133
(I0
tp4708
g135
tp4709
Rp4710
(I1
(I2
I2
tp4711
g59
I00
S'\x00\x00\x00\x00\x00\x00\x00\x00\x00\x00\x00\x00\x00\x00\x00\x00\x00\x00\x00\x00\x00\x00\xf0?\x00\x00\x00\x00\x00\x00\x00\x00'
p4712
tp4713
bsg101
g3645
sg103
g0
(g104
g105
((lp4714
(lp4715
tp4716
tp4717
Rp4718
sg111
I0
sg3594
g3595
sg3523
I0
sg3597
Nsg3537
I5
sg112
I01
sg114
F1.0
sg3598
g3540
sg3534
I00
sg115
g184
sg3600
Nsg3535
Nsg3533
I00
sg43
Nsg2367
Nsg3601
g4586
sg88
g1037
sg87
F0.8
sg34
Nsg3566
g0
(g3567
g2
Ntp4719
Rp4720
(dp4721
g3571
I00
sg3572
Nsg3573
g4710
sg3580
I00
sg3581
F0.1111111111111111
sg3582
I180
sg3583
I00
sbsbsg114
Nsg33
Nsg3655
g0
(g3515
g2
Ntp4722
Rp4723
(dp4724
g6
g7
sg3519
g3520
sg3521
Nsg20
I01
sg3522
Nsg3523
I0
sg75
Nsg76
Nsg24
Nsg11
Nsg29
I00
sg30
(dp4725
sg32
I00
sg2368
Nsg3525
F0.8
sg3526
Nsg3527
g3528
sg3529
g3530
sg96
Nsg86
I01
sg3531
g4594
sg111
I0
sg112
I01
sg3533
I01
sg3534
I01
sg115
g184
sg3535
Nsg3536
F2.01
sg3213
g4434
sg3537
I5
sg9
g4
sg3538
Nsg10
Nsg42
Nsg17
g18
sg3539
g3540
sg23
Nsg25
Nsg28
I00
sg3541
Nsg34
Nsg3542
Nsg3543
g0
(g3544
g2
Ntp4726
Rp4727
(dp4728
g3543
I1
sg3548
Nsg3549
F1.0
sg115
g0
(g157
g2
Ntp4729
Rp4730
(dp4731
g49
I2
sg50
Nsg120
g132
(g133
(I0
tp4732
g135
tp4733
Rp4734
(I1
(I3
I3
tp4735
g59
I00
S'\x00\x00\x00\x00\x00\x00\xf0?\x00\x00\x00\x00\x00\x00\x00\x00\x00\x00\x00\x00\x00\x00\x00\x00\x00\x00\x00\x00\x00\x00\x00\x00\x00\x00\x00\x00\x00\x00\xf0?\x00\x00\x00\x00\x00\x00\x00\x00\x00\x00\x00\x00\x00\x00\x00\x00\x00\x00\x00\x00\x00\x00\x00\x00\x00\x00\x00\x00\x00\x00\xf0?'
p4736
tp4737
bsg51
g7
sg52
(dp4738
sbsg3560
I00
sg3561
g3562
sg3563
Nsg2365
g3564
sg99
g3565
sg3566
g4528
sbsg3584
g3585
sg88
Nsg33
Nsg92
I01
sg3586
Nsg101
g4608
sg103
g0
(g104
g105
((lp4739
(lp4740
tp4741
tp4742
Rp4743
sg3593
I00
sg3594
g3595
sg3596
g3540
sg3597
Nsg114
Nsg3598
g3540
sg3599
F0.0
sg8
I01
sg3600
Nsg43
Nsg2367
Nsg3601
(I0
tp4744
sg87
F0.5
sg3566
Nsbsg115
Nsg3681
F8.0
sg3682
g4615
sg43
Nsg3213
g4434
sg34
Nsbasg4064
I01
sg2375
g0
(g2376
g2
Ntp4745
Rp4746
I01
bsg96
Nsg86
I01
sg4067
I01
sg103
g0
(g104
g105
((lp4747
(lp4748
tp4749
tp4750
Rp4751
sg111
I0
sg4073
I1
sg4074
Nsg112
I00
sg114
Nsg4075
Vleft
p4752
sg115
Nsg4077
Vleft
p4753
sg43
Nsg2367
Nsg3537
I15
sg4079
(lp4754
g0
(g4466
g2
Ntp4755
Rp4756
(dp4757
g6
g7
sg40
F0.6
sg9
g4
sg3461
I01
sg8
I01
sg10
Nsg111
I0
sg42
Nsg3462
F3.4
sg3463
g4434
sg3464
I00
sg3192
F0.0
sg17
g18
sg3465
g4470
sg3411
g0
(g3176
g2
Ntp4758
Rp4759
(dp4760
g6
g7
sg8
I01
sg9
g4
sg10
Nsg3180
g0
(g3181
g2
Ntp4761
Rp4762
(dp4763
g3185
(lp4764
g3187
asg3188
Nsg3189
g3190
sg3191
g3190
sg3192
F8.0
sg3193
I400
sg3194
g3190
sbsg42
Nsg17
g18
sg3195
Nsg20
I01
sg23
Nsg75
I0
sg76
I0
sg24
Nsg25
Nsg11
Nsg28
I00
sg29
I00
sg30
(dp4765
sg3197
Nsg32
I00
sg2368
Nsg88
Nsg2367
Nsg3198
Nsg33
Nsg96
Nsg86
I01
sg3199
g4479
sg3201
V
p4766
sg3203
Nsg103
g0
(g104
g105
((lp4767
(lp4768
tp4769
tp4770
Rp4771
sg111
I0
sg3209
Nsg112
I01
sg114
Nsg3210
F1.2
sg115
g2325
sg3211
I01
sg3212
I00
sg43
Nsg3213
g4434
sg3215
g4486
sg34
Nsbsg20
I01
sg23
Nsg3483
I00
sg24
Nsg25
Nsg11
Nsg3484
I00
sg28
I00
sg29
I00
sg30
(dp4772
sg3486
(I0
I1
tp4773
sg32
I00
sg3488
I2
sg2368
g2427
sg3489
I01
sg88
g1177
sg2367
Nsg3490
g4759
sg3491
g0
(g3176
g2
Ntp4774
Rp4775
(dp4776
g6
g7
sg8
I01
sg9
g4
sg10
Nsg3180
g0
(g3181
g2
Ntp4777
Rp4778
(dp4779
g3185
(lp4780
g3187
asg3188
Nsg3189
g3190
sg3191
g3190
sg3192
F8.0
sg3193
I400
sg3194
g3190
sbsg42
Nsg17
g18
sg3195
Nsg20
I01
sg23
Nsg75
I0
sg76
I1
sg24
Nsg25
Nsg11
Nsg28
I00
sg29
I00
sg30
(dp4781
sg3197
Nsg32
I00
sg2368
Nsg88
Nsg2367
Nsg3198
Nsg33
Nsg96
Nsg86
I01
sg3199
g4479
sg3201
V
p4782
sg3203
Nsg103
g0
(g104
g105
((lp4783
(lp4784
tp4785
tp4786
Rp4787
sg111
I0
sg3209
Nsg112
I01
sg114
Nsg3210
F1.2
sg115
g2316
sg3211
I01
sg3212
I00
sg43
Nsg3213
g4434
sg3215
g4503
sg34
Nsbsg96
Nsg3507
I0
sg86
I01
sg103
g0
(g104
g105
((lp4788
(lp4789
tp4790
tp4791
Rp4792
sg3513
F3.4
sg3514
g0
(g3515
g2
Ntp4793
Rp4794
(dp4795
g6
g7
sg3519
g3520
sg3521
Nsg20
I01
sg3522
Nsg3523
I0
sg75
Nsg76
Nsg24
Nsg11
Nsg29
I00
sg30
(dp4796
sg32
I00
sg2368
Nsg3525
F0.6
sg3526
Nsg3527
g3528
sg3529
g3530
sg96
Nsg86
I01
sg3531
g4513
sg111
I0
sg112
I01
sg3533
I01
sg3534
I01
sg115
g184
sg3535
Nsg3536
I2
sg3213
g4434
sg3537
I5
sg9
g4
sg3538
Nsg10
Nsg42
Nsg17
g18
sg3539
g3540
sg23
Nsg25
Nsg28
I00
sg3541
Nsg34
Nsg3542
Nsg3543
g0
(g3544
g2
Ntp4797
Rp4798
(dp4799
g3543
I0
sg3548
Nsg3549
F1.0
sg115
g0
(g157
g2
Ntp4800
Rp4801
(dp4802
g49
I2
sg50
Nsg120
g132
(g133
(I0
tp4803
g135
tp4804
Rp4805
(I1
(I3
I3
tp4806
g59
I00
S'\x00\x00\x00\x00\x00\x00\xf0\xbf\x00\x00\x00\x00\x00\x00\x00\x00\x00\x00\x00\x00\x00\x00\x00\x00\x00\x00\x00\x00\x00\x00\x00\x00\x00\x00\x00\x00\x00\x00\xf0?\x00\x00\x00\x00\x00\x00\x00\x00\x00\x00\x00\x00\x00\x00\x00\x00\x00\x00\x00\x00\x00\x00\x00\x00\x00\x00\x00\x00\x00\x00\xf0?'
p4807
tp4808
bsg51
g7
sg52
(dp4809
sbsg3560
I00
sg3561
g3562
sg3563
Nsg2365
g3564
sg99
g3565
sg3566
g4528
sbsg3584
g3585
sg88
Nsg33
Nsg92
I01
sg3586
Nsg101
g4536
sg103
g0
(g104
g105
((lp4810
(lp4811
tp4812
tp4813
Rp4814
sg3593
I00
sg3594
g3595
sg3596
g3540
sg3597
Nsg114
Nsg3598
g3540
sg3599
F0.0
sg8
I01
sg3600
Nsg43
Nsg2367
Nsg3601
(I0
tp4815
sg87
F0.5
sg3566
Nsbsg112
I00
sg3603
g0
(g3515
g2
Ntp4816
Rp4817
(dp4818
g6
g7
sg8
I01
sg3596
g3540
sg9
g4
sg3519
g3520
sg3521
Nsg10
Nsg42
Nsg17
g18
sg3539
g3540
sg20
I01
sg3522
Nsg23
Nsg75
g132
(g133
(I0
tp4819
g135
tp4820
Rp4821
(I1
(I2
tp4822
g59
I00
S'\x00\x00\x00\x00\x00\x00\x00\x00\x00\x00\x00\x00\x00\x00\x00\x00'
p4823
tp4824
bsg76
g132
(g133
(I0
tp4825
g135
tp4826
Rp4827
(I1
(I2
tp4828
g59
I00
S'\x00\x00\x00\x00\x00\x00\x00\x00\x00\x00\x00\x00\x00\x00\xf0?'
p4829
tp4830
bsg24
Nsg25
Nsg11
Nsg3531
g4558
sg28
I00
sg3541
Nsg29
I00
sg30
(dp4831
sg3538
Nsg32
I00
sg3593
I00
sg2368
Nsg3542
Nsg3525
F1.0
sg3584
g3585
sg3526
Nsg3213
g3621
sg3543
g0
(g3544
g2
Ntp4832
Rp4833
(dp4834
g3543
g3625
sg3548
Nsg3549
Nsg115
g0
(g45
g2
Ntp4835
Rp4836
(dp4837
g49
I1
sg50
Nsg51
g7
sg52
(dp4838
sbsg3560
I00
sg3561
g3562
sg3563
Nsg2365
g3564
sg99
g3565
sg3566
g0
(g3567
g2
Ntp4839
Rp4840
(dp4841
g3571
I00
sg3572
Nsg3573
g132
(g133
(I0
tp4842
g135
tp4843
Rp4844
(I1
(I0
I2
tp4845
g59
I00
g3637
tp4846
bsg3580
I00
sg3581
F0.1111111111111111
sg3582
I1
sg3583
I00
sbsbsg33
Nsg3527
g3528
sg92
I01
sg3529
g3530
sg96
Nsg3599
F0.0
sg86
I01
sg3586
g132
(g133
(I0
tp4847
g135
tp4848
Rp4849
(I1
(I2
I2
tp4850
g59
I00
S'\x00\x00\x00\x00\x00\x00\x00\x00\x00\x00\x00\x00\x00\x00\x00\x00\x00\x00\x00\x00\x00\x00\xf0?\x00\x00\x00\x00\x00\x00\x00\x00'
p4851
tp4852
bsg101
g3645
sg103
g0
(g104
g105
((lp4853
(lp4854
tp4855
tp4856
Rp4857
sg111
I0
sg3594
g3595
sg3523
I0
sg3597
Nsg3537
I5
sg112
I01
sg114
F1.0
sg3598
g3540
sg3534
I00
sg115
g184
sg3600
Nsg3535
Nsg3533
I00
sg43
Nsg2367
Nsg3601
g4586
sg88
g1953
sg87
F0.8
sg34
Nsg3566
g0
(g3567
g2
Ntp4858
Rp4859
(dp4860
g3571
I00
sg3572
Nsg3573
g4849
sg3580
I00
sg3581
F0.1111111111111111
sg3582
I180
sg3583
I00
sbsbsg114
Nsg33
Nsg3655
g0
(g3515
g2
Ntp4861
Rp4862
(dp4863
g6
g7
sg3519
g3520
sg3521
Nsg20
I01
sg3522
Nsg3523
I0
sg75
Nsg76
Nsg24
Nsg11
Nsg29
I00
sg30
(dp4864
sg32
I00
sg2368
Nsg3525
F0.6
sg3526
Nsg3527
g3528
sg3529
g3530
sg96
Nsg86
I01
sg3531
g4594
sg111
I0
sg112
I01
sg3533
I01
sg3534
I01
sg115
g184
sg3535
Nsg3536
I2
sg3213
g4434
sg3537
I5
sg9
g4
sg3538
Nsg10
Nsg42
Nsg17
g18
sg3539
g3540
sg23
Nsg25
Nsg28
I00
sg3541
Nsg34
Nsg3542
Nsg3543
g0
(g3544
g2
Ntp4865
Rp4866
(dp4867
g3543
I1
sg3548
Nsg3549
F1.0
sg115
g0
(g157
g2
Ntp4868
Rp4869
(dp4870
g49
I2
sg50
Nsg120
g132
(g133
(I0
tp4871
g135
tp4872
Rp4873
(I1
(I3
I3
tp4874
g59
I00
S'\x00\x00\x00\x00\x00\x00\xf0?\x00\x00\x00\x00\x00\x00\x00\x00\x00\x00\x00\x00\x00\x00\x00\x00\x00\x00\x00\x00\x00\x00\x00\x00\x00\x00\x00\x00\x00\x00\xf0?\x00\x00\x00\x00\x00\x00\x00\x00\x00\x00\x00\x00\x00\x00\x00\x00\x00\x00\x00\x00\x00\x00\x00\x00\x00\x00\x00\x00\x00\x00\xf0?'
p4875
tp4876
bsg51
g7
sg52
(dp4877
sbsg3560
I00
sg3561
g3562
sg3563
Nsg2365
g3564
sg99
g3565
sg3566
g4528
sbsg3584
g3585
sg88
Nsg33
Nsg92
I01
sg3586
Nsg101
g4608
sg103
g0
(g104
g105
((lp4878
(lp4879
tp4880
tp4881
Rp4882
sg3593
I00
sg3594
g3595
sg3596
g3540
sg3597
Nsg114
Nsg3598
g3540
sg3599
F0.0
sg8
I01
sg3600
Nsg43
Nsg2367
Nsg3601
(I0
tp4883
sg87
F0.5
sg3566
Nsbsg115
Nsg3681
F8.0
sg3682
g4615
sg43
Nsg3213
g4434
sg34
Nsbag0
(g4466
g2
Ntp4884
Rp4885
(dp4886
g6
g7
sg40
F0.6
sg9
g4
sg3461
I01
sg8
I01
sg10
Nsg111
I0
sg42
Nsg3462
F3.4
sg3463
g4434
sg3464
I00
sg3192
F0.0
sg17
g18
sg3465
g4470
sg3411
g0
(g3176
g2
Ntp4887
Rp4888
(dp4889
g6
g7
sg8
I01
sg9
g4
sg10
Nsg3180
g0
(g3181
g2
Ntp4890
Rp4891
(dp4892
g3185
(lp4893
g3187
asg3188
Nsg3189
g3190
sg3191
g3190
sg3192
F8.0
sg3193
I400
sg3194
g3190
sbsg42
Nsg17
g18
sg3195
Nsg20
I01
sg23
Nsg75
I0
sg76
I0
sg24
Nsg25
Nsg11
Nsg28
I00
sg29
I00
sg30
(dp4894
sg3197
Nsg32
I00
sg2368
Nsg88
Nsg2367
Nsg3198
Nsg33
Nsg96
Nsg86
I01
sg3199
g4479
sg3201
V
p4895
sg3203
Nsg103
g0
(g104
g105
((lp4896
(lp4897
tp4898
tp4899
Rp4900
sg111
I0
sg3209
Nsg112
I01
sg114
Nsg3210
F1.2
sg115
g178
sg3211
I01
sg3212
I00
sg43
Nsg3213
g4434
sg3215
g4486
sg34
Nsbsg20
I01
sg23
Nsg3483
I00
sg24
Nsg25
Nsg11
Nsg3484
I00
sg28
I00
sg29
I00
sg30
(dp4901
sg3486
(I0
I1
tp4902
sg32
I00
sg3488
I2
sg2368
g2427
sg3489
I01
sg88
g390
sg2367
Nsg3490
g4888
sg3491
g0
(g3176
g2
Ntp4903
Rp4904
(dp4905
g6
g7
sg8
I01
sg9
g4
sg10
Nsg3180
g0
(g3181
g2
Ntp4906
Rp4907
(dp4908
g3185
(lp4909
g3187
asg3188
Nsg3189
g3190
sg3191
g3190
sg3192
F8.0
sg3193
I400
sg3194
g3190
sbsg42
Nsg17
g18
sg3195
Nsg20
I01
sg23
Nsg75
I0
sg76
I1
sg24
Nsg25
Nsg11
Nsg28
I00
sg29
I00
sg30
(dp4910
sg3197
Nsg32
I00
sg2368
Nsg88
Nsg2367
Nsg3198
Nsg33
Nsg96
Nsg86
I01
sg3199
g4479
sg3201
V
p4911
sg3203
Nsg103
g0
(g104
g105
((lp4912
(lp4913
tp4914
tp4915
Rp4916
sg111
I0
sg3209
Nsg112
I01
sg114
Nsg3210
F1.2
sg115
g2352
sg3211
I01
sg3212
I00
sg43
Nsg3213
g4434
sg3215
g4503
sg34
Nsbsg96
Nsg3507
I0
sg86
I01
sg103
g0
(g104
g105
((lp4917
(lp4918
tp4919
tp4920
Rp4921
sg3513
F3.4
sg3514
g0
(g3515
g2
Ntp4922
Rp4923
(dp4924
g6
g7
sg3519
g3520
sg3521
Nsg20
I01
sg3522
Nsg3523
I0
sg75
Nsg76
Nsg24
Nsg11
Nsg29
I00
sg30
(dp4925
sg32
I00
sg2368
Nsg3525
F0.6
sg3526
Nsg3527
g3528
sg3529
g3530
sg96
Nsg86
I01
sg3531
g4513
sg111
I0
sg112
I01
sg3533
I01
sg3534
I01
sg115
g184
sg3535
Nsg3536
I2
sg3213
g4434
sg3537
I5
sg9
g4
sg3538
Nsg10
Nsg42
Nsg17
g18
sg3539
g3540
sg23
Nsg25
Nsg28
I00
sg3541
Nsg34
Nsg3542
Nsg3543
g0
(g3544
g2
Ntp4926
Rp4927
(dp4928
g3543
I0
sg3548
Nsg3549
F1.0
sg115
g0
(g157
g2
Ntp4929
Rp4930
(dp4931
g49
I2
sg50
Nsg120
g132
(g133
(I0
tp4932
g135
tp4933
Rp4934
(I1
(I3
I3
tp4935
g59
I00
S'\x00\x00\x00\x00\x00\x00\xf0\xbf\x00\x00\x00\x00\x00\x00\x00\x00\x00\x00\x00\x00\x00\x00\x00\x00\x00\x00\x00\x00\x00\x00\x00\x00\x00\x00\x00\x00\x00\x00\xf0?\x00\x00\x00\x00\x00\x00\x00\x00\x00\x00\x00\x00\x00\x00\x00\x00\x00\x00\x00\x00\x00\x00\x00\x00\x00\x00\x00\x00\x00\x00\xf0?'
p4936
tp4937
bsg51
g7
sg52
(dp4938
sbsg3560
I00
sg3561
g3562
sg3563
Nsg2365
g3564
sg99
g3565
sg3566
g4528
sbsg3584
g3585
sg88
Nsg33
Nsg92
I01
sg3586
Nsg101
g4536
sg103
g0
(g104
g105
((lp4939
(lp4940
tp4941
tp4942
Rp4943
sg3593
I00
sg3594
g3595
sg3596
g3540
sg3597
Nsg114
Nsg3598
g3540
sg3599
F0.0
sg8
I01
sg3600
Nsg43
Nsg2367
Nsg3601
(I0
tp4944
sg87
F0.5
sg3566
Nsbsg112
I00
sg3603
g0
(g3515
g2
Ntp4945
Rp4946
(dp4947
g6
g7
sg8
I01
sg3596
g3540
sg9
g4
sg3519
g3520
sg3521
Nsg10
Nsg42
Nsg17
g18
sg3539
g3540
sg20
I01
sg3522
Nsg23
Nsg75
g132
(g133
(I0
tp4948
g135
tp4949
Rp4950
(I1
(I2
tp4951
g59
I00
S'\x00\x00\x00\x00\x00\x00\x00\x00\x00\x00\x00\x00\x00\x00\x00\x00'
p4952
tp4953
bsg76
g132
(g133
(I0
tp4954
g135
tp4955
Rp4956
(I1
(I2
tp4957
g59
I00
S'\x00\x00\x00\x00\x00\x00\x00\x00\x00\x00\x00\x00\x00\x00\xf0?'
p4958
tp4959
bsg24
Nsg25
Nsg11
Nsg3531
g4558
sg28
I00
sg3541
Nsg29
I00
sg30
(dp4960
sg3538
Nsg32
I00
sg3593
I00
sg2368
Nsg3542
Nsg3525
F1.0
sg3584
g3585
sg3526
Nsg3213
g3621
sg3543
g0
(g3544
g2
Ntp4961
Rp4962
(dp4963
g3543
g3625
sg3548
Nsg3549
Nsg115
g0
(g45
g2
Ntp4964
Rp4965
(dp4966
g49
I1
sg50
Nsg51
g7
sg52
(dp4967
sbsg3560
I00
sg3561
g3562
sg3563
Nsg2365
g3564
sg99
g3565
sg3566
g0
(g3567
g2
Ntp4968
Rp4969
(dp4970
g3571
I00
sg3572
Nsg3573
g132
(g133
(I0
tp4971
g135
tp4972
Rp4973
(I1
(I0
I2
tp4974
g59
I00
g3637
tp4975
bsg3580
I00
sg3581
F0.1111111111111111
sg3582
I1
sg3583
I00
sbsbsg33
Nsg3527
g3528
sg92
I01
sg3529
g3530
sg96
Nsg3599
F0.0
sg86
I01
sg3586
g132
(g133
(I0
tp4976
g135
tp4977
Rp4978
(I1
(I2
I2
tp4979
g59
I00
S'\x00\x00\x00\x00\x00\x00\x00\x00\x00\x00\x00\x00\x00\x00\x00\x00\x00\x00\x00\x00\x00\x00\xf0?\x00\x00\x00\x00\x00\x00\x00\x00'
p4980
tp4981
bsg101
g3645
sg103
g0
(g104
g105
((lp4982
(lp4983
tp4984
tp4985
Rp4986
sg111
I0
sg3594
g3595
sg3523
I0
sg3597
Nsg3537
I5
sg112
I01
sg114
F1.0
sg3598
g3540
sg3534
I00
sg115
g184
sg3600
Nsg3535
Nsg3533
I00
sg43
Nsg2367
Nsg3601
g4586
sg88
g1805
sg87
F0.8
sg34
Nsg3566
g0
(g3567
g2
Ntp4987
Rp4988
(dp4989
g3571
I00
sg3572
Nsg3573
g4978
sg3580
I00
sg3581
F0.1111111111111111
sg3582
I180
sg3583
I00
sbsbsg114
Nsg33
Nsg3655
g0
(g3515
g2
Ntp4990
Rp4991
(dp4992
g6
g7
sg3519
g3520
sg3521
Nsg20
I01
sg3522
Nsg3523
I0
sg75
Nsg76
Nsg24
Nsg11
Nsg29
I00
sg30
(dp4993
sg32
I00
sg2368
Nsg3525
F0.6
sg3526
Nsg3527
g3528
sg3529
g3530
sg96
Nsg86
I01
sg3531
g4594
sg111
I0
sg112
I01
sg3533
I01
sg3534
I01
sg115
g184
sg3535
Nsg3536
I2
sg3213
g4434
sg3537
I5
sg9
g4
sg3538
Nsg10
Nsg42
Nsg17
g18
sg3539
g3540
sg23
Nsg25
Nsg28
I00
sg3541
Nsg34
Nsg3542
Nsg3543
g0
(g3544
g2
Ntp4994
Rp4995
(dp4996
g3543
I1
sg3548
Nsg3549
F1.0
sg115
g0
(g157
g2
Ntp4997
Rp4998
(dp4999
g49
I2
sg50
Nsg120
g132
(g133
(I0
tp5000
g135
tp5001
Rp5002
(I1
(I3
I3
tp5003
g59
I00
S'\x00\x00\x00\x00\x00\x00\xf0?\x00\x00\x00\x00\x00\x00\x00\x00\x00\x00\x00\x00\x00\x00\x00\x00\x00\x00\x00\x00\x00\x00\x00\x00\x00\x00\x00\x00\x00\x00\xf0?\x00\x00\x00\x00\x00\x00\x00\x00\x00\x00\x00\x00\x00\x00\x00\x00\x00\x00\x00\x00\x00\x00\x00\x00\x00\x00\x00\x00\x00\x00\xf0?'
p5004
tp5005
bsg51
g7
sg52
(dp5006
sbsg3560
I00
sg3561
g3562
sg3563
Nsg2365
g3564
sg99
g3565
sg3566
g4528
sbsg3584
g3585
sg88
Nsg33
Nsg92
I01
sg3586
Nsg101
g4608
sg103
g0
(g104
g105
((lp5007
(lp5008
tp5009
tp5010
Rp5011
sg3593
I00
sg3594
g3595
sg3596
g3540
sg3597
Nsg114
Nsg3598
g3540
sg3599
F0.0
sg8
I01
sg3600
Nsg43
Nsg2367
Nsg3601
(I0
tp5012
sg87
F0.5
sg3566
Nsbsg115
Nsg3681
F8.0
sg3682
g4615
sg43
Nsg3213
g4434
sg34
Nsbasg34
Nsg4339
(dp5013
g3446
I01
sg3448
I00
sg3449
I01
sg3450
I00
ssg4341
I01
sbsS'_axisbelow'
p5014
I00
sg8
I01
sS'lines'
p5015
(lp5016
sS'_ycid'
p5017
I1
sS'spines'
p5018
ccollections
OrderedDict
p5019
((lp5020
(lp5021
Vleft
p5022
ag0
(cmatplotlib.spines
Spine
p5023
g2
Ntp5024
Rp5025
(dp5026
g6
g7
sg3392
I00
sg41
I01
sg9
g4
sS'_bounds'
p5027
Nsg8
I01
sg10
Nsg42
Nsg17
g18
sg43
Nsg20
I01
sg3369
g4385
sg44
g0
(g45
g2
Ntp5028
Rp5029
(dp5030
g49
I1
sg50
Nsg51
g7
sg52
(dp5031
sbsg54
(F0.0
F0.0
F0.0
F1.0
tp5032
sg23
Nsg24
Nsg77
V0.
p5033
sg11
Nsg28
I00
sg29
I00
sg30
(dp5034
sg2363
(NNtp5035
sg3313
(Voutward
p5036
F0.0
tp5037
sg32
I00
sg85
Nsg86
I01
sg87
F1.0
sS'_patch_type'
p5038
Vline
p5039
sg33
Nsg90
g5032
sg91
Nsg92
I01
sg93
Nsg94
Vnone
p5040
sg96
Nsg97
g2456
sg99
g100
sS'_patch_transform'
p5041
g0
(g45
g2
Ntp5042
Rp5043
(dp5044
g49
I1
sg50
Nsg51
g7
sg52
(dp5045
sbsg101
g102
sg103
g0
(g104
g105
((lp5046
(lp5047
tp5048
tp5049
Rp5050
sg111
I0
sS'_spine_transform'
p5051
(Videntity
p5052
g0
(g45
g2
Ntp5053
Rp5054
(dp5055
g49
I1
sg50
Nsg51
g7
sg52
(dp5056
sbtp5057
sg112
I01
sg114
NsS'spine_type'
p5058
g5022
sg115
g184
sg88
Nsg3536
F2.5
sg2365
Vprojecting
p5059
sg2367
Nsg25
Nsg2368
g2427
sg34
Nsg3566
g0
(g3567
g2
Ntp5060
Rp5061
(dp5062
g3571
I00
sg3572
Nsg3573
g132
(g133
(I0
tp5063
g135
tp5064
Rp5065
(I1
(I2
I2
tp5066
g59
I00
S'\x00\x00\x00\x00\x00\x00\x00\x00\x00\x00\x00\x00\x00\x00*@\x00\x00\x00\x00\x00\x00\x00\x00\x00\x00\x00\x00\x00\x00*@'
p5067
tp5068
bsg3580
I00
sg3581
F0.1111111111111111
sg3582
I1
sg3583
I00
sbsbaa(lp5069
Vright
p5070
ag0
(g5023
g2
Ntp5071
Rp5072
(dp5073
g6
g7
sg3392
I00
sg41
I01
sg9
g4
sg5027
Nsg8
I00
sg10
Nsg42
Nsg17
g18
sg43
Nsg20
I01
sg3369
g4385
sg44
g0
(g45
g2
Ntp5074
Rp5075
(dp5076
g49
I1
sg50
Nsg51
g7
sg52
(dp5077
sbsg54
g5032
sg23
Nsg24
Nsg77
g5033
sg11
Nsg28
I00
sg29
I00
sg30
(dp5078
sg2363
(NNtp5079
sg3313
g5037
sg32
I00
sg85
Nsg86
I01
sg87
F1.0
sg5038
g5039
sg33
Nsg90
g5032
sg91
Nsg92
I01
sg93
Nsg94
g5040
sg96
Nsg97
g2456
sg99
g100
sg5041
g0
(g45
g2
Ntp5080
Rp5081
(dp5082
g49
I1
sg50
Nsg51
g7
sg52
(dp5083
sbsg101
g102
sg103
g0
(g104
g105
((lp5084
(lp5085
tp5086
tp5087
Rp5088
sg111
I0
sg5051
(g5052
g0
(g45
g2
Ntp5089
Rp5090
(dp5091
g49
I1
sg50
Nsg51
g7
sg52
(dp5092
sbtp5093
sg112
I01
sg114
Nsg5058
g5070
sg115
g184
sg88
Nsg3536
F2.5
sg2365
g5059
sg2367
Nsg25
Nsg2368
g2427
sg34
Nsg3566
g0
(g3567
g2
Ntp5094
Rp5095
(dp5096
g3571
I00
sg3572
Nsg3573
g132
(g133
(I0
tp5097
g135
tp5098
Rp5099
(I1
(I2
I2
tp5100
g59
I00
S'\x00\x00\x00\x00\x00\x00\xf0?\x00\x00\x00\x00\x00\x00*@\x00\x00\x00\x00\x00\x00\xf0?\x00\x00\x00\x00\x00\x00*@'
p5101
tp5102
bsg3580
I00
sg3581
F0.1111111111111111
sg3582
I1
sg3583
I00
sbsbaa(lp5103
Vbottom
p5104
ag0
(g5023
g2
Ntp5105
Rp5106
(dp5107
g6
g7
sg3392
I00
sg41
I01
sg9
g4
sg5027
Nsg8
I01
sg10
Nsg42
Nsg17
g18
sg43
Nsg20
I01
sg3369
g3345
sg44
g0
(g45
g2
Ntp5108
Rp5109
(dp5110
g49
I1
sg50
Nsg51
g7
sg52
(dp5111
sbsg54
g5032
sg23
Nsg24
Nsg77
g5033
sg11
Nsg28
I00
sg29
I00
sg30
(dp5112
sg2363
(NNtp5113
sg3313
g5037
sg32
I00
sg85
Nsg86
I01
sg87
F1.0
sg5038
g5039
sg33
Nsg90
g5032
sg91
Nsg92
I01
sg93
Nsg94
g5040
sg96
Nsg97
g2456
sg99
g100
sg5041
g0
(g45
g2
Ntp5114
Rp5115
(dp5116
g49
I1
sg50
Nsg51
g7
sg52
(dp5117
sbsg101
g102
sg103
g0
(g104
g105
((lp5118
(lp5119
tp5120
tp5121
Rp5122
sg111
I0
sg5051
(g5052
g0
(g45
g2
Ntp5123
Rp5124
(dp5125
g49
I1
sg50
Nsg51
g7
sg52
(dp5126
sbtp5127
sg112
I01
sg114
Nsg5058
g5104
sg115
g1492
sg88
Nsg3536
F2.5
sg2365
g5059
sg2367
Nsg25
Nsg2368
g2427
sg34
Nsg3566
g0
(g3567
g2
Ntp5128
Rp5129
(dp5130
g3571
I00
sg3572
Nsg3573
g132
(g133
(I0
tp5131
g135
tp5132
Rp5133
(I1
(I2
I2
tp5134
g59
I00
S'\x00\x00\x00\x00\x00\x00*@\x00\x00\x00\x00\x00\x00\x00\x00\x00\x00\x00\x00\x00\x00*@\x00\x00\x00\x00\x00\x00\x00\x00'
p5135
tp5136
bsg3580
I00
sg3581
F0.1111111111111111
sg3582
I1
sg3583
I00
sbsbaa(lp5137
Vtop
p5138
ag0
(g5023
g2
Ntp5139
Rp5140
(dp5141
g6
g7
sg3392
I00
sg41
I01
sg9
g4
sg5027
Nsg8
I00
sg10
Nsg42
Nsg17
g18
sg43
Nsg20
I01
sg3369
g3345
sg44
g0
(g45
g2
Ntp5142
Rp5143
(dp5144
g49
I1
sg50
Nsg51
g7
sg52
(dp5145
sbsg54
g5032
sg23
Nsg24
Nsg77
g5033
sg11
Nsg28
I00
sg29
I00
sg30
(dp5146
sg2363
(NNtp5147
sg3313
g5037
sg32
I00
sg85
Nsg86
I01
sg87
F1.0
sg5038
g5039
sg33
Nsg90
g5032
sg91
Nsg92
I01
sg93
Nsg94
g5040
sg96
Nsg97
g2456
sg99
g100
sg5041
g0
(g45
g2
Ntp5148
Rp5149
(dp5150
g49
I1
sg50
Nsg51
g7
sg52
(dp5151
sbsg101
g102
sg103
g0
(g104
g105
((lp5152
(lp5153
tp5154
tp5155
Rp5156
sg111
I0
sg5051
(g5052
g0
(g45
g2
Ntp5157
Rp5158
(dp5159
g49
I1
sg50
Nsg51
g7
sg52
(dp5160
sbtp5161
sg112
I01
sg114
Nsg5058
g5138
sg115
g1492
sg88
Nsg3536
F2.5
sg2365
g5059
sg2367
Nsg25
Nsg2368
g2427
sg34
Nsg3566
g0
(g3567
g2
Ntp5162
Rp5163
(dp5164
g3571
I00
sg3572
Nsg3573
g132
(g133
(I0
tp5165
g135
tp5166
Rp5167
(I1
(I2
I2
tp5168
g59
I00
S'\x00\x00\x00\x00\x00\x00*@\x00\x00\x00\x00\x00\x00\xf0?\x00\x00\x00\x00\x00\x00*@\x00\x00\x00\x00\x00\x00\xf0?'
p5169
tp5170
bsg3580
I00
sg3581
F0.1111111111111111
sg3582
I1
sg3583
I00
sbsbaatp5171
Rp5172
sS'_anchor'
p5173
VC
p5174
sg43
Nsg2367
NsS'_use_sticky_edges'
p5175
I01
sbtp5176
tp5177
asS'_ind'
p5178
I1
sS'_pos'
p5179
I0
sbsg115
Nsg5015
(lp5180
sg3285
g38
sS'subplotpars'
p5181
g0
(cmatplotlib.figure
SubplotParams
p5182
g2
Ntp5183
Rp5184
(dp5185
g2411
F0.9
sg2413
F0.125
sg2414
F0.88
sg2415
F0.2
sS'validate'
p5186
I01
sg2417
F0.2
sg2419
F0.125
sbsg43
Nsg2367
NsS'bbox_inches'
p5187
g129
sS'transFigure'
p5188
g118
sS'_dpi'
p5189
F72.0
sb.