ccopy_reg
_reconstructor
p0
(cmatplotlib.figure
Figure
p1
c__builtin__
object
p2
Ntp3
Rp4
(dp5
S'_label'
p6
V
p7
sS'_visible'
p8
I01
sS'figure'
p9
NsS'stale_callback'
p10
NsS'_rasterized'
p11
NsS'texts'
p12
(lp13
sS'_hold'
p14
I01
sS'artists'
p15
(lp16
sS'_path_effects'
p17
(lp18
sS'frameon'
p19
I01
sS'_clipon'
p20
I01
sV__mpl_version__
p21
S'2.0.2'
p22
sS'_clippath'
p23
NsS'_sketch'
p24
NsS'_contains'
p25
NsS'_tight_parameters'
p26
(dp27
sS'_mouseover'
p28
I00
sS'_animated'
p29
I00
sS'_propobservers'
p30
(dp31
sS'eventson'
p32
I00
sS'_picker'
p33
NsS'_remove_method'
p34
NsS'figurePatch'
p35
g0
(cmatplotlib.patches
Rectangle
p36
g2
Ntp37
Rp38
(dp39
g6
g7
sS'_width'
p40
F1.0
sS'_fill'
p41
I01
sg9
g4
sg8
I01
sg10
NsS'_agg_filter'
p42
Nsg17
g18
sS'_gid'
p43
Nsg20
I01
sS'_combined_transform'
p44
g0
(cmatplotlib.transforms
IdentityTransform
p45
g2
Ntp46
Rp47
(dp48
S'_invalid'
p49
I1
sS'_inverted'
p50
NsS'_shorthand_name'
p51
g7
sS'_parents'
p52
(dp53
sbsS'_edgecolor'
p54
(cnumpy.core.multiarray
scalar
p55
(cnumpy
dtype
p56
(S'f8'
p57
I0
I1
tp58
Rp59
(I3
S'<'
p60
NNNI-1
I-1
I0
tp61
bS'\x00\x00\x00\x00\x00\x00\xf0?'
p62
tp63
Rp64
g55
(g59
S'\x00\x00\x00\x00\x00\x00\xf0?'
p65
tp66
Rp67
g55
(g59
S'\x00\x00\x00\x00\x00\x00\xf0?'
p68
tp69
Rp70
g55
(g59
S'\x00\x00\x00\x00\x00\x00\x00\x00'
p71
tp72
Rp73
tp74
sg23
NsS'_y'
p75
F0.0
sS'_x'
p76
F0.0
sg24
NsS'_original_edgecolor'
p77
(I1
I1
I1
I0
tp78
sg11
Nsg28
I00
sg29
I00
sg30
(dp79
sS'_rect_transform'
p80
g0
(g45
g2
Ntp81
Rp82
(dp83
g49
I1
sg50
Nsg51
g7
sg52
(dp84
sbsg32
I00
sS'_hatch'
p85
NsS'_stale'
p86
I01
sS'_linewidth'
p87
F0.0
sS'clipbox'
p88
NsS'_height'
p89
F1.0
sg33
NsS'_hatch_color'
p90
g74
sS'_dashes'
p91
NsS'_antialiased'
p92
I00
sS'_dashoffset'
p93
NsS'_original_facecolor'
p94
Vwhite
p95
sS'_snap'
p96
NsS'_facecolor'
p97
(F1.0
F1.0
F1.0
F1.0
tp98
sS'_joinstyle'
p99
Vmiter
p100
sS'_linestyle'
p101
Vsolid
p102
sS'_sticky_edges'
p103
g0
(cmatplotlib.artist
_XYPair
p104
c__builtin__
tuple
p105
((lp106
(lp107
tp108
tp109
Rp110
sS'_oid'
p111
I0
sS'_transformSet'
p112
I01
sS'_angle'
p113
F0.0
sS'_alpha'
p114
NsS'_transform'
p115
g0
(cmatplotlib.transforms
BboxTransformTo
p116
g2
Ntp117
Rp118
(dp119
g49
I2
sS'_mtx'
p120
Nsg50
NsS'_boxout'
p121
g0
(cmatplotlib.transforms
TransformedBbox
p122
g2
Ntp123
Rp124
(dp125
g49
I2
sS'_bbox'
p126
g0
(cmatplotlib.transforms
Bbox
p127
g2
Ntp128
Rp129
(dp130
g49
I2
sS'_minpos'
p131
cnumpy.core.multiarray
_reconstruct
p132
(cnumpy
ndarray
p133
(I0
tp134
S'b'
p135
tp136
Rp137
(I1
(I2
tp138
g59
I00
S'\x00\x00\x00\x00\x00\x00\xf0\x7f\x00\x00\x00\x00\x00\x00\xf0\x7f'
p139
tp140
bsg52
(dp141
I140449437776272
g124
ssS'_points_orig'
p142
g132
(g133
(I0
tp143
g135
tp144
Rp145
(I1
(I2
I2
tp146
g59
I00
S'\x00\x00\x00\x00\x00\x00\x00\x00\x00\x00\x00\x00\x00\x00\x00\x00\x00\x00\x00\x00\x00\x00\x18@\x00\x00\x00\x00\x00\x00\x10@'
p147
tp148
bsS'_points'
p149
g132
(g133
(I0
tp150
g135
tp151
Rp152
(I1
(I2
I2
tp153
g59
I00
S'\x00\x00\x00\x00\x00\x00\x00\x00\x00\x00\x00\x00\x00\x00\x00\x00\x00\x00\x00\x00\x00\x00\x00@\x00\x00\x00\x00\x00\x00\x00@'
p154
tp155
bsS'_ignore'
p156
I01
sg51
g7
sbsg115
g0
(cmatplotlib.transforms
Affine2D
p157
g2
Ntp158
Rp159
(dp160
g49
I2
sg50
Nsg120
g132
(g133
(I0
tp161
g135
tp162
Rp163
(I1
(I3
I3
tp164
g59
I00
S'\x00\x00\x00\x00\x00\x00R@\x00\x00\x00\x00\x00\x00\x00\x00\x00\x00\x00\x00\x00\x00\x00\x00\x00\x00\x00\x00\x00\x00\x00\x00\x00\x00\x00\x00\x00\x00R@\x00\x00\x00\x00\x00\x00\x00\x00\x00\x00\x00\x00\x00\x00\x00\x00\x00\x00\x00\x00\x00\x00\x00\x00\x00\x00\x00\x00\x00\x00\xf0?'
p165
tp166
bsg51
g7
sg52
(dp167
I140449390412944
g0
(cmatplotlib.transforms
ScaledTranslation
p168
g2
Ntp169
Rp170
(dp171
g49
I1
sg120
NsS'_scale_trans'
p172
g159
sg50
NsS'_t'
p173
(F0.04722222222222222
I0
tp174
sg51
g7
sg52
(dp175
I140449390411984
g0
(cmatplotlib.transforms
CompositeGenericTransform
p176
g2
Ntp177
Rp178
(dp179
g49
I1
sS'input_dims'
p180
I2
sS'_a'
p181
g0
(cmatplotlib.transforms
BlendedGenericTransform
p182
g2
Ntp183
Rp184
(dp185
g49
I2
sg75
g0
(g176
g2
Ntp186
Rp187
(dp188
g49
I2
sg180
I2
sg181
g0
(cmatplotlib.transforms
TransformWrapper
p189
g2
Ntp190
Rp191
(dp192
Voutput_dims
p193
I2
sVparents
p194
(dp195
I140449393892816
g0
(g122
g2
Ntp196
Rp197
(dp198
g49
I2
sg126
g0
(g127
g2
Ntp199
Rp200
(dp201
g49
I2
sg131
g132
(g133
(I0
tp202
g135
tp203
Rp204
(I1
(I2
tp205
g59
I00
S'\x00\x00\x00\x00\x00\x00\xf0\x7f\x00\x00\x00\x00\x00\x00\xf0\x7f'
p206
tp207
bsg52
(dp208
I140449393892816
g197
ssg142
g132
(g133
(I0
tp209
g135
tp210
Rp211
(I1
(I2
I2
tp212
g59
I00
S'\x00\x00\x00\x00\x00\x00\x00\x00\x00\x00\x00\x00\x00\x00\x00\x00\x00\x00\x00\x00\x00\x00\xf0?\x00\x00\x00\x00\x00\x00\xf0?'
p213
tp214
bsg149
g132
(g133
(I0
tp215
g135
tp216
Rp217
(I1
(I2
I2
tp218
g59
I00
S'333333\xe3?\x00\x00\x00\x00\x00\x00\x00\x00\xcd\xcc\xcc\xcc\xcc\xcc"@\x00\x00\x00\x00\x00\x00\xf0?'
p219
tp220
bsg156
I01
sg51
g7
sbsg115
g191
sg149
Nsg52
(dp221
I140449438667216
g0
(cmatplotlib.transforms
BboxTransformFrom
p222
g2
Ntp223
Rp224
(dp225
g49
I2
sS'_boxin'
p226
g197
sg120
Nsg50
Nsg51
g7
sg52
(dp227
I140449438666896
g0
(g176
g2
Ntp228
Rp229
(dp230
g49
I2
sg180
I2
sg181
g224
sS'output_dims'
p231
I2
sS'_b'
p232
g0
(g116
g2
Ntp233
Rp234
(dp235
g49
I2
sg120
Nsg50
Nsg121
g0
(g122
g2
Ntp236
Rp237
(dp238
g49
I2
sg126
g0
(g127
g2
Ntp239
Rp240
(dp241
g49
I0
sg131
g132
(g133
(I0
tp242
g135
tp243
Rp244
(I1
(I2
tp245
g59
I00
S'\x00\x00\x00\x00\x00\x00\xf0\x7f\x00\x00\x00\x00\x00\x00\xf0\x7f'
p246
tp247
bsg52
(dp248
I140449389825680
g237
ssg142
g132
(g133
(I0
tp249
g135
tp250
Rp251
(I1
(I2
I2
tp252
g59
I00
S'\x00\x00\x00\x00\x00\x00\xc0?\x00\x00\x00\x00\x00\x00\xc0?\xcd\xcc\xcc\xcc\xcc\xcc\xec?)\\\x8f\xc2\xf5(\xec?'
p253
tp254
bsg149
g132
(g133
(I0
tp255
g135
tp256
Rp257
(I1
(I2
I2
tp258
g59
I00
S'\x00\x00\x00\x00\x00\x00\xc0?\x00\x00\x00\x00\x00\x00\xc0?\xcd\xcc\xcc\xcc\xcc\xcc\xec?)\\\x8f\xc2\xf5(\xec?'
p259
tp260
bsg156
I01
sg51
g7
sbsg115
g118
sg149
Nsg52
(dp261
I140449438669712
g234
ssg51
g7
sbsg52
(dp262
I140449390413264
g0
(g176
g2
Ntp263
Rp264
(dp265
g49
I2
sg180
I2
sg181
g0
(g176
g2
Ntp266
Rp267
(dp268
g49
I1
sg180
I2
sg181
g0
(g116
g2
Ntp269
Rp270
(dp271
g49
I1
sg120
Nsg50
Nsg121
g0
(g127
g2
Ntp272
Rp273
(dp274
g49
I1
sg131
g132
(g133
(I0
tp275
g135
tp276
Rp277
(I1
(I2
tp278
g59
I00
S'\x00\x00\x00\x00\x00\x00\xf0\x7f\x00\x00\x00\x00\x00\x00\xf0\x7f'
p279
tp280
bsg52
(dp281
I140449390414672
g270
ssg142
g132
(g133
(I0
tp282
g135
tp283
Rp284
(I1
(I2
I2
tp285
g59
I00
S'\x00\x00\x00\x00\x00\x00\x00\x00\x00\x00\x00\x00\x00\x00\x00\x00\x00\x00\x00\x00\x00\x00\xf0?\x00\x00\x00\x00\x00\x00\xf0?'
p286
tp287
bsg149
g132
(g133
(I0
tp288
g135
tp289
Rp290
(I1
(I2
I2
tp291
g59
I00
S'\x00\x00\x00\x00\x00\x00\x00\x00\x00\x00\x00\x00\x00\x00\x00\x00\x00\x00\x00\x00\x00\x00\xf0?\x00\x00\x00\x00\x00\x00\xf0?'
p292
tp293
bsg156
I01
sg51
g7
sbsg52
(dp294
I140449390414544
g267
ssg51
g7
sbsg231
I2
sg232
g0
(g157
g2
Ntp295
Rp296
(dp297
g49
I2
sg50
Nsg120
g132
(g133
(I0
tp298
g135
tp299
Rp300
(I1
(I3
I3
tp301
g59
I00
S'\x00\x00\x00\x00\x00\x00\xf0?\x00\x00\x00\x00\x00\x00\x00\x00\x00\x00\x00\x00\x00\x00\x00\x00\x00\x00\x00\x00\x00\x00\x00\x00\x00\x00\x00\x00\x00\x00\xf0?\x00\x00\x00\x00\x00\x00\x00\x00\x00\x00\x00\x00\x00\x00\x00\x00\x00\x00\x00\x00\x00\x00\x00\x00\x00\x00\x00\x00\x00\x00\xf0?'
p302
tp303
bsg51
g7
sg52
(dp304
I140449390414544
g267
ssbsg52
(dp305
I140449390413264
g264
ssg51
g7
sbsg231
I2
sg232
g234
sg52
(dp306
I140449390412880
g0
(g122
g2
Ntp307
Rp308
(dp309
g49
I2
sg126
g0
(g127
g2
Ntp310
Rp311
(dp312
g49
I1
sg131
g132
(g133
(I0
tp313
g135
tp314
Rp315
(I1
(I2
tp316
g59
I00
S'\x00\x00\x00\x00\x00\x00\xf0\x7f\x00\x00\x00\x00\x00\x00\xf0\x7f'
p317
tp318
bsg52
(dp319
I140449390412880
g308
ssg142
g132
(g133
(I0
tp320
g135
tp321
Rp322
(I1
(I2
I2
tp323
g59
I00
S'\x00\x00\x00\x00\x00\x00\x00\x00\x00\x00\x00\x00\x00\x00\x00\x00\x00\x00\x00\x00\x00\x00\xf0?\x00\x00\x00\x00\x00\x00\xf0?'
p324
tp325
bsg149
g132
(g133
(I0
tp326
g135
tp327
Rp328
(I1
(I2
I2
tp329
g59
I00
S'\x00\x00\x00\x00\x00\x00\x00\x00\x00\x00\x00\x00\x00\x00\x00\x00\x00\x00\x00\x00\x00\x00\xf0?\x00\x00\x00\x00\x00\x00\xf0?'
p330
tp331
bsg156
I01
sg51
g7
sbsg115
g264
sg149
Nsg52
(dp332
sg51
g7
sbssg51
g7
sbsI140449390462864
g0
(g176
g2
Ntp333
Rp334
(dp335
g49
I2
sg180
I2
sg181
g0
(g176
g2
Ntp336
Rp337
(dp338
g49
I1
sg180
I2
sg181
g0
(g116
g2
Ntp339
Rp340
(dp341
g49
I1
sg120
Nsg50
Nsg121
g0
(g127
g2
Ntp342
Rp343
(dp344
g49
I1
sg131
g132
(g133
(I0
tp345
g135
tp346
Rp347
(I1
(I2
tp348
g59
I00
S'\x00\x00\x00\x00\x00\x00\xf0\x7f\x00\x00\x00\x00\x00\x00\xf0\x7f'
p349
tp350
bsg52
(dp351
I140449389720080
g340
ssg142
g132
(g133
(I0
tp352
g135
tp353
Rp354
(I1
(I2
I2
tp355
g59
I00
S'\x00\x00\x00\x00\x00\x00\x00\x00\x00\x00\x00\x00\x00\x00\x00\x00\x00\x00\x00\x00\x00\x00\xf0?\x00\x00\x00\x00\x00\x00\xf0?'
p356
tp357
bsg149
g132
(g133
(I0
tp358
g135
tp359
Rp360
(I1
(I2
I2
tp361
g59
I00
S'\x00\x00\x00\x00\x00\x00\x00\x00\x00\x00\x00\x00\x00\x00\x00\x00\x00\x00\x00\x00\x00\x00\xf0?\x00\x00\x00\x00\x00\x00\xf0?'
p362
tp363
bsg156
I01
sg51
g7
sbsg52
(dp364
I140449389722128
g337
ssg51
g7
sbsg231
I2
sg232
g0
(g157
g2
Ntp365
Rp366
(dp367
g49
I2
sg50
Nsg120
g132
(g133
(I0
tp368
g135
tp369
Rp370
(I1
(I3
I3
tp371
g59
I00
S'\x00\x00\x00\x00\x00\x00\xf0?\x00\x00\x00\x00\x00\x00\x00\x00\x00\x00\x00\x00\x00\x00\x00\x00\x00\x00\x00\x00\x00\x00\x00\x00\x00\x00\x00\x00\x00\x00\xf0?\x00\x00\x00\x00\x00\x00\x00\x00\x00\x00\x00\x00\x00\x00\x00\x00\x00\x00\x00\x00\x00\x00\x00\x00\x00\x00\x00\x00\x00\x00\xf0?'
p372
tp373
bsg51
g7
sg52
(dp374
I140449389722128
g337
ssbsg52
(dp375
I140449390462864
g334
ssg51
g7
sbsg231
I2
sg232
g234
sg52
(dp376
I140449390464976
g0
(g122
g2
Ntp377
Rp378
(dp379
g49
I2
sg126
g0
(g127
g2
Ntp380
Rp381
(dp382
g49
I1
sg131
g132
(g133
(I0
tp383
g135
tp384
Rp385
(I1
(I2
tp386
g59
I00
S'\x00\x00\x00\x00\x00\x00\xf0\x7f\x00\x00\x00\x00\x00\x00\xf0\x7f'
p387
tp388
bsg52
(dp389
I140449390464976
g378
ssg142
g132
(g133
(I0
tp390
g135
tp391
Rp392
(I1
(I2
I2
tp393
g59
I00
S'\x00\x00\x00\x00\x00\x00\x00\x00\x00\x00\x00\x00\x00\x00\x00\x00\x00\x00\x00\x00\x00\x00\xf0?\x00\x00\x00\x00\x00\x00\xf0?'
p394
tp395
bsg149
g132
(g133
(I0
tp396
g135
tp397
Rp398
(I1
(I2
I2
tp399
g59
I00
S'\x00\x00\x00\x00\x00\x00\x00\x00\x00\x00\x00\x00\x00\x00\x00\x00\x00\x00\x00\x00\x00\x00\xf0?\x00\x00\x00\x00\x00\x00\xf0?'
p400
tp401
bsg156
I01
sg51
g7
sbsg115
g334
sg149
Nsg52
(dp402
sg51
g7
sbssg51
g7
sbsI140449389721168
g0
(g176
g2
Ntp403
Rp404
(dp405
g49
I2
sg180
I2
sg181
g234
sg231
I2
sg232
g0
(g168
g2
Ntp406
Rp407
(dp408
g49
I1
sg120
Nsg172
g159
sg50
Nsg173
(F0.0
F0.08333333333333333
tp409
sg51
g7
sg52
(dp410
I140449389721168
g404
sI140449389721104
g0
(g176
g2
Ntp411
Rp412
(dp413
g49
I2
sg180
I2
sg181
g234
sg231
I2
sg232
g407
sg52
(dp414
sg51
g7
sbsI140449389720720
g0
(g176
g2
Ntp415
Rp416
(dp417
g49
I2
sg180
I2
sg181
g234
sg231
I2
sg232
g407
sg52
(dp418
sg51
g7
sbssbsg52
(dp419
sg51
g7
sbsI140449388770832
g0
(cmatplotlib.transforms
BlendedAffine2D
p420
g2
Ntp421
Rp422
(dp423
g49
I2
sg120
Nsg75
g0
(g45
g2
Ntp424
Rp425
(dp426
g49
I1
sg50
Nsg51
g7
sg52
(dp427
I140449388770832
g422
ssbsg76
g234
sg50
Nsg51
g7
sg52
(dp428
sbsI140449389262992
g184
sI140449388722384
g0
(g176
g2
Ntp429
Rp430
(dp431
g49
I2
sg180
I2
sg181
g0
(g176
g2
Ntp432
Rp433
(dp434
g49
I1
sg180
I2
sg181
g0
(g116
g2
Ntp435
Rp436
(dp437
g49
I1
sg120
Nsg50
Nsg121
g0
(g127
g2
Ntp438
Rp439
(dp440
g49
I1
sg131
g132
(g133
(I0
tp441
g135
tp442
Rp443
(I1
(I2
tp444
g59
I00
S'\x00\x00\x00\x00\x00\x00\xf0\x7f\x00\x00\x00\x00\x00\x00\xf0\x7f'
p445
tp446
bsg52
(dp447
I140449388721680
g436
ssg142
g132
(g133
(I0
tp448
g135
tp449
Rp450
(I1
(I2
I2
tp451
g59
I00
S'\x00\x00\x00\x00\x00\x00\x00\x00\x00\x00\x00\x00\x00\x00\x00\x00\x00\x00\x00\x00\x00\x00\xf0?\x00\x00\x00\x00\x00\x00\xf0?'
p452
tp453
bsg149
g132
(g133
(I0
tp454
g135
tp455
Rp456
(I1
(I2
I2
tp457
g59
I00
S'\x00\x00\x00\x00\x00\x00\x00\x00\x00\x00\x00\x00\x00\x00\x00\x00\x00\x00\x00\x00\x00\x00\xf0?\x00\x00\x00\x00\x00\x00\xf0?'
p458
tp459
bsg156
I01
sg51
g7
sbsg52
(dp460
I140449388720784
g433
ssg51
g7
sbsg231
I2
sg232
g0
(g157
g2
Ntp461
Rp462
(dp463
g49
I2
sg50
Nsg120
g132
(g133
(I0
tp464
g135
tp465
Rp466
(I1
(I3
I3
tp467
g59
I00
S'\x00\x00\x00\x00\x00\x00\xf0?\x00\x00\x00\x00\x00\x00\x00\x00\x00\x00\x00\x00\x00\x00\x00\x00\x00\x00\x00\x00\x00\x00\x00\x00\x00\x00\x00\x00\x00\x00\xf0?\x00\x00\x00\x00\x00\x00\x00\x00\x00\x00\x00\x00\x00\x00\x00\x00\x00\x00\x00\x00\x00\x00\x00\x00\x00\x00\x00\x00\x00\x00\xf0?'
p468
tp469
bsg51
g7
sg52
(dp470
I140449388720784
g433
ssbsg52
(dp471
I140449388722384
g430
ssg51
g7
sbsg231
I2
sg232
g234
sg52
(dp472
I140449388720208
g0
(g122
g2
Ntp473
Rp474
(dp475
g49
I2
sg126
g0
(g127
g2
Ntp476
Rp477
(dp478
g49
I1
sg131
g132
(g133
(I0
tp479
g135
tp480
Rp481
(I1
(I2
tp482
g59
I00
S'\x00\x00\x00\x00\x00\x00\xf0\x7f\x00\x00\x00\x00\x00\x00\xf0\x7f'
p483
tp484
bsg52
(dp485
I140449388720208
g474
ssg142
g132
(g133
(I0
tp486
g135
tp487
Rp488
(I1
(I2
I2
tp489
g59
I00
S'\x00\x00\x00\x00\x00\x00\x00\x00\x00\x00\x00\x00\x00\x00\x00\x00\x00\x00\x00\x00\x00\x00\xf0?\x00\x00\x00\x00\x00\x00\xf0?'
p490
tp491
bsg149
g132
(g133
(I0
tp492
g135
tp493
Rp494
(I1
(I2
I2
tp495
g59
I00
S'\x00\x00\x00\x00\x00\x00\x00\x00\x00\x00\x00\x00\x00\x00\x00\x00\x00\x00\x00\x00\x00\x00\xf0?\x00\x00\x00\x00\x00\x00\xf0?'
p496
tp497
bsg156
I01
sg51
g7
sbsg115
g430
sg149
Nsg52
(dp498
sg51
g7
sbssg51
g7
sbsI140449389720720
g416
sI140449389721104
g412
sI140449438666896
g229
sI140449388770896
g0
(g420
g2
Ntp499
Rp500
(dp501
g49
I2
sg120
Nsg75
g0
(g45
g2
Ntp502
Rp503
(dp504
g49
I1
sg50
Nsg51
g7
sg52
(dp505
I140449388770896
g500
ssbsg76
g234
sg50
Nsg51
g7
sg52
(dp506
sbsI140449438670480
g0
(g182
g2
Ntp507
Rp508
(dp509
g49
I2
sg75
g234
sg76
g187
sS'_affine'
p510
Nsg52
(dp511
I140449390464208
g0
(g176
g2
Ntp512
Rp513
(dp514
g49
I1
sg180
I2
sg181
g508
sg231
I2
sg232
g0
(g168
g2
Ntp515
Rp516
(dp517
g49
I1
sg120
Nsg172
g159
sg50
Nsg173
(F0.0
F-0.1388888888888889
tp518
sg51
g7
sg52
(dp519
I140449391594000
g0
(g176
g2
Ntp520
Rp521
(dp522
g49
I1
sg180
I2
sg181
g508
sg231
I2
sg232
g516
sg52
(dp523
sg51
g7
sbsI140449390412560
g0
(g176
g2
Ntp524
Rp525
(dp526
g49
I1
sg180
I2
sg181
g508
sg231
I2
sg232
g516
sg52
(dp527
sg51
g7
sbsI140449390463120
g0
(g176
g2
Ntp528
Rp529
(dp530
g49
I1
sg180
I2
sg181
g508
sg231
I2
sg232
g516
sg52
(dp531
sg51
g7
sbsI140449390463824
g0
(g176
g2
Ntp532
Rp533
(dp534
g49
I1
sg180
I2
sg181
g508
sg231
I2
sg232
g516
sg52
(dp535
I140449390461776
g0
(g176
g2
Ntp536
Rp537
(dp538
g49
I1
sg180
I2
sg181
g533
sg231
I2
sg232
g0
(g168
g2
Ntp539
Rp540
(dp541
g49
I1
sg120
Nsg172
g159
sg50
Nsg173
(I0
F-0.04722222222222222
tp542
sg51
g7
sg52
(dp543
I140449390461776
g537
ssbsg52
(dp544
sg51
g7
sbssg51
g7
sbsI140449390464208
g513
ssbsg52
(dp545
I140449390462992
g0
(g176
g2
Ntp546
Rp547
(dp548
g49
I1
sg180
I2
sg181
g513
sg231
I2
sg232
g0
(g168
g2
Ntp549
Rp550
(dp551
g49
I1
sg120
Nsg172
g159
sg50
Nsg173
(I0
F-0.04861111111111111
tp552
sg51
g7
sg52
(dp553
I140449390462992
g547
ssbsg52
(dp554
sg51
g7
sbssg51
g7
sbsI140449390461968
g0
(g176
g2
Ntp555
Rp556
(dp557
g49
I1
sg180
I2
sg181
g508
sg231
I2
sg232
g0
(g168
g2
Ntp558
Rp559
(dp560
g49
I1
sg120
Nsg172
g159
sg50
Nsg173
(I0
F0.04722222222222222
tp561
sg51
g7
sg52
(dp562
I140449390461968
g556
ssbsg52
(dp563
sg51
g7
sbsI140449390463120
g529
sI140449390463824
g533
sI140449391594000
g521
sI140449390464656
g0
(g176
g2
Ntp564
Rp565
(dp566
g49
I1
sg180
I2
sg181
g508
sg231
I2
sg232
g0
(g168
g2
Ntp567
Rp568
(dp569
g49
I1
sg120
Nsg172
g159
sg50
Nsg173
(I0
F0.04861111111111111
tp570
sg51
g7
sg52
(dp571
I140449390464656
g565
ssbsg52
(dp572
sg51
g7
sbsI140449390412560
g525
ssg51
g7
sbsI140449388772048
g0
(g420
g2
Ntp573
Rp574
(dp575
g49
I2
sg120
Nsg75
g234
sg76
g0
(g45
g2
Ntp576
Rp577
(dp578
g49
I1
sg50
Nsg51
g7
sg52
(dp579
I140449388772048
g574
ssbsg50
Nsg51
g7
sg52
(dp580
sbsI140449388770000
g0
(g420
g2
Ntp581
Rp582
(dp583
g49
I2
sg120
Nsg75
g0
(g45
g2
Ntp584
Rp585
(dp586
g49
I1
sg50
Nsg51
g7
sg52
(dp587
I140449388770000
g582
ssbsg76
g234
sg50
Nsg51
g7
sg52
(dp588
sbssg51
g7
sbsg52
(dp589
I140449438669328
g187
ssg51
g7
sbssbssg51
g7
sbsI140449438669328
g187
ssVinput_dims
p590
I2
sVchild
p591
g0
(g420
g2
Ntp592
Rp593
(dp594
g49
I0
sg120
g132
(g133
(I0
tp595
g135
tp596
Rp597
(I1
(I3
I3
tp598
g59
I00
S'\x00\x00\x00\x00\x00\x00\xf0?\x00\x00\x00\x00\x00\x00\x00\x00\x00\x00\x00\x00\x00\x00\x00\x00\x00\x00\x00\x00\x00\x00\x00\x00\x00\x00\x00\x00\x00\x00\xf0?\x00\x00\x00\x00\x00\x00\x00\x00\x00\x00\x00\x00\x00\x00\x00\x00\x00\x00\x00\x00\x00\x00\x00\x00\x00\x00\x00\x00\x00\x00\xf0?'
p599
tp600
bsg75
g0
(g45
g2
Ntp601
Rp602
(dp603
g49
I1
sg50
Nsg51
g7
sg52
(dp604
I140449389706768
g593
ssbsg76
g0
(g45
g2
Ntp605
Rp606
(dp607
g49
I1
sg50
Nsg51
g7
sg52
(dp608
I140449389706768
g593
ssbsg50
Nsg51
g7
sg52
(dp609
I140449438670032
g191
ssbsbsg231
I2
sg232
g229
sg52
(dp610
I140449438670480
g508
sI140449389262992
g184
ssg51
g7
sbsg76
g234
sg510
Nsg52
(dp611
I140449390414736
g0
(g176
g2
Ntp612
Rp613
(dp614
g49
I1
sg180
I2
sg181
g184
sg231
I2
sg232
g0
(g168
g2
Ntp615
Rp616
(dp617
g49
I1
sg120
Nsg172
g159
sg50
Nsg173
(F-0.1388888888888889
F0.0
tp618
sg51
g7
sg52
(dp619
I140449390461264
g0
(g176
g2
Ntp620
Rp621
(dp622
g49
I1
sg180
I2
sg181
g184
sg231
I2
sg232
g616
sg52
(dp623
sg51
g7
sbsI140449390415504
g0
(g176
g2
Ntp624
Rp625
(dp626
g49
I1
sg180
I2
sg181
g184
sg231
I2
sg232
g616
sg52
(dp627
sg51
g7
sbsI140449390412624
g0
(g176
g2
Ntp628
Rp629
(dp630
g49
I1
sg180
I2
sg181
g184
sg231
I2
sg232
g616
sg52
(dp631
I140449390412688
g0
(g176
g2
Ntp632
Rp633
(dp634
g49
I1
sg180
I2
sg181
g629
sg231
I2
sg232
g0
(g168
g2
Ntp635
Rp636
(dp637
g49
I1
sg120
Nsg172
g159
sg50
Nsg173
(F-0.04861111111111111
I0
tp638
sg51
g7
sg52
(dp639
I140449390412688
g633
ssbsg52
(dp640
sg51
g7
sbssg51
g7
sbsI140449390414736
g613
sI140449390415632
g0
(g176
g2
Ntp641
Rp642
(dp643
g49
I1
sg180
I2
sg181
g184
sg231
I2
sg232
g616
sg52
(dp644
sg51
g7
sbssbsg52
(dp645
I140449390412816
g0
(g176
g2
Ntp646
Rp647
(dp648
g49
I1
sg180
I2
sg181
g613
sg231
I2
sg232
g0
(g168
g2
Ntp649
Rp650
(dp651
g49
I1
sg120
Nsg172
g159
sg50
Nsg173
(F-0.04722222222222222
I0
tp652
sg51
g7
sg52
(dp653
I140449390412816
g647
ssbsg52
(dp654
sg51
g7
sbssg51
g7
sbsI140449390415824
g0
(g176
g2
Ntp655
Rp656
(dp657
g49
I1
sg180
I2
sg181
g184
sg231
I2
sg232
g0
(g168
g2
Ntp658
Rp659
(dp660
g49
I1
sg120
Nsg172
g159
sg50
Nsg173
(F0.04861111111111111
I0
tp661
sg51
g7
sg52
(dp662
I140449390415824
g656
ssbsg52
(dp663
sg51
g7
sbsI140449390411984
g178
sI140449390412624
g629
sI140449390461264
g621
sI140449390415504
g625
sI140449390415632
g642
ssg51
g7
sbsg231
I2
sg232
g170
sg52
(dp664
sg51
g7
sbssbsI140449390463632
g540
sI140449390389200
g0
(g168
g2
Ntp665
Rp666
(dp667
g49
I1
sg120
Nsg172
g159
sg50
Nsg173
(F0.04722222222222222
I0
tp668
sg51
g7
sg52
(dp669
I140449390387472
g0
(g176
g2
Ntp670
Rp671
(dp672
g49
I1
sg180
I2
sg181
g0
(g182
g2
Ntp673
Rp674
(dp675
g49
I2
sg75
g0
(g176
g2
Ntp676
Rp677
(dp678
g49
I2
sg180
I2
sg181
g0
(g189
g2
Ntp679
Rp680
(dp681
g193
I2
sg194
(dp682
I140449391466832
g0
(g122
g2
Ntp683
Rp684
(dp685
g49
I3
sg126
g0
(g127
g2
Ntp686
Rp687
(dp688
g49
I2
sg131
g132
(g133
(I0
tp689
g135
tp690
Rp691
(I1
(I2
tp692
g59
I00
S'\x00\x00\x00\x00\x00\x00\xf0\x7f\x00\x00\x00\x00\x00\x00\xf0\x7f'
p693
tp694
bsg52
(dp695
I140449391466832
g684
ssg142
g132
(g133
(I0
tp696
g135
tp697
Rp698
(I1
(I2
I2
tp699
g59
I00
S'\x00\x00\x00\x00\x00\x00\x00\x00\x00\x00\x00\x00\x00\x00\x00\x00\x00\x00\x00\x00\x00\x00\xf0?\x00\x00\x00\x00\x00\x00\xf0?'
p700
tp701
bsg149
g132
(g133
(I0
tp702
g135
tp703
Rp704
(I1
(I2
I2
tp705
g59
I00
S'333333\xe3?\x9a\x99\x99\x99\x99\x99\xb9?\xcd\xcc\xcc\xcc\xcc\xcc"@\x00\x00\x00\x00\x00\x00$@'
p706
tp707
bsg156
I01
sg51
g7
sbsg115
g680
sg149
Nsg52
(dp708
I140449391466256
g0
(g222
g2
Ntp709
Rp710
(dp711
g49
I3
sg226
g684
sg120
Nsg50
Nsg51
g7
sg52
(dp712
I140449391466320
g0
(g176
g2
Ntp713
Rp714
(dp715
g49
I2
sg180
I2
sg181
g710
sg231
I2
sg232
g0
(g116
g2
Ntp716
Rp717
(dp718
g49
I2
sg120
Nsg50
Nsg121
g0
(g122
g2
Ntp719
Rp720
(dp721
g49
I2
sg126
g0
(g127
g2
Ntp722
Rp723
(dp724
g49
I0
sg131
g132
(g133
(I0
tp725
g135
tp726
Rp727
(I1
(I2
tp728
g59
I00
S'\x00\x00\x00\x00\x00\x00\xf0\x7f\x00\x00\x00\x00\x00\x00\xf0\x7f'
p729
tp730
bsg52
(dp731
I140449391464976
g720
ssg142
g132
(g133
(I0
tp732
g135
tp733
Rp734
(I1
(I2
I2
tp735
g59
I00
S'\x00\x00\x00\x00\x00\x00\xc0?\x00\x00\x00\x00\x00\x00\xc0?\xcd\xcc\xcc\xcc\xcc\xcc\xec?)\\\x8f\xc2\xf5(\xec?'
p736
tp737
bsg149
g132
(g133
(I0
tp738
g135
tp739
Rp740
(I1
(I2
I2
tp741
g59
I00
S'\x00\x00\x00\x00\x00\x00\xc0?\x00\x00\x00\x00\x00\x00\xc0?\xcd\xcc\xcc\xcc\xcc\xcc\xec?)\\\x8f\xc2\xf5(\xec?'
p742
tp743
bsg156
I01
sg51
g7
sbsg115
g118
sg149
Nsg52
(dp744
I140449391467856
g717
ssg51
g7
sbsg52
(dp745
I140449391466320
g714
sI140449392656144
g0
(g176
g2
Ntp746
Rp747
(dp748
g49
I2
sg180
I2
sg181
g717
sg231
I2
sg232
g0
(g168
g2
Ntp749
Rp750
(dp751
g49
I1
sg120
Nsg172
g159
sg50
Nsg173
(F0.0
F0.08333333333333333
tp752
sg51
g7
sg52
(dp753
I140449392656144
g747
sI140449392653136
g0
(g176
g2
Ntp754
Rp755
(dp756
g49
I2
sg180
I2
sg181
g717
sg231
I2
sg232
g750
sg52
(dp757
sg51
g7
sbsI140449395086224
g0
(g176
g2
Ntp758
Rp759
(dp760
g49
I2
sg180
I2
sg181
g717
sg231
I2
sg232
g750
sg52
(dp761
sg51
g7
sbssbsg52
(dp762
sg51
g7
sbsI140449391540176
g0
(g420
g2
Ntp763
Rp764
(dp765
g49
I2
sg120
Nsg75
g0
(g45
g2
Ntp766
Rp767
(dp768
g49
I1
sg50
Nsg51
g7
sg52
(dp769
I140449391540176
g764
ssbsg76
g717
sg50
Nsg51
g7
sg52
(dp770
sbsI140449390275600
g0
(g420
g2
Ntp771
Rp772
(dp773
g49
I2
sg120
Nsg75
g0
(g45
g2
Ntp774
Rp775
(dp776
g49
I1
sg50
Nsg51
g7
sg52
(dp777
I140449390275600
g772
ssbsg76
g717
sg50
Nsg51
g7
sg52
(dp778
sbsI140449391466576
g0
(g182
g2
Ntp779
Rp780
(dp781
g49
I2
sg75
g717
sg76
g677
sg510
Nsg52
(dp782
I140449393089424
g0
(g176
g2
Ntp783
Rp784
(dp785
g49
I1
sg180
I2
sg181
g780
sg231
I2
sg232
g0
(g168
g2
Ntp786
Rp787
(dp788
g49
I1
sg120
Nsg172
g159
sg50
Nsg173
(I0
F0.04722222222222222
tp789
sg51
g7
sg52
(dp790
I140449393089424
g784
ssbsg52
(dp791
sg51
g7
sbsI140449391990736
g0
(g176
g2
Ntp792
Rp793
(dp794
g49
I1
sg180
I2
sg181
g780
sg231
I2
sg232
g0
(g168
g2
Ntp795
Rp796
(dp797
g49
I1
sg120
Nsg172
g159
sg50
Nsg173
(F0.0
F-0.1388888888888889
tp798
sg51
g7
sg52
(dp799
I140449390463056
g0
(g176
g2
Ntp800
Rp801
(dp802
g49
I1
sg180
I2
sg181
g780
sg231
I2
sg232
g796
sg52
(dp803
sg51
g7
sbsI140449391990736
g793
sI140449430882704
g0
(g176
g2
Ntp804
Rp805
(dp806
g49
I1
sg180
I2
sg181
g780
sg231
I2
sg232
g796
sg52
(dp807
I140449430881424
g0
(g176
g2
Ntp808
Rp809
(dp810
g49
I1
sg180
I2
sg181
g805
sg231
I2
sg232
g0
(g168
g2
Ntp811
Rp812
(dp813
g49
I1
sg120
Nsg172
g159
sg50
Nsg173
(I0
F-0.04722222222222222
tp814
sg51
g7
sg52
(dp815
I140449430881424
g809
ssbsg52
(dp816
sg51
g7
sbssg51
g7
sbsI140449430883856
g0
(g176
g2
Ntp817
Rp818
(dp819
g49
I1
sg180
I2
sg181
g780
sg231
I2
sg232
g796
sg52
(dp820
I140449430883024
g0
(g176
g2
Ntp821
Rp822
(dp823
g49
I1
sg180
I2
sg181
g818
sg231
I2
sg232
g0
(g168
g2
Ntp824
Rp825
(dp826
g49
I1
sg120
Nsg172
g159
sg50
Nsg173
(I0
F-0.04861111111111111
tp827
sg51
g7
sg52
(dp828
I140449430883024
g822
ssbsg52
(dp829
sg51
g7
sbssg51
g7
sbsI140449430881808
g0
(g176
g2
Ntp830
Rp831
(dp832
g49
I1
sg180
I2
sg181
g780
sg231
I2
sg232
g796
sg52
(dp833
sg51
g7
sbssbsg52
(dp834
sg51
g7
sbsI140449390463056
g801
sI140449430883856
g818
sI140449430882704
g805
sI140449430881808
g831
sI140449430883408
g0
(g176
g2
Ntp835
Rp836
(dp837
g49
I1
sg180
I2
sg181
g780
sg231
I2
sg232
g0
(g168
g2
Ntp838
Rp839
(dp840
g49
I1
sg120
Nsg172
g159
sg50
Nsg173
(I0
F0.04861111111111111
tp841
sg51
g7
sg52
(dp842
I140449430883408
g836
ssbsg52
(dp843
sg51
g7
sbssg51
g7
sbsI140449395086224
g759
sI140449391989136
g0
(g176
g2
Ntp844
Rp845
(dp846
g49
I2
sg180
I2
sg181
g0
(g176
g2
Ntp847
Rp848
(dp849
g49
I1
sg180
I2
sg181
g0
(g116
g2
Ntp850
Rp851
(dp852
g49
I1
sg120
Nsg50
Nsg121
g0
(g127
g2
Ntp853
Rp854
(dp855
g49
I1
sg131
g132
(g133
(I0
tp856
g135
tp857
Rp858
(I1
(I2
tp859
g59
I00
S'\x00\x00\x00\x00\x00\x00\xf0\x7f\x00\x00\x00\x00\x00\x00\xf0\x7f'
p860
tp861
bsg52
(dp862
I140449391990288
g851
ssg142
g132
(g133
(I0
tp863
g135
tp864
Rp865
(I1
(I2
I2
tp866
g59
I00
S'\x00\x00\x00\x00\x00\x00\x00\x00\x00\x00\x00\x00\x00\x00\x00\x00\x00\x00\x00\x00\x00\x00\xf0?\x00\x00\x00\x00\x00\x00\xf0?'
p867
tp868
bsg149
g132
(g133
(I0
tp869
g135
tp870
Rp871
(I1
(I2
I2
tp872
g59
I00
S'\x00\x00\x00\x00\x00\x00\x00\x00\x00\x00\x00\x00\x00\x00\x00\x00\x00\x00\x00\x00\x00\x00\xf0?\x00\x00\x00\x00\x00\x00\xf0?'
p873
tp874
bsg156
I01
sg51
g7
sbsg52
(dp875
I140449391988816
g848
ssg51
g7
sbsg231
I2
sg232
g0
(g157
g2
Ntp876
Rp877
(dp878
g49
I2
sg50
Nsg120
g132
(g133
(I0
tp879
g135
tp880
Rp881
(I1
(I3
I3
tp882
g59
I00
S'\x00\x00\x00\x00\x00\x00\xf0?\x00\x00\x00\x00\x00\x00\x00\x00\x00\x00\x00\x00\x00\x00\x00\x00\x00\x00\x00\x00\x00\x00\x00\x00\x00\x00\x00\x00\x00\x00\xf0?\x00\x00\x00\x00\x00\x00\x00\x00\x00\x00\x00\x00\x00\x00\x00\x00\x00\x00\x00\x00\x00\x00\x00\x00\x00\x00\x00\x00\x00\x00\xf0?'
p883
tp884
bsg51
g7
sg52
(dp885
I140449391988816
g848
ssbsg52
(dp886
I140449391989136
g845
ssg51
g7
sbsg231
I2
sg232
g717
sg52
(dp887
I140449391989712
g0
(g122
g2
Ntp888
Rp889
(dp890
g49
I2
sg126
g0
(g127
g2
Ntp891
Rp892
(dp893
g49
I1
sg131
g132
(g133
(I0
tp894
g135
tp895
Rp896
(I1
(I2
tp897
g59
I00
S'\x00\x00\x00\x00\x00\x00\xf0\x7f\x00\x00\x00\x00\x00\x00\xf0\x7f'
p898
tp899
bsg52
(dp900
I140449391989712
g889
ssg142
g132
(g133
(I0
tp901
g135
tp902
Rp903
(I1
(I2
I2
tp904
g59
I00
S'\x00\x00\x00\x00\x00\x00\x00\x00\x00\x00\x00\x00\x00\x00\x00\x00\x00\x00\x00\x00\x00\x00\xf0?\x00\x00\x00\x00\x00\x00\xf0?'
p905
tp906
bsg149
g132
(g133
(I0
tp907
g135
tp908
Rp909
(I1
(I2
I2
tp910
g59
I00
S'\x00\x00\x00\x00\x00\x00\x00\x00\x00\x00\x00\x00\x00\x00\x00\x00\x00\x00\x00\x00\x00\x00\xf0?\x00\x00\x00\x00\x00\x00\xf0?'
p911
tp912
bsg156
I01
sg51
g7
sbsg115
g845
sg149
Nsg52
(dp913
sg51
g7
sbssg51
g7
sbsI140449389211088
g0
(g176
g2
Ntp914
Rp915
(dp916
g49
I2
sg180
I2
sg181
g0
(g176
g2
Ntp917
Rp918
(dp919
g49
I1
sg180
I2
sg181
g0
(g116
g2
Ntp920
Rp921
(dp922
g49
I1
sg120
Nsg50
Nsg121
g0
(g127
g2
Ntp923
Rp924
(dp925
g49
I1
sg131
g132
(g133
(I0
tp926
g135
tp927
Rp928
(I1
(I2
tp929
g59
I00
S'\x00\x00\x00\x00\x00\x00\xf0\x7f\x00\x00\x00\x00\x00\x00\xf0\x7f'
p930
tp931
bsg52
(dp932
I140449389209616
g921
ssg142
g132
(g133
(I0
tp933
g135
tp934
Rp935
(I1
(I2
I2
tp936
g59
I00
S'\x00\x00\x00\x00\x00\x00\x00\x00\x00\x00\x00\x00\x00\x00\x00\x00\x00\x00\x00\x00\x00\x00\xf0?\x00\x00\x00\x00\x00\x00\xf0?'
p937
tp938
bsg149
g132
(g133
(I0
tp939
g135
tp940
Rp941
(I1
(I2
I2
tp942
g59
I00
S'\x00\x00\x00\x00\x00\x00\x00\x00\x00\x00\x00\x00\x00\x00\x00\x00\x00\x00\x00\x00\x00\x00\xf0?\x00\x00\x00\x00\x00\x00\xf0?'
p943
tp944
bsg156
I01
sg51
g7
sbsg52
(dp945
I140449389207824
g918
ssg51
g7
sbsg231
I2
sg232
g0
(g157
g2
Ntp946
Rp947
(dp948
g49
I2
sg50
Nsg120
g132
(g133
(I0
tp949
g135
tp950
Rp951
(I1
(I3
I3
tp952
g59
I00
S'\x00\x00\x00\x00\x00\x00\xf0?\x00\x00\x00\x00\x00\x00\x00\x00\x00\x00\x00\x00\x00\x00\x00\x00\x00\x00\x00\x00\x00\x00\x00\x00\x00\x00\x00\x00\x00\x00\xf0?\x00\x00\x00\x00\x00\x00\x00\x00\x00\x00\x00\x00\x00\x00\x00\x00\x00\x00\x00\x00\x00\x00\x00\x00\x00\x00\x00\x00\x00\x00\xf0?'
p953
tp954
bsg51
g7
sg52
(dp955
I140449389207824
g918
ssbsg52
(dp956
I140449389211088
g915
ssg51
g7
sbsg231
I2
sg232
g717
sg52
(dp957
I140449389210896
g0
(g122
g2
Ntp958
Rp959
(dp960
g49
I2
sg126
g0
(g127
g2
Ntp961
Rp962
(dp963
g49
I1
sg131
g132
(g133
(I0
tp964
g135
tp965
Rp966
(I1
(I2
tp967
g59
I00
S'\x00\x00\x00\x00\x00\x00\xf0\x7f\x00\x00\x00\x00\x00\x00\xf0\x7f'
p968
tp969
bsg52
(dp970
I140449389210896
g959
ssg142
g132
(g133
(I0
tp971
g135
tp972
Rp973
(I1
(I2
I2
tp974
g59
I00
S'\x00\x00\x00\x00\x00\x00\x00\x00\x00\x00\x00\x00\x00\x00\x00\x00\x00\x00\x00\x00\x00\x00\xf0?\x00\x00\x00\x00\x00\x00\xf0?'
p975
tp976
bsg149
g132
(g133
(I0
tp977
g135
tp978
Rp979
(I1
(I2
I2
tp980
g59
I00
S'\x00\x00\x00\x00\x00\x00\x00\x00\x00\x00\x00\x00\x00\x00\x00\x00\x00\x00\x00\x00\x00\x00\xf0?\x00\x00\x00\x00\x00\x00\xf0?'
p981
tp982
bsg156
I01
sg51
g7
sbsg115
g915
sg149
Nsg52
(dp983
sg51
g7
sbssg51
g7
sbsI140449390273040
g0
(g420
g2
Ntp984
Rp985
(dp986
g49
I2
sg120
Nsg75
g717
sg76
g0
(g45
g2
Ntp987
Rp988
(dp989
g49
I1
sg50
Nsg51
g7
sg52
(dp990
I140449390273040
g985
ssbsg50
Nsg51
g7
sg52
(dp991
sbsI140449391465040
g674
sI140449395088080
g0
(g176
g2
Ntp992
Rp993
(dp994
g49
I2
sg180
I2
sg181
g0
(g176
g2
Ntp995
Rp996
(dp997
g49
I1
sg180
I2
sg181
g0
(g116
g2
Ntp998
Rp999
(dp1000
g49
I1
sg120
Nsg50
Nsg121
g0
(g127
g2
Ntp1001
Rp1002
(dp1003
g49
I1
sg131
g132
(g133
(I0
tp1004
g135
tp1005
Rp1006
(I1
(I2
tp1007
g59
I00
S'\x00\x00\x00\x00\x00\x00\xf0\x7f\x00\x00\x00\x00\x00\x00\xf0\x7f'
p1008
tp1009
bsg52
(dp1010
I140449395085840
g999
ssg142
g132
(g133
(I0
tp1011
g135
tp1012
Rp1013
(I1
(I2
I2
tp1014
g59
I00
S'\x00\x00\x00\x00\x00\x00\x00\x00\x00\x00\x00\x00\x00\x00\x00\x00\x00\x00\x00\x00\x00\x00\xf0?\x00\x00\x00\x00\x00\x00\xf0?'
p1015
tp1016
bsg149
g132
(g133
(I0
tp1017
g135
tp1018
Rp1019
(I1
(I2
I2
tp1020
g59
I00
S'\x00\x00\x00\x00\x00\x00\x00\x00\x00\x00\x00\x00\x00\x00\x00\x00\x00\x00\x00\x00\x00\x00\xf0?\x00\x00\x00\x00\x00\x00\xf0?'
p1021
tp1022
bsg156
I01
sg51
g7
sbsg52
(dp1023
I140449395089232
g996
ssg51
g7
sbsg231
I2
sg232
g0
(g157
g2
Ntp1024
Rp1025
(dp1026
g49
I2
sg50
Nsg120
g132
(g133
(I0
tp1027
g135
tp1028
Rp1029
(I1
(I3
I3
tp1030
g59
I00
S'\x00\x00\x00\x00\x00\x00\xf0?\x00\x00\x00\x00\x00\x00\x00\x00\x00\x00\x00\x00\x00\x00\x00\x00\x00\x00\x00\x00\x00\x00\x00\x00\x00\x00\x00\x00\x00\x00\xf0?\x00\x00\x00\x00\x00\x00\x00\x00\x00\x00\x00\x00\x00\x00\x00\x00\x00\x00\x00\x00\x00\x00\x00\x00\x00\x00\x00\x00\x00\x00\xf0?'
p1031
tp1032
bsg51
g7
sg52
(dp1033
I140449395089232
g996
ssbsg52
(dp1034
I140449395088080
g993
ssg51
g7
sbsg231
I2
sg232
g717
sg52
(dp1035
I140449395088592
g0
(g122
g2
Ntp1036
Rp1037
(dp1038
g49
I2
sg126
g0
(g127
g2
Ntp1039
Rp1040
(dp1041
g49
I1
sg131
g132
(g133
(I0
tp1042
g135
tp1043
Rp1044
(I1
(I2
tp1045
g59
I00
S'\x00\x00\x00\x00\x00\x00\xf0\x7f\x00\x00\x00\x00\x00\x00\xf0\x7f'
p1046
tp1047
bsg52
(dp1048
I140449395088592
g1037
ssg142
g132
(g133
(I0
tp1049
g135
tp1050
Rp1051
(I1
(I2
I2
tp1052
g59
I00
S'\x00\x00\x00\x00\x00\x00\x00\x00\x00\x00\x00\x00\x00\x00\x00\x00\x00\x00\x00\x00\x00\x00\xf0?\x00\x00\x00\x00\x00\x00\xf0?'
p1053
tp1054
bsg149
g132
(g133
(I0
tp1055
g135
tp1056
Rp1057
(I1
(I2
I2
tp1058
g59
I00
S'\x00\x00\x00\x00\x00\x00\x00\x00\x00\x00\x00\x00\x00\x00\x00\x00\x00\x00\x00\x00\x00\x00\xf0?\x00\x00\x00\x00\x00\x00\xf0?'
p1059
tp1060
bsg156
I01
sg51
g7
sbsg115
g993
sg149
Nsg52
(dp1061
sg51
g7
sbssg51
g7
sbsI140449392653136
g755
sI140449391542032
g0
(g420
g2
Ntp1062
Rp1063
(dp1064
g49
I2
sg120
Nsg75
g0
(g45
g2
Ntp1065
Rp1066
(dp1067
g49
I1
sg50
Nsg51
g7
sg52
(dp1068
I140449391542032
g1063
ssbsg76
g717
sg50
Nsg51
g7
sg52
(dp1069
sbssg51
g7
sbsg52
(dp1070
I140449391465360
g677
ssg51
g7
sbssbssg51
g7
sbsI140449391465360
g677
ssg590
I2
sg591
g0
(g182
g2
Ntp1071
Rp1072
(dp1073
g49
I1
sg75
g0
(cmatplotlib.scale
Log10Transform
p1074
g2
Ntp1075
Rp1076
(dp1077
g49
I1
sg51
g7
sg52
(dp1078
I140449389208848
g1072
ssS'_fill_value'
p1079
F1e-300
sbsg76
g0
(g45
g2
Ntp1080
Rp1081
(dp1082
g49
I1
sg50
Nsg51
g7
sg52
(dp1083
I140449389208848
g1072
ssbsg510
Nsg52
(dp1084
I140449391467280
g680
ssg51
g7
sbsbsg231
I2
sg232
g714
sg52
(dp1085
I140449391466576
g780
sI140449391465040
g674
ssg51
g7
sbsg76
g717
sg510
Nsg52
(dp1086
I140449390387472
g671
sI140449395393680
g0
(g176
g2
Ntp1087
Rp1088
(dp1089
g49
I1
sg180
I2
sg181
g674
sg231
I2
sg232
g0
(g168
g2
Ntp1090
Rp1091
(dp1092
g49
I1
sg120
Nsg172
g159
sg50
Nsg173
(F-0.1388888888888889
F0.0
tp1093
sg51
g7
sg52
(dp1094
I140449393088208
g0
(g176
g2
Ntp1095
Rp1096
(dp1097
g49
I1
sg180
I2
sg181
g674
sg231
I2
sg232
g1091
sg52
(dp1098
sg51
g7
sbsI140449395396240
g0
(g176
g2
Ntp1099
Rp1100
(dp1101
g49
I1
sg180
I2
sg181
g674
sg231
I2
sg232
g1091
sg52
(dp1102
sg51
g7
sbsI140449395393680
g1088
sI140449390387664
g0
(g176
g2
Ntp1103
Rp1104
(dp1105
g49
I1
sg180
I2
sg181
g674
sg231
I2
sg232
g1091
sg52
(dp1106
sg51
g7
sbsI140449390389712
g0
(g176
g2
Ntp1107
Rp1108
(dp1109
g49
I1
sg180
I2
sg181
g674
sg231
I2
sg232
g1091
sg52
(dp1110
I140449390388944
g0
(g176
g2
Ntp1111
Rp1112
(dp1113
g49
I1
sg180
I2
sg181
g1108
sg231
I2
sg232
g0
(g168
g2
Ntp1114
Rp1115
(dp1116
g49
I1
sg120
Nsg172
g159
sg50
Nsg173
(F-0.04722222222222222
I0
tp1117
sg51
g7
sg52
(dp1118
I140449390388944
g1112
ssbsg52
(dp1119
sg51
g7
sbssg51
g7
sbssbsg52
(dp1120
I140449395396304
g0
(g176
g2
Ntp1121
Rp1122
(dp1123
g49
I1
sg180
I2
sg181
g1088
sg231
I2
sg232
g0
(g168
g2
Ntp1124
Rp1125
(dp1126
g49
I1
sg120
Nsg172
g159
sg50
Nsg173
(F-0.04861111111111111
I0
tp1127
sg51
g7
sg52
(dp1128
I140449395396304
g1122
ssbsg52
(dp1129
sg51
g7
sbssg51
g7
sbsI140449390387664
g1104
sI140449395396240
g1100
sI140449393088208
g1096
sI140449395395344
g0
(g176
g2
Ntp1130
Rp1131
(dp1132
g49
I1
sg180
I2
sg181
g674
sg231
I2
sg232
g0
(g168
g2
Ntp1133
Rp1134
(dp1135
g49
I1
sg120
Nsg172
g159
sg50
Nsg173
(F0.04861111111111111
I0
tp1136
sg51
g7
sg52
(dp1137
I140449395395344
g1131
ssbsg52
(dp1138
sg51
g7
sbsI140449390389712
g1108
ssg51
g7
sbsg231
I2
sg232
g666
sg52
(dp1139
sg51
g7
sbssbsI140449390274768
g750
sI140449437776272
g124
sI140449391593936
g516
sI140449430880720
g812
sI140449390414352
g650
sI140449393089104
g787
sI140449390414800
g636
sI140449395395600
g1134
sI140449390414928
g659
sI140449430884112
g839
sI140449390464720
g796
sI140449390464464
g568
sI140449389706832
g407
sI140449393090256
g1091
sI140449395396368
g1125
sI140449390461840
g550
sI140449390387280
g1115
sI140449390461328
g616
sI140449390462096
g559
sI140449430880848
g825
ssbsg149
Nsg52
(dp1140
I140449437774800
g118
ssg51
g7
sbsg52
(dp1141
I140449389825680
g237
sI140449391464976
g720
ssg51
g7
sbsS'_us_dashes'
p1142
(NNtp1143
sS'_capstyle'
p1144
Vbutt
p1145
sS'_url'
p1146
Nsg25
NsS'_axes'
p1147
Nsg34
Nsbsg42
Nsg88
NsV_restore_to_pylab
p1148
I01
sS'images'
p1149
(lp1150
sS'_suptitle'
p1151
NsS'dpi_scale_trans'
p1152
g159
sS'number'
p1153
I1
sS'callbacks'
p1154
g0
(cmatplotlib.cbook
CallbackRegistry
p1155
g2
Ntp1156
Rp1157
I01
bsg96
NsS'_tight'
p1158
I00
sg86
I01
sS'bbox'
p1159
g124
sg103
g0
(g104
g105
((lp1160
(lp1161
tp1162
tp1163
Rp1164
sg111
I0
sS'patches'
p1165
(lp1166
sS'legends'
p1167
(lp1168
sS'suppressComposite'
p1169
Nsg112
I00
sg114
NsS'_axstack'
p1170
g0
(cmatplotlib.figure
AxesStack
p1171
g2
Ntp1172
Rp1173
(dp1174
S'_default'
p1175
NsS'_elements'
p1176
(lp1177
(((g0
(cmatplotlib.gridspec
SubplotSpec
p1178
g2
Ntp1179
Rp1180
(dp1181
S'num1'
p1182
I0
sS'num2'
p1183
I0
sS'_gridspec'
p1184
g0
(cmatplotlib.gridspec
GridSpec
p1185
g2
Ntp1186
Rp1187
(dp1188
S'_nrows'
p1189
I1
sS'right'
p1190
NsS'_col_width_ratios'
p1191
NsS'bottom'
p1192
NsS'top'
p1193
NsS'wspace'
p1194
NsS'_ncols'
p1195
I1
sS'hspace'
p1196
NsS'_row_height_ratios'
p1197
NsS'left'
p1198
Nsbsbtp1199
(ttp1200
(I1
g0
(cmatplotlib.axes._subplots
_PicklableSubplotClassConstructor
p1201
g2
Ntp1202
Rp1203
(cmatplotlib.axes._axes
Axes
p1204
tp1205
Rp1206
(dp1207
S'transLimits'
p1208
g224
sS'_get_patches_for_fill'
p1209
g0
(cmatplotlib.axes._base
_process_plot_var_args
p1210
g2
Ntp1211
Rp1212
(dp1213
Vaxes
p1214
g1206
sVcommand
p1215
Vfill
p1216
sbsS'_xcid'
p1217
I1
sg6
V
p1218
sS'legend_'
p1219
g0
(cmatplotlib.legend
Legend
p1220
g2
Ntp1221
Rp1222
(dp1223
g6
g7
sS'markerscale'
p1224
F1.0
sg9
g4
sS'legendHandles'
p1225
(lp1226
g0
(cmatplotlib.lines
Line2D
p1227
g2
Ntp1228
Rp1229
(dp1230
g6
V$R^2$ values
p1231
sg1217
I3
sS'_dashcapstyle'
p1232
Vbutt
p1233
sS'_linestyles'
p1234
Nsg20
I01
sS'_x_filled'
p1235
NsS'ind_offset'
p1236
I0
sg75
Nsg76
Nsg24
Nsg11
Nsg29
I00
sg30
(dp1237
sg32
I00
sg1147
g1206
sS'_markeredgewidth'
p1238
F1.0
sS'_dashSeq'
p1239
NsS'_markerfacecoloralt'
p1240
Vnone
p1241
sS'_markeredgecolor'
p1242
Vauto
p1243
sg96
Nsg86
I01
sS'_xorig'
p1244
g132
(g133
(I0
tp1245
g135
tp1246
Rp1247
(I1
(I2
tp1248
g59
I00
S'\x00\x00\x00\x00\x00\x00\x00\x00\x00\x00\x00\x00\x00\x004@'
p1249
tp1250
bsg111
I0
sg112
I01
sS'_invalidy'
p1251
I01
sS'_invalidx'
p1252
I01
sg115
g0
(cmatplotlib.transforms
CompositeAffine2D
p1253
g2
Ntp1254
Rp1255
(dp1256
g49
I1
sg180
I2
sg50
Nsg51
g7
sg120
Nsg52
(dp1257
sg231
I2
sg232
g0
(g157
g2
Ntp1258
Rp1259
(dp1260
g49
I2
sg50
Nsg120
g132
(g133
(I0
tp1261
g135
tp1262
Rp1263
(I1
(I3
I3
tp1264
g59
I00
S'\x00\x00\x00\x00\x00\x00\xf0?\x00\x00\x00\x00\x00\x00\x00\x00\x00\x00\x00\x00\x00\x00\x00\x00\x00\x00\x00\x00\x00\x00\x00\x00\x00\x00\x00\x00\x00\x00\xf0?\x00\x00\x00\x00\x00\x00\x00\x00\x00\x00\x00\x00\x00\x00\x00\x00\x00\x00\x00\x00\x00\x00\x00\x00\x00\x00\x00\x00\x00\x00\xf0?'
p1265
tp1266
bsg51
g7
sg52
(dp1267
I140449389209872
g1255
ssbsg181
g0
(g157
g2
Ntp1268
Rp1269
(dp1270
g49
I0
sg50
Nsg120
g132
(g133
(I0
tp1271
g135
tp1272
Rp1273
(I1
(I3
I3
tp1274
g59
I00
S'\x00\x00\x00\x00\x00\x00\xf0?\x00\x00\x00\x00\x00\x00\x00\x00\x00\x00\x00\x00\x00\x00\x00\x00\x00\x00\x00\x00\x00\x00\x00\x00\x00\x00\x00\x00\x00\x00\xf0?\x00\x00\x00\x00\x00\x00\x00\x00\x00\x00\x00\x00\x00\x00\x00\x00\x00\x00\x00\x00\x00\x00\x00\x00\x00\x00\x00\x00\x00\x00\xf0?'
p1275
tp1276
bsg51
g7
sg52
(dp1277
I140449389209872
g1255
ssbsbsS'_us_dashSeq'
p1278
NsS'_color'
p1279
g135
sS'pickradius'
p1280
I5
sS'_legmarker'
p1281
g0
(g1227
g2
Ntp1282
Rp1283
(dp1284
g6
g1231
sg1217
I4
sg1232
g1233
sg1234
Nsg20
I01
sg1235
Nsg1236
I0
sg75
Nsg76
Nsg24
Nsg11
Nsg29
I00
sg30
(dp1285
sg32
I00
sg1147
g1206
sg1238
F1.0
sg1239
Nsg1240
g1241
sg1242
g1243
sg96
Nsg86
I01
sg1244
(lp1286
F10.0
asg111
I0
sg112
I01
sg1251
I01
sg1252
I01
sg115
g1255
sg1278
Nsg1279
g135
sg1280
I5
sg9
g4
sS'verticalOffset'
p1287
Nsg10
NsS'_dashOffset'
p1288
Nsg42
Nsg17
g18
sS'_solidjoinstyle'
p1289
Vround
p1290
sg23
Nsg25
Nsg28
I00
sS'_markevery'
p1291
Nsg34
NsS'_transformed_path'
p1292
NsS'_marker'
p1293
g0
(cmatplotlib.markers
MarkerStyle
p1294
g2
Ntp1295
Rp1296
(dp1297
g1293
VNone
p1298
sS'_alt_path'
p1299
NsS'_snap_threshold'
p1300
Nsg115
g0
(g45
g2
Ntp1301
Rp1302
(dp1303
g49
I1
sg50
Nsg51
g7
sg52
(dp1304
sbsS'_filled'
p1305
I00
sS'_fillstyle'
p1306
Vfull
p1307
sS'_alt_transform'
p1308
Nsg1144
Vbutt
p1309
sg99
Vround
p1310
sS'_path'
p1311
g0
(cmatplotlib.path
Path
p1312
g2
Ntp1313
Rp1314
(dp1315
S'_should_simplify'
p1316
I00
sS'_codes'
p1317
NsS'_vertices'
p1318
g132
(g133
(I0
tp1319
g135
tp1320
Rp1321
(I1
(I0
I2
tp1322
g59
I00
S''
p1323
tp1324
bsS'_readonly'
p1325
I00
sS'_simplify_threshold'
p1326
F0.1111111111111111
sS'_interpolation_steps'
p1327
I1
sS'_has_nonfinite'
p1328
I00
sbsbsS'_markerfacecolor'
p1329
Vauto
p1330
sg88
Nsg33
Nsg92
I01
sS'_xy'
p1331
Nsg101
VNone
p1332
sg103
g0
(g104
g105
((lp1333
(lp1334
tp1335
tp1336
Rp1337
sS'_subslice'
p1338
I00
sS'_drawstyle'
p1339
Vdefault
p1340
sS'_solidcapstyle'
p1341
g1290
sS'_us_dashOffset'
p1342
Nsg114
NsS'_dashjoinstyle'
p1343
g1290
sS'_markersize'
p1344
F10.0
sg8
I01
sS'_ycid'
p1345
I4
sg43
Nsg1146
NsS'_yorig'
p1346
g132
(g133
(I0
tp1347
g135
tp1348
Rp1349
(I1
(I1
tp1350
g59
I00
S'\x00\x00\x00\x00\x00\x00\x0c@'
p1351
tp1352
bsg87
F1.0
sg1311
Nsbsg9
g4
sg1287
Nsg10
Nsg1288
Nsg42
Nsg17
g18
sg1289
g1290
sg23
Nsg25
Nsg28
I00
sg1291
Nsg34
Nsg1292
Nsg1293
g0
(g1294
g2
Ntp1353
Rp1354
(dp1355
g1293
g7
sg1299
Nsg1300
Nsg115
g0
(g45
g2
Ntp1356
Rp1357
(dp1358
g49
I1
sg50
Nsg51
g7
sg52
(dp1359
sbsg1305
I00
sg1306
g1307
sg1308
Nsg1144
g1309
sg99
g1310
sg1311
g0
(g1312
g2
Ntp1360
Rp1361
(dp1362
g1316
I00
sg1317
Nsg1318
g132
(g133
(I0
tp1363
g135
tp1364
Rp1365
(I1
(I0
I2
tp1366
g59
I00
g1323
tp1367
bsg1325
I00
sg1326
F0.1111111111111111
sg1327
I1
sg1328
I00
sbsbsg1329
g1330
sg88
Nsg33
Nsg92
I01
sg1331
Nsg101
V-
p1368
sg103
g0
(g104
g105
((lp1369
(lp1370
tp1371
tp1372
Rp1373
sg1338
I00
sg1339
Vdefault
p1374
sg1341
g1290
sg1342
Nsg114
Nsg1343
g1290
sg1344
F10.0
sg8
I01
sg1345
I3
sg43
Nsg1146
Nsg1346
g132
(g133
(I0
tp1375
g135
tp1376
Rp1377
(I1
(I2
tp1378
g59
I00
S'\x00\x00\x00\x00\x00\x00\x0c@\x00\x00\x00\x00\x00\x00\x0c@'
p1379
tp1380
bsg87
F1.0
sg1311
Nsbag0
(g1227
g2
Ntp1381
Rp1382
(dp1383
g6
Vslopes
p1384
sg1217
I5
sg1232
g1233
sg1234
Nsg20
I01
sg1235
Nsg1236
I0
sg75
Nsg76
Nsg24
Nsg11
Nsg29
I00
sg30
(dp1385
sg32
I00
sg1147
g1206
sg1238
F1.0
sg1239
Nsg1240
g1241
sg1242
g1243
sg96
Nsg86
I01
sg1244
g132
(g133
(I0
tp1386
g135
tp1387
Rp1388
(I1
(I2
tp1389
g59
I00
S'\x00\x00\x00\x00\x00\x00\x00\x00\x00\x00\x00\x00\x00\x004@'
p1390
tp1391
bsg111
I0
sg112
I01
sg1251
I01
sg1252
I01
sg115
g0
(g1253
g2
Ntp1392
Rp1393
(dp1394
g49
I1
sg180
I2
sg50
Nsg51
g7
sg120
Nsg52
(dp1395
sg231
I2
sg232
g0
(g157
g2
Ntp1396
Rp1397
(dp1398
g49
I2
sg50
Nsg120
g132
(g133
(I0
tp1399
g135
tp1400
Rp1401
(I1
(I3
I3
tp1402
g59
I00
S'\x00\x00\x00\x00\x00\x00\xf0?\x00\x00\x00\x00\x00\x00\x00\x00\x00\x00\x00\x00\x00\x00\x00\x00\x00\x00\x00\x00\x00\x00\x00\x00\x00\x00\x00\x00\x00\x00\xf0?\x00\x00\x00\x00\x00\x00\x00\x00\x00\x00\x00\x00\x00\x00\x00\x00\x00\x00\x00\x00\x00\x00\x00\x00\x00\x00\x00\x00\x00\x00\xf0?'
p1403
tp1404
bsg51
g7
sg52
(dp1405
I140449392609488
g1393
ssbsg181
g0
(g157
g2
Ntp1406
Rp1407
(dp1408
g49
I0
sg50
Nsg120
g132
(g133
(I0
tp1409
g135
tp1410
Rp1411
(I1
(I3
I3
tp1412
g59
I00
S'\x00\x00\x00\x00\x00\x00\xf0?\x00\x00\x00\x00\x00\x00\x00\x00\x00\x00\x00\x00\x00\x00\x00\x00\x00\x00\x00\x00\x00\x00\x00\x00\x00\x00\x00\x00\x00\x00\xf0?\x00\x00\x00\x00\x00\x00\x00\x00\x00\x00\x00\x00\x00\x00\x00\x00\x00\x00\x00\x00\x00\x00\x00\x00\x00\x00\x00\x00\x00\x00\xf0?'
p1413
tp1414
bsg51
g7
sg52
(dp1415
I140449392609488
g1393
ssbsbsg1278
Nsg1279
S'r'
p1416
sg1280
I5
sg1281
g0
(g1227
g2
Ntp1417
Rp1418
(dp1419
g6
g1384
sg1217
I6
sg1232
g1233
sg1234
Nsg20
I01
sg1235
Nsg1236
I0
sg75
Nsg76
Nsg24
Nsg11
Nsg29
I00
sg30
(dp1420
sg32
I00
sg1147
g1206
sg1238
F1.0
sg1239
Nsg1240
g1241
sg1242
g1243
sg96
Nsg86
I01
sg1244
(lp1421
F10.0
asg111
I0
sg112
I01
sg1251
I01
sg1252
I01
sg115
g1393
sg1278
Nsg1279
g1416
sg1280
I5
sg9
g4
sg1287
Nsg10
Nsg1288
Nsg42
Nsg17
g18
sg1289
g1290
sg23
Nsg25
Nsg28
I00
sg1291
Nsg34
Nsg1292
Nsg1293
g0
(g1294
g2
Ntp1422
Rp1423
(dp1424
g1293
g1298
sg1299
Nsg1300
Nsg115
g0
(g45
g2
Ntp1425
Rp1426
(dp1427
g49
I1
sg50
Nsg51
g7
sg52
(dp1428
sbsg1305
I00
sg1306
g1307
sg1308
Nsg1144
g1309
sg99
g1310
sg1311
g0
(g1312
g2
Ntp1429
Rp1430
(dp1431
g1316
I00
sg1317
Nsg1318
g132
(g133
(I0
tp1432
g135
tp1433
Rp1434
(I1
(I0
I2
tp1435
g59
I00
g1323
tp1436
bsg1325
I00
sg1326
F0.1111111111111111
sg1327
I1
sg1328
I00
sbsbsg1329
g1330
sg88
Nsg33
Nsg92
I01
sg1331
Nsg101
g1332
sg103
g0
(g104
g105
((lp1437
(lp1438
tp1439
tp1440
Rp1441
sg1338
I00
sg1339
g1340
sg1341
g1290
sg1342
Nsg114
Nsg1343
g1290
sg1344
F10.0
sg8
I01
sg1345
I6
sg43
Nsg1146
Nsg1346
g132
(g133
(I0
tp1442
g135
tp1443
Rp1444
(I1
(I1
tp1445
g59
I00
S'\x00\x00\x00\x00\x00\x00\x0c@'
p1446
tp1447
bsg87
F1.0
sg1311
Nsbsg9
g4
sg1287
Nsg10
Nsg1288
Nsg42
Nsg17
g18
sg1289
g1290
sg23
Nsg25
Nsg28
I00
sg1291
Nsg34
Nsg1292
Nsg1293
g0
(g1294
g2
Ntp1448
Rp1449
(dp1450
g1293
g7
sg1299
Nsg1300
Nsg115
g0
(g45
g2
Ntp1451
Rp1452
(dp1453
g49
I1
sg50
Nsg51
g7
sg52
(dp1454
sbsg1305
I00
sg1306
g1307
sg1308
Nsg1144
g1309
sg99
g1310
sg1311
g0
(g1312
g2
Ntp1455
Rp1456
(dp1457
g1316
I00
sg1317
Nsg1318
g132
(g133
(I0
tp1458
g135
tp1459
Rp1460
(I1
(I0
I2
tp1461
g59
I00
g1323
tp1462
bsg1325
I00
sg1326
F0.1111111111111111
sg1327
I1
sg1328
I00
sbsbsg1329
g1330
sg88
Nsg33
Nsg92
I01
sg1331
Nsg101
g1368
sg103
g0
(g104
g105
((lp1463
(lp1464
tp1465
tp1466
Rp1467
sg1338
I00
sg1339
g1374
sg1341
g1290
sg1342
Nsg114
Nsg1343
g1290
sg1344
F10.0
sg8
I01
sg1345
I5
sg43
Nsg1146
Nsg1346
g132
(g133
(I0
tp1468
g135
tp1469
Rp1470
(I1
(I2
tp1471
g59
I00
S'\x00\x00\x00\x00\x00\x00\x0c@\x00\x00\x00\x00\x00\x00\x0c@'
p1472
tp1473
bsg87
F1.0
sg1311
NsbasS'_legend_title_box'
p1474
g0
(cmatplotlib.offsetbox
TextArea
p1475
g2
Ntp1476
Rp1477
(dp1478
g6
g7
sg8
I00
sg9
g4
sS'_children'
p1479
(lp1480
g0
(cmatplotlib.text
Text
p1481
g2
Ntp1482
Rp1483
(dp1484
g6
g7
sg8
I01
sg9
g4
sg10
NsS'_fontproperties'
p1485
g0
(cmatplotlib.font_manager
FontProperties
p1486
g2
Ntp1487
Rp1488
(dp1489
S'_family'
p1490
(lp1491
Vsans-serif
p1492
asS'_file'
p1493
NsS'_variant'
p1494
Vnormal
p1495
sS'_slant'
p1496
g1495
sS'_size'
p1497
F12.0
sS'_weight'
p1498
I400
sS'_stretch'
p1499
g1495
sbsg42
Nsg17
g18
sS'_multialignment'
p1500
Nsg20
I01
sg23
Nsg75
I0
sg76
I0
sg24
Nsg25
Nsg11
Nsg28
I00
sg29
I00
sg30
(dp1501
sS'_renderer'
p1502
Nsg32
I00
sg1147
Nsg88
Nsg1146
NsS'_rotation_mode'
p1503
Nsg33
Nsg96
Nsg86
I01
sS'_verticalalignment'
p1504
Vbaseline
p1505
sS'_text'
p1506
VNone
p1507
sS'_bbox_patch'
p1508
Nsg103
g0
(g104
g105
((lp1509
(lp1510
tp1511
tp1512
Rp1513
sg111
I0
sS'_rotation'
p1514
Nsg112
I01
sg114
NsS'_linespacing'
p1515
F1.2
sg115
g0
(g1253
g2
Ntp1516
Rp1517
(dp1518
g49
I1
sg180
I2
sg50
Nsg51
g7
sg120
Nsg52
(dp1519
sg231
I2
sg232
g0
(g157
g2
Ntp1520
Rp1521
(dp1522
g49
I0
sg50
Nsg120
g132
(g133
(I0
tp1523
g135
tp1524
Rp1525
(I1
(I3
I3
tp1526
g59
I00
S'\x00\x00\x00\x00\x00\x00\xf0?\x00\x00\x00\x00\x00\x00\x00\x00\x00\x00\x00\x00\x00\x00\x00\x00\x00\x00\x00\x00\x00\x00\x00\x00\x00\x00\x00\x00\x00\x00\xf0?\x00\x00\x00\x00\x00\x00\x00\x00\x00\x00\x00\x00\x00\x00\x00\x00\x00\x00\x00\x00\x00\x00\x00\x00\x00\x00\x00\x00\x00\x00\xf0?'
p1527
tp1528
bsg51
g7
sg52
(dp1529
I140449391595152
g1517
ssbsg181
g0
(g157
g2
Ntp1530
Rp1531
(dp1532
g49
I2
sg50
Nsg120
g132
(g133
(I0
tp1533
g135
tp1534
Rp1535
(I1
(I3
I3
tp1536
g59
I00
S'\x00\x00\x00\x00\x00\x00\xf0?\x00\x00\x00\x00\x00\x00\x00\x00\x00\x00\x00\x00\x00\x00\x00\x00\x00\x00\x00\x00\x00\x00\x00\x00\x00\x00\x00\x00\x00\x00\xf0?\x00\x00\x00\x00\x00\x00\x00\x00\x00\x00\x00\x00\x00\x00\x00\x00\x00\x00\x00\x00\x00\x00\x00\x00\x00\x00\x00\x00\x00\x00\xf0?'
p1537
tp1538
bsg51
g7
sg52
(dp1539
I140449391595152
g1517
ssbsbsS'_usetex'
p1540
I00
sS'_wrap'
p1541
I00
sg43
Nsg1279
V.15
p1542
sS'_horizontalalignment'
p1543
Vleft
p1544
sg34
Nsbasg1506
g1483
sg10
Nsg42
NsS'_minimumdescent'
p1545
I01
sg17
g18
sg20
I00
sg23
Nsg24
Nsg25
Nsg11
Nsg28
I00
sg1147
Nsg30
(dp1546
sg32
I00
sg29
I00
sg88
Nsg33
Nsg96
Nsg86
I01
sS'_multilinebaseline'
p1547
Nsg103
g0
(g104
g105
((lp1548
(lp1549
tp1550
tp1551
Rp1552
sg111
I0
sS'offset_transform'
p1553
g1531
sg112
I00
sg114
NsS'_baseline_transform'
p1554
g1521
sg115
NsS'_offset'
p1555
(I0
I0
tp1556
sg43
Nsg1146
Nsg34
Nsbsg8
I01
sS'_fontsize'
p1557
F10.0
sg10
NsS'_draggable'
p1558
Nsg11
NsS'columnspacing'
p1559
F2.0
sg12
(lp1560
g0
(g1481
g2
Ntp1561
Rp1562
(dp1563
g6
g7
sg8
I01
sg9
g4
sg10
Nsg1485
g0
(g1486
g2
Ntp1564
Rp1565
(dp1566
g1490
(lp1567
g1492
asg1493
Nsg1494
g1495
sg1496
g1495
sg1497
F10.0
sg1498
I400
sg1499
g1495
sbsg42
Nsg17
g18
sg1500
Nsg20
I01
sg23
Nsg75
I0
sg76
I0
sg24
Nsg25
Nsg11
Nsg28
I00
sg29
I00
sg30
(dp1568
sg1502
Nsg32
I00
sg1147
Nsg88
Nsg1146
Nsg1503
Nsg33
Nsg96
Nsg86
I01
sg1504
g1505
sg1506
V$R^2$ values
p1569
sg1508
Nsg103
g0
(g104
g105
((lp1570
(lp1571
tp1572
tp1573
Rp1574
sg111
I0
sg1514
Nsg112
I01
sg114
Nsg1515
F1.2
sg115
g0
(g1253
g2
Ntp1575
Rp1576
(dp1577
g49
I1
sg180
I2
sg50
Nsg51
g7
sg120
Nsg52
(dp1578
sg231
I2
sg232
g0
(g157
g2
Ntp1579
Rp1580
(dp1581
g49
I0
sg50
Nsg120
g132
(g133
(I0
tp1582
g135
tp1583
Rp1584
(I1
(I3
I3
tp1585
g59
I00
S'\x00\x00\x00\x00\x00\x00\xf0?\x00\x00\x00\x00\x00\x00\x00\x00\x00\x00\x00\x00\x00\x00\x00\x00\x00\x00\x00\x00\x00\x00\x00\x00\x00\x00\x00\x00\x00\x00\xf0?\x00\x00\x00\x00\x00\x00\x00\x00\x00\x00\x00\x00\x00\x00\x00\x00\x00\x00\x00\x00\x00\x00\x00\x00\x00\x00\x00\x00\x00\x00\xf0?'
p1586
tp1587
bsg51
g7
sg52
(dp1588
I140449389211536
g1576
ssbsg181
g0
(g157
g2
Ntp1589
Rp1590
(dp1591
g49
I2
sg50
Nsg120
g132
(g133
(I0
tp1592
g135
tp1593
Rp1594
(I1
(I3
I3
tp1595
g59
I00
S'\x00\x00\x00\x00\x00\x00\xf0?\x00\x00\x00\x00\x00\x00\x00\x00\x00\x00\x00\x00\x00\x00\x00\x00\x00\x00\x00\x00\x00\x00\x00\x00\x00\x00\x00\x00\x00\x00\xf0?\x00\x00\x00\x00\x00\x00\x00\x00\x00\x00\x00\x00\x00\x00\x00\x00\x00\x00\x00\x00\x00\x00\x00\x00\x00\x00\x00\x00\x00\x00\xf0?'
p1596
tp1597
bsg51
g7
sg52
(dp1598
I140449389211536
g1576
ssbsbsg1540
I00
sg1541
I00
sg43
Nsg1279
g1542
sg1543
Vleft
p1599
sg34
Nsbag0
(g1481
g2
Ntp1600
Rp1601
(dp1602
g6
g7
sg8
I01
sg9
g4
sg10
Nsg1485
g1565
sg42
Nsg17
g18
sg1500
Nsg20
I01
sg23
Nsg75
I0
sg76
I0
sg24
Nsg25
Nsg11
Nsg28
I00
sg29
I00
sg30
(dp1603
sg1502
Nsg32
I00
sg1147
Nsg88
Nsg1146
Nsg1503
Nsg33
Nsg96
Nsg86
I01
sg1504
g1505
sg1506
Vslopes
p1604
sg1508
Nsg103
g0
(g104
g105
((lp1605
(lp1606
tp1607
tp1608
Rp1609
sg111
I0
sg1514
Nsg112
I01
sg114
Nsg1515
F1.2
sg115
g0
(g1253
g2
Ntp1610
Rp1611
(dp1612
g49
I1
sg180
I2
sg50
Nsg51
g7
sg120
Nsg52
(dp1613
sg231
I2
sg232
g0
(g157
g2
Ntp1614
Rp1615
(dp1616
g49
I0
sg50
Nsg120
g132
(g133
(I0
tp1617
g135
tp1618
Rp1619
(I1
(I3
I3
tp1620
g59
I00
S'\x00\x00\x00\x00\x00\x00\xf0?\x00\x00\x00\x00\x00\x00\x00\x00\x00\x00\x00\x00\x00\x00\x00\x00\x00\x00\x00\x00\x00\x00\x00\x00\x00\x00\x00\x00\x00\x00\xf0?\x00\x00\x00\x00\x00\x00\x00\x00\x00\x00\x00\x00\x00\x00\x00\x00\x00\x00\x00\x00\x00\x00\x00\x00\x00\x00\x00\x00\x00\x00\xf0?'
p1621
tp1622
bsg51
g7
sg52
(dp1623
I140449392608464
g1611
ssbsg181
g0
(g157
g2
Ntp1624
Rp1625
(dp1626
g49
I2
sg50
Nsg120
g132
(g133
(I0
tp1627
g135
tp1628
Rp1629
(I1
(I3
I3
tp1630
g59
I00
S'\x00\x00\x00\x00\x00\x00\xf0?\x00\x00\x00\x00\x00\x00\x00\x00\x00\x00\x00\x00\x00\x00\x00\x00\x00\x00\x00\x00\x00\x00\x00\x00\x00\x00\x00\x00\x00\x00\xf0?\x00\x00\x00\x00\x00\x00\x00\x00\x00\x00\x00\x00\x00\x00\x00\x00\x00\x00\x00\x00\x00\x00\x00\x00\x00\x00\x00\x00\x00\x00\xf0?'
p1631
tp1632
bsg51
g7
sg52
(dp1633
I140449392608464
g1611
ssbsbsg1540
I00
sg1541
I00
sg43
Nsg1279
g1542
sg1543
g1599
sg34
NsbasS'handletextpad'
p1634
F0.8
sS'borderaxespad'
p1635
F0.5
sg17
g18
sS'_legend_handle_box'
p1636
g0
(cmatplotlib.offsetbox
HPacker
p1637
g2
Ntp1638
Rp1639
(dp1640
g6
g7
sg8
I01
sg9
g4
sg1479
(lp1641
g0
(cmatplotlib.offsetbox
VPacker
p1642
g2
Ntp1643
Rp1644
(dp1645
g6
g7
sg8
I01
sg9
g4
sg1479
(lp1646
g0
(g1637
g2
Ntp1647
Rp1648
(dp1649
g6
g7
sg8
I01
sg9
g4
sg1479
(lp1650
g0
(cmatplotlib.offsetbox
DrawingArea
p1651
g2
Ntp1652
Rp1653
(dp1654
g6
g7
sg8
I01
sg9
g4
sg1479
(lp1655
g1229
ag1283
asg10
NsS'height'
p1656
F7.0
sg42
Nsg17
g18
sg20
I00
sg23
Nsg24
Nsg25
NsS'dpi_transform'
p1657
g1269
sg11
NsS'_clip_children'
p1658
I00
sg28
I00
sS'width'
p1659
F20.0
sg29
I00
sg30
(dp1660
sg32
I00
sg1147
Nsg88
NsS'ydescent'
p1661
F0.0
sg33
Nsg96
Nsg86
I01
sg103
g0
(g104
g105
((lp1662
(lp1663
tp1664
tp1665
Rp1666
sg111
I0
sg1553
g1259
sg112
I00
sg114
Nsg115
Nsg1555
g1556
sS'xdescent'
p1667
F0.0
sg43
Nsg1146
Nsg34
Nsbag0
(g1475
g2
Ntp1668
Rp1669
(dp1670
g6
g7
sg8
I01
sg9
g4
sg1479
(lp1671
g1562
asg1506
g1562
sg10
Nsg42
Nsg1545
I01
sg17
g18
sg20
I00
sg23
Nsg24
Nsg25
Nsg11
Nsg28
I00
sg1147
Nsg30
(dp1672
sg32
I00
sg29
I00
sg88
Nsg33
Nsg96
Nsg86
I01
sg1547
I01
sg103
g0
(g104
g105
((lp1673
(lp1674
tp1675
tp1676
Rp1677
sg111
I0
sg1553
g1590
sg112
I00
sg114
Nsg1554
g1580
sg115
Nsg1555
g1556
sg43
Nsg1146
Nsg34
Nsbasg10
Nsg1656
Nsg42
Nsg17
g18
sg20
I00
sg23
Nsg24
Nsg25
NsS'sep'
p1678
F8.0
sg11
Nsg28
I00
sg1659
NsS'pad'
p1679
I0
sg29
I00
sg30
(dp1680
sg32
I00
sg1147
Nsg88
Nsg33
Nsg96
Nsg86
I01
sg103
g0
(g104
g105
((lp1681
(lp1682
tp1683
tp1684
Rp1685
sg111
I0
sg112
I00
sg114
NsS'align'
p1686
Vbaseline
p1687
sg115
Nsg1555
g1556
sg43
Nsg1146
NsS'mode'
p1688
Vfixed
p1689
sg34
Nsbag0
(g1637
g2
Ntp1690
Rp1691
(dp1692
g6
g7
sg8
I01
sg9
g4
sg1479
(lp1693
g0
(g1651
g2
Ntp1694
Rp1695
(dp1696
g6
g7
sg8
I01
sg9
g4
sg1479
(lp1697
g1382
ag1418
asg10
Nsg1656
F7.0
sg42
Nsg17
g18
sg20
I00
sg23
Nsg24
Nsg25
Nsg1657
g1407
sg11
Nsg1658
I00
sg28
I00
sg1659
F20.0
sg29
I00
sg30
(dp1698
sg32
I00
sg1147
Nsg88
Nsg1661
F0.0
sg33
Nsg96
Nsg86
I01
sg103
g0
(g104
g105
((lp1699
(lp1700
tp1701
tp1702
Rp1703
sg111
I0
sg1553
g1397
sg112
I00
sg114
Nsg115
Nsg1555
g1556
sg1667
F0.0
sg43
Nsg1146
Nsg34
Nsbag0
(g1475
g2
Ntp1704
Rp1705
(dp1706
g6
g7
sg8
I01
sg9
g4
sg1479
(lp1707
g1601
asg1506
g1601
sg10
Nsg42
Nsg1545
I00
sg17
g18
sg20
I00
sg23
Nsg24
Nsg25
Nsg11
Nsg28
I00
sg1147
Nsg30
(dp1708
sg32
I00
sg29
I00
sg88
Nsg33
Nsg96
Nsg86
I01
sg1547
I01
sg103
g0
(g104
g105
((lp1709
(lp1710
tp1711
tp1712
Rp1713
sg111
I0
sg1553
g1625
sg112
I00
sg114
Nsg1554
g1615
sg115
Nsg1555
g1556
sg43
Nsg1146
Nsg34
Nsbasg10
Nsg1656
Nsg42
Nsg17
g18
sg20
I00
sg23
Nsg24
Nsg25
Nsg1678
F8.0
sg11
Nsg28
I00
sg1659
Nsg1679
I0
sg29
I00
sg30
(dp1714
sg32
I00
sg1147
Nsg88
Nsg33
Nsg96
Nsg86
I01
sg103
g0
(g104
g105
((lp1715
(lp1716
tp1717
tp1718
Rp1719
sg111
I0
sg112
I00
sg114
Nsg1686
g1687
sg115
Nsg1555
g1556
sg43
Nsg1146
Nsg1688
g1689
sg34
Nsbasg10
Nsg1656
Nsg42
Nsg17
g18
sg20
I00
sg23
Nsg24
Nsg25
Nsg1678
F5.0
sg11
Nsg28
I00
sg1659
Nsg1679
I0
sg29
I00
sg30
(dp1720
sg32
I00
sg1147
Nsg88
Nsg33
Nsg96
Nsg86
I01
sg103
g0
(g104
g105
((lp1721
(lp1722
tp1723
tp1724
Rp1725
sg111
I0
sg112
I00
sg114
Nsg1686
g1687
sg115
Nsg1555
g1556
sg43
Nsg1146
Nsg1688
Vfixed
p1726
sg34
Nsbasg10
Nsg1656
Nsg42
Nsg17
g18
sg20
I00
sg23
Nsg24
Nsg25
Nsg1678
F20.0
sg11
Nsg28
I00
sg1659
Nsg1679
I0
sg29
I00
sg30
(dp1727
sg32
I00
sg1147
Nsg88
Nsg33
Nsg96
Nsg86
I01
sg103
g0
(g104
g105
((lp1728
(lp1729
tp1730
tp1731
Rp1732
sg111
I0
sg112
I00
sg114
Nsg1686
g1687
sg115
Nsg1555
g1556
sg43
Nsg1146
Nsg1688
Vfixed
p1733
sg34
Nsbsg20
I01
sg28
I00
sg23
Nsg24
Nsg25
NsS'_mode'
p1734
NsS'numpoints'
p1735
I1
sS'_bbox_to_anchor'
p1736
NsS'prop'
p1737
g1565
sS'_scatteryoffsets'
p1738
g132
(g133
(I0
tp1739
g135
tp1740
Rp1741
(I1
(I1
tp1742
g59
I00
S'\x00\x00\x00\x00\x00\x00\xd8?'
p1743
tp1744
bsS'_custom_handler_map'
p1745
Nsg29
I00
sg30
(dp1746
sS'_drawFrame'
p1747
I00
sg32
I00
sS'handlelength'
p1748
F2.0
sg1147
g1206
sg42
Nsg88
NsS'parent'
p1749
g1206
sS'legendPatch'
p1750
g0
(cmatplotlib.patches
FancyBboxPatch
p1751
g2
Ntp1752
Rp1753
(dp1754
g6
g7
sg40
F1.0
sg41
I01
sg9
g4
sS'_mutation_aspect'
p1755
Nsg10
Nsg42
Nsg17
g18
sg101
g102
sg43
Nsg20
I01
sg44
g0
(g45
g2
Ntp1756
Rp1757
(dp1758
g49
I1
sg50
Nsg51
g7
sg52
(dp1759
sbsg54
(F0.8
F0.8
F0.8
F0.8
tp1760
sg23
Nsg75
F0.0
sg76
F0.0
sg24
Nsg77
V0.8
p1761
sg11
Nsg28
I00
sg29
I00
sg30
(dp1762
sg32
I00
sg85
Nsg86
I01
sg87
F1.0
sg88
Nsg89
F1.0
sg33
Nsg90
g1760
sg91
Nsg92
I01
sg93
Nsg94
Vwhite
p1763
sg96
I01
sg97
(F1.0
F1.0
F1.0
F0.8
tp1764
sg99
g100
sS'_bbox_transmuter'
p1765
g0
(cmatplotlib.cbook
_NestedClassGetter
p1766
g2
Ntp1767
Rp1768
(cmatplotlib.patches
BoxStyle
p1769
S'Round'
p1770
tp1771
Rp1772
(dp1773
S'rounding_size'
p1774
F0.2
sg1679
I0
sbsS'_mutation_scale'
p1775
F10.0
sg103
g0
(g104
g105
((lp1776
(lp1777
tp1778
tp1779
Rp1780
sg111
I0
sg112
I01
sg114
F0.8
sg115
g0
(g45
g2
Ntp1781
Rp1782
(dp1783
g49
I1
sg50
Nsg51
g7
sg52
(dp1784
sbsg8
I01
sg1142
(NNtp1785
sg1144
g1145
sg1146
Nsg25
Nsg1147
g1206
sg34
Nsbsg33
NsS'scatterpoints'
p1786
I1
sS'labelspacing'
p1787
F0.5
sg96
Nsg86
I01
sS'_legend_box'
p1788
g0
(g1642
g2
Ntp1789
Rp1790
(dp1791
g6
g7
sg8
I01
sg9
g4
sg1479
(lp1792
g1477
ag1639
asg10
Nsg1656
Nsg42
Nsg17
g18
sg20
I00
sg23
Nsg24
Nsg25
Nsg1678
F5.0
sg11
Nsg28
I00
sg1659
Nsg1679
F4.0
sg29
I00
sg30
(dp1793
sg32
I00
sg1147
Nsg88
Nsg33
Nsg96
Nsg86
I01
sg103
g0
(g104
g105
((lp1794
(lp1795
tp1796
tp1797
Rp1798
sg111
I0
sg112
I00
sg114
Nsg1686
Vcenter
p1799
sg115
Nsg1555
g0
(cmatplotlib.cbook
_InstanceMethodPickler
p1800
g2
Ntp1801
Rp1802
(dp1803
S'parent_obj'
p1804
g1222
sS'instancemethod_name'
p1805
S'_findoffset_best'
p1806
sbsg43
Nsg1146
Nsg1688
g1726
sg34
NsbsS'shadow'
p1807
I00
sg103
g0
(g104
g105
((lp1808
(lp1809
tp1810
tp1811
Rp1812
sg111
I0
sg114
NsS'isaxes'
p1813
I01
sS'handleheight'
p1814
F0.7
sg112
I00
sS'_last_fontsize_points'
p1815
F10.0
sS'borderpad'
p1816
F0.4
sS'_ncol'
p1817
I1
sg115
g1782
sS'_loc_real'
p1818
I0
sg43
Nsg1146
Nsg34
Nsbsg12
(lp1819
sS'_frameon'
p1820
I01
sS'_autoscaleYon'
p1821
I00
sg14
I01
sg15
(lp1822
sg20
I01
sS'tables'
p1823
(lp1824
sg1165
(lp1825
sS'title'
p1826
g0
(g1481
g2
Ntp1827
Rp1828
(dp1829
g6
g7
sg8
I01
sg9
g4
sg10
Nsg1485
g0
(g1486
g2
Ntp1830
Rp1831
(dp1832
g1490
(lp1833
g1492
asg1493
Nsg1494
g1495
sg1496
g1495
sg1497
F14.399999999999999
sg1498
I400
sg1499
g1495
sbsg42
Nsg17
g18
sg1500
Nsg20
I01
sg23
Nsg75
F1.0
sg76
F0.5
sg24
Nsg25
Nsg11
Nsg28
I00
sg29
I00
sg30
(dp1834
sg1502
Nsg32
I00
sg1147
g1206
sg88
Nsg1146
Nsg1503
Nsg33
Nsg96
Nsg86
I01
sg1504
Vbaseline
p1835
sg1506
V
p1836
sg1508
Nsg103
g0
(g104
g105
((lp1837
(lp1838
tp1839
tp1840
Rp1841
sg111
I0
sg1514
Nsg112
I01
sg114
Nsg1515
F1.2
sg115
g404
sg1540
I00
sg1541
I00
sg43
Nsg1279
g1542
sg1543
Vcenter
p1842
sg34
NsbsS'_current_image'
p1843
NsS'mouseover_set'
p1844
c__builtin__
set
p1845
((lp1846
tp1847
Rp1848
sg11
NsS'_cursorProps'
p1849
(I1
(g55
(g59
S'\x00\x00\x00\x00\x00\x00\x00\x00'
p1850
tp1851
Rp1852
g55
(g59
S'\x00\x00\x00\x00\x00\x00\x00\x00'
p1853
tp1854
Rp1855
g55
(g59
S'\x00\x00\x00\x00\x00\x00\x00\x00'
p1856
tp1857
Rp1858
I1
tp1859
tp1860
sS'numRows'
p1861
I1
sS'collections'
p1862
(lp1863
sg1147
g1206
sg30
(dp1864
sg32
I00
sS'containers'
p1865
(lp1866
sg29
I00
sg88
NsS'_get_lines'
p1867
g0
(g1210
g2
Ntp1868
Rp1869
(dp1870
g1214
g1206
sg1215
Vplot
p1871
sbsS'_aspect'
p1872
Vauto
p1873
sS'fmt_xdata'
p1874
Nsg1154
g0
(g1155
g2
Ntp1875
Rp1876
I01
bsg96
Nsg97
g1763
sg86
I01
sg1159
g237
sS'ignore_existing_data_limits'
p1877
I00
sg24
Nsg111
I0
sg112
I00
sS'_left_title'
p1878
g0
(g1481
g2
Ntp1879
Rp1880
(dp1881
g6
g7
sg8
I01
sg9
g4
sg10
Nsg1485
g0
(g1486
g2
Ntp1882
Rp1883
(dp1884
g1490
g1833
sg1493
Nsg1494
g1495
sg1496
g1495
sg1497
F14.399999999999999
sg1498
I400
sg1499
g1495
sbsg42
Nsg17
g18
sg1500
Nsg20
I01
sg23
Nsg75
F1.0
sg76
F0.0
sg24
Nsg25
Nsg11
Nsg28
I00
sg29
I00
sg30
(dp1885
sg1502
Nsg32
I00
sg1147
g1206
sg88
Nsg1146
Nsg1503
Nsg33
Nsg96
Nsg86
I01
sg1504
Vbaseline
p1886
sg1506
V
p1887
sg1508
Nsg103
g0
(g104
g105
((lp1888
(lp1889
tp1890
tp1891
Rp1892
sg111
I0
sg1514
Nsg112
I01
sg114
Nsg1515
F1.2
sg115
g412
sg1540
I00
sg1541
I00
sg43
Nsg1279
g1542
sg1543
Vleft
p1893
sg34
NsbsS'_right_title'
p1894
g0
(g1481
g2
Ntp1895
Rp1896
(dp1897
g6
g7
sg8
I01
sg9
g4
sg10
Nsg1485
g0
(g1486
g2
Ntp1898
Rp1899
(dp1900
g1490
g1833
sg1493
Nsg1494
g1495
sg1496
g1495
sg1497
F14.399999999999999
sg1498
I400
sg1499
g1495
sbsg42
Nsg17
g18
sg1500
Nsg20
I01
sg23
Nsg75
F1.0
sg76
F1.0
sg24
Nsg25
Nsg11
Nsg28
I00
sg29
I00
sg30
(dp1901
sg1502
Nsg32
I00
sg1147
g1206
sg88
Nsg1146
Nsg1503
Nsg33
Nsg96
Nsg86
I01
sg1504
g1886
sg1506
V
p1902
sg1508
Nsg103
g0
(g104
g105
((lp1903
(lp1904
tp1905
tp1906
Rp1907
sg111
I0
sg1514
Nsg112
I01
sg114
Nsg1515
F1.2
sg115
g416
sg1540
I00
sg1541
I00
sg43
Nsg1279
g1542
sg1543
Vright
p1908
sg34
NsbsS'transScale'
p1909
g191
sg115
NsS'axison'
p1910
I01
sS'patch'
p1911
g0
(g36
g2
Ntp1912
Rp1913
(dp1914
g6
g7
sg40
F1.0
sg41
I01
sg9
g4
sg8
I01
sg10
Nsg42
Nsg17
g18
sg43
Nsg20
I01
sg44
g0
(g45
g2
Ntp1915
Rp1916
(dp1917
g49
I1
sg50
Nsg51
g7
sg52
(dp1918
sbsg54
(F0.0
F0.0
F0.0
F0.0
tp1919
sg23
Nsg75
F0.0
sg76
F0.0
sg24
Nsg77
VNone
p1920
sg11
Nsg28
I00
sg29
I00
sg30
(dp1921
sg80
g433
sg32
I00
sg85
Nsg86
I01
sg87
F0.0
sg88
Nsg89
F1.0
sg33
Nsg90
g1919
sg91
Nsg92
I01
sg93
Nsg94
g1763
sg96
Nsg97
g98
sg99
g100
sg101
g102
sg103
g0
(g104
g105
((lp1922
(lp1923
tp1924
tp1925
Rp1926
sg111
I0
sg112
I01
sg113
F0.0
sg114
Nsg115
g234
sg1142
(NNtp1927
sg1144
g1145
sg1146
Nsg25
Nsg1147
Nsg34
NsbsS'viewLim'
p1928
g200
sg17
g18
sS'_subplotspec'
p1929
g1180
sS'_adjustable'
p1930
Vdatalim
p1931
sg9
g4
sS'titleOffsetTrans'
p1932
g407
sS'_yaxis_transform'
p1933
g184
sS'_gridOn'
p1934
I00
sg10
NsS'colNum'
p1935
I0
sg42
Nsg1149
(lp1936
sS'_autoscaleXon'
p1937
I01
sS'_xmargin'
p1938
F0.05
sS'rowNum'
p1939
I0
sS'_position'
p1940
g240
sS'_rasterization_zorder'
p1941
NsS'_cachedRenderer'
p1942
NsS'_navigate'
p1943
I01
sg23
NsS'_originalPosition'
p1944
g0
(g127
g2
Ntp1945
Rp1946
(dp1947
g49
I1
sg131
g132
(g133
(I0
tp1948
g135
tp1949
Rp1950
(I1
(I2
tp1951
g59
I00
S'\x00\x00\x00\x00\x00\x00\xf0\x7f\x00\x00\x00\x00\x00\x00\xf0\x7f'
p1952
tp1953
bsg52
(dp1954
sg142
g132
(g133
(I0
tp1955
g135
tp1956
Rp1957
(I1
(I2
I2
tp1958
g59
I00
S'\x00\x00\x00\x00\x00\x00\xc0?\x00\x00\x00\x00\x00\x00\xc0?\xcd\xcc\xcc\xcc\xcc\xcc\xec?)\\\x8f\xc2\xf5(\xec?'
p1959
tp1960
bsg149
g132
(g133
(I0
tp1961
g135
tp1962
Rp1963
(I1
(I2
I2
tp1964
g59
I00
S'\x00\x00\x00\x00\x00\x00\xc0?\x00\x00\x00\x00\x00\x00\xc0?\xcd\xcc\xcc\xcc\xcc\xcc\xec?)\\\x8f\xc2\xf5(\xec?'
p1965
tp1966
bsg156
I01
sg51
g7
sbsg25
NsS'_xaxis_transform'
p1967
g508
sg28
I00
sS'figbox'
p1968
g240
sS'xaxis'
p1969
g0
(cmatplotlib.axis
XAxis
p1970
g2
Ntp1971
Rp1972
(dp1973
g6
g7
sS'major'
p1974
g0
(cmatplotlib.axis
Ticker
p1975
g2
Ntp1976
Rp1977
(dp1978
S'locator'
p1979
g0
(cmatplotlib.ticker
FixedLocator
p1980
g2
Ntp1981
Rp1982
(dp1983
S'locs'
p1984
g132
(g133
(I0
tp1985
g135
tp1986
Rp1987
(I1
(I5
tp1988
g56
(S'i8'
p1989
I0
I1
tp1990
Rp1991
(I3
S'<'
p1992
NNNI-1
I-1
I0
tp1993
bI00
S'\x01\x00\x00\x00\x00\x00\x00\x00\x03\x00\x00\x00\x00\x00\x00\x00\x05\x00\x00\x00\x00\x00\x00\x00\x07\x00\x00\x00\x00\x00\x00\x00\t\x00\x00\x00\x00\x00\x00\x00'
p1994
tp1995
bsS'axis'
p1996
g0
(g1970
g2
Ntp1997
Rp1998
(dp1999
g6
g7
sg1974
g1977
sS'isDefault_label'
p2000
I01
sS'_scale'
p2001
g0
(cmatplotlib.scale
LinearScale
p2002
g2
Ntp2003
Rp2004
sg9
g4
sg8
I00
sS'_gridOnMinor'
p2005
I00
sg10
Nsg42
NsS'_smart_bounds'
p2006
I00
sg17
g18
sg20
I01
sg23
NsS'offsetText'
p2007
g0
(g1481
g2
Ntp2008
Rp2009
(dp2010
g6
g7
sg8
I01
sg9
g4
sg10
Nsg1485
g0
(g1486
g2
Ntp2011
Rp2012
(dp2013
g1490
(lp2014
g1492
asg1493
Nsg1494
g1495
sg1496
g1495
sg1497
F10.0
sg1498
I400
sg1499
g1495
sbsg42
Nsg17
g18
sg1500
Nsg20
I01
sg23
Nsg75
I0
sg76
I1
sg24
Nsg25
Nsg11
Nsg28
I00
sg29
I00
sg30
(dp2015
sg1502
Nsg32
I00
sg1147
Nsg88
Nsg1146
Nsg1503
Nsg33
Nsg96
Nsg86
I01
sg1504
Vtop
p2016
sg1506
V
p2017
sg1508
Nsg103
g0
(g104
g105
((lp2018
(lp2019
tp2020
tp2021
Rp2022
sg111
I0
sg1514
Nsg112
I01
sg114
Nsg1515
F1.2
sg115
g1063
sg1540
I00
sg1541
I00
sg43
Nsg1279
V.15
p2023
sg1543
Vright
p2024
sg34
Nsbsg24
Nsg25
Nsg11
NsS'label'
p2025
g0
(g1481
g2
Ntp2026
Rp2027
(dp2028
g6
g7
sg8
I01
sg9
g4
sg10
Nsg1485
g0
(g1486
g2
Ntp2029
Rp2030
(dp2031
g1490
(lp2032
g1492
asg1493
Nsg1494
g1495
sg1496
g1495
sg1497
F12.0
sg1498
I400
sg1499
g1495
sbsg42
Nsg17
g18
sg1500
Nsg20
I01
sg23
Nsg75
I0
sg76
F0.5
sg24
Nsg25
Nsg11
Nsg28
I00
sg29
I00
sg30
(dp2033
sg1502
Nsg32
I00
sg1147
Nsg88
Nsg1146
Nsg1503
Nsg33
Nsg96
Nsg86
I01
sg1504
Vtop
p2034
sg1506
V
p2035
sg1508
Nsg103
g0
(g104
g105
((lp2036
(lp2037
tp2038
tp2039
Rp2040
sg111
I0
sg1514
Nsg112
I01
sg114
Nsg1515
F1.2
sg115
g764
sg1540
I00
sg1541
I00
sg43
Nsg1279
V.15
p2041
sg1543
Vcenter
p2042
sg34
Nsbsg28
I00
sS'isDefault_majfmt'
p2043
I00
sg29
I00
sg30
(dp2044
sS'units'
p2045
Nsg32
I00
sS'minor'
p2046
g0
(g1975
g2
Ntp2047
Rp2048
(dp2049
g1979
g0
(cmatplotlib.ticker
NullLocator
p2050
g2
Ntp2051
Rp2052
(dp2053
g1996
g1998
sbsS'formatter'
p2054
g0
(cmatplotlib.ticker
NullFormatter
p2055
g2
Ntp2056
Rp2057
(dp2058
g1996
g1998
sbsbsg1147
g0
(g1201
g2
Ntp2059
Rp2060
(g1204
tp2061
Rp2062
(dp2063
g1208
g710
sg1209
g0
(g1210
g2
Ntp2064
Rp2065
(dp2066
g1214
g2062
sg1215
g1216
sbsg1217
I1
sg6
V
p2067
sg1219
Nsg12
(lp2068
sg1820
I01
sg1821
I00
sg14
I01
sg15
(lp2069
sg20
I01
sg1823
(lp2070
sg1165
(lp2071
sg1826
g0
(g1481
g2
Ntp2072
Rp2073
(dp2074
g6
g7
sg8
I01
sg9
g4
sg10
Nsg1485
g0
(g1486
g2
Ntp2075
Rp2076
(dp2077
g1490
(lp2078
g1492
asg1493
Nsg1494
g1495
sg1496
g1495
sg1497
F14.399999999999999
sg1498
I400
sg1499
g1495
sbsg42
Nsg17
g18
sg1500
Nsg20
I01
sg23
Nsg75
F1.0
sg76
F0.5
sg24
Nsg25
Nsg11
Nsg28
I00
sg29
I00
sg30
(dp2079
sg1502
Nsg32
I00
sg1147
g2062
sg88
Nsg1146
Nsg1503
Nsg33
Nsg96
Nsg86
I01
sg1504
g1835
sg1506
V
p2080
sg1508
Nsg103
g0
(g104
g105
((lp2081
(lp2082
tp2083
tp2084
Rp2085
sg111
I0
sg1514
Nsg112
I01
sg114
Nsg1515
F1.2
sg115
g747
sg1540
I00
sg1541
I00
sg43
Nsg1279
g1542
sg1543
g1842
sg34
Nsbsg1843
Nsg1844
g1845
((lp2086
tp2087
Rp2088
sg11
Nsg1849
(I1
g1859
tp2089
sg1861
I1
sg1862
(lp2090
sg1147
g2062
sg30
(dp2091
sg32
I00
sg1865
(lp2092
sg29
I00
sg88
Nsg1867
g0
(g1210
g2
Ntp2093
Rp2094
(dp2095
g1214
g2062
sg1215
g1871
sbsg1872
g1873
sg1874
Nsg1154
g0
(g1155
g2
Ntp2096
Rp2097
I01
bsg96
Nsg97
g1763
sg86
I01
sg1159
g720
sg1877
I00
sg24
Nsg111
I0
sg112
I00
sg1878
g0
(g1481
g2
Ntp2098
Rp2099
(dp2100
g6
g7
sg8
I01
sg9
g4
sg10
Nsg1485
g0
(g1486
g2
Ntp2101
Rp2102
(dp2103
g1490
g2078
sg1493
Nsg1494
g1495
sg1496
g1495
sg1497
F14.399999999999999
sg1498
I400
sg1499
g1495
sbsg42
Nsg17
g18
sg1500
Nsg20
I01
sg23
Nsg75
F1.0
sg76
F0.0
sg24
Nsg25
Nsg11
Nsg28
I00
sg29
I00
sg30
(dp2104
sg1502
Nsg32
I00
sg1147
g2062
sg88
Nsg1146
Nsg1503
Nsg33
Nsg96
Nsg86
I01
sg1504
g1886
sg1506
V
p2105
sg1508
Nsg103
g0
(g104
g105
((lp2106
(lp2107
tp2108
tp2109
Rp2110
sg111
I0
sg1514
Nsg112
I01
sg114
Nsg1515
F1.2
sg115
g755
sg1540
I00
sg1541
I00
sg43
Nsg1279
g1542
sg1543
g1893
sg34
Nsbsg1894
g0
(g1481
g2
Ntp2111
Rp2112
(dp2113
g6
g7
sg8
I01
sg9
g4
sg10
Nsg1485
g0
(g1486
g2
Ntp2114
Rp2115
(dp2116
g1490
g2078
sg1493
Nsg1494
g1495
sg1496
g1495
sg1497
F14.399999999999999
sg1498
I400
sg1499
g1495
sbsg42
Nsg17
g18
sg1500
Nsg20
I01
sg23
Nsg75
F1.0
sg76
F1.0
sg24
Nsg25
Nsg11
Nsg28
I00
sg29
I00
sg30
(dp2117
sg1502
Nsg32
I00
sg1147
g2062
sg88
Nsg1146
Nsg1503
Nsg33
Nsg96
Nsg86
I01
sg1504
g1886
sg1506
V
p2118
sg1508
Nsg103
g0
(g104
g105
((lp2119
(lp2120
tp2121
tp2122
Rp2123
sg111
I0
sg1514
Nsg112
I01
sg114
Nsg1515
F1.2
sg115
g759
sg1540
I00
sg1541
I00
sg43
Nsg1279
g1542
sg1543
g1908
sg34
Nsbsg1909
g680
sg115
Nsg1910
I01
sg1911
g0
(g36
g2
Ntp2124
Rp2125
(dp2126
g6
g7
sg40
F1.0
sg41
I01
sg9
g4
sg8
I00
sg10
Nsg42
Nsg17
g18
sg43
Nsg20
I01
sg44
g0
(g45
g2
Ntp2127
Rp2128
(dp2129
g49
I1
sg50
Nsg51
g7
sg52
(dp2130
sbsg54
g1919
sg23
Nsg75
F0.0
sg76
F0.0
sg24
Nsg77
g1920
sg11
Nsg28
I00
sg29
I00
sg30
(dp2131
sg80
g918
sg32
I00
sg85
Nsg86
I01
sg87
F0.0
sg88
Nsg89
F1.0
sg33
Nsg90
g1919
sg91
Nsg92
I01
sg93
Nsg94
g1763
sg96
Nsg97
g98
sg99
g100
sg101
g102
sg103
g0
(g104
g105
((lp2132
(lp2133
tp2134
tp2135
Rp2136
sg111
I0
sg112
I01
sg113
F0.0
sg114
Nsg115
g717
sg1142
(NNtp2137
sg1144
g1145
sg1146
Nsg25
Nsg1147
Nsg34
Nsbsg1928
g687
sg17
g18
sg1929
g1180
sg1930
g1931
sg9
g4
sg1932
g750
sg1933
g674
sg1934
I00
sg10
Nsg1935
I0
sg42
Nsg1149
(lp2138
sg1937
I01
sg1938
F0.05
sg1939
I0
sg1940
g723
sg1941
Nsg1942
Nsg1943
I01
sg23
Nsg1944
g0
(g127
g2
Ntp2139
Rp2140
(dp2141
g49
I1
sg131
g132
(g133
(I0
tp2142
g135
tp2143
Rp2144
(I1
(I2
tp2145
g59
I00
S'\x00\x00\x00\x00\x00\x00\xf0\x7f\x00\x00\x00\x00\x00\x00\xf0\x7f'
p2146
tp2147
bsg52
(dp2148
sg142
g132
(g133
(I0
tp2149
g135
tp2150
Rp2151
(I1
(I2
I2
tp2152
g59
I00
S'\x00\x00\x00\x00\x00\x00\xc0?\x00\x00\x00\x00\x00\x00\xc0?\xcd\xcc\xcc\xcc\xcc\xcc\xec?)\\\x8f\xc2\xf5(\xec?'
p2153
tp2154
bsg149
g132
(g133
(I0
tp2155
g135
tp2156
Rp2157
(I1
(I2
I2
tp2158
g59
I00
S'\x00\x00\x00\x00\x00\x00\xc0?\x00\x00\x00\x00\x00\x00\xc0?\xcd\xcc\xcc\xcc\xcc\xcc\xec?)\\\x8f\xc2\xf5(\xec?'
p2159
tp2160
bsg156
I01
sg51
g7
sbsg25
Nsg1967
g780
sg28
I00
sg1968
g723
sg1969
g1998
sS'_navigate_mode'
p2161
Nsg34
NsS'transAxes'
p2162
g717
sS'_connected'
p2163
(dp2164
sS'fmt_ydata'
p2165
NsS'dataLim'
p2166
g0
(g127
g2
Ntp2167
Rp2168
(dp2169
g49
I0
sg131
g132
(g133
(I0
tp2170
g135
tp2171
Rp2172
(I1
(I2
tp2173
g59
I00
S'\x00\x00\x00\x00\x00\x00\xf0?\x19\n\xfe]\x84\x9e\x00@'
p2174
tp2175
bsg52
(dp2176
sg142
g132
(g133
(I0
tp2177
g135
tp2178
Rp2179
(I1
(I2
I2
tp2180
g59
I00
S'\x00\x00\x00\x00\x00\x00\xf0\x7f\x00\x00\x00\x00\x00\x00\xf0\x7f\x00\x00\x00\x00\x00\x00\xf0\xff\x00\x00\x00\x00\x00\x00\xf0\xff'
p2181
tp2182
bsg149
g132
(g133
(I0
tp2183
g135
tp2184
Rp2185
(I1
(I2
I2
tp2186
g59
I00
S'\x00\x00\x00\x00\x00\x00\xf0?\x19\n\xfe]\x84\x9e\x00@\x00\x00\x00\x00\x00\x00"@\xf5y\x95\xc5*\xf9\x13@'
p2187
tp2188
bsg156
I01
sg51
g7
sbsS'transData'
p2189
g677
sg33
NsS'_sharey'
p2190
NsS'_sharex'
p2191
g1206
sS'axesPatch'
p2192
g2125
sS'_ymargin'
p2193
F0.05
sS'_axes_locator'
p2194
Nsg103
g0
(g104
g105
((lp2195
(lp2196
tp2197
tp2198
Rp2199
sS'numCols'
p2200
I1
sg114
Nsg1158
NsS'yaxis'
p2201
g0
(cmatplotlib.axis
YAxis
p2202
g2
Ntp2203
Rp2204
(dp2205
g6
g7
sg1974
g0
(g1975
g2
Ntp2206
Rp2207
(dp2208
g1979
g0
(cmatplotlib.ticker
LogLocator
p2209
g2
Ntp2210
Rp2211
(dp2212
S'_subs'
p2213
g132
(g133
(I0
tp2214
g135
tp2215
Rp2216
(I1
(I1
tp2217
g59
I00
S'\x00\x00\x00\x00\x00\x00\xf0?'
p2218
tp2219
bsS'numdecs'
p2220
I4
sS'_base'
p2221
F10.0
sS'numticks'
p2222
Vauto
p2223
sg1996
g2204
sbsg2054
g0
(cmatplotlib.ticker
LogFormatterSciNotation
p2224
g2
Ntp2225
Rp2226
(dp2227
S'minor_thresholds'
p2228
(I1
F0.4
tp2229
sS'_sublabels'
p2230
NsS'labelOnlyBase'
p2231
I00
sg2221
F10.0
sS'_linthresh'
p2232
Nsg1996
g2204
sbsbsg2000
I00
sg2001
g0
(cmatplotlib.scale
LogScale
p2233
g2
Ntp2234
Rp2235
(dp2236
g115
g1076
sS'subs'
p2237
NsS'base'
p2238
F10.0
sbsg9
g4
sg8
I01
sg2005
I00
sg10
Nsg42
Nsg2006
I00
sg17
g18
sg20
I01
sg23
Nsg2007
g0
(g1481
g2
Ntp2239
Rp2240
(dp2241
g6
g7
sg8
I01
sg9
g4
sg10
Nsg1485
g0
(g1486
g2
Ntp2242
Rp2243
(dp2244
g1490
(lp2245
g1492
asg1493
Nsg1494
g1495
sg1496
g1495
sg1497
F10.0
sg1498
I400
sg1499
g1495
sbsg42
Nsg17
g18
sg1500
Nsg20
I01
sg23
Nsg75
F0.5
sg76
I1
sg24
Nsg25
Nsg11
Nsg28
I00
sg29
I00
sg30
(dp2246
sg1502
Nsg32
I00
sg1147
Nsg88
Nsg1146
Nsg1503
Nsg33
Nsg96
Nsg86
I01
sg1504
Vbaseline
p2247
sg1506
V
p2248
sg1508
Nsg103
g0
(g104
g105
((lp2249
(lp2250
tp2251
tp2252
Rp2253
sg111
I0
sg1514
Nsg112
I01
sg114
Nsg1515
F1.2
sg115
g772
sg1540
I00
sg1541
I00
sg43
Nsg1279
V.15
p2254
sg1543
Vright
p2255
sg34
Nsbsg24
Nsg25
Nsg11
Nsg2025
g0
(g1481
g2
Ntp2256
Rp2257
(dp2258
g6
g7
sg8
I01
sg9
g4
sg10
Nsg1485
g0
(g1486
g2
Ntp2259
Rp2260
(dp2261
g1490
(lp2262
g1492
asg1493
Nsg1494
g1495
sg1496
g1495
sg1497
F12.0
sg1498
I400
sg1499
g1495
sbsg42
Nsg17
g18
sg1500
Nsg20
I01
sg23
Nsg75
F0.5
sg76
I0
sg24
Nsg25
Nsg11
Nsg28
I00
sg29
I00
sg30
(dp2263
sg1502
Nsg32
I00
sg1147
Nsg88
Nsg1146
Nsg1503
Vanchor
p2264
sg33
Nsg96
Nsg86
I01
sg1504
Vtop
p2265
sg1506
VE/I Ratio (P)
p2266
sg1508
Nsg103
g0
(g104
g105
((lp2267
(lp2268
tp2269
tp2270
Rp2271
sg111
I0
sg1514
Vvertical
p2272
sg112
I01
sg114
Nsg1515
F1.2
sg115
g985
sg1540
I00
sg1541
I00
sg43
Nsg1279
g2041
sg1543
Vcenter
p2273
sg34
Nsbsg28
I00
sg2043
I01
sg29
I00
sg30
(dp2274
sg2045
Nsg32
I00
sg2046
g0
(g1975
g2
Ntp2275
Rp2276
(dp2277
g1979
g0
(g2209
g2
Ntp2278
Rp2279
(dp2280
g2213
Vauto
p2281
sg2220
I4
sg2221
F10.0
sg2222
g2223
sg1996
g2204
sbsg2054
g0
(g2224
g2
Ntp2282
Rp2283
(dp2284
g2228
g2229
sg2230
Nsg2231
I00
sg2221
F10.0
sg2232
Nsg1996
g2204
sbsbsg1147
g2062
sS'_major_tick_kw'
p2285
(dp2286
Vlabel1On
p2287
I00
sVgridOn
p2288
I00
sVlabel2On
p2289
I01
sVtick1On
p2290
I00
sVtick2On
p2291
I01
ssS'isDefault_minloc'
p2292
I01
sg88
g889
sg33
NsS'_gridOnMajor'
p2293
I00
sS'_lastNumMinorTicks'
p2294
I1
sS'labelpad'
p2295
F4.0
sS'majorTicks'
p2296
(lp2297
g0
(cmatplotlib.axis
YTick
p2298
g2
Ntp2299
Rp2300
(dp2301
g6
g7
sg40
F0.8
sg9
g4
sS'tick1On'
p2302
I00
sg8
I01
sg10
Nsg111
I0
sg42
NsS'_pad'
p2303
F3.5
sS'_labelcolor'
p2304
g2254
sS'gridOn'
p2305
I00
sg1497
F0.0
sg17
g18
sS'_tickdir'
p2306
Vout
p2307
sg2025
g0
(g1481
g2
Ntp2308
Rp2309
(dp2310
g6
g7
sg8
I01
sg9
g4
sg10
Nsg1485
g0
(g1486
g2
Ntp2311
Rp2312
(dp2313
g1490
(lp2314
g1492
asg1493
Nsg1494
g1495
sg1496
g1495
sg1497
F10.0
sg1498
I400
sg1499
g1495
sbsg42
Nsg17
g18
sg1500
Nsg20
I01
sg23
Nsg75
I0
sg76
I0
sg24
Nsg25
Nsg11
Nsg28
I00
sg29
I00
sg30
(dp2315
sg1502
Nsg32
I00
sg1147
Nsg88
Nsg1146
Nsg1503
Nsg33
Nsg96
Nsg86
I01
sg1504
Vcenter_baseline
p2316
sg1506
V
p2317
sg1508
Nsg103
g0
(g104
g105
((lp2318
(lp2319
tp2320
tp2321
Rp2322
sg111
I0
sg1514
Nsg112
I01
sg114
Nsg1515
F1.2
sg115
g1122
sg1540
I00
sg1541
I00
sg43
Nsg1279
g2254
sg1543
Vright
p2323
sg34
Nsbsg20
I01
sg23
NsS'label2On'
p2324
I01
sg24
Nsg25
Nsg11
NsS'tick2On'
p2325
I01
sg28
I00
sg29
I00
sg30
(dp2326
sS'_tickmarkers'
p2327
(I0
I1
tp2328
sg32
I00
sS'_zorder'
p2329
F2.01
sg1147
g2062
sS'label1On'
p2330
I00
sg88
Nsg1146
NsS'label1'
p2331
g2309
sS'label2'
p2332
g0
(g1481
g2
Ntp2333
Rp2334
(dp2335
g6
g7
sg8
I01
sg9
g4
sg10
Nsg1485
g0
(g1486
g2
Ntp2336
Rp2337
(dp2338
g1490
(lp2339
g1492
asg1493
Nsg1494
g1495
sg1496
g1495
sg1497
F10.0
sg1498
I400
sg1499
g1495
sbsg42
Nsg17
g18
sg1500
Nsg20
I01
sg23
Nsg75
I0
sg76
I1
sg24
Nsg25
Nsg11
Nsg28
I00
sg29
I00
sg30
(dp2340
sg1502
Nsg32
I00
sg1147
Nsg88
Nsg1146
Nsg1503
Nsg33
Nsg96
Nsg86
I01
sg1504
g2316
sg1506
V
p2341
sg1508
Nsg103
g0
(g104
g105
((lp2342
(lp2343
tp2344
tp2345
Rp2346
sg111
I0
sg1514
Nsg112
I01
sg114
Nsg1515
F1.2
sg115
g1131
sg1540
I00
sg1541
I00
sg43
Nsg1279
g2254
sg1543
Vleft
p2347
sg34
Nsbsg96
NsS'_loc'
p2348
I0
sg86
I01
sg103
g0
(g104
g105
((lp2349
(lp2350
tp2351
tp2352
Rp2353
sS'_base_pad'
p2354
F3.5
sS'tick1line'
p2355
g0
(g1227
g2
Ntp2356
Rp2357
(dp2358
g49
I01
sg6
g7
sg1232
g1233
sg1234
Nsg20
I01
sg1235
Nsg1236
I0
sg75
Nsg76
Nsg24
Nsg11
Nsg29
I00
sg30
(dp2359
sg32
I00
sg1147
Nsg1238
F0.8
sg1239
Nsg1240
g1241
sg1242
g1243
sg96
Nsg86
I01
sg1244
(I0
tp2360
sg111
I0
sg112
I01
sg1251
I01
sg1252
I01
sg115
g1100
sg1278
NsS'zorder'
p2361
F2.01
sg1279
g2254
sg1280
I5
sg9
g4
sg1287
Nsg10
Nsg42
Nsg17
g18
sg1289
g1290
sg23
Nsg25
Nsg28
I00
sg1291
Nsg34
Nsg1292
Nsg1293
g0
(g1294
g2
Ntp2362
Rp2363
(dp2364
g1293
I0
sg1299
Nsg1300
F1.0
sg115
g0
(g157
g2
Ntp2365
Rp2366
(dp2367
g49
I2
sg50
Nsg120
g132
(g133
(I0
tp2368
g135
tp2369
Rp2370
(I1
(I3
I3
tp2371
g59
I00
S'\x00\x00\x00\x00\x00\x00\xf0\xbf\x00\x00\x00\x00\x00\x00\x00\x00\x00\x00\x00\x00\x00\x00\x00\x00\x00\x00\x00\x00\x00\x00\x00\x00\x00\x00\x00\x00\x00\x00\xf0?\x00\x00\x00\x00\x00\x00\x00\x00\x00\x00\x00\x00\x00\x00\x00\x00\x00\x00\x00\x00\x00\x00\x00\x00\x00\x00\x00\x00\x00\x00\xf0?'
p2372
tp2373
bsg51
g7
sg52
(dp2374
sbsg1305
I00
sg1306
g1307
sg1308
Nsg1144
g1309
sg99
g1310
sg1311
g0
(g1312
g2
Ntp2375
Rp2376
(dp2377
g1316
I00
sg1317
Nsg1318
g132
(g133
(I0
tp2378
g135
tp2379
Rp2380
(I1
(I2
I2
tp2381
g59
I00
S'\x00\x00\x00\x00\x00\x00\x00\x00\x00\x00\x00\x00\x00\x00\x00\x00\x00\x00\x00\x00\x00\x00\xf0?\x00\x00\x00\x00\x00\x00\x00\x00'
p2382
tp2383
bsg1325
I00
sg1326
F0.1111111111111111
sg1327
I1
sg1328
I00
sbsbsg1329
g1330
sg88
Nsg33
Nsg92
I01
sg1331
Nsg101
VNone
p2384
sg103
g0
(g104
g105
((lp2385
(lp2386
tp2387
tp2388
Rp2389
sg1338
I00
sg1339
g1340
sg1341
g1290
sg1342
Nsg114
Nsg1343
g1290
sg1344
F0.0
sg8
I01
sg1288
Nsg43
Nsg1146
Nsg1346
(I0
tp2390
sg87
F1.0
sg1311
Nsbsg112
I00
sS'gridline'
p2391
g0
(g1227
g2
Ntp2392
Rp2393
(dp2394
g49
I01
sg6
g7
sg1232
g1233
sg1234
Nsg20
I01
sg1235
Nsg1236
I0
sg75
g132
(g133
(I0
tp2395
g135
tp2396
Rp2397
(I1
(I2
tp2398
g59
I00
S'\x00\x00\x00\x00\x00\x00\x00\x00\x00\x00\x00\x00\x00\x00\x00\x00'
p2399
tp2400
bsg76
g132
(g133
(I0
tp2401
g135
tp2402
Rp2403
(I1
(I2
tp2404
g59
I00
S'\x00\x00\x00\x00\x00\x00\x00\x00\x00\x00\x00\x00\x00\x00\xf0?'
p2405
tp2406
bsg24
Nsg11
Nsg29
I00
sg30
(dp2407
sg32
I00
sg1147
Nsg1238
F1.0
sg1239
Nsg1240
g1241
sg1242
g1243
sg96
Nsg86
I01
sg1244
(I0
I1
tp2408
sg111
I0
sg112
I01
sg1251
I00
sg1252
I00
sg115
g674
sg1278
Nsg1279
V.8
p2409
sg1280
I5
sg9
g4
sg1287
Nsg10
Nsg42
Nsg17
g18
sg1289
g1290
sg23
Nsg25
Nsg28
I00
sg1291
Nsg34
Nsg1292
Nsg1293
g0
(g1294
g2
Ntp2410
Rp2411
(dp2412
g1293
g1298
sg1299
Nsg1300
Nsg115
g0
(g45
g2
Ntp2413
Rp2414
(dp2415
g49
I1
sg50
Nsg51
g7
sg52
(dp2416
sbsg1305
I00
sg1306
g1307
sg1308
Nsg1144
g1309
sg99
g1310
sg1311
g0
(g1312
g2
Ntp2417
Rp2418
(dp2419
g1316
I00
sg1317
Nsg1318
g132
(g133
(I0
tp2420
g135
tp2421
Rp2422
(I1
(I0
I2
tp2423
g59
I00
g1323
tp2424
bsg1325
I00
sg1326
F0.1111111111111111
sg1327
I1
sg1328
I00
sbsbsg1329
g1330
sg88
Nsg33
Nsg92
I01
sg1331
g132
(g133
(I0
tp2425
g135
tp2426
Rp2427
(I1
(I2
I2
tp2428
g59
I00
S'\x00\x00\x00\x00\x00\x00\x00\x00\x00\x00\x00\x00\x00\x00\x00\x00\x00\x00\x00\x00\x00\x00\xf0?\x00\x00\x00\x00\x00\x00\x00\x00'
p2429
tp2430
bsg101
V-
p2431
sg103
g0
(g104
g105
((lp2432
(lp2433
tp2434
tp2435
Rp2436
sg1338
I00
sg1339
g1340
sg1341
g1290
sg1342
Nsg114
F1.0
sg1343
g1290
sg1344
F0.0
sg8
I01
sg1288
Nsg43
Nsg1146
Nsg1346
(I0
I0
tp2437
sg87
F0.8
sg1311
g0
(g1312
g2
Ntp2438
Rp2439
(dp2440
g1316
I00
sg1317
Nsg1318
g2427
sg1325
I00
sg1326
F0.1111111111111111
sg1327
I180
sg1328
I00
sbsbsg114
Nsg33
NsS'tick2line'
p2441
g0
(g1227
g2
Ntp2442
Rp2443
(dp2444
g49
I01
sg6
g7
sg1232
g1233
sg1234
Nsg20
I01
sg1235
Nsg1236
I0
sg75
Nsg76
Nsg24
Nsg11
Nsg29
I00
sg30
(dp2445
sg32
I00
sg1147
Nsg1238
F0.8
sg1239
Nsg1240
g1241
sg1242
g1243
sg96
Nsg86
I01
sg1244
(I1
tp2446
sg111
I0
sg112
I01
sg1251
I01
sg1252
I01
sg115
g674
sg1278
Nsg2361
F2.01
sg1279
g2254
sg1280
I5
sg9
g4
sg1287
Nsg10
Nsg42
Nsg17
g18
sg1289
g1290
sg23
Nsg25
Nsg28
I00
sg1291
Nsg34
Nsg1292
Nsg1293
g0
(g1294
g2
Ntp2447
Rp2448
(dp2449
g1293
I1
sg1299
Nsg1300
F1.0
sg115
g0
(g157
g2
Ntp2450
Rp2451
(dp2452
g49
I2
sg50
Nsg120
g132
(g133
(I0
tp2453
g135
tp2454
Rp2455
(I1
(I3
I3
tp2456
g59
I00
S'\x00\x00\x00\x00\x00\x00\xf0?\x00\x00\x00\x00\x00\x00\x00\x00\x00\x00\x00\x00\x00\x00\x00\x00\x00\x00\x00\x00\x00\x00\x00\x00\x00\x00\x00\x00\x00\x00\xf0?\x00\x00\x00\x00\x00\x00\x00\x00\x00\x00\x00\x00\x00\x00\x00\x00\x00\x00\x00\x00\x00\x00\x00\x00\x00\x00\x00\x00\x00\x00\xf0?'
p2457
tp2458
bsg51
g7
sg52
(dp2459
sbsg1305
I00
sg1306
g1307
sg1308
Nsg1144
g1309
sg99
g1310
sg1311
g2376
sbsg1329
g1330
sg88
Nsg33
Nsg92
I01
sg1331
Nsg101
VNone
p2460
sg103
g0
(g104
g105
((lp2461
(lp2462
tp2463
tp2464
Rp2465
sg1338
I00
sg1339
g1340
sg1341
g1290
sg1342
Nsg114
Nsg1343
g1290
sg1344
F0.0
sg8
I01
sg1288
Nsg43
Nsg1146
Nsg1346
(I0
tp2466
sg87
F1.0
sg1311
Nsbsg115
NsS'_labelsize'
p2467
F10.0
sS'_name'
p2468
Vytick
p2469
sg43
Nsg1279
g2254
sg34
NsbasS'isDefault_majloc'
p2470
I01
sg1154
g0
(g1155
g2
Ntp2471
Rp2472
I01
bsg96
Nsg86
I01
sS'_autolabelpos'
p2473
I01
sg103
g0
(g104
g105
((lp2474
(lp2475
tp2476
tp2477
Rp2478
sg111
I0
sS'_lastNumMajorTicks'
p2479
I1
sS'converter'
p2480
Nsg112
I00
sg114
NsS'offset_text_position'
p2481
Vleft
p2482
sg115
NsS'label_position'
p2483
Vright
p2484
sg43
Nsg1146
Nsg1280
I15
sS'minorTicks'
p2485
(lp2486
g0
(g2298
g2
Ntp2487
Rp2488
(dp2489
g6
g7
sg40
F0.6
sg9
g4
sg2302
I00
sg8
I01
sg10
Nsg111
I0
sg42
Nsg2303
F3.4
sg2304
g2254
sg2305
I00
sg1497
F0.0
sg17
g18
sg2306
g2307
sg2025
g0
(g1481
g2
Ntp2490
Rp2491
(dp2492
g6
g7
sg8
I01
sg9
g4
sg10
Nsg1485
g0
(g1486
g2
Ntp2493
Rp2494
(dp2495
g1490
(lp2496
g1492
asg1493
Nsg1494
g1495
sg1496
g1495
sg1497
F10.0
sg1498
I400
sg1499
g1495
sbsg42
Nsg17
g18
sg1500
Nsg20
I01
sg23
Nsg75
I0
sg76
I0
sg24
Nsg25
Nsg11
Nsg28
I00
sg29
I00
sg30
(dp2497
sg1502
Nsg32
I00
sg1147
Nsg88
Nsg1146
Nsg1503
Nsg33
Nsg96
Nsg86
I01
sg1504
g2316
sg1506
V
p2498
sg1508
Nsg103
g0
(g104
g105
((lp2499
(lp2500
tp2501
tp2502
Rp2503
sg111
I0
sg1514
Nsg112
I01
sg114
Nsg1515
F1.2
sg115
g1112
sg1540
I00
sg1541
I00
sg43
Nsg1279
g2254
sg1543
g2323
sg34
Nsbsg20
I01
sg23
Nsg2324
I01
sg24
Nsg25
Nsg11
Nsg2325
I01
sg28
I00
sg29
I00
sg30
(dp2504
sg2327
(I0
I1
tp2505
sg32
I00
sg2329
I2
sg1147
g2062
sg2330
I00
sg88
Nsg1146
Nsg2331
g2491
sg2332
g0
(g1481
g2
Ntp2506
Rp2507
(dp2508
g6
g7
sg8
I01
sg9
g4
sg10
Nsg1485
g0
(g1486
g2
Ntp2509
Rp2510
(dp2511
g1490
(lp2512
g1492
asg1493
Nsg1494
g1495
sg1496
g1495
sg1497
F10.0
sg1498
I400
sg1499
g1495
sbsg42
Nsg17
g18
sg1500
Nsg20
I01
sg23
Nsg75
I0
sg76
I1
sg24
Nsg25
Nsg11
Nsg28
I00
sg29
I00
sg30
(dp2513
sg1502
Nsg32
I00
sg1147
Nsg88
Nsg1146
Nsg1503
Nsg33
Nsg96
Nsg86
I01
sg1504
g2316
sg1506
V
p2514
sg1508
Nsg103
g0
(g104
g105
((lp2515
(lp2516
tp2517
tp2518
Rp2519
sg111
I0
sg1514
Nsg112
I01
sg114
Nsg1515
F1.2
sg115
g671
sg1540
I00
sg1541
I00
sg43
Nsg1279
g2254
sg1543
g2347
sg34
Nsbsg96
Nsg2348
I0
sg86
I01
sg103
g0
(g104
g105
((lp2520
(lp2521
tp2522
tp2523
Rp2524
sg2354
F3.4
sg2355
g0
(g1227
g2
Ntp2525
Rp2526
(dp2527
g49
I01
sg6
g7
sg1232
g1233
sg1234
Nsg20
I01
sg1235
Nsg1236
I0
sg75
Nsg76
Nsg24
Nsg11
Nsg29
I00
sg30
(dp2528
sg32
I00
sg1147
Nsg1238
F0.6
sg1239
Nsg1240
g1241
sg1242
g1243
sg96
Nsg86
I01
sg1244
g2360
sg111
I0
sg112
I01
sg1251
I01
sg1252
I01
sg115
g1104
sg1278
Nsg2361
I2
sg1279
g2254
sg1280
I5
sg9
g4
sg1287
Nsg10
Nsg42
Nsg17
g18
sg1289
g1290
sg23
Nsg25
Nsg28
I00
sg1291
Nsg34
Nsg1292
Nsg1293
g0
(g1294
g2
Ntp2529
Rp2530
(dp2531
g1293
I0
sg1299
Nsg1300
F1.0
sg115
g0
(g157
g2
Ntp2532
Rp2533
(dp2534
g49
I2
sg50
Nsg120
g132
(g133
(I0
tp2535
g135
tp2536
Rp2537
(I1
(I3
I3
tp2538
g59
I00
S'\x00\x00\x00\x00\x00\x00\xf0\xbf\x00\x00\x00\x00\x00\x00\x00\x00\x00\x00\x00\x00\x00\x00\x00\x00\x00\x00\x00\x00\x00\x00\x00\x00\x00\x00\x00\x00\x00\x00\xf0?\x00\x00\x00\x00\x00\x00\x00\x00\x00\x00\x00\x00\x00\x00\x00\x00\x00\x00\x00\x00\x00\x00\x00\x00\x00\x00\x00\x00\x00\x00\xf0?'
p2539
tp2540
bsg51
g7
sg52
(dp2541
sbsg1305
I00
sg1306
g1307
sg1308
Nsg1144
g1309
sg99
g1310
sg1311
g2376
sbsg1329
g1330
sg88
Nsg33
Nsg92
I01
sg1331
Nsg101
g2384
sg103
g0
(g104
g105
((lp2542
(lp2543
tp2544
tp2545
Rp2546
sg1338
I00
sg1339
g1340
sg1341
g1290
sg1342
Nsg114
Nsg1343
g1290
sg1344
F0.0
sg8
I01
sg1288
Nsg43
Nsg1146
Nsg1346
g2390
sg87
F1.0
sg1311
Nsbsg112
I00
sg2391
g0
(g1227
g2
Ntp2547
Rp2548
(dp2549
g49
I01
sg6
g7
sg1232
g1233
sg1234
Nsg20
I01
sg1235
Nsg1236
I0
sg75
g132
(g133
(I0
tp2550
g135
tp2551
Rp2552
(I1
(I2
tp2553
g59
I00
S'\x00\x00\x00\x00\x00\x00\x00\x00\x00\x00\x00\x00\x00\x00\x00\x00'
p2554
tp2555
bsg76
g132
(g133
(I0
tp2556
g135
tp2557
Rp2558
(I1
(I2
tp2559
g59
I00
S'\x00\x00\x00\x00\x00\x00\x00\x00\x00\x00\x00\x00\x00\x00\xf0?'
p2560
tp2561
bsg24
Nsg11
Nsg29
I00
sg30
(dp2562
sg32
I00
sg1147
Nsg1238
F1.0
sg1239
Nsg1240
g1241
sg1242
g1243
sg96
Nsg86
I01
sg1244
g2408
sg111
I0
sg112
I01
sg1251
I00
sg1252
I00
sg115
g674
sg1278
Nsg1279
g2409
sg1280
I5
sg9
g4
sg1287
Nsg10
Nsg42
Nsg17
g18
sg1289
g1290
sg23
Nsg25
Nsg28
I00
sg1291
Nsg34
Nsg1292
Nsg1293
g0
(g1294
g2
Ntp2563
Rp2564
(dp2565
g1293
g1298
sg1299
Nsg1300
Nsg115
g0
(g45
g2
Ntp2566
Rp2567
(dp2568
g49
I1
sg50
Nsg51
g7
sg52
(dp2569
sbsg1305
I00
sg1306
g1307
sg1308
Nsg1144
g1309
sg99
g1310
sg1311
g0
(g1312
g2
Ntp2570
Rp2571
(dp2572
g1316
I00
sg1317
Nsg1318
g132
(g133
(I0
tp2573
g135
tp2574
Rp2575
(I1
(I0
I2
tp2576
g59
I00
g1323
tp2577
bsg1325
I00
sg1326
F0.1111111111111111
sg1327
I1
sg1328
I00
sbsbsg1329
g1330
sg88
Nsg33
Nsg92
I01
sg1331
g132
(g133
(I0
tp2578
g135
tp2579
Rp2580
(I1
(I2
I2
tp2581
g59
I00
S'\x00\x00\x00\x00\x00\x00\x00\x00\x00\x00\x00\x00\x00\x00\x00\x00\x00\x00\x00\x00\x00\x00\xf0?\x00\x00\x00\x00\x00\x00\x00\x00'
p2582
tp2583
bsg101
g2431
sg103
g0
(g104
g105
((lp2584
(lp2585
tp2586
tp2587
Rp2588
sg1338
I00
sg1339
g1340
sg1341
g1290
sg1342
Nsg114
F1.0
sg1343
g1290
sg1344
F0.0
sg8
I01
sg1288
Nsg43
Nsg1146
Nsg1346
g2437
sg87
F0.8
sg1311
g0
(g1312
g2
Ntp2589
Rp2590
(dp2591
g1316
I00
sg1317
Nsg1318
g2580
sg1325
I00
sg1326
F0.1111111111111111
sg1327
I180
sg1328
I00
sbsbsg114
Nsg33
Nsg2441
g0
(g1227
g2
Ntp2592
Rp2593
(dp2594
g49
I01
sg6
g7
sg1232
g1233
sg1234
Nsg20
I01
sg1235
Nsg1236
I0
sg75
Nsg76
Nsg24
Nsg11
Nsg29
I00
sg30
(dp2595
sg32
I00
sg1147
Nsg1238
F0.6
sg1239
Nsg1240
g1241
sg1242
g1243
sg96
Nsg86
I01
sg1244
g2446
sg111
I0
sg112
I01
sg1251
I01
sg1252
I01
sg115
g674
sg1278
Nsg2361
I2
sg1279
g2254
sg1280
I5
sg9
g4
sg1287
Nsg10
Nsg42
Nsg17
g18
sg1289
g1290
sg23
Nsg25
Nsg28
I00
sg1291
Nsg34
Nsg1292
Nsg1293
g0
(g1294
g2
Ntp2596
Rp2597
(dp2598
g1293
I1
sg1299
Nsg1300
F1.0
sg115
g0
(g157
g2
Ntp2599
Rp2600
(dp2601
g49
I2
sg50
Nsg120
g132
(g133
(I0
tp2602
g135
tp2603
Rp2604
(I1
(I3
I3
tp2605
g59
I00
S'\x00\x00\x00\x00\x00\x00\xf0?\x00\x00\x00\x00\x00\x00\x00\x00\x00\x00\x00\x00\x00\x00\x00\x00\x00\x00\x00\x00\x00\x00\x00\x00\x00\x00\x00\x00\x00\x00\xf0?\x00\x00\x00\x00\x00\x00\x00\x00\x00\x00\x00\x00\x00\x00\x00\x00\x00\x00\x00\x00\x00\x00\x00\x00\x00\x00\x00\x00\x00\x00\xf0?'
p2606
tp2607
bsg51
g7
sg52
(dp2608
sbsg1305
I00
sg1306
g1307
sg1308
Nsg1144
g1309
sg99
g1310
sg1311
g2376
sbsg1329
g1330
sg88
Nsg33
Nsg92
I01
sg1331
Nsg101
g2460
sg103
g0
(g104
g105
((lp2609
(lp2610
tp2611
tp2612
Rp2613
sg1338
I00
sg1339
g1340
sg1341
g1290
sg1342
Nsg114
Nsg1343
g1290
sg1344
F0.0
sg8
I01
sg1288
Nsg43
Nsg1146
Nsg1346
(I0
tp2614
sg87
F1.0
sg1311
Nsbsg115
Nsg2467
F10.0
sg2468
g2469
sg43
Nsg1279
g2254
sg34
Nsbasg34
NsS'_minor_tick_kw'
p2615
(dp2616
g2287
I00
sg2289
I01
sg2290
I00
sg2291
I01
ssS'isDefault_minfmt'
p2617
I01
sbsS'_axisbelow'
p2618
I00
sg8
I01
sS'lines'
p2619
(lp2620
g0
(g1227
g2
Ntp2621
Rp2622
(dp2623
g6
g1384
sg1217
I2
sg1232
g1233
sg1234
Nsg20
I01
sg1235
Nsg1236
I0
sg75
g132
(g133
(I0
tp2624
g135
tp2625
Rp2626
(I1
(I6
tp2627
g59
I00
S'\x0b\x7fS\xc1\xba\n\n@U\xfe\xa3\\H\xb6\x00@\xf5y\x95\xc5*\xf9\x13@\xf0v\xa8T\\\xe2\x10@\x19\n\xfe]\x84\x9e\x00@\xc1\x97:\xb05\xf8\r@'
p2628
tp2629
bsg76
g132
(g133
(I0
tp2630
g135
tp2631
Rp2632
(I1
(I6
tp2633
g59
I00
S'\x00\x00\x00\x00\x00\x00\xf0?\x00\x00\x00\x00\x00\x00\x00@\x00\x00\x00\x00\x00\x00\x08@\x00\x00\x00\x00\x00\x00\x14@\x00\x00\x00\x00\x00\x00\x1c@\x00\x00\x00\x00\x00\x00"@'
p2634
tp2635
bsg24
Nsg11
Nsg29
I00
sg30
(dp2636
sg32
I00
sg1147
g2062
sg1238
F1.0
sg1239
Nsg1240
g1241
sg1242
g1243
sg96
Nsg86
I01
sg1244
g132
(g133
(I0
tp2637
g135
tp2638
Rp2639
(I1
(I6
tp2640
g1991
I00
S'\x01\x00\x00\x00\x00\x00\x00\x00\x02\x00\x00\x00\x00\x00\x00\x00\x03\x00\x00\x00\x00\x00\x00\x00\x05\x00\x00\x00\x00\x00\x00\x00\x07\x00\x00\x00\x00\x00\x00\x00\t\x00\x00\x00\x00\x00\x00\x00'
p2641
tp2642
bsg111
I0
sg112
I01
sg1251
I00
sg1252
I00
sg115
g677
sg1278
Nsg1279
g1416
sg1280
I5
sg9
g4
sg1287
Nsg10
Nsg1288
Nsg42
Nsg17
g18
sg1289
g1290
sg23
Nsg25
Nsg28
I00
sg1291
Nsg34
Nsg1292
Nsg1293
g0
(g1294
g2
Ntp2643
Rp2644
(dp2645
g1293
g1298
sg1299
Nsg1300
Nsg115
g0
(g45
g2
Ntp2646
Rp2647
(dp2648
g49
I1
sg50
Nsg51
g7
sg52
(dp2649
sbsg1305
I00
sg1306
g1307
sg1308
Nsg1144
g1309
sg99
g1310
sg1311
g0
(g1312
g2
Ntp2650
Rp2651
(dp2652
g1316
I00
sg1317
Nsg1318
g132
(g133
(I0
tp2653
g135
tp2654
Rp2655
(I1
(I0
I2
tp2656
g59
I00
g1323
tp2657
bsg1325
I00
sg1326
F0.1111111111111111
sg1327
I1
sg1328
I00
sbsbsg1329
g1330
sg88
g959
sg33
Nsg92
I01
sg1331
g132
(g133
(I0
tp2658
g135
tp2659
Rp2660
(I1
(I6
I2
tp2661
g59
I00
S'\x00\x00\x00\x00\x00\x00\xf0?\x0b\x7fS\xc1\xba\n\n@\x00\x00\x00\x00\x00\x00\x00@U\xfe\xa3\\H\xb6\x00@\x00\x00\x00\x00\x00\x00\x08@\xf5y\x95\xc5*\xf9\x13@\x00\x00\x00\x00\x00\x00\x14@\xf0v\xa8T\\\xe2\x10@\x00\x00\x00\x00\x00\x00\x1c@\x19\n\xfe]\x84\x9e\x00@\x00\x00\x00\x00\x00\x00"@\xc1\x97:\xb05\xf8\r@'
p2662
tp2663
bsg101
g1368
sg103
g0
(g104
g105
((lp2664
(lp2665
tp2666
tp2667
Rp2668
sg1338
I00
sg1339
g1340
sg1341
g1290
sg1342
Nsg114
Nsg1343
g1290
sg1344
F10.0
sg8
I01
sg1345
I2
sg43
Nsg1146
Nsg1346
g132
(g133
(I0
tp2669
g135
tp2670
Rp2671
(I1
(I6
tp2672
g59
I00
S'\x0b\x7fS\xc1\xba\n\n@U\xfe\xa3\\H\xb6\x00@\xf5y\x95\xc5*\xf9\x13@\xf0v\xa8T\\\xe2\x10@\x19\n\xfe]\x84\x9e\x00@\xc1\x97:\xb05\xf8\r@'
p2673
tp2674
bsg87
F1.0
sg1311
g0
(g1312
g2
Ntp2675
Rp2676
(dp2677
g1316
I00
sg1317
Nsg1318
g2660
sg1325
I00
sg1326
F0.1111111111111111
sg1327
I1
sg1328
I00
sbsbasg1345
I1
sS'spines'
p2678
ccollections
OrderedDict
p2679
((lp2680
(lp2681
Vleft
p2682
ag0
(cmatplotlib.spines
Spine
p2683
g2
Ntp2684
Rp2685
(dp2686
g6
g7
sg2006
I00
sg41
I01
sg9
g4
sS'_bounds'
p2687
Nsg8
I00
sg10
Nsg42
Nsg17
g18
sg43
Nsg20
I01
sg1996
g2204
sg44
g0
(g45
g2
Ntp2688
Rp2689
(dp2690
g49
I1
sg50
Nsg51
g7
sg52
(dp2691
sbsg54
(F0.15
F0.15
F0.15
F1.0
tp2692
sg23
Nsg24
Nsg77
V.15
p2693
sg11
Nsg28
I00
sg29
I00
sg30
(dp2694
sg1142
(NNtp2695
sg1940
(S'outward'
p2696
I10
tp2697
sg32
I00
sg85
Nsg86
I01
sg87
F1.25
sS'_patch_type'
p2698
Vline
p2699
sg33
Nsg90
g2692
sg91
Nsg92
I01
sg93
Nsg94
Vnone
p2700
sg96
Nsg97
g1919
sg99
g100
sS'_patch_transform'
p2701
g0
(g45
g2
Ntp2702
Rp2703
(dp2704
g49
I1
sg50
Nsg51
g7
sg52
(dp2705
sbsg101
g102
sg103
g0
(g104
g105
((lp2706
(lp2707
tp2708
tp2709
Rp2710
sg111
I0
sS'_spine_transform'
p2711
(Vpost
p2712
g1091
tp2713
sg112
I01
sg114
NsS'spine_type'
p2714
g2682
sg115
g1096
sg88
Nsg2361
F2.5
sg1144
Vprojecting
p2715
sg1146
Nsg25
Nsg1147
g2062
sg34
Nsg1311
g0
(g1312
g2
Ntp2716
Rp2717
(dp2718
g1316
I00
sg1317
Nsg1318
g132
(g133
(I0
tp2719
g135
tp2720
Rp2721
(I1
(I2
I2
tp2722
g59
I00
S'\x00\x00\x00\x00\x00\x00\x00\x00\x00\x00\x00\x00\x00\x00*@\x00\x00\x00\x00\x00\x00\x00\x00\x00\x00\x00\x00\x00\x00*@'
p2723
tp2724
bsg1325
I00
sg1326
F0.1111111111111111
sg1327
I1
sg1328
I00
sbsbaa(lp2725
Vright
p2726
ag0
(g2683
g2
Ntp2727
Rp2728
(dp2729
g6
g7
sg2006
I00
sg41
I01
sg9
g4
sg2687
Nsg8
I01
sg10
Nsg42
Nsg17
g18
sg43
Nsg20
I01
sg1996
g2204
sg44
g0
(g45
g2
Ntp2730
Rp2731
(dp2732
g49
I1
sg50
Nsg51
g7
sg52
(dp2733
sbsg54
g2692
sg23
Nsg24
Nsg77
g2693
sg11
Nsg28
I00
sg29
I00
sg30
(dp2734
sg1142
(NNtp2735
sg1940
(Voutward
p2736
F0.0
tp2737
sg32
I00
sg85
Nsg86
I01
sg87
F1.25
sg2698
g2699
sg33
Nsg90
g2692
sg91
Nsg92
I01
sg93
Nsg94
g2700
sg96
Nsg97
g1919
sg99
g100
sg2701
g0
(g45
g2
Ntp2738
Rp2739
(dp2740
g49
I1
sg50
Nsg51
g7
sg52
(dp2741
sbsg101
g102
sg103
g0
(g104
g105
((lp2742
(lp2743
tp2744
tp2745
Rp2746
sg111
I0
sg2711
(Videntity
p2747
g0
(g45
g2
Ntp2748
Rp2749
(dp2750
g49
I1
sg50
Nsg51
g7
sg52
(dp2751
sbtp2752
sg112
I01
sg114
Nsg2714
g2726
sg115
g674
sg88
Nsg2361
F2.5
sg1144
g2715
sg1146
Nsg25
Nsg1147
g2062
sg34
Nsg1311
g0
(g1312
g2
Ntp2753
Rp2754
(dp2755
g1316
I00
sg1317
Nsg1318
g132
(g133
(I0
tp2756
g135
tp2757
Rp2758
(I1
(I2
I2
tp2759
g59
I00
S'\x00\x00\x00\x00\x00\x00\xf0?\x00\x00\x00\x00\x00\x00*@\x00\x00\x00\x00\x00\x00\xf0?\x00\x00\x00\x00\x00\x00*@'
p2760
tp2761
bsg1325
I00
sg1326
F0.1111111111111111
sg1327
I1
sg1328
I00
sbsbaa(lp2762
Vbottom
p2763
ag0
(g2683
g2
Ntp2764
Rp2765
(dp2766
g6
g7
sg2006
I00
sg41
I01
sg9
g4
sg2687
Nsg8
I00
sg10
Nsg42
Nsg17
g18
sg43
Nsg20
I01
sg1996
g1998
sg44
g0
(g45
g2
Ntp2767
Rp2768
(dp2769
g49
I1
sg50
Nsg51
g7
sg52
(dp2770
sbsg54
g2692
sg23
Nsg24
Nsg77
g2693
sg11
Nsg28
I00
sg29
I00
sg30
(dp2771
sg1142
(NNtp2772
sg1940
(g2696
I10
tp2773
sg32
I00
sg85
Nsg86
I01
sg87
F1.25
sg2698
g2699
sg33
Nsg90
g2692
sg91
Nsg92
I01
sg93
Nsg94
g2700
sg96
Nsg97
g1919
sg99
g100
sg2701
g0
(g45
g2
Ntp2774
Rp2775
(dp2776
g49
I1
sg50
Nsg51
g7
sg52
(dp2777
sbsg101
g102
sg103
g0
(g104
g105
((lp2778
(lp2779
tp2780
tp2781
Rp2782
sg111
I0
sg2711
(g2712
g796
tp2783
sg112
I01
sg114
Nsg2714
g2763
sg115
g801
sg88
Nsg2361
F2.5
sg1144
g2715
sg1146
Nsg25
Nsg1147
g2062
sg34
Nsg1311
g0
(g1312
g2
Ntp2784
Rp2785
(dp2786
g1316
I00
sg1317
Nsg1318
g132
(g133
(I0
tp2787
g135
tp2788
Rp2789
(I1
(I2
I2
tp2790
g59
I00
S'\x00\x00\x00\x00\x00\x00*@\x00\x00\x00\x00\x00\x00\x00\x00\x00\x00\x00\x00\x00\x00*@\x00\x00\x00\x00\x00\x00\x00\x00'
p2791
tp2792
bsg1325
I00
sg1326
F0.1111111111111111
sg1327
I1
sg1328
I00
sbsbaa(lp2793
Vtop
p2794
ag0
(g2683
g2
Ntp2795
Rp2796
(dp2797
g6
g7
sg2006
I00
sg41
I01
sg9
g4
sg2687
Nsg8
I00
sg10
Nsg42
Nsg17
g18
sg43
Nsg20
I01
sg1996
g1998
sg44
g0
(g45
g2
Ntp2798
Rp2799
(dp2800
g49
I1
sg50
Nsg51
g7
sg52
(dp2801
sbsg54
g2692
sg23
Nsg24
Nsg77
g2693
sg11
Nsg28
I00
sg29
I00
sg30
(dp2802
sg1142
(NNtp2803
sg1940
g2737
sg32
I00
sg85
Nsg86
I01
sg87
F1.25
sg2698
g2699
sg33
Nsg90
g2692
sg91
Nsg92
I01
sg93
Nsg94
g2700
sg96
Nsg97
g1919
sg99
g100
sg2701
g0
(g45
g2
Ntp2804
Rp2805
(dp2806
g49
I1
sg50
Nsg51
g7
sg52
(dp2807
sbsg101
g102
sg103
g0
(g104
g105
((lp2808
(lp2809
tp2810
tp2811
Rp2812
sg111
I0
sg2711
(g2747
g0
(g45
g2
Ntp2813
Rp2814
(dp2815
g49
I1
sg50
Nsg51
g7
sg52
(dp2816
sbtp2817
sg112
I01
sg114
Nsg2714
g2794
sg115
g780
sg88
Nsg2361
F2.5
sg1144
g2715
sg1146
Nsg25
Nsg1147
g2062
sg34
Nsg1311
g0
(g1312
g2
Ntp2818
Rp2819
(dp2820
g1316
I00
sg1317
Nsg1318
g132
(g133
(I0
tp2821
g135
tp2822
Rp2823
(I1
(I2
I2
tp2824
g59
I00
S'\x00\x00\x00\x00\x00\x00*@\x00\x00\x00\x00\x00\x00\xf0?\x00\x00\x00\x00\x00\x00*@\x00\x00\x00\x00\x00\x00\xf0?'
p2825
tp2826
bsg1325
I00
sg1326
F0.1111111111111111
sg1327
I1
sg1328
I00
sbsbaatp2827
Rp2828
sS'_anchor'
p2829
VC
p2830
sg43
Nsg1146
NsS'_use_sticky_edges'
p2831
I01
sbsg2285
(dp2832
g2287
I01
sg2288
I00
sg2289
I00
sg2290
I01
sg2291
I00
ssg2292
I00
sg88
g1037
sg33
Nsg2293
I00
sg2294
I1
sg2295
F4.0
sg2296
(lp2833
g0
(cmatplotlib.axis
XTick
p2834
g2
Ntp2835
Rp2836
(dp2837
g6
g7
sg40
F0.8
sg9
g4
sg2302
I01
sg8
I01
sg10
Nsg111
I0
sg42
Nsg2303
F3.5
sg2304
g2023
sg2305
I00
sg1497
F0.0
sg17
g18
sg2306
Vout
p2838
sg2025
g0
(g1481
g2
Ntp2839
Rp2840
(dp2841
g6
g7
sg8
I01
sg9
g4
sg10
Nsg1485
g0
(g1486
g2
Ntp2842
Rp2843
(dp2844
g1490
(lp2845
g1492
asg1493
Nsg1494
g1495
sg1496
g1495
sg1497
F10.0
sg1498
I400
sg1499
g1495
sbsg42
Nsg17
g18
sg1500
Nsg20
I01
sg23
Nsg75
I0
sg76
I0
sg24
Nsg25
Nsg11
Nsg28
I00
sg29
I00
sg30
(dp2846
sg1502
Nsg32
I00
sg1147
Nsg88
Nsg1146
Nsg1503
Nsg33
Nsg96
Nsg86
I01
sg1504
Vtop
p2847
sg1506
V
p2848
sg1508
Nsg103
g0
(g104
g105
((lp2849
(lp2850
tp2851
tp2852
Rp2853
sg111
I0
sg1514
Nsg112
I01
sg114
Nsg1515
F1.2
sg115
g822
sg1540
I00
sg1541
I00
sg43
Nsg1279
g2023
sg1543
Vcenter
p2854
sg34
Nsbsg20
I01
sg23
Nsg2324
I00
sg24
Nsg25
Nsg11
Nsg2325
I00
sg28
I00
sg29
I00
sg30
(dp2855
sg2327
(I3
I2
tp2856
sg32
I00
sg2329
F2.01
sg1147
g2062
sg2330
I01
sg88
Nsg1146
Nsg2331
g2840
sg2332
g0
(g1481
g2
Ntp2857
Rp2858
(dp2859
g6
g7
sg8
I01
sg9
g4
sg10
Nsg1485
g0
(g1486
g2
Ntp2860
Rp2861
(dp2862
g1490
(lp2863
g1492
asg1493
Nsg1494
g1495
sg1496
g1495
sg1497
F10.0
sg1498
I400
sg1499
g1495
sbsg42
Nsg17
g18
sg1500
Nsg20
I01
sg23
Nsg75
I1
sg76
I0
sg24
Nsg25
Nsg11
Nsg28
I00
sg29
I00
sg30
(dp2864
sg1502
Nsg32
I00
sg1147
Nsg88
Nsg1146
Nsg1503
Nsg33
Nsg96
Nsg86
I01
sg1504
Vbottom
p2865
sg1506
V
p2866
sg1508
Nsg103
g0
(g104
g105
((lp2867
(lp2868
tp2869
tp2870
Rp2871
sg111
I0
sg1514
Nsg112
I01
sg114
Nsg1515
F1.2
sg115
g836
sg1540
I00
sg1541
I00
sg43
Nsg1279
g2023
sg1543
g2854
sg34
Nsbsg96
Nsg2348
I0
sg86
I01
sg103
g0
(g104
g105
((lp2872
(lp2873
tp2874
tp2875
Rp2876
sg2354
F3.5
sg2355
g0
(g1227
g2
Ntp2877
Rp2878
(dp2879
g49
I01
sg6
g7
sg1232
g1233
sg1234
Nsg20
I01
sg1235
Nsg1236
I0
sg75
Nsg76
Nsg24
Nsg11
Nsg29
I00
sg30
(dp2880
sg32
I00
sg1147
Nsg1238
F0.8
sg1239
Nsg1240
g1241
sg1242
g1243
sg96
Nsg86
I01
sg1244
(I0
tp2881
sg111
I0
sg112
I01
sg1251
I01
sg1252
I01
sg115
g793
sg1278
Nsg2361
F2.01
sg1279
g2023
sg1280
I5
sg9
g4
sg1287
Nsg10
Nsg42
Nsg17
g18
sg1289
g1290
sg23
Nsg25
Nsg28
I00
sg1291
Nsg34
Nsg1292
Nsg1293
g0
(g1294
g2
Ntp2882
Rp2883
(dp2884
g1293
I3
sg1299
Nsg1300
F1.0
sg115
g0
(g157
g2
Ntp2885
Rp2886
(dp2887
g49
I2
sg50
Nsg120
g132
(g133
(I0
tp2888
g135
tp2889
Rp2890
(I1
(I3
I3
tp2891
g59
I00
S'\x00\x00\x00\x00\x00\x00\xf0?\x00\x00\x00\x00\x00\x00\x00\x00\x00\x00\x00\x00\x00\x00\x00\x00\x00\x00\x00\x00\x00\x00\x00\x00\x00\x00\x00\x00\x00\x00\xf0\xbf\x00\x00\x00\x00\x00\x00\x00\x00\x00\x00\x00\x00\x00\x00\x00\x00\x00\x00\x00\x00\x00\x00\x00\x00\x00\x00\x00\x00\x00\x00\xf0?'
p2892
tp2893
bsg51
g7
sg52
(dp2894
sbsg1305
I00
sg1306
g1307
sg1308
Nsg1144
g1309
sg99
g1310
sg1311
g0
(g1312
g2
Ntp2895
Rp2896
(dp2897
g1316
I00
sg1317
Nsg1318
g132
(g133
(I0
tp2898
g135
tp2899
Rp2900
(I1
(I2
I2
tp2901
g59
I00
S'\x00\x00\x00\x00\x00\x00\x00\x80\x00\x00\x00\x00\x00\x00\x00\x00\x00\x00\x00\x00\x00\x00\x00\x80\x00\x00\x00\x00\x00\x00\xf0?'
p2902
tp2903
bsg1325
I00
sg1326
F0.1111111111111111
sg1327
I1
sg1328
I00
sbsbsg1329
g1330
sg88
Nsg33
Nsg92
I01
sg1331
Nsg101
VNone
p2904
sg103
g0
(g104
g105
((lp2905
(lp2906
tp2907
tp2908
Rp2909
sg1338
I00
sg1339
g1340
sg1341
g1290
sg1342
Nsg114
Nsg1343
g1290
sg1344
F0.0
sg8
I01
sg1288
Nsg43
Nsg1146
Nsg1346
(I0
tp2910
sg87
F1.0
sg1311
Nsbsg112
I00
sg2391
g0
(g1227
g2
Ntp2911
Rp2912
(dp2913
g49
I01
sg6
g7
sg1232
g1233
sg1234
Nsg20
I01
sg1235
Nsg1236
I0
sg75
g132
(g133
(I0
tp2914
g135
tp2915
Rp2916
(I1
(I2
tp2917
g59
I00
S'\x00\x00\x00\x00\x00\x00\x00\x00\x00\x00\x00\x00\x00\x00\xf0?'
p2918
tp2919
bsg76
g132
(g133
(I0
tp2920
g135
tp2921
Rp2922
(I1
(I2
tp2923
g59
I00
S'\x00\x00\x00\x00\x00\x00\x00\x00\x00\x00\x00\x00\x00\x00\x00\x00'
p2924
tp2925
bsg24
Nsg11
Nsg29
I00
sg30
(dp2926
sg32
I00
sg1147
Nsg1238
F1.0
sg1239
Nsg1240
g1241
sg1242
g1243
sg96
Nsg86
I01
sg1244
(F0.0
F0.0
tp2927
sg111
I0
sg112
I01
sg1251
I00
sg1252
I00
sg115
g780
sg1278
Nsg1279
g2409
sg1280
I5
sg9
g4
sg1287
Nsg10
Nsg42
Nsg17
g18
sg1289
g1290
sg23
Nsg25
Nsg28
I00
sg1291
Nsg34
Nsg1292
Nsg1293
g0
(g1294
g2
Ntp2928
Rp2929
(dp2930
g1293
g1298
sg1299
Nsg1300
Nsg115
g0
(g45
g2
Ntp2931
Rp2932
(dp2933
g49
I1
sg50
Nsg51
g7
sg52
(dp2934
sbsg1305
I00
sg1306
g1307
sg1308
Nsg1144
g1309
sg99
g1310
sg1311
g0
(g1312
g2
Ntp2935
Rp2936
(dp2937
g1316
I00
sg1317
Nsg1318
g132
(g133
(I0
tp2938
g135
tp2939
Rp2940
(I1
(I0
I2
tp2941
g59
I00
g1323
tp2942
bsg1325
I00
sg1326
F0.1111111111111111
sg1327
I1
sg1328
I00
sbsbsg1329
g1330
sg88
Nsg33
Nsg92
I01
sg1331
g132
(g133
(I0
tp2943
g135
tp2944
Rp2945
(I1
(I2
I2
tp2946
g59
I00
S'\x00\x00\x00\x00\x00\x00\x00\x00\x00\x00\x00\x00\x00\x00\x00\x00\x00\x00\x00\x00\x00\x00\x00\x00\x00\x00\x00\x00\x00\x00\xf0?'
p2947
tp2948
bsg101
g2431
sg103
g0
(g104
g105
((lp2949
(lp2950
tp2951
tp2952
Rp2953
sg1338
I00
sg1339
g1340
sg1341
g1290
sg1342
Nsg114
F1.0
sg1343
g1290
sg1344
F0.0
sg8
I01
sg1288
Nsg43
Nsg1146
Nsg1346
(I0
F1.0
tp2954
sg87
F0.8
sg1311
g0
(g1312
g2
Ntp2955
Rp2956
(dp2957
g1316
I00
sg1317
Nsg1318
g2945
sg1325
I00
sg1326
F0.1111111111111111
sg1327
I180
sg1328
I00
sbsbsg114
Nsg33
Nsg2441
g0
(g1227
g2
Ntp2958
Rp2959
(dp2960
g49
I01
sg6
g7
sg1232
g1233
sg1234
Nsg20
I01
sg1235
Nsg1236
I0
sg75
Nsg76
Nsg24
Nsg11
Nsg29
I00
sg30
(dp2961
sg32
I00
sg1147
Nsg1238
F0.8
sg1239
Nsg1240
g1241
sg1242
g1243
sg96
Nsg86
I01
sg1244
(I0
tp2962
sg111
I0
sg112
I01
sg1251
I01
sg1252
I01
sg115
g780
sg1278
Nsg2361
F2.01
sg1279
g2023
sg1280
I5
sg9
g4
sg1287
Nsg10
Nsg42
Nsg17
g18
sg1289
g1290
sg23
Nsg25
Nsg28
I00
sg1291
Nsg34
Nsg1292
Nsg1293
g0
(g1294
g2
Ntp2963
Rp2964
(dp2965
g1293
I2
sg1299
Nsg1300
F1.0
sg115
g0
(g157
g2
Ntp2966
Rp2967
(dp2968
g49
I2
sg50
Nsg120
g132
(g133
(I0
tp2969
g135
tp2970
Rp2971
(I1
(I3
I3
tp2972
g59
I00
S'\x00\x00\x00\x00\x00\x00\xf0?\x00\x00\x00\x00\x00\x00\x00\x00\x00\x00\x00\x00\x00\x00\x00\x00\x00\x00\x00\x00\x00\x00\x00\x00\x00\x00\x00\x00\x00\x00\xf0?\x00\x00\x00\x00\x00\x00\x00\x00\x00\x00\x00\x00\x00\x00\x00\x00\x00\x00\x00\x00\x00\x00\x00\x00\x00\x00\x00\x00\x00\x00\xf0?'
p2973
tp2974
bsg51
g7
sg52
(dp2975
sbsg1305
I00
sg1306
g1307
sg1308
Nsg1144
g1309
sg99
g1310
sg1311
g2896
sbsg1329
g1330
sg88
Nsg33
Nsg92
I01
sg1331
Nsg101
VNone
p2976
sg103
g0
(g104
g105
((lp2977
(lp2978
tp2979
tp2980
Rp2981
sg1338
I00
sg1339
g1340
sg1341
g1290
sg1342
Nsg114
Nsg1343
g1290
sg1344
F0.0
sg8
I01
sg1288
Nsg43
Nsg1146
Nsg1346
(I1
tp2982
sg87
F1.0
sg1311
Nsbsg115
Nsg2467
F10.0
sg2468
Vxtick
p2983
sg43
Nsg1279
g2023
sg34
Nsbasg2470
I00
sg1154
g0
(g1155
g2
Ntp2984
Rp2985
I01
bsg96
Nsg86
I01
sg2473
I01
sg103
g0
(g104
g105
((lp2986
(lp2987
tp2988
tp2989
Rp2990
sg111
I0
sg2479
I1
sg2480
Nsg112
I00
sg114
Nsg2481
Vbottom
p2991
sg115
Nsg2483
Vbottom
p2992
sg43
Nsg1146
Nsg1280
I15
sg2485
(lp2993
g0
(g2834
g2
Ntp2994
Rp2995
(dp2996
g6
g7
sg40
F0.6
sg9
g4
sg2302
I01
sg8
I01
sg10
Nsg111
I0
sg42
Nsg2303
F3.4
sg2304
g2023
sg2305
I00
sg1497
F0.0
sg17
g18
sg2306
g2838
sg2025
g0
(g1481
g2
Ntp2997
Rp2998
(dp2999
g6
g7
sg8
I01
sg9
g4
sg10
Nsg1485
g0
(g1486
g2
Ntp3000
Rp3001
(dp3002
g1490
(lp3003
g1492
asg1493
Nsg1494
g1495
sg1496
g1495
sg1497
F10.0
sg1498
I400
sg1499
g1495
sbsg42
Nsg17
g18
sg1500
Nsg20
I01
sg23
Nsg75
I0
sg76
I0
sg24
Nsg25
Nsg11
Nsg28
I00
sg29
I00
sg30
(dp3004
sg1502
Nsg32
I00
sg1147
Nsg88
Nsg1146
Nsg1503
Nsg33
Nsg96
Nsg86
I01
sg1504
g2847
sg1506
V
p3005
sg1508
Nsg103
g0
(g104
g105
((lp3006
(lp3007
tp3008
tp3009
Rp3010
sg111
I0
sg1514
Nsg112
I01
sg114
Nsg1515
F1.2
sg115
g809
sg1540
I00
sg1541
I00
sg43
Nsg1279
g2023
sg1543
g2854
sg34
Nsbsg20
I01
sg23
Nsg2324
I00
sg24
Nsg25
Nsg11
Nsg2325
I00
sg28
I00
sg29
I00
sg30
(dp3011
sg2327
(I3
I2
tp3012
sg32
I00
sg2329
I2
sg1147
g2062
sg2330
I01
sg88
Nsg1146
Nsg2331
g2998
sg2332
g0
(g1481
g2
Ntp3013
Rp3014
(dp3015
g6
g7
sg8
I01
sg9
g4
sg10
Nsg1485
g0
(g1486
g2
Ntp3016
Rp3017
(dp3018
g1490
(lp3019
g1492
asg1493
Nsg1494
g1495
sg1496
g1495
sg1497
F10.0
sg1498
I400
sg1499
g1495
sbsg42
Nsg17
g18
sg1500
Nsg20
I01
sg23
Nsg75
I1
sg76
I0
sg24
Nsg25
Nsg11
Nsg28
I00
sg29
I00
sg30
(dp3020
sg1502
Nsg32
I00
sg1147
Nsg88
Nsg1146
Nsg1503
Nsg33
Nsg96
Nsg86
I01
sg1504
g2865
sg1506
V
p3021
sg1508
Nsg103
g0
(g104
g105
((lp3022
(lp3023
tp3024
tp3025
Rp3026
sg111
I0
sg1514
Nsg112
I01
sg114
Nsg1515
F1.2
sg115
g784
sg1540
I00
sg1541
I00
sg43
Nsg1279
g2023
sg1543
g2854
sg34
Nsbsg96
Nsg2348
I0
sg86
I01
sg103
g0
(g104
g105
((lp3027
(lp3028
tp3029
tp3030
Rp3031
sg2354
F3.4
sg2355
g0
(g1227
g2
Ntp3032
Rp3033
(dp3034
g49
I01
sg6
g7
sg1232
g1233
sg1234
Nsg20
I01
sg1235
Nsg1236
I0
sg75
Nsg76
Nsg24
Nsg11
Nsg29
I00
sg30
(dp3035
sg32
I00
sg1147
Nsg1238
F0.6
sg1239
Nsg1240
g1241
sg1242
g1243
sg96
Nsg86
I01
sg1244
(I0
tp3036
sg111
I0
sg112
I01
sg1251
I01
sg1252
I01
sg115
g831
sg1278
Nsg2361
I2
sg1279
g2023
sg1280
I5
sg9
g4
sg1287
Nsg10
Nsg42
Nsg17
g18
sg1289
g1290
sg23
Nsg25
Nsg28
I00
sg1291
Nsg34
Nsg1292
Nsg1293
g0
(g1294
g2
Ntp3037
Rp3038
(dp3039
g1293
I3
sg1299
Nsg1300
F1.0
sg115
g0
(g157
g2
Ntp3040
Rp3041
(dp3042
g49
I2
sg50
Nsg120
g132
(g133
(I0
tp3043
g135
tp3044
Rp3045
(I1
(I3
I3
tp3046
g59
I00
S'\x00\x00\x00\x00\x00\x00\xf0?\x00\x00\x00\x00\x00\x00\x00\x00\x00\x00\x00\x00\x00\x00\x00\x00\x00\x00\x00\x00\x00\x00\x00\x00\x00\x00\x00\x00\x00\x00\xf0\xbf\x00\x00\x00\x00\x00\x00\x00\x00\x00\x00\x00\x00\x00\x00\x00\x00\x00\x00\x00\x00\x00\x00\x00\x00\x00\x00\x00\x00\x00\x00\xf0?'
p3047
tp3048
bsg51
g7
sg52
(dp3049
sbsg1305
I00
sg1306
g1307
sg1308
Nsg1144
g1309
sg99
g1310
sg1311
g2896
sbsg1329
g1330
sg88
Nsg33
Nsg92
I01
sg1331
Nsg101
g2904
sg103
g0
(g104
g105
((lp3050
(lp3051
tp3052
tp3053
Rp3054
sg1338
I00
sg1339
g1340
sg1341
g1290
sg1342
Nsg114
Nsg1343
g1290
sg1344
F0.0
sg8
I01
sg1288
Nsg43
Nsg1146
Nsg1346
g2910
sg87
F1.0
sg1311
Nsbsg112
I00
sg2391
g0
(g1227
g2
Ntp3055
Rp3056
(dp3057
g49
I01
sg6
g7
sg1232
g1233
sg1234
Nsg20
I01
sg1235
Nsg1236
I0
sg75
g132
(g133
(I0
tp3058
g135
tp3059
Rp3060
(I1
(I2
tp3061
g59
I00
S'\x00\x00\x00\x00\x00\x00\x00\x00\x00\x00\x00\x00\x00\x00\xf0?'
p3062
tp3063
bsg76
g132
(g133
(I0
tp3064
g135
tp3065
Rp3066
(I1
(I2
tp3067
g59
I00
S'\x00\x00\x00\x00\x00\x00\x00\x00\x00\x00\x00\x00\x00\x00\x00\x00'
p3068
tp3069
bsg24
Nsg11
Nsg29
I00
sg30
(dp3070
sg32
I00
sg1147
Nsg1238
F1.0
sg1239
Nsg1240
g1241
sg1242
g1243
sg96
Nsg86
I01
sg1244
g2927
sg111
I0
sg112
I01
sg1251
I00
sg1252
I00
sg115
g780
sg1278
Nsg1279
g2409
sg1280
I5
sg9
g4
sg1287
Nsg10
Nsg42
Nsg17
g18
sg1289
g1290
sg23
Nsg25
Nsg28
I00
sg1291
Nsg34
Nsg1292
Nsg1293
g0
(g1294
g2
Ntp3071
Rp3072
(dp3073
g1293
g1298
sg1299
Nsg1300
Nsg115
g0
(g45
g2
Ntp3074
Rp3075
(dp3076
g49
I1
sg50
Nsg51
g7
sg52
(dp3077
sbsg1305
I00
sg1306
g1307
sg1308
Nsg1144
g1309
sg99
g1310
sg1311
g0
(g1312
g2
Ntp3078
Rp3079
(dp3080
g1316
I00
sg1317
Nsg1318
g132
(g133
(I0
tp3081
g135
tp3082
Rp3083
(I1
(I0
I2
tp3084
g59
I00
g1323
tp3085
bsg1325
I00
sg1326
F0.1111111111111111
sg1327
I1
sg1328
I00
sbsbsg1329
g1330
sg88
Nsg33
Nsg92
I01
sg1331
g132
(g133
(I0
tp3086
g135
tp3087
Rp3088
(I1
(I2
I2
tp3089
g59
I00
S'\x00\x00\x00\x00\x00\x00\x00\x00\x00\x00\x00\x00\x00\x00\x00\x00\x00\x00\x00\x00\x00\x00\x00\x00\x00\x00\x00\x00\x00\x00\xf0?'
p3090
tp3091
bsg101
g2431
sg103
g0
(g104
g105
((lp3092
(lp3093
tp3094
tp3095
Rp3096
sg1338
I00
sg1339
g1340
sg1341
g1290
sg1342
Nsg114
F1.0
sg1343
g1290
sg1344
F0.0
sg8
I01
sg1288
Nsg43
Nsg1146
Nsg1346
g2954
sg87
F0.8
sg1311
g0
(g1312
g2
Ntp3097
Rp3098
(dp3099
g1316
I00
sg1317
Nsg1318
g3088
sg1325
I00
sg1326
F0.1111111111111111
sg1327
I180
sg1328
I00
sbsbsg114
Nsg33
Nsg2441
g0
(g1227
g2
Ntp3100
Rp3101
(dp3102
g49
I01
sg6
g7
sg1232
g1233
sg1234
Nsg20
I01
sg1235
Nsg1236
I0
sg75
Nsg76
Nsg24
Nsg11
Nsg29
I00
sg30
(dp3103
sg32
I00
sg1147
Nsg1238
F0.6
sg1239
Nsg1240
g1241
sg1242
g1243
sg96
Nsg86
I01
sg1244
g2962
sg111
I0
sg112
I01
sg1251
I01
sg1252
I01
sg115
g780
sg1278
Nsg2361
I2
sg1279
g2023
sg1280
I5
sg9
g4
sg1287
Nsg10
Nsg42
Nsg17
g18
sg1289
g1290
sg23
Nsg25
Nsg28
I00
sg1291
Nsg34
Nsg1292
Nsg1293
g0
(g1294
g2
Ntp3104
Rp3105
(dp3106
g1293
I2
sg1299
Nsg1300
F1.0
sg115
g0
(g157
g2
Ntp3107
Rp3108
(dp3109
g49
I2
sg50
Nsg120
g132
(g133
(I0
tp3110
g135
tp3111
Rp3112
(I1
(I3
I3
tp3113
g59
I00
S'\x00\x00\x00\x00\x00\x00\xf0?\x00\x00\x00\x00\x00\x00\x00\x00\x00\x00\x00\x00\x00\x00\x00\x00\x00\x00\x00\x00\x00\x00\x00\x00\x00\x00\x00\x00\x00\x00\xf0?\x00\x00\x00\x00\x00\x00\x00\x00\x00\x00\x00\x00\x00\x00\x00\x00\x00\x00\x00\x00\x00\x00\x00\x00\x00\x00\x00\x00\x00\x00\xf0?'
p3114
tp3115
bsg51
g7
sg52
(dp3116
sbsg1305
I00
sg1306
g1307
sg1308
Nsg1144
g1309
sg99
g1310
sg1311
g2896
sbsg1329
g1330
sg88
Nsg33
Nsg92
I01
sg1331
Nsg101
g2976
sg103
g0
(g104
g105
((lp3117
(lp3118
tp3119
tp3120
Rp3121
sg1338
I00
sg1339
g1340
sg1341
g1290
sg1342
Nsg114
Nsg1343
g1290
sg1344
F0.0
sg8
I01
sg1288
Nsg43
Nsg1146
Nsg1346
g2982
sg87
F1.0
sg1311
Nsbsg115
Nsg2467
F10.0
sg2468
g2983
sg43
Nsg1279
g2023
sg34
Nsbasg34
Nsg2615
(dp3122
g2287
I01
sg2289
I00
sg2290
I01
sg2291
I00
ssg2617
I00
sbsS'nbins'
p3123
Nsbsg2054
g0
(cmatplotlib.ticker
ScalarFormatter
p3124
g2
Ntp3125
Rp3126
(dp3127
S'_powerlimits'
p3128
(lp3129
I-7
aI7
asS'orderOfMagnitude'
p3130
I0
sS'_useOffset'
p3131
I01
sS'_useLocale'
p3132
I00
sS'format'
p3133
g7
sS'_useMathText'
p3134
I00
sS'_offset_threshold'
p3135
I4
sS'offset'
p3136
I0
sg1540
I00
sS'_scientific'
p3137
I01
sg1996
g1998
sbsbsg2000
I00
sg2001
g0
(g2002
g2
Ntp3138
Rp3139
sg9
g4
sg8
I01
sg2005
I00
sg10
Nsg42
Nsg2006
I00
sg17
g18
sg20
I01
sg23
Nsg2007
g0
(g1481
g2
Ntp3140
Rp3141
(dp3142
g6
g7
sg8
I01
sg9
g4
sg10
Nsg1485
g0
(g1486
g2
Ntp3143
Rp3144
(dp3145
g1490
(lp3146
g1492
asg1493
Nsg1494
g1495
sg1496
g1495
sg1497
F10.0
sg1498
I400
sg1499
g1495
sbsg42
Nsg17
g18
sg1500
Nsg20
I01
sg23
Nsg75
I0
sg76
I1
sg24
Nsg25
Nsg11
Nsg28
I00
sg29
I00
sg30
(dp3147
sg1502
Nsg32
I00
sg1147
Nsg88
Nsg1146
Nsg1503
Nsg33
Nsg96
Nsg86
I01
sg1504
g2016
sg1506
V
p3148
sg1508
Nsg103
g0
(g104
g105
((lp3149
(lp3150
tp3151
tp3152
Rp3153
sg111
I0
sg1514
Nsg112
I01
sg114
Nsg1515
F1.2
sg115
g582
sg1540
I00
sg1541
I00
sg43
Nsg1279
g2023
sg1543
g2024
sg34
Nsbsg24
Nsg25
Nsg11
Nsg2025
g0
(g1481
g2
Ntp3154
Rp3155
(dp3156
g6
g7
sg8
I01
sg9
g4
sg10
Nsg1485
g0
(g1486
g2
Ntp3157
Rp3158
(dp3159
g1490
(lp3160
g1492
asg1493
Nsg1494
g1495
sg1496
g1495
sg1497
F12.0
sg1498
I400
sg1499
g1495
sbsg42
Nsg17
g18
sg1500
Nsg20
I01
sg23
Nsg75
I0
sg76
F0.5
sg24
Nsg25
Nsg11
Nsg28
I00
sg29
I00
sg30
(dp3161
sg1502
Nsg32
I00
sg1147
Nsg88
Nsg1146
Nsg1503
Nsg33
Nsg96
Nsg86
I01
sg1504
g2034
sg1506
V# squares
p3162
sg1508
Nsg103
g0
(g104
g105
((lp3163
(lp3164
tp3165
tp3166
Rp3167
sg111
I0
sg1514
Nsg112
I01
sg114
Nsg1515
F1.2
sg115
g500
sg1540
I00
sg1541
I00
sg43
Nsg1279
g2041
sg1543
g2042
sg34
Nsbsg28
I00
sg2043
I01
sg29
I00
sg30
(dp3168
sg2045
Nsg32
I00
sg2046
g2048
sg1147
g1206
sg2285
(dp3169
g2287
I01
sg2288
I00
sg2289
I00
sg2290
I01
sg2291
I00
ssg2292
I01
sg88
g378
sg33
Nsg2293
I00
sg2294
I1
sg2295
F4.0
sg2296
(lp3170
g0
(g2834
g2
Ntp3171
Rp3172
(dp3173
g6
g7
sg40
F0.8
sg9
g4
sg2302
I01
sg8
I01
sg10
Nsg111
I0
sg42
Nsg2303
F3.5
sg2304
g2023
sg2305
I00
sg1497
F0.0
sg17
g18
sg2306
g2838
sg2025
g0
(g1481
g2
Ntp3174
Rp3175
(dp3176
g6
g7
sg8
I01
sg9
g4
sg10
Nsg1485
g0
(g1486
g2
Ntp3177
Rp3178
(dp3179
g1490
(lp3180
g1492
asg1493
Nsg1494
g1495
sg1496
g1495
sg1497
F10.0
sg1498
I400
sg1499
g1495
sbsg42
Nsg17
g18
sg1500
Nsg20
I01
sg23
Nsg75
I0
sg76
I0
sg24
Nsg25
Nsg11
Nsg28
I00
sg29
I00
sg30
(dp3181
sg1502
Nsg32
I00
sg1147
Nsg88
Nsg1146
Nsg1503
Nsg33
Nsg96
Nsg86
I01
sg1504
g2847
sg1506
V
p3182
sg1508
Nsg103
g0
(g104
g105
((lp3183
(lp3184
tp3185
tp3186
Rp3187
sg111
I0
sg1514
Nsg112
I01
sg114
Nsg1515
F1.2
sg115
g547
sg1540
I00
sg1541
I00
sg43
Nsg1279
g2023
sg1543
g2854
sg34
Nsbsg20
I01
sg23
Nsg2324
I00
sg24
Nsg25
Nsg11
Nsg2325
I00
sg28
I00
sg29
I00
sg30
(dp3188
sg2327
(I3
I2
tp3189
sg32
I00
sg2329
F2.01
sg1147
g1206
sg2330
I01
sg88
Nsg1146
Nsg2331
g3175
sg2332
g0
(g1481
g2
Ntp3190
Rp3191
(dp3192
g6
g7
sg8
I01
sg9
g4
sg10
Nsg1485
g0
(g1486
g2
Ntp3193
Rp3194
(dp3195
g1490
(lp3196
g1492
asg1493
Nsg1494
g1495
sg1496
g1495
sg1497
F10.0
sg1498
I400
sg1499
g1495
sbsg42
Nsg17
g18
sg1500
Nsg20
I01
sg23
Nsg75
I1
sg76
I0
sg24
Nsg25
Nsg11
Nsg28
I00
sg29
I00
sg30
(dp3197
sg1502
Nsg32
I00
sg1147
Nsg88
Nsg1146
Nsg1503
Nsg33
Nsg96
Nsg86
I01
sg1504
g2865
sg1506
V
p3198
sg1508
Nsg103
g0
(g104
g105
((lp3199
(lp3200
tp3201
tp3202
Rp3203
sg111
I0
sg1514
Nsg112
I01
sg114
Nsg1515
F1.2
sg115
g565
sg1540
I00
sg1541
I00
sg43
Nsg1279
g2023
sg1543
g2854
sg34
Nsbsg96
Nsg2348
I0
sg86
I01
sg103
g0
(g104
g105
((lp3204
(lp3205
tp3206
tp3207
Rp3208
sg2354
F3.5
sg2355
g0
(g1227
g2
Ntp3209
Rp3210
(dp3211
g6
g7
sg1232
g1233
sg1234
Nsg20
I01
sg1235
Nsg1236
I0
sg75
Nsg76
Nsg24
Nsg11
Nsg29
I00
sg30
(dp3212
sg32
I00
sg1147
Nsg1238
F0.8
sg1239
Nsg1240
g1241
sg1242
g1243
sg96
Nsg86
I01
sg1244
(I0
tp3213
sg111
I0
sg112
I01
sg1251
I01
sg1252
I01
sg115
g525
sg1278
Nsg2361
F2.01
sg1279
g2023
sg1280
I5
sg9
g4
sg1287
Nsg10
Nsg42
Nsg17
g18
sg1289
g1290
sg23
Nsg25
Nsg28
I00
sg1291
Nsg34
Nsg1292
Nsg1293
g0
(g1294
g2
Ntp3214
Rp3215
(dp3216
g1293
I3
sg1299
Nsg1300
F1.0
sg115
g0
(g157
g2
Ntp3217
Rp3218
(dp3219
g49
I2
sg50
Nsg120
g132
(g133
(I0
tp3220
g135
tp3221
Rp3222
(I1
(I3
I3
tp3223
g59
I00
S'\x00\x00\x00\x00\x00\x00\xf0?\x00\x00\x00\x00\x00\x00\x00\x00\x00\x00\x00\x00\x00\x00\x00\x00\x00\x00\x00\x00\x00\x00\x00\x00\x00\x00\x00\x00\x00\x00\xf0\xbf\x00\x00\x00\x00\x00\x00\x00\x00\x00\x00\x00\x00\x00\x00\x00\x00\x00\x00\x00\x00\x00\x00\x00\x00\x00\x00\x00\x00\x00\x00\xf0?'
p3224
tp3225
bsg51
g7
sg52
(dp3226
sbsg1305
I00
sg1306
g1307
sg1308
Nsg1144
g1309
sg99
g1310
sg1311
g2896
sbsg1329
g1330
sg88
Nsg33
Nsg92
I01
sg1331
Nsg101
g2904
sg103
g0
(g104
g105
((lp3227
(lp3228
tp3229
tp3230
Rp3231
sg1338
I00
sg1339
g1340
sg1341
g1290
sg1342
Nsg114
Nsg1343
g1290
sg1344
F0.0
sg8
I01
sg1288
Nsg43
Nsg1146
Nsg1346
g2910
sg87
F1.0
sg1311
Nsbsg112
I00
sg2391
g0
(g1227
g2
Ntp3232
Rp3233
(dp3234
g6
g7
sg8
I01
sg1341
g1290
sg9
g4
sg1232
g1233
sg1234
Nsg10
Nsg42
Nsg17
g18
sg1289
g1290
sg20
I01
sg1235
Nsg23
Nsg75
g132
(g133
(I0
tp3235
g135
tp3236
Rp3237
(I1
(I2
tp3238
g59
I00
S'\x00\x00\x00\x00\x00\x00\x00\x00\x00\x00\x00\x00\x00\x00\xf0?'
p3239
tp3240
bsg76
g132
(g133
(I0
tp3241
g135
tp3242
Rp3243
(I1
(I2
tp3244
g59
I00
S'\x00\x00\x00\x00\x00\x00\x00\x00\x00\x00\x00\x00\x00\x00\x00\x00'
p3245
tp3246
bsg24
Nsg25
Nsg11
Nsg1244
g2927
sg28
I00
sg1291
Nsg29
I00
sg30
(dp3247
sg1287
Nsg32
I00
sg1338
I00
sg1147
Nsg1292
Nsg1238
F1.0
sg1329
g1330
sg1239
Nsg1279
g2409
sg1293
g0
(g1294
g2
Ntp3248
Rp3249
(dp3250
g1293
g1298
sg1299
Nsg1300
Nsg115
g0
(g45
g2
Ntp3251
Rp3252
(dp3253
g49
I1
sg50
Nsg51
g7
sg52
(dp3254
sbsg1305
I00
sg1306
g1307
sg1308
Nsg1144
g1309
sg99
g1310
sg1311
g0
(g1312
g2
Ntp3255
Rp3256
(dp3257
g1316
I00
sg1317
Nsg1318
g132
(g133
(I0
tp3258
g135
tp3259
Rp3260
(I1
(I0
I2
tp3261
g59
I00
g1323
tp3262
bsg1325
I00
sg1326
F0.1111111111111111
sg1327
I1
sg1328
I00
sbsbsg33
Nsg1240
g1241
sg92
I01
sg1242
g1243
sg96
Nsg1344
F0.0
sg86
I01
sg1331
g132
(g133
(I0
tp3263
g135
tp3264
Rp3265
(I1
(I2
I2
tp3266
g59
I00
S'\x00\x00\x00\x00\x00\x00\x00\x00\x00\x00\x00\x00\x00\x00\x00\x00\x00\x00\x00\x00\x00\x00\x00\x00\x00\x00\x00\x00\x00\x00\xf0?'
p3267
tp3268
bsg101
g2431
sg103
g0
(g104
g105
((lp3269
(lp3270
tp3271
tp3272
Rp3273
sg111
I0
sg1339
g1340
sg1236
I0
sg1342
Nsg1280
I5
sg112
I01
sg114
F1.0
sg1343
g1290
sg1252
I00
sg115
g508
sg1288
Nsg1278
Nsg1251
I00
sg43
Nsg1146
Nsg1346
g2954
sg88
Nsg87
F0.8
sg34
Nsg1311
g0
(g1312
g2
Ntp3274
Rp3275
(dp3276
g1316
I00
sg1317
Nsg1318
g3265
sg1325
I00
sg1326
F0.1111111111111111
sg1327
I180
sg1328
I00
sbsbsg114
Nsg33
Nsg2441
g0
(g1227
g2
Ntp3277
Rp3278
(dp3279
g6
g7
sg1232
g1233
sg1234
Nsg20
I01
sg1235
Nsg1236
I0
sg75
Nsg76
Nsg24
Nsg11
Nsg29
I00
sg30
(dp3280
sg32
I00
sg1147
Nsg1238
F0.8
sg1239
Nsg1240
g1241
sg1242
g1243
sg96
Nsg86
I01
sg1244
g2962
sg111
I0
sg112
I01
sg1251
I01
sg1252
I01
sg115
g508
sg1278
Nsg2361
F2.01
sg1279
g2023
sg1280
I5
sg9
g4
sg1287
Nsg10
Nsg42
Nsg17
g18
sg1289
g1290
sg23
Nsg25
Nsg28
I00
sg1291
Nsg34
Nsg1292
Nsg1293
g0
(g1294
g2
Ntp3281
Rp3282
(dp3283
g1293
I2
sg1299
Nsg1300
F1.0
sg115
g0
(g157
g2
Ntp3284
Rp3285
(dp3286
g49
I2
sg50
Nsg120
g132
(g133
(I0
tp3287
g135
tp3288
Rp3289
(I1
(I3
I3
tp3290
g59
I00
S'\x00\x00\x00\x00\x00\x00\xf0?\x00\x00\x00\x00\x00\x00\x00\x00\x00\x00\x00\x00\x00\x00\x00\x00\x00\x00\x00\x00\x00\x00\x00\x00\x00\x00\x00\x00\x00\x00\xf0?\x00\x00\x00\x00\x00\x00\x00\x00\x00\x00\x00\x00\x00\x00\x00\x00\x00\x00\x00\x00\x00\x00\x00\x00\x00\x00\x00\x00\x00\x00\xf0?'
p3291
tp3292
bsg51
g7
sg52
(dp3293
sbsg1305
I00
sg1306
g1307
sg1308
Nsg1144
g1309
sg99
g1310
sg1311
g2896
sbsg1329
g1330
sg88
Nsg33
Nsg92
I01
sg1331
Nsg101
g2976
sg103
g0
(g104
g105
((lp3294
(lp3295
tp3296
tp3297
Rp3298
sg1338
I00
sg1339
g1340
sg1341
g1290
sg1342
Nsg114
Nsg1343
g1290
sg1344
F0.0
sg8
I01
sg1288
Nsg43
Nsg1146
Nsg1346
g2982
sg87
F1.0
sg1311
Nsbsg115
Nsg2467
F10.0
sg2468
g2983
sg43
Nsg1279
g2023
sg34
Nsbasg2470
I00
sg1154
g0
(g1155
g2
Ntp3299
Rp3300
I01
bsg96
Nsg86
I01
sg2473
I01
sg103
g0
(g104
g105
((lp3301
(lp3302
tp3303
tp3304
Rp3305
sg111
I0
sg2479
I1
sg2480
Nsg112
I00
sg114
Nsg2481
g2991
sg115
Nsg2483
g2992
sg43
Nsg1146
Nsg1280
I15
sg2485
(lp3306
g0
(g2834
g2
Ntp3307
Rp3308
(dp3309
g6
g7
sg40
F0.6
sg9
g4
sg2302
I01
sg8
I01
sg10
Nsg111
I0
sg42
Nsg2303
F3.4
sg2304
g2023
sg2305
I00
sg1497
F0.0
sg17
g18
sg2306
g2838
sg2025
g0
(g1481
g2
Ntp3310
Rp3311
(dp3312
g6
g7
sg8
I01
sg9
g4
sg10
Nsg1485
g0
(g1486
g2
Ntp3313
Rp3314
(dp3315
g1490
(lp3316
g1492
asg1493
Nsg1494
g1495
sg1496
g1495
sg1497
F10.0
sg1498
I400
sg1499
g1495
sbsg42
Nsg17
g18
sg1500
Nsg20
I01
sg23
Nsg75
I0
sg76
I0
sg24
Nsg25
Nsg11
Nsg28
I00
sg29
I00
sg30
(dp3317
sg1502
Nsg32
I00
sg1147
Nsg88
Nsg1146
Nsg1503
Nsg33
Nsg96
Nsg86
I01
sg1504
g2847
sg1506
V
p3318
sg1508
Nsg103
g0
(g104
g105
((lp3319
(lp3320
tp3321
tp3322
Rp3323
sg111
I0
sg1514
Nsg112
I01
sg114
Nsg1515
F1.2
sg115
g537
sg1540
I00
sg1541
I00
sg43
Nsg1279
g2023
sg1543
g2854
sg34
Nsbsg20
I01
sg23
Nsg2324
I00
sg24
Nsg25
Nsg11
Nsg2325
I00
sg28
I00
sg29
I00
sg30
(dp3324
sg2327
(I3
I2
tp3325
sg32
I00
sg2329
I2
sg1147
g1206
sg2330
I01
sg88
Nsg1146
Nsg2331
g3311
sg2332
g0
(g1481
g2
Ntp3326
Rp3327
(dp3328
g6
g7
sg8
I01
sg9
g4
sg10
Nsg1485
g0
(g1486
g2
Ntp3329
Rp3330
(dp3331
g1490
(lp3332
g1492
asg1493
Nsg1494
g1495
sg1496
g1495
sg1497
F10.0
sg1498
I400
sg1499
g1495
sbsg42
Nsg17
g18
sg1500
Nsg20
I01
sg23
Nsg75
I1
sg76
I0
sg24
Nsg25
Nsg11
Nsg28
I00
sg29
I00
sg30
(dp3333
sg1502
Nsg32
I00
sg1147
Nsg88
Nsg1146
Nsg1503
Nsg33
Nsg96
Nsg86
I01
sg1504
g2865
sg1506
V
p3334
sg1508
Nsg103
g0
(g104
g105
((lp3335
(lp3336
tp3337
tp3338
Rp3339
sg111
I0
sg1514
Nsg112
I01
sg114
Nsg1515
F1.2
sg115
g556
sg1540
I00
sg1541
I00
sg43
Nsg1279
g2023
sg1543
g2854
sg34
Nsbsg96
Nsg2348
I0
sg86
I01
sg103
g0
(g104
g105
((lp3340
(lp3341
tp3342
tp3343
Rp3344
sg2354
F3.4
sg2355
g0
(g1227
g2
Ntp3345
Rp3346
(dp3347
g6
g7
sg1232
g1233
sg1234
Nsg20
I01
sg1235
Nsg1236
I0
sg75
Nsg76
Nsg24
Nsg11
Nsg29
I00
sg30
(dp3348
sg32
I00
sg1147
Nsg1238
F0.6
sg1239
Nsg1240
g1241
sg1242
g1243
sg96
Nsg86
I01
sg1244
(I0
tp3349
sg111
I0
sg112
I01
sg1251
I01
sg1252
I01
sg115
g529
sg1278
Nsg2361
I2
sg1279
g2023
sg1280
I5
sg9
g4
sg1287
Nsg10
Nsg42
Nsg17
g18
sg1289
g1290
sg23
Nsg25
Nsg28
I00
sg1291
Nsg34
Nsg1292
Nsg1293
g0
(g1294
g2
Ntp3350
Rp3351
(dp3352
g1293
I3
sg1299
Nsg1300
F1.0
sg115
g0
(g157
g2
Ntp3353
Rp3354
(dp3355
g49
I2
sg50
Nsg120
g132
(g133
(I0
tp3356
g135
tp3357
Rp3358
(I1
(I3
I3
tp3359
g59
I00
S'\x00\x00\x00\x00\x00\x00\xf0?\x00\x00\x00\x00\x00\x00\x00\x00\x00\x00\x00\x00\x00\x00\x00\x00\x00\x00\x00\x00\x00\x00\x00\x00\x00\x00\x00\x00\x00\x00\xf0\xbf\x00\x00\x00\x00\x00\x00\x00\x00\x00\x00\x00\x00\x00\x00\x00\x00\x00\x00\x00\x00\x00\x00\x00\x00\x00\x00\x00\x00\x00\x00\xf0?'
p3360
tp3361
bsg51
g7
sg52
(dp3362
sbsg1305
I00
sg1306
g1307
sg1308
Nsg1144
g1309
sg99
g1310
sg1311
g2896
sbsg1329
g1330
sg88
Nsg33
Nsg92
I01
sg1331
Nsg101
g2904
sg103
g0
(g104
g105
((lp3363
(lp3364
tp3365
tp3366
Rp3367
sg1338
I00
sg1339
g1340
sg1341
g1290
sg1342
Nsg114
Nsg1343
g1290
sg1344
F0.0
sg8
I01
sg1288
Nsg43
Nsg1146
Nsg1346
g2910
sg87
F1.0
sg1311
Nsbsg112
I00
sg2391
g0
(g1227
g2
Ntp3368
Rp3369
(dp3370
g6
g7
sg8
I01
sg1341
g1290
sg9
g4
sg1232
g1233
sg1234
Nsg10
Nsg42
Nsg17
g18
sg1289
g1290
sg20
I01
sg1235
Nsg23
Nsg75
g132
(g133
(I0
tp3371
g135
tp3372
Rp3373
(I1
(I2
tp3374
g59
I00
S'\x00\x00\x00\x00\x00\x00\x00\x00\x00\x00\x00\x00\x00\x00\xf0?'
p3375
tp3376
bsg76
g132
(g133
(I0
tp3377
g135
tp3378
Rp3379
(I1
(I2
tp3380
g59
I00
S'\x00\x00\x00\x00\x00\x00\x00\x00\x00\x00\x00\x00\x00\x00\x00\x00'
p3381
tp3382
bsg24
Nsg25
Nsg11
Nsg1244
g2927
sg28
I00
sg1291
Nsg29
I00
sg30
(dp3383
sg1287
Nsg32
I00
sg1338
I00
sg1147
Nsg1292
Nsg1238
F1.0
sg1329
g1330
sg1239
Nsg1279
g2409
sg1293
g0
(g1294
g2
Ntp3384
Rp3385
(dp3386
g1293
g1298
sg1299
Nsg1300
Nsg115
g0
(g45
g2
Ntp3387
Rp3388
(dp3389
g49
I1
sg50
Nsg51
g7
sg52
(dp3390
sbsg1305
I00
sg1306
g1307
sg1308
Nsg1144
g1309
sg99
g1310
sg1311
g0
(g1312
g2
Ntp3391
Rp3392
(dp3393
g1316
I00
sg1317
Nsg1318
g132
(g133
(I0
tp3394
g135
tp3395
Rp3396
(I1
(I0
I2
tp3397
g59
I00
g1323
tp3398
bsg1325
I00
sg1326
F0.1111111111111111
sg1327
I1
sg1328
I00
sbsbsg33
Nsg1240
g1241
sg92
I01
sg1242
g1243
sg96
Nsg1344
F0.0
sg86
I01
sg1331
g132
(g133
(I0
tp3399
g135
tp3400
Rp3401
(I1
(I2
I2
tp3402
g59
I00
S'\x00\x00\x00\x00\x00\x00\x00\x00\x00\x00\x00\x00\x00\x00\x00\x00\x00\x00\x00\x00\x00\x00\x00\x00\x00\x00\x00\x00\x00\x00\xf0?'
p3403
tp3404
bsg101
g2431
sg103
g0
(g104
g105
((lp3405
(lp3406
tp3407
tp3408
Rp3409
sg111
I0
sg1339
g1340
sg1236
I0
sg1342
Nsg1280
I5
sg112
I01
sg114
F1.0
sg1343
g1290
sg1252
I00
sg115
g508
sg1288
Nsg1278
Nsg1251
I00
sg43
Nsg1146
Nsg1346
g2954
sg88
Nsg87
F0.8
sg34
Nsg1311
g0
(g1312
g2
Ntp3410
Rp3411
(dp3412
g1316
I00
sg1317
Nsg1318
g3401
sg1325
I00
sg1326
F0.1111111111111111
sg1327
I180
sg1328
I00
sbsbsg114
Nsg33
Nsg2441
g0
(g1227
g2
Ntp3413
Rp3414
(dp3415
g6
g7
sg1232
g1233
sg1234
Nsg20
I01
sg1235
Nsg1236
I0
sg75
Nsg76
Nsg24
Nsg11
Nsg29
I00
sg30
(dp3416
sg32
I00
sg1147
Nsg1238
F0.6
sg1239
Nsg1240
g1241
sg1242
g1243
sg96
Nsg86
I01
sg1244
g2962
sg111
I0
sg112
I01
sg1251
I01
sg1252
I01
sg115
g508
sg1278
Nsg2361
I2
sg1279
g2023
sg1280
I5
sg9
g4
sg1287
Nsg10
Nsg42
Nsg17
g18
sg1289
g1290
sg23
Nsg25
Nsg28
I00
sg1291
Nsg34
Nsg1292
Nsg1293
g0
(g1294
g2
Ntp3417
Rp3418
(dp3419
g1293
I2
sg1299
Nsg1300
F1.0
sg115
g0
(g157
g2
Ntp3420
Rp3421
(dp3422
g49
I2
sg50
Nsg120
g132
(g133
(I0
tp3423
g135
tp3424
Rp3425
(I1
(I3
I3
tp3426
g59
I00
S'\x00\x00\x00\x00\x00\x00\xf0?\x00\x00\x00\x00\x00\x00\x00\x00\x00\x00\x00\x00\x00\x00\x00\x00\x00\x00\x00\x00\x00\x00\x00\x00\x00\x00\x00\x00\x00\x00\xf0?\x00\x00\x00\x00\x00\x00\x00\x00\x00\x00\x00\x00\x00\x00\x00\x00\x00\x00\x00\x00\x00\x00\x00\x00\x00\x00\x00\x00\x00\x00\xf0?'
p3427
tp3428
bsg51
g7
sg52
(dp3429
sbsg1305
I00
sg1306
g1307
sg1308
Nsg1144
g1309
sg99
g1310
sg1311
g2896
sbsg1329
g1330
sg88
Nsg33
Nsg92
I01
sg1331
Nsg101
g2976
sg103
g0
(g104
g105
((lp3430
(lp3431
tp3432
tp3433
Rp3434
sg1338
I00
sg1339
g1340
sg1341
g1290
sg1342
Nsg114
Nsg1343
g1290
sg1344
F0.0
sg8
I01
sg1288
Nsg43
Nsg1146
Nsg1346
g2982
sg87
F1.0
sg1311
Nsbsg115
Nsg2467
F10.0
sg2468
g2983
sg43
Nsg1279
g2023
sg34
Nsbasg34
Nsg2615
(dp3435
g2287
I01
sg2289
I00
sg2290
I01
sg2291
I00
ssg2617
I01
sbsg2161
Nsg34
Nsg2162
g234
sg2163
(dp3436
sg2165
Nsg2166
g0
(g127
g2
Ntp3437
Rp3438
(dp3439
g49
I0
sg131
g132
(g133
(I0
tp3440
g135
tp3441
Rp3442
(I1
(I2
tp3443
g59
I00
S'\x00\x00\x00\x00\x00\x00\xf0?\x8b\x80\x94JvZ\xe4?'
p3444
tp3445
bsg52
(dp3446
sg142
g132
(g133
(I0
tp3447
g135
tp3448
Rp3449
(I1
(I2
I2
tp3450
g59
I00
S'\x00\x00\x00\x00\x00\x00\xf0\x7f\x00\x00\x00\x00\x00\x00\xf0\x7f\x00\x00\x00\x00\x00\x00\xf0\xff\x00\x00\x00\x00\x00\x00\xf0\xff'
p3451
tp3452
bsg149
g132
(g133
(I0
tp3453
g135
tp3454
Rp3455
(I1
(I2
I2
tp3456
g59
I00
S'\x00\x00\x00\x00\x00\x00\xf0?\x8b\x80\x94JvZ\xe4?\x00\x00\x00\x00\x00\x00"@y\x1a\xd1\x92%\x9f\xee?'
p3457
tp3458
bsg156
I01
sg51
g7
sbsg2189
g187
sg33
Nsg2190
Nsg2191
Nsg2192
g1913
sg2193
F0.05
sg2194
Nsg103
g0
(g104
g105
((lp3459
(lp3460
tp3461
tp3462
Rp3463
sg2200
I1
sg114
Nsg1158
Nsg2201
g0
(g2202
g2
Ntp3464
Rp3465
(dp3466
g6
g7
sg1974
g0
(g1975
g2
Ntp3467
Rp3468
(dp3469
g1979
g0
(cmatplotlib.ticker
AutoLocator
p3470
g2
Ntp3471
Rp3472
(dp3473
S'_min_n_ticks'
p3474
I2
sS'_symmetric'
p3475
I00
sS'_nbins'
p3476
Vauto
p3477
sS'_steps'
p3478
g132
(g133
(I0
tp3479
g135
tp3480
Rp3481
(I1
(I5
tp3482
g59
I00
S'\x00\x00\x00\x00\x00\x00\xf0?\x00\x00\x00\x00\x00\x00\x00@\x00\x00\x00\x00\x00\x00\x04@\x00\x00\x00\x00\x00\x00\x14@\x00\x00\x00\x00\x00\x00$@'
p3483
tp3484
bsS'_prune'
p3485
NsS'_extended_steps'
p3486
g132
(g133
(I0
tp3487
g135
tp3488
Rp3489
(I1
(I10
tp3490
g59
I00
S'\x9a\x99\x99\x99\x99\x99\xb9?\x9a\x99\x99\x99\x99\x99\xc9?\x00\x00\x00\x00\x00\x00\xd0?\x00\x00\x00\x00\x00\x00\xe0?\x00\x00\x00\x00\x00\x00\xf0?\x00\x00\x00\x00\x00\x00\x00@\x00\x00\x00\x00\x00\x00\x04@\x00\x00\x00\x00\x00\x00\x14@\x00\x00\x00\x00\x00\x00$@\x00\x00\x00\x00\x00\x004@'
p3491
tp3492
bsS'_integer'
p3493
I00
sg1996
g3465
sbsg2054
g0
(g3124
g2
Ntp3494
Rp3495
(dp3496
g3128
g3129
sg3130
I0
sg3131
I01
sg3132
I00
sg3133
g7
sg3134
I00
sg3135
I4
sg3136
I0
sg1540
I00
sg3137
I01
sg1996
g3465
sbsbsg2000
I00
sg2001
g0
(g2002
g2
Ntp3497
Rp3498
sg9
g4
sg8
I01
sg2005
I00
sg10
Nsg42
Nsg2006
I00
sg17
g18
sg20
I01
sg23
Nsg2007
g0
(g1481
g2
Ntp3499
Rp3500
(dp3501
g6
g7
sg8
I01
sg9
g4
sg10
Nsg1485
g0
(g1486
g2
Ntp3502
Rp3503
(dp3504
g1490
(lp3505
g1492
asg1493
Nsg1494
g1495
sg1496
g1495
sg1497
F10.0
sg1498
I400
sg1499
g1495
sbsg42
Nsg17
g18
sg1500
Nsg20
I01
sg23
Nsg75
F0.5
sg76
I0
sg24
Nsg25
Nsg11
Nsg28
I00
sg29
I00
sg30
(dp3506
sg1502
Nsg32
I00
sg1147
Nsg88
Nsg1146
Nsg1503
Nsg33
Nsg96
Nsg86
I01
sg1504
g2247
sg1506
V
p3507
sg1508
Nsg103
g0
(g104
g105
((lp3508
(lp3509
tp3510
tp3511
Rp3512
sg111
I0
sg1514
Nsg112
I01
sg114
Nsg1515
F1.2
sg115
g422
sg1540
I00
sg1541
I00
sg43
Nsg1279
g2254
sg1543
Vleft
p3513
sg34
Nsbsg24
Nsg25
Nsg11
Nsg2025
g0
(g1481
g2
Ntp3514
Rp3515
(dp3516
g6
g7
sg8
I01
sg9
g4
sg10
Nsg1485
g0
(g1486
g2
Ntp3517
Rp3518
(dp3519
g1490
(lp3520
g1492
asg1493
Nsg1494
g1495
sg1496
g1495
sg1497
F12.0
sg1498
I400
sg1499
g1495
sbsg42
Nsg17
g18
sg1500
Nsg20
I01
sg23
Nsg75
F0.5
sg76
I0
sg24
Nsg25
Nsg11
Nsg28
I00
sg29
I00
sg30
(dp3521
sg1502
Nsg32
I00
sg1147
Nsg88
Nsg1146
Nsg1503
Vanchor
p3522
sg33
Nsg96
Nsg86
I01
sg1504
Vbottom
p3523
sg1506
V$R^2$ values
p3524
sg1508
Nsg103
g0
(g104
g105
((lp3525
(lp3526
tp3527
tp3528
Rp3529
sg111
I0
sg1514
g2272
sg112
I01
sg114
Nsg1515
F1.2
sg115
g574
sg1540
I00
sg1541
I00
sg43
Nsg1279
g2041
sg1543
Vcenter
p3530
sg34
Nsbsg28
I00
sg2043
I01
sg29
I00
sg30
(dp3531
sg2045
Nsg32
I00
sg2046
g0
(g1975
g2
Ntp3532
Rp3533
(dp3534
g1979
g0
(g2050
g2
Ntp3535
Rp3536
(dp3537
g1996
g3465
sbsg2054
g0
(g2055
g2
Ntp3538
Rp3539
(dp3540
g1996
g3465
sbsbsg1147
g1206
sg2285
(dp3541
g2287
I01
sg2288
I00
sg2289
I00
sg2290
I01
sg2291
I00
ssg2292
I01
sg88
g308
sg33
Nsg2293
I00
sg2294
I1
sg2295
F4.0
sg2296
(lp3542
g0
(g2298
g2
Ntp3543
Rp3544
(dp3545
g6
g7
sg40
F0.8
sg9
g4
sg2302
I01
sg8
I01
sg10
Nsg111
I0
sg42
Nsg2303
F3.5
sg2304
g2254
sg2305
I00
sg1497
F0.0
sg17
g18
sg2306
g2307
sg2025
g0
(g1481
g2
Ntp3546
Rp3547
(dp3548
g6
g7
sg8
I01
sg9
g4
sg10
Nsg1485
g0
(g1486
g2
Ntp3549
Rp3550
(dp3551
g1490
(lp3552
g1492
asg1493
Nsg1494
g1495
sg1496
g1495
sg1497
F10.0
sg1498
I400
sg1499
g1495
sbsg42
Nsg17
g18
sg1500
Nsg20
I01
sg23
Nsg75
I0
sg76
I0
sg24
Nsg25
Nsg11
Nsg28
I00
sg29
I00
sg30
(dp3553
sg1502
Nsg32
I00
sg1147
Nsg88
Nsg1146
Nsg1503
Nsg33
Nsg96
Nsg86
I01
sg1504
g2316
sg1506
V
p3554
sg1508
Nsg103
g0
(g104
g105
((lp3555
(lp3556
tp3557
tp3558
Rp3559
sg111
I0
sg1514
Nsg112
I01
sg114
Nsg1515
F1.2
sg115
g633
sg1540
I00
sg1541
I00
sg43
Nsg1279
g2254
sg1543
g2323
sg34
Nsbsg20
I01
sg23
Nsg2324
I00
sg24
Nsg25
Nsg11
Nsg2325
I00
sg28
I00
sg29
I00
sg30
(dp3560
sg2327
(I0
I1
tp3561
sg32
I00
sg2329
F2.01
sg1147
g1206
sg2330
I01
sg88
Nsg1146
Nsg2331
g3547
sg2332
g0
(g1481
g2
Ntp3562
Rp3563
(dp3564
g6
g7
sg8
I01
sg9
g4
sg10
Nsg1485
g0
(g1486
g2
Ntp3565
Rp3566
(dp3567
g1490
(lp3568
g1492
asg1493
Nsg1494
g1495
sg1496
g1495
sg1497
F10.0
sg1498
I400
sg1499
g1495
sbsg42
Nsg17
g18
sg1500
Nsg20
I01
sg23
Nsg75
I0
sg76
I1
sg24
Nsg25
Nsg11
Nsg28
I00
sg29
I00
sg30
(dp3569
sg1502
Nsg32
I00
sg1147
Nsg88
Nsg1146
Nsg1503
Nsg33
Nsg96
Nsg86
I01
sg1504
g2316
sg1506
V
p3570
sg1508
Nsg103
g0
(g104
g105
((lp3571
(lp3572
tp3573
tp3574
Rp3575
sg111
I0
sg1514
Nsg112
I01
sg114
Nsg1515
F1.2
sg115
g656
sg1540
I00
sg1541
I00
sg43
Nsg1279
g2254
sg1543
g2347
sg34
Nsbsg96
Nsg2348
I0
sg86
I01
sg103
g0
(g104
g105
((lp3576
(lp3577
tp3578
tp3579
Rp3580
sg2354
F3.5
sg2355
g0
(g1227
g2
Ntp3581
Rp3582
(dp3583
g6
g7
sg1232
g1233
sg1234
Nsg20
I01
sg1235
Nsg1236
I0
sg75
Nsg76
Nsg24
Nsg11
Nsg29
I00
sg30
(dp3584
sg32
I00
sg1147
Nsg1238
F0.8
sg1239
Nsg1240
g1241
sg1242
g1243
sg96
Nsg86
I01
sg1244
g2360
sg111
I0
sg112
I01
sg1251
I01
sg1252
I01
sg115
g625
sg1278
Nsg2361
F2.01
sg1279
g2254
sg1280
I5
sg9
g4
sg1287
Nsg10
Nsg42
Nsg17
g18
sg1289
g1290
sg23
Nsg25
Nsg28
I00
sg1291
Nsg34
Nsg1292
Nsg1293
g0
(g1294
g2
Ntp3585
Rp3586
(dp3587
g1293
I0
sg1299
Nsg1300
F1.0
sg115
g0
(g157
g2
Ntp3588
Rp3589
(dp3590
g49
I2
sg50
Nsg120
g132
(g133
(I0
tp3591
g135
tp3592
Rp3593
(I1
(I3
I3
tp3594
g59
I00
S'\x00\x00\x00\x00\x00\x00\xf0\xbf\x00\x00\x00\x00\x00\x00\x00\x00\x00\x00\x00\x00\x00\x00\x00\x00\x00\x00\x00\x00\x00\x00\x00\x00\x00\x00\x00\x00\x00\x00\xf0?\x00\x00\x00\x00\x00\x00\x00\x00\x00\x00\x00\x00\x00\x00\x00\x00\x00\x00\x00\x00\x00\x00\x00\x00\x00\x00\x00\x00\x00\x00\xf0?'
p3595
tp3596
bsg51
g7
sg52
(dp3597
sbsg1305
I00
sg1306
g1307
sg1308
Nsg1144
g1309
sg99
g1310
sg1311
g2376
sbsg1329
g1330
sg88
Nsg33
Nsg92
I01
sg1331
Nsg101
g2384
sg103
g0
(g104
g105
((lp3598
(lp3599
tp3600
tp3601
Rp3602
sg1338
I00
sg1339
g1340
sg1341
g1290
sg1342
Nsg114
Nsg1343
g1290
sg1344
F0.0
sg8
I01
sg1288
Nsg43
Nsg1146
Nsg1346
(I0
tp3603
sg87
F1.0
sg1311
Nsbsg112
I00
sg2391
g0
(g1227
g2
Ntp3604
Rp3605
(dp3606
g6
g7
sg8
I01
sg1341
g1290
sg9
g4
sg1232
g1233
sg1234
Nsg10
Nsg42
Nsg17
g18
sg1289
g1290
sg20
I01
sg1235
Nsg23
Nsg75
g132
(g133
(I0
tp3607
g135
tp3608
Rp3609
(I1
(I2
tp3610
g59
I00
S'\x00\x00\x00\x00\x00\x00\x00\x00\x00\x00\x00\x00\x00\x00\x00\x00'
p3611
tp3612
bsg76
g132
(g133
(I0
tp3613
g135
tp3614
Rp3615
(I1
(I2
tp3616
g59
I00
S'\x00\x00\x00\x00\x00\x00\x00\x00\x00\x00\x00\x00\x00\x00\xf0?'
p3617
tp3618
bsg24
Nsg25
Nsg11
Nsg1244
g2408
sg28
I00
sg1291
Nsg29
I00
sg30
(dp3619
sg1287
Nsg32
I00
sg1338
I00
sg1147
Nsg1292
Nsg1238
F1.0
sg1329
g1330
sg1239
Nsg1279
g2409
sg1293
g0
(g1294
g2
Ntp3620
Rp3621
(dp3622
g1293
g1298
sg1299
Nsg1300
Nsg115
g0
(g45
g2
Ntp3623
Rp3624
(dp3625
g49
I1
sg50
Nsg51
g7
sg52
(dp3626
sbsg1305
I00
sg1306
g1307
sg1308
Nsg1144
g1309
sg99
g1310
sg1311
g0
(g1312
g2
Ntp3627
Rp3628
(dp3629
g1316
I00
sg1317
Nsg1318
g132
(g133
(I0
tp3630
g135
tp3631
Rp3632
(I1
(I0
I2
tp3633
g59
I00
g1323
tp3634
bsg1325
I00
sg1326
F0.1111111111111111
sg1327
I1
sg1328
I00
sbsbsg33
Nsg1240
g1241
sg92
I01
sg1242
g1243
sg96
Nsg1344
F0.0
sg86
I01
sg1331
g132
(g133
(I0
tp3635
g135
tp3636
Rp3637
(I1
(I2
I2
tp3638
g59
I00
S'\x00\x00\x00\x00\x00\x00\x00\x00\x00\x00\x00\x00\x00\x00\x00\x00\x00\x00\x00\x00\x00\x00\xf0?\x00\x00\x00\x00\x00\x00\x00\x00'
p3639
tp3640
bsg101
g2431
sg103
g0
(g104
g105
((lp3641
(lp3642
tp3643
tp3644
Rp3645
sg111
I0
sg1339
g1340
sg1236
I0
sg1342
Nsg1280
I5
sg112
I01
sg114
F1.0
sg1343
g1290
sg1252
I00
sg115
g184
sg1288
Nsg1278
Nsg1251
I00
sg43
Nsg1146
Nsg1346
g2437
sg88
Nsg87
F0.8
sg34
Nsg1311
g0
(g1312
g2
Ntp3646
Rp3647
(dp3648
g1316
I00
sg1317
Nsg1318
g3637
sg1325
I00
sg1326
F0.1111111111111111
sg1327
I180
sg1328
I00
sbsbsg114
Nsg33
Nsg2441
g0
(g1227
g2
Ntp3649
Rp3650
(dp3651
g6
g7
sg1232
g1233
sg1234
Nsg20
I01
sg1235
Nsg1236
I0
sg75
Nsg76
Nsg24
Nsg11
Nsg29
I00
sg30
(dp3652
sg32
I00
sg1147
Nsg1238
F0.8
sg1239
Nsg1240
g1241
sg1242
g1243
sg96
Nsg86
I01
sg1244
g2446
sg111
I0
sg112
I01
sg1251
I01
sg1252
I01
sg115
g184
sg1278
Nsg2361
F2.01
sg1279
g2254
sg1280
I5
sg9
g4
sg1287
Nsg10
Nsg42
Nsg17
g18
sg1289
g1290
sg23
Nsg25
Nsg28
I00
sg1291
Nsg34
Nsg1292
Nsg1293
g0
(g1294
g2
Ntp3653
Rp3654
(dp3655
g1293
I1
sg1299
Nsg1300
F1.0
sg115
g0
(g157
g2
Ntp3656
Rp3657
(dp3658
g49
I2
sg50
Nsg120
g132
(g133
(I0
tp3659
g135
tp3660
Rp3661
(I1
(I3
I3
tp3662
g59
I00
S'\x00\x00\x00\x00\x00\x00\xf0?\x00\x00\x00\x00\x00\x00\x00\x00\x00\x00\x00\x00\x00\x00\x00\x00\x00\x00\x00\x00\x00\x00\x00\x00\x00\x00\x00\x00\x00\x00\xf0?\x00\x00\x00\x00\x00\x00\x00\x00\x00\x00\x00\x00\x00\x00\x00\x00\x00\x00\x00\x00\x00\x00\x00\x00\x00\x00\x00\x00\x00\x00\xf0?'
p3663
tp3664
bsg51
g7
sg52
(dp3665
sbsg1305
I00
sg1306
g1307
sg1308
Nsg1144
g1309
sg99
g1310
sg1311
g2376
sbsg1329
g1330
sg88
Nsg33
Nsg92
I01
sg1331
Nsg101
g2460
sg103
g0
(g104
g105
((lp3666
(lp3667
tp3668
tp3669
Rp3670
sg1338
I00
sg1339
g1340
sg1341
g1290
sg1342
Nsg114
Nsg1343
g1290
sg1344
F0.0
sg8
I01
sg1288
Nsg43
Nsg1146
Nsg1346
(I0
tp3671
sg87
F1.0
sg1311
Nsbsg115
Nsg2467
F10.0
sg2468
g2469
sg43
Nsg1279
g2254
sg34
Nsbasg2470
I01
sg1154
g0
(g1155
g2
Ntp3672
Rp3673
I01
bsg96
Nsg86
I01
sg2473
I01
sg103
g0
(g104
g105
((lp3674
(lp3675
tp3676
tp3677
Rp3678
sg111
I0
sg2479
I1
sg2480
Nsg112
I00
sg114
Nsg2481
g2482
sg115
Nsg2483
Vleft
p3679
sg43
Nsg1146
Nsg1280
I15
sg2485
(lp3680
g0
(g2298
g2
Ntp3681
Rp3682
(dp3683
g6
g7
sg40
F0.6
sg9
g4
sg2302
I01
sg8
I01
sg10
Nsg111
I0
sg42
Nsg2303
F3.4
sg2304
g2254
sg2305
I00
sg1497
F0.0
sg17
g18
sg2306
g2307
sg2025
g0
(g1481
g2
Ntp3684
Rp3685
(dp3686
g6
g7
sg8
I01
sg9
g4
sg10
Nsg1485
g0
(g1486
g2
Ntp3687
Rp3688
(dp3689
g1490
(lp3690
g1492
asg1493
Nsg1494
g1495
sg1496
g1495
sg1497
F10.0
sg1498
I400
sg1499
g1495
sbsg42
Nsg17
g18
sg1500
Nsg20
I01
sg23
Nsg75
I0
sg76
I0
sg24
Nsg25
Nsg11
Nsg28
I00
sg29
I00
sg30
(dp3691
sg1502
Nsg32
I00
sg1147
Nsg88
Nsg1146
Nsg1503
Nsg33
Nsg96
Nsg86
I01
sg1504
g2316
sg1506
V
p3692
sg1508
Nsg103
g0
(g104
g105
((lp3693
(lp3694
tp3695
tp3696
Rp3697
sg111
I0
sg1514
Nsg112
I01
sg114
Nsg1515
F1.2
sg115
g647
sg1540
I00
sg1541
I00
sg43
Nsg1279
g2254
sg1543
g2323
sg34
Nsbsg20
I01
sg23
Nsg2324
I00
sg24
Nsg25
Nsg11
Nsg2325
I00
sg28
I00
sg29
I00
sg30
(dp3698
sg2327
(I0
I1
tp3699
sg32
I00
sg2329
I2
sg1147
g1206
sg2330
I01
sg88
Nsg1146
Nsg2331
g3685
sg2332
g0
(g1481
g2
Ntp3700
Rp3701
(dp3702
g6
g7
sg8
I01
sg9
g4
sg10
Nsg1485
g0
(g1486
g2
Ntp3703
Rp3704
(dp3705
g1490
(lp3706
g1492
asg1493
Nsg1494
g1495
sg1496
g1495
sg1497
F10.0
sg1498
I400
sg1499
g1495
sbsg42
Nsg17
g18
sg1500
Nsg20
I01
sg23
Nsg75
I0
sg76
I1
sg24
Nsg25
Nsg11
Nsg28
I00
sg29
I00
sg30
(dp3707
sg1502
Nsg32
I00
sg1147
Nsg88
Nsg1146
Nsg1503
Nsg33
Nsg96
Nsg86
I01
sg1504
g2316
sg1506
V
p3708
sg1508
Nsg103
g0
(g104
g105
((lp3709
(lp3710
tp3711
tp3712
Rp3713
sg111
I0
sg1514
Nsg112
I01
sg114
Nsg1515
F1.2
sg115
g178
sg1540
I00
sg1541
I00
sg43
Nsg1279
g2254
sg1543
g2347
sg34
Nsbsg96
Nsg2348
I0
sg86
I01
sg103
g0
(g104
g105
((lp3714
(lp3715
tp3716
tp3717
Rp3718
sg2354
F3.4
sg2355
g0
(g1227
g2
Ntp3719
Rp3720
(dp3721
g6
g7
sg1232
g1233
sg1234
Nsg20
I01
sg1235
Nsg1236
I0
sg75
Nsg76
Nsg24
Nsg11
Nsg29
I00
sg30
(dp3722
sg32
I00
sg1147
Nsg1238
F0.6
sg1239
Nsg1240
g1241
sg1242
g1243
sg96
Nsg86
I01
sg1244
g2360
sg111
I0
sg112
I01
sg1251
I01
sg1252
I01
sg115
g642
sg1278
Nsg2361
I2
sg1279
g2254
sg1280
I5
sg9
g4
sg1287
Nsg10
Nsg42
Nsg17
g18
sg1289
g1290
sg23
Nsg25
Nsg28
I00
sg1291
Nsg34
Nsg1292
Nsg1293
g0
(g1294
g2
Ntp3723
Rp3724
(dp3725
g1293
I0
sg1299
Nsg1300
F1.0
sg115
g0
(g157
g2
Ntp3726
Rp3727
(dp3728
g49
I2
sg50
Nsg120
g132
(g133
(I0
tp3729
g135
tp3730
Rp3731
(I1
(I3
I3
tp3732
g59
I00
S'\x00\x00\x00\x00\x00\x00\xf0\xbf\x00\x00\x00\x00\x00\x00\x00\x00\x00\x00\x00\x00\x00\x00\x00\x00\x00\x00\x00\x00\x00\x00\x00\x00\x00\x00\x00\x00\x00\x00\xf0?\x00\x00\x00\x00\x00\x00\x00\x00\x00\x00\x00\x00\x00\x00\x00\x00\x00\x00\x00\x00\x00\x00\x00\x00\x00\x00\x00\x00\x00\x00\xf0?'
p3733
tp3734
bsg51
g7
sg52
(dp3735
sbsg1305
I00
sg1306
g1307
sg1308
Nsg1144
g1309
sg99
g1310
sg1311
g2376
sbsg1329
g1330
sg88
Nsg33
Nsg92
I01
sg1331
Nsg101
g2384
sg103
g0
(g104
g105
((lp3736
(lp3737
tp3738
tp3739
Rp3740
sg1338
I00
sg1339
g1340
sg1341
g1290
sg1342
Nsg114
Nsg1343
g1290
sg1344
F0.0
sg8
I01
sg1288
Nsg43
Nsg1146
Nsg1346
(I0
tp3741
sg87
F1.0
sg1311
Nsbsg112
I00
sg2391
g0
(g1227
g2
Ntp3742
Rp3743
(dp3744
g6
g7
sg8
I01
sg1341
g1290
sg9
g4
sg1232
g1233
sg1234
Nsg10
Nsg42
Nsg17
g18
sg1289
g1290
sg20
I01
sg1235
Nsg23
Nsg75
g132
(g133
(I0
tp3745
g135
tp3746
Rp3747
(I1
(I2
tp3748
g59
I00
S'\x00\x00\x00\x00\x00\x00\x00\x00\x00\x00\x00\x00\x00\x00\x00\x00'
p3749
tp3750
bsg76
g132
(g133
(I0
tp3751
g135
tp3752
Rp3753
(I1
(I2
tp3754
g59
I00
S'\x00\x00\x00\x00\x00\x00\x00\x00\x00\x00\x00\x00\x00\x00\xf0?'
p3755
tp3756
bsg24
Nsg25
Nsg11
Nsg1244
g2408
sg28
I00
sg1291
Nsg29
I00
sg30
(dp3757
sg1287
Nsg32
I00
sg1338
I00
sg1147
Nsg1292
Nsg1238
F1.0
sg1329
g1330
sg1239
Nsg1279
g2409
sg1293
g0
(g1294
g2
Ntp3758
Rp3759
(dp3760
g1293
g1298
sg1299
Nsg1300
Nsg115
g0
(g45
g2
Ntp3761
Rp3762
(dp3763
g49
I1
sg50
Nsg51
g7
sg52
(dp3764
sbsg1305
I00
sg1306
g1307
sg1308
Nsg1144
g1309
sg99
g1310
sg1311
g0
(g1312
g2
Ntp3765
Rp3766
(dp3767
g1316
I00
sg1317
Nsg1318
g132
(g133
(I0
tp3768
g135
tp3769
Rp3770
(I1
(I0
I2
tp3771
g59
I00
g1323
tp3772
bsg1325
I00
sg1326
F0.1111111111111111
sg1327
I1
sg1328
I00
sbsbsg33
Nsg1240
g1241
sg92
I01
sg1242
g1243
sg96
Nsg1344
F0.0
sg86
I01
sg1331
g132
(g133
(I0
tp3773
g135
tp3774
Rp3775
(I1
(I2
I2
tp3776
g59
I00
S'\x00\x00\x00\x00\x00\x00\x00\x00\x00\x00\x00\x00\x00\x00\x00\x00\x00\x00\x00\x00\x00\x00\xf0?\x00\x00\x00\x00\x00\x00\x00\x00'
p3777
tp3778
bsg101
g2431
sg103
g0
(g104
g105
((lp3779
(lp3780
tp3781
tp3782
Rp3783
sg111
I0
sg1339
g1340
sg1236
I0
sg1342
Nsg1280
I5
sg112
I01
sg114
F1.0
sg1343
g1290
sg1252
I00
sg115
g184
sg1288
Nsg1278
Nsg1251
I00
sg43
Nsg1146
Nsg1346
g2437
sg88
Nsg87
F0.8
sg34
Nsg1311
g0
(g1312
g2
Ntp3784
Rp3785
(dp3786
g1316
I00
sg1317
Nsg1318
g3775
sg1325
I00
sg1326
F0.1111111111111111
sg1327
I180
sg1328
I00
sbsbsg114
Nsg33
Nsg2441
g0
(g1227
g2
Ntp3787
Rp3788
(dp3789
g6
g7
sg1232
g1233
sg1234
Nsg20
I01
sg1235
Nsg1236
I0
sg75
Nsg76
Nsg24
Nsg11
Nsg29
I00
sg30
(dp3790
sg32
I00
sg1147
Nsg1238
F0.6
sg1239
Nsg1240
g1241
sg1242
g1243
sg96
Nsg86
I01
sg1244
g2446
sg111
I0
sg112
I01
sg1251
I01
sg1252
I01
sg115
g184
sg1278
Nsg2361
I2
sg1279
g2254
sg1280
I5
sg9
g4
sg1287
Nsg10
Nsg42
Nsg17
g18
sg1289
g1290
sg23
Nsg25
Nsg28
I00
sg1291
Nsg34
Nsg1292
Nsg1293
g0
(g1294
g2
Ntp3791
Rp3792
(dp3793
g1293
I1
sg1299
Nsg1300
F1.0
sg115
g0
(g157
g2
Ntp3794
Rp3795
(dp3796
g49
I2
sg50
Nsg120
g132
(g133
(I0
tp3797
g135
tp3798
Rp3799
(I1
(I3
I3
tp3800
g59
I00
S'\x00\x00\x00\x00\x00\x00\xf0?\x00\x00\x00\x00\x00\x00\x00\x00\x00\x00\x00\x00\x00\x00\x00\x00\x00\x00\x00\x00\x00\x00\x00\x00\x00\x00\x00\x00\x00\x00\xf0?\x00\x00\x00\x00\x00\x00\x00\x00\x00\x00\x00\x00\x00\x00\x00\x00\x00\x00\x00\x00\x00\x00\x00\x00\x00\x00\x00\x00\x00\x00\xf0?'
p3801
tp3802
bsg51
g7
sg52
(dp3803
sbsg1305
I00
sg1306
g1307
sg1308
Nsg1144
g1309
sg99
g1310
sg1311
g2376
sbsg1329
g1330
sg88
Nsg33
Nsg92
I01
sg1331
Nsg101
g2460
sg103
g0
(g104
g105
((lp3804
(lp3805
tp3806
tp3807
Rp3808
sg1338
I00
sg1339
g1340
sg1341
g1290
sg1342
Nsg114
Nsg1343
g1290
sg1344
F0.0
sg8
I01
sg1288
Nsg43
Nsg1146
Nsg1346
g3671
sg87
F1.0
sg1311
Nsbsg115
Nsg2467
F10.0
sg2468
g2469
sg43
Nsg1279
g2254
sg34
Nsbasg34
Nsg2615
(dp3809
g2287
I01
sg2289
I00
sg2290
I01
sg2291
I00
ssg2617
I01
sbsg2618
I00
sg8
I01
sg2619
(lp3810
g0
(g1227
g2
Ntp3811
Rp3812
(dp3813
g6
g1231
sg1217
I2
sg1232
g1233
sg1234
Nsg20
I01
sg1235
Nsg1236
I0
sg75
g132
(g133
(I0
tp3814
g135
tp3815
Rp3816
(I1
(I6
tp3817
g59
I00
S'\x8b\x80\x94JvZ\xe4?\xf7I\xea\xf9oM\xed?\xc2a\x9f\x1a\x9c\xda\xea?\x04\xae\xbf]A\xcc\xeb?\xc2\xb5\xd0C\x7f\x88\xe8?y\x1a\xd1\x92%\x9f\xee?'
p3818
tp3819
bsg76
g132
(g133
(I0
tp3820
g135
tp3821
Rp3822
(I1
(I6
tp3823
g59
I00
S'\x00\x00\x00\x00\x00\x00\xf0?\x00\x00\x00\x00\x00\x00\x00@\x00\x00\x00\x00\x00\x00\x08@\x00\x00\x00\x00\x00\x00\x14@\x00\x00\x00\x00\x00\x00\x1c@\x00\x00\x00\x00\x00\x00"@'
p3824
tp3825
bsg24
Nsg11
Nsg29
I00
sg30
(dp3826
sg32
I00
sg1147
g1206
sg1238
F1.0
sg1239
Nsg1240
g1241
sg1242
g1243
sg96
Nsg86
I01
sg1244
g132
(g133
(I0
tp3827
g135
tp3828
Rp3829
(I1
(I6
tp3830
g1991
I00
S'\x01\x00\x00\x00\x00\x00\x00\x00\x02\x00\x00\x00\x00\x00\x00\x00\x03\x00\x00\x00\x00\x00\x00\x00\x05\x00\x00\x00\x00\x00\x00\x00\x07\x00\x00\x00\x00\x00\x00\x00\t\x00\x00\x00\x00\x00\x00\x00'
p3831
tp3832
bsg111
I0
sg112
I01
sg1251
I00
sg1252
I00
sg115
g187
sg1278
Nsg1279
g135
sg1280
I5
sg9
g4
sg1287
Nsg10
Nsg1288
Nsg42
Nsg17
g18
sg1289
g1290
sg23
Nsg25
Nsg28
I00
sg1291
Nsg34
Nsg1292
Nsg1293
g0
(g1294
g2
Ntp3833
Rp3834
(dp3835
g1293
g1298
sg1299
Nsg1300
Nsg115
g0
(g45
g2
Ntp3836
Rp3837
(dp3838
g49
I1
sg50
Nsg51
g7
sg52
(dp3839
sbsg1305
I00
sg1306
g1307
sg1308
Nsg1144
g1309
sg99
g1310
sg1311
g0
(g1312
g2
Ntp3840
Rp3841
(dp3842
g1316
I00
sg1317
Nsg1318
g132
(g133
(I0
tp3843
g135
tp3844
Rp3845
(I1
(I0
I2
tp3846
g59
I00
g1323
tp3847
bsg1325
I00
sg1326
F0.1111111111111111
sg1327
I1
sg1328
I00
sbsbsg1329
g1330
sg88
g474
sg33
Nsg92
I01
sg1331
g132
(g133
(I0
tp3848
g135
tp3849
Rp3850
(I1
(I6
I2
tp3851
g59
I00
S'\x00\x00\x00\x00\x00\x00\xf0?\x8b\x80\x94JvZ\xe4?\x00\x00\x00\x00\x00\x00\x00@\xf7I\xea\xf9oM\xed?\x00\x00\x00\x00\x00\x00\x08@\xc2a\x9f\x1a\x9c\xda\xea?\x00\x00\x00\x00\x00\x00\x14@\x04\xae\xbf]A\xcc\xeb?\x00\x00\x00\x00\x00\x00\x1c@\xc2\xb5\xd0C\x7f\x88\xe8?\x00\x00\x00\x00\x00\x00"@y\x1a\xd1\x92%\x9f\xee?'
p3852
tp3853
bsg101
g1368
sg103
g0
(g104
g105
((lp3854
(lp3855
tp3856
tp3857
Rp3858
sg1338
I00
sg1339
g1340
sg1341
g1290
sg1342
Nsg114
Nsg1343
g1290
sg1344
F10.0
sg8
I01
sg1345
I2
sg43
Nsg1146
Nsg1346
g132
(g133
(I0
tp3859
g135
tp3860
Rp3861
(I1
(I6
tp3862
g59
I00
S'\x8b\x80\x94JvZ\xe4?\xf7I\xea\xf9oM\xed?\xc2a\x9f\x1a\x9c\xda\xea?\x04\xae\xbf]A\xcc\xeb?\xc2\xb5\xd0C\x7f\x88\xe8?y\x1a\xd1\x92%\x9f\xee?'
p3863
tp3864
bsg87
F1.0
sg1311
g0
(g1312
g2
Ntp3865
Rp3866
(dp3867
g1316
I00
sg1317
Nsg1318
g3850
sg1325
I00
sg1326
F0.1111111111111111
sg1327
I1
sg1328
I00
sbsbasg1345
I1
sg2678
g2679
((lp3868
(lp3869
g2682
ag0
(g2683
g2
Ntp3870
Rp3871
(dp3872
g6
g7
sg2006
I00
sg41
I01
sg9
g4
sg2687
Nsg8
I01
sg10
Nsg42
Nsg17
g18
sg43
Nsg20
I01
sg1996
g3465
sg44
g0
(g45
g2
Ntp3873
Rp3874
(dp3875
g49
I1
sg50
Nsg51
g7
sg52
(dp3876
sbsg54
g2692
sg23
Nsg24
Nsg77
g2693
sg11
Nsg28
I00
sg29
I00
sg30
(dp3877
sg1142
(NNtp3878
sg1940
g2697
sg32
I00
sg85
Nsg86
I01
sg87
F1.25
sg2698
g2699
sg33
Nsg90
g2692
sg91
Nsg92
I01
sg93
Nsg94
g2700
sg96
Nsg97
g1919
sg99
g100
sg2701
g0
(g45
g2
Ntp3879
Rp3880
(dp3881
g49
I1
sg50
Nsg51
g7
sg52
(dp3882
sbsg101
g102
sg103
g0
(g104
g105
((lp3883
(lp3884
tp3885
tp3886
Rp3887
sg111
I0
sg2711
(g2712
g616
tp3888
sg112
I01
sg114
Nsg2714
g2682
sg115
g621
sg88
Nsg2361
F2.5
sg1144
g2715
sg1146
Nsg25
Nsg1147
g1206
sg34
Nsg1311
g0
(g1312
g2
Ntp3889
Rp3890
(dp3891
g1316
I00
sg1317
Nsg1318
g132
(g133
(I0
tp3892
g135
tp3893
Rp3894
(I1
(I2
I2
tp3895
g59
I00
S'\x00\x00\x00\x00\x00\x00\x00\x00\x00\x00\x00\x00\x00\x00*@\x00\x00\x00\x00\x00\x00\x00\x00\x00\x00\x00\x00\x00\x00*@'
p3896
tp3897
bsg1325
I00
sg1326
F0.1111111111111111
sg1327
I1
sg1328
I00
sbsbaa(lp3898
g2726
ag0
(g2683
g2
Ntp3899
Rp3900
(dp3901
g6
g7
sg2006
I00
sg41
I01
sg9
g4
sg2687
Nsg8
I00
sg10
Nsg42
Nsg17
g18
sg43
Nsg20
I01
sg1996
g3465
sg44
g0
(g45
g2
Ntp3902
Rp3903
(dp3904
g49
I1
sg50
Nsg51
g7
sg52
(dp3905
sbsg54
g2692
sg23
Nsg24
Nsg77
g2693
sg11
Nsg28
I00
sg29
I00
sg30
(dp3906
sg1142
(NNtp3907
sg1940
g2737
sg32
I00
sg85
Nsg86
I01
sg87
F1.25
sg2698
g2699
sg33
Nsg90
g2692
sg91
Nsg92
I01
sg93
Nsg94
g2700
sg96
Nsg97
g1919
sg99
g100
sg2701
g0
(g45
g2
Ntp3908
Rp3909
(dp3910
g49
I1
sg50
Nsg51
g7
sg52
(dp3911
sbsg101
g102
sg103
g0
(g104
g105
((lp3912
(lp3913
tp3914
tp3915
Rp3916
sg111
I0
sg2711
(g2747
g0
(g45
g2
Ntp3917
Rp3918
(dp3919
g49
I1
sg50
Nsg51
g7
sg52
(dp3920
sbtp3921
sg112
I01
sg114
Nsg2714
g2726
sg115
g184
sg88
Nsg2361
F2.5
sg1144
g2715
sg1146
Nsg25
Nsg1147
g1206
sg34
Nsg1311
g0
(g1312
g2
Ntp3922
Rp3923
(dp3924
g1316
I00
sg1317
Nsg1318
g132
(g133
(I0
tp3925
g135
tp3926
Rp3927
(I1
(I2
I2
tp3928
g59
I00
S'\x00\x00\x00\x00\x00\x00\xf0?\x00\x00\x00\x00\x00\x00*@\x00\x00\x00\x00\x00\x00\xf0?\x00\x00\x00\x00\x00\x00*@'
p3929
tp3930
bsg1325
I00
sg1326
F0.1111111111111111
sg1327
I1
sg1328
I00
sbsbaa(lp3931
g2763
ag0
(g2683
g2
Ntp3932
Rp3933
(dp3934
g6
g7
sg2006
I00
sg41
I01
sg9
g4
sg2687
Nsg8
I01
sg10
Nsg42
Nsg17
g18
sg43
Nsg20
I01
sg1996
g1972
sg44
g0
(g45
g2
Ntp3935
Rp3936
(dp3937
g49
I1
sg50
Nsg51
g7
sg52
(dp3938
sbsg54
g2692
sg23
Nsg24
Nsg77
g2693
sg11
Nsg28
I00
sg29
I00
sg30
(dp3939
sg1142
(NNtp3940
sg1940
g2773
sg32
I00
sg85
Nsg86
I01
sg87
F1.25
sg2698
g2699
sg33
Nsg90
g2692
sg91
Nsg92
I01
sg93
Nsg94
g2700
sg96
Nsg97
g1919
sg99
g100
sg2701
g0
(g45
g2
Ntp3941
Rp3942
(dp3943
g49
I1
sg50
Nsg51
g7
sg52
(dp3944
sbsg101
g102
sg103
g0
(g104
g105
((lp3945
(lp3946
tp3947
tp3948
Rp3949
sg111
I0
sg2711
(g2712
g516
tp3950
sg112
I01
sg114
Nsg2714
g2763
sg115
g521
sg88
Nsg2361
F2.5
sg1144
g2715
sg1146
Nsg25
Nsg1147
g1206
sg34
Nsg1311
g0
(g1312
g2
Ntp3951
Rp3952
(dp3953
g1316
I00
sg1317
Nsg1318
g132
(g133
(I0
tp3954
g135
tp3955
Rp3956
(I1
(I2
I2
tp3957
g59
I00
S'\x00\x00\x00\x00\x00\x00*@\x00\x00\x00\x00\x00\x00\x00\x00\x00\x00\x00\x00\x00\x00*@\x00\x00\x00\x00\x00\x00\x00\x00'
p3958
tp3959
bsg1325
I00
sg1326
F0.1111111111111111
sg1327
I1
sg1328
I00
sbsbaa(lp3960
g2794
ag0
(g2683
g2
Ntp3961
Rp3962
(dp3963
g6
g7
sg2006
I00
sg41
I01
sg9
g4
sg2687
Nsg8
I00
sg10
Nsg42
Nsg17
g18
sg43
Nsg20
I01
sg1996
g1972
sg44
g0
(g45
g2
Ntp3964
Rp3965
(dp3966
g49
I1
sg50
Nsg51
g7
sg52
(dp3967
sbsg54
g2692
sg23
Nsg24
Nsg77
g2693
sg11
Nsg28
I00
sg29
I00
sg30
(dp3968
sg1142
(NNtp3969
sg1940
g2737
sg32
I00
sg85
Nsg86
I01
sg87
F1.25
sg2698
g2699
sg33
Nsg90
g2692
sg91
Nsg92
I01
sg93
Nsg94
g2700
sg96
Nsg97
g1919
sg99
g100
sg2701
g0
(g45
g2
Ntp3970
Rp3971
(dp3972
g49
I1
sg50
Nsg51
g7
sg52
(dp3973
sbsg101
g102
sg103
g0
(g104
g105
((lp3974
(lp3975
tp3976
tp3977
Rp3978
sg111
I0
sg2711
(g2747
g0
(g45
g2
Ntp3979
Rp3980
(dp3981
g49
I1
sg50
Nsg51
g7
sg52
(dp3982
sbtp3983
sg112
I01
sg114
Nsg2714
g2794
sg115
g508
sg88
Nsg2361
F2.5
sg1144
g2715
sg1146
Nsg25
Nsg1147
g1206
sg34
Nsg1311
g0
(g1312
g2
Ntp3984
Rp3985
(dp3986
g1316
I00
sg1317
Nsg1318
g132
(g133
(I0
tp3987
g135
tp3988
Rp3989
(I1
(I2
I2
tp3990
g59
I00
S'\x00\x00\x00\x00\x00\x00*@\x00\x00\x00\x00\x00\x00\xf0?\x00\x00\x00\x00\x00\x00*@\x00\x00\x00\x00\x00\x00\xf0?'
p3991
tp3992
bsg1325
I00
sg1326
F0.1111111111111111
sg1327
I1
sg1328
I00
sbsbaatp3993
Rp3994
sg2829
g2830
sg43
Nsg1146
Nsg2831
I01
sbtp3995
tp3996
a(((g2062
tp3997
(ttp3998
(I2
g2062
tp3999
tp4000
asS'_ind'
p4001
I2
sS'_pos'
p4002
I1
sbsg115
Nsg2619
(lp4003
sg1911
g38
sS'subplotpars'
p4004
g0
(cmatplotlib.figure
SubplotParams
p4005
g2
Ntp4006
Rp4007
(dp4008
g1190
F0.9
sg1192
F0.125
sg1193
F0.88
sg1194
F0.2
sS'validate'
p4009
I01
sg1196
F0.2
sg1198
F0.125
sbsg43
Nsg1146
NsS'bbox_inches'
p4010
g129
sS'transFigure'
p4011
g118
sS'_dpi'
p4012
F72.0
sb.